
<input>:     file format elf64-x86-64


Disassembly of section .text:

0000000000000000 <list_iter>:
   0:	55                   	push   rbp
   1:	48 89 e5             	mov    rbp,rsp
   4:	48 83 ec 40          	sub    rsp,0x40
   8:	4c 89 64 24 20       	mov    QWORD PTR [rsp+0x20],r12
   d:	4c 89 6c 24 28       	mov    QWORD PTR [rsp+0x28],r13
  12:	4c 89 74 24 30       	mov    QWORD PTR [rsp+0x30],r14
  17:	48 89 5c 24 38       	mov    QWORD PTR [rsp+0x38],rbx
  1c:	49 89 fe             	mov    r14,rdi
  1f:	49 89 d4             	mov    r12,rdx
  22:	4c 8b 2e             	mov    r13,QWORD PTR [rsi]
  25:	48 8b 46 08          	mov    rax,QWORD PTR [rsi+0x8]
  29:	48 89 f7             	mov    rdi,rsi
  2c:	48 83 c7 10          	add    rdi,0x10
  30:	48 89 c1             	mov    rcx,rax
  33:	ba 01 00 00 00       	mov    edx,0x1
  38:	48 39 d1             	cmp    rcx,rdx
  3b:	0f 85 0e 00 00 00    	jne    4f <list_iter+0x4f>
  41:	41 be 01 00 00 00    	mov    r14d,0x1
  47:	48 31 f6             	xor    rsi,rsi
  4a:	e9 7b 00 00 00       	jmp    ca <list_iter+0xca>
  4f:	48 8b 58 08          	mov    rbx,QWORD PTR [rax+0x8]
  53:	48 8b 38             	mov    rdi,QWORD PTR [rax]
  56:	48 b8 00 00 00 00 00 	movabs rax,0x0
  5d:	00 00 00 
			58: R_X86_64_64	callback_return_addr
  60:	48 89 f1             	mov    rcx,rsi
  63:	48 83 c1 f0          	add    rcx,0xfffffffffffffff0
  67:	48 89 7e f0          	mov    QWORD PTR [rsi-0x10],rdi
  6b:	48 89 46 f8          	mov    QWORD PTR [rsi-0x8],rax
  6f:	bf 01 00 00 00       	mov    edi,0x1
  74:	48 89 3e             	mov    QWORD PTR [rsi],rdi
  77:	bf 01 00 00 00       	mov    edi,0x1
  7c:	48 89 7e 08          	mov    QWORD PTR [rsi+0x8],rdi
  80:	4c 89 ef             	mov    rdi,r13
  83:	48 31 f6             	xor    rsi,rsi
  86:	4c 89 e2             	mov    rdx,r12
  89:	48 b8 00 00 00 00 00 	movabs rax,0x0
  90:	00 00 00 
			8b: R_X86_64_64	do_callback
  93:	4c 89 2c 24          	mov    QWORD PTR [rsp],r13
  97:	48 89 5c 24 08       	mov    QWORD PTR [rsp+0x8],rbx
  9c:	48 89 7c 24 10       	mov    QWORD PTR [rsp+0x10],rdi
  a1:	4c 89 74 24 18       	mov    QWORD PTR [rsp+0x18],r14
  a6:	ff d0                	call   rax
  a8:	48 8b 5c 24 08       	mov    rbx,QWORD PTR [rsp+0x8]
  ad:	4c 8b 2c 24          	mov    r13,QWORD PTR [rsp]
  b1:	4c 8b 74 24 18       	mov    r14,QWORD PTR [rsp+0x18]
  b6:	48 89 d7             	mov    rdi,rdx
  b9:	48 83 c7 f0          	add    rdi,0xfffffffffffffff0
  bd:	4c 89 6a f0          	mov    QWORD PTR [rdx-0x10],r13
  c1:	48 89 5a f8          	mov    QWORD PTR [rdx-0x8],rbx
  c5:	be 02 00 00 00       	mov    esi,0x2
  ca:	49 89 3c 24          	mov    QWORD PTR [r12],rdi
  ce:	4c 89 f0             	mov    rax,r14
  d1:	48 89 f2             	mov    rdx,rsi
  d4:	4c 8b 64 24 20       	mov    r12,QWORD PTR [rsp+0x20]
  d9:	4c 8b 6c 24 28       	mov    r13,QWORD PTR [rsp+0x28]
  de:	4c 8b 74 24 30       	mov    r14,QWORD PTR [rsp+0x30]
  e3:	48 8b 5c 24 38       	mov    rbx,QWORD PTR [rsp+0x38]
  e8:	48 83 c4 40          	add    rsp,0x40
  ec:	48 89 ec             	mov    rsp,rbp
  ef:	5d                   	pop    rbp
  f0:	c3                   	ret    
