
<input>:     file format elf64-x86-64


Disassembly of section .text:

0000000000000000 <closure>:
   0:	55                   	push   rbp
   1:	48 89 e5             	mov    rbp,rsp
   4:	48 83 ec 30          	sub    rsp,0x30
   8:	4c 89 64 24 10       	mov    QWORD PTR [rsp+0x10],r12
   d:	4c 89 6c 24 18       	mov    QWORD PTR [rsp+0x18],r13
  12:	4c 89 74 24 20       	mov    QWORD PTR [rsp+0x20],r14
  17:	49 89 f6             	mov    r14,rsi
  1a:	49 bc 00 00 00 00 00 	movabs r12,0x0
  21:	00 00 00 
			1c: R_X86_64_64	caml_state_addr
  24:	4d 8b ac 24 98 00 00 	mov    r13,QWORD PTR [r12+0x98]
  2b:	00 
  2c:	48 c7 c6 e8 ff ff ff 	mov    rsi,0xffffffffffffffe8
  33:	49 03 34 24          	add    rsi,QWORD PTR [r12]
  37:	49 89 34 24          	mov    QWORD PTR [r12],rsi
  3b:	49 8b 7c 24 08       	mov    rdi,QWORD PTR [r12+0x8]
  40:	48 39 fe             	cmp    rsi,rdi
  43:	0f 83 2a 00 00 00    	jae    73 <closure+0x73>
  49:	bf 02 00 00 00       	mov    edi,0x2
  4e:	be 11 00 00 00       	mov    esi,0x11
  53:	ba 01 00 00 00       	mov    edx,0x1
  58:	48 31 c9             	xor    rcx,rcx
  5b:	48 b8 00 00 00 00 00 	movabs rax,0x0
  62:	00 00 00 
			5d: R_X86_64_64	caml_alloc_small_dispatch
  65:	4c 89 34 24          	mov    QWORD PTR [rsp],r14
  69:	ff d0                	call   rax
  6b:	4c 8b 34 24          	mov    r14,QWORD PTR [rsp]
  6f:	49 8b 34 24          	mov    rsi,QWORD PTR [r12]
  73:	bf f7 08 00 00       	mov    edi,0x8f7
  78:	48 89 3e             	mov    QWORD PTR [rsi],rdi
  7b:	48 83 c6 08          	add    rsi,0x8
  7f:	4c 89 76 08          	mov    QWORD PTR [rsi+0x8],r14
  83:	48 89 f7             	mov    rdi,rsi
  86:	b8 ef be ad de       	mov    eax,0xdeadbeef
  8b:	48 89 07             	mov    QWORD PTR [rdi],rax
  8e:	b8 07 00 00 00       	mov    eax,0x7
  93:	4c 89 ef             	mov    rdi,r13
  96:	48 83 c7 f8          	add    rdi,0xfffffffffffffff8
  9a:	49 89 45 f8          	mov    QWORD PTR [r13-0x8],rax
  9e:	49 89 bc 24 98 00 00 	mov    QWORD PTR [r12+0x98],rdi
  a5:	00 
  a6:	ba 01 00 00 00       	mov    edx,0x1
  ab:	48 89 f0             	mov    rax,rsi
  ae:	4c 8b 64 24 10       	mov    r12,QWORD PTR [rsp+0x10]
  b3:	4c 8b 6c 24 18       	mov    r13,QWORD PTR [rsp+0x18]
  b8:	4c 8b 74 24 20       	mov    r14,QWORD PTR [rsp+0x20]
  bd:	48 83 c4 30          	add    rsp,0x30
  c1:	48 89 ec             	mov    rsp,rbp
  c4:	5d                   	pop    rbp
  c5:	c3                   	ret    
