
<input>:     file format elf64-x86-64


Disassembly of section .text:

0000000000000000 <big_makeblock>:
       0:	55                   	push   rbp
       1:	48 89 e5             	mov    rbp,rsp
       4:	48 81 ec 60 08 00 00 	sub    rsp,0x860
       b:	4c 89 a4 24 30 08 00 	mov    QWORD PTR [rsp+0x830],r12
      12:	00 
      13:	4c 89 ac 24 38 08 00 	mov    QWORD PTR [rsp+0x838],r13
      1a:	00 
      1b:	4c 89 b4 24 40 08 00 	mov    QWORD PTR [rsp+0x840],r14
      22:	00 
      23:	48 89 9c 24 48 08 00 	mov    QWORD PTR [rsp+0x848],rbx
      2a:	00 
      2b:	4c 89 bc 24 50 08 00 	mov    QWORD PTR [rsp+0x850],r15
      32:	00 
      33:	48 89 fb             	mov    rbx,rdi
      36:	49 bc 00 00 00 00 00 	movabs r12,0x0
      3d:	00 00 00 
			38: R_X86_64_64	caml_state_addr
      40:	48 83 c6 08          	add    rsi,0x8
      44:	bf 7d 02 00 00       	mov    edi,0x27d
      49:	49 89 b4 24 98 00 00 	mov    QWORD PTR [r12+0x98],rsi
      50:	00 
      51:	48 be 00 00 00 00 00 	movabs rsi,0x0
      58:	00 00 00 
			53: R_X86_64_64	oc_prim92
      5b:	48 89 1c 24          	mov    QWORD PTR [rsp],rbx
      5f:	48 89 7c 24 08       	mov    QWORD PTR [rsp+0x8],rdi
      64:	ff d6                	call   rsi
      66:	48 8b 1c 24          	mov    rbx,QWORD PTR [rsp]
      6a:	49 8b b4 24 98 00 00 	mov    rsi,QWORD PTR [r12+0x98]
      71:	00 
      72:	41 bd 01 00 00 00    	mov    r13d,0x1
      78:	48 8b 7b 08          	mov    rdi,QWORD PTR [rbx+0x8]
      7c:	49 be 00 00 00 00 00 	movabs r14,0x0
      83:	00 00 00 
			7e: R_X86_64_64	callback_return_addr
      86:	49 89 b4 24 98 00 00 	mov    QWORD PTR [r12+0x98],rsi
      8d:	00 
      8e:	4c 89 6e e0          	mov    QWORD PTR [rsi-0x20],r13
      92:	4c 89 76 e8          	mov    QWORD PTR [rsi-0x18],r14
      96:	b8 01 00 00 00       	mov    eax,0x1
      9b:	48 89 46 f0          	mov    QWORD PTR [rsi-0x10],rax
      9f:	b8 01 00 00 00       	mov    eax,0x1
      a4:	48 89 46 f8          	mov    QWORD PTR [rsi-0x8],rax
      a8:	48 31 f6             	xor    rsi,rsi
      ab:	48 b8 00 00 00 00 00 	movabs rax,0x0
      b2:	00 00 00 
			ad: R_X86_64_64	do_callback
      b5:	48 89 1c 24          	mov    QWORD PTR [rsp],rbx
      b9:	48 89 7c 24 08       	mov    QWORD PTR [rsp+0x8],rdi
      be:	4c 89 6c 24 10       	mov    QWORD PTR [rsp+0x10],r13
      c3:	ff d0                	call   rax
      c5:	48 8b 1c 24          	mov    rbx,QWORD PTR [rsp]
      c9:	4c 8b 6c 24 10       	mov    r13,QWORD PTR [rsp+0x10]
      ce:	48 89 c6             	mov    rsi,rax
      d1:	48 89 34 24          	mov    QWORD PTR [rsp],rsi
      d5:	49 8b b4 24 98 00 00 	mov    rsi,QWORD PTR [r12+0x98]
      dc:	00 
      dd:	48 8b 7b 08          	mov    rdi,QWORD PTR [rbx+0x8]
      e1:	49 89 b4 24 98 00 00 	mov    QWORD PTR [r12+0x98],rsi
      e8:	00 
      e9:	4c 89 6e e0          	mov    QWORD PTR [rsi-0x20],r13
      ed:	4c 89 76 e8          	mov    QWORD PTR [rsi-0x18],r14
      f1:	b8 01 00 00 00       	mov    eax,0x1
      f6:	48 89 46 f0          	mov    QWORD PTR [rsi-0x10],rax
      fa:	b8 01 00 00 00       	mov    eax,0x1
      ff:	48 89 46 f8          	mov    QWORD PTR [rsi-0x8],rax
     103:	48 31 f6             	xor    rsi,rsi
     106:	48 b8 00 00 00 00 00 	movabs rax,0x0
     10d:	00 00 00 
			108: R_X86_64_64	do_callback
     110:	48 89 5c 24 08       	mov    QWORD PTR [rsp+0x8],rbx
     115:	48 89 7c 24 10       	mov    QWORD PTR [rsp+0x10],rdi
     11a:	4c 89 6c 24 18       	mov    QWORD PTR [rsp+0x18],r13
     11f:	ff d0                	call   rax
     121:	48 8b 5c 24 08       	mov    rbx,QWORD PTR [rsp+0x8]
     126:	4c 8b 6c 24 18       	mov    r13,QWORD PTR [rsp+0x18]
     12b:	48 89 c6             	mov    rsi,rax
     12e:	48 89 74 24 08       	mov    QWORD PTR [rsp+0x8],rsi
     133:	49 8b b4 24 98 00 00 	mov    rsi,QWORD PTR [r12+0x98]
     13a:	00 
     13b:	48 8b 7b 08          	mov    rdi,QWORD PTR [rbx+0x8]
     13f:	49 89 b4 24 98 00 00 	mov    QWORD PTR [r12+0x98],rsi
     146:	00 
     147:	4c 89 6e e0          	mov    QWORD PTR [rsi-0x20],r13
     14b:	4c 89 76 e8          	mov    QWORD PTR [rsi-0x18],r14
     14f:	b8 01 00 00 00       	mov    eax,0x1
     154:	48 89 46 f0          	mov    QWORD PTR [rsi-0x10],rax
     158:	b8 01 00 00 00       	mov    eax,0x1
     15d:	48 89 46 f8          	mov    QWORD PTR [rsi-0x8],rax
     161:	48 31 f6             	xor    rsi,rsi
     164:	48 b8 00 00 00 00 00 	movabs rax,0x0
     16b:	00 00 00 
			166: R_X86_64_64	do_callback
     16e:	48 89 5c 24 10       	mov    QWORD PTR [rsp+0x10],rbx
     173:	48 89 7c 24 18       	mov    QWORD PTR [rsp+0x18],rdi
     178:	4c 89 6c 24 20       	mov    QWORD PTR [rsp+0x20],r13
     17d:	ff d0                	call   rax
     17f:	48 8b 5c 24 10       	mov    rbx,QWORD PTR [rsp+0x10]
     184:	4c 8b 6c 24 20       	mov    r13,QWORD PTR [rsp+0x20]
     189:	48 89 c6             	mov    rsi,rax
     18c:	48 89 74 24 10       	mov    QWORD PTR [rsp+0x10],rsi
     191:	49 8b b4 24 98 00 00 	mov    rsi,QWORD PTR [r12+0x98]
     198:	00 
     199:	48 8b 7b 08          	mov    rdi,QWORD PTR [rbx+0x8]
     19d:	49 89 b4 24 98 00 00 	mov    QWORD PTR [r12+0x98],rsi
     1a4:	00 
     1a5:	4c 89 6e e0          	mov    QWORD PTR [rsi-0x20],r13
     1a9:	4c 89 76 e8          	mov    QWORD PTR [rsi-0x18],r14
     1ad:	b8 01 00 00 00       	mov    eax,0x1
     1b2:	48 89 46 f0          	mov    QWORD PTR [rsi-0x10],rax
     1b6:	b8 01 00 00 00       	mov    eax,0x1
     1bb:	48 89 46 f8          	mov    QWORD PTR [rsi-0x8],rax
     1bf:	48 31 f6             	xor    rsi,rsi
     1c2:	48 b8 00 00 00 00 00 	movabs rax,0x0
     1c9:	00 00 00 
			1c4: R_X86_64_64	do_callback
     1cc:	48 89 5c 24 18       	mov    QWORD PTR [rsp+0x18],rbx
     1d1:	48 89 7c 24 20       	mov    QWORD PTR [rsp+0x20],rdi
     1d6:	4c 89 6c 24 28       	mov    QWORD PTR [rsp+0x28],r13
     1db:	ff d0                	call   rax
     1dd:	48 8b 5c 24 18       	mov    rbx,QWORD PTR [rsp+0x18]
     1e2:	4c 8b 6c 24 28       	mov    r13,QWORD PTR [rsp+0x28]
     1e7:	48 89 c6             	mov    rsi,rax
     1ea:	48 89 74 24 18       	mov    QWORD PTR [rsp+0x18],rsi
     1ef:	49 8b b4 24 98 00 00 	mov    rsi,QWORD PTR [r12+0x98]
     1f6:	00 
     1f7:	48 8b 7b 08          	mov    rdi,QWORD PTR [rbx+0x8]
     1fb:	49 89 b4 24 98 00 00 	mov    QWORD PTR [r12+0x98],rsi
     202:	00 
     203:	4c 89 6e e0          	mov    QWORD PTR [rsi-0x20],r13
     207:	4c 89 76 e8          	mov    QWORD PTR [rsi-0x18],r14
     20b:	b8 01 00 00 00       	mov    eax,0x1
     210:	48 89 46 f0          	mov    QWORD PTR [rsi-0x10],rax
     214:	b8 01 00 00 00       	mov    eax,0x1
     219:	48 89 46 f8          	mov    QWORD PTR [rsi-0x8],rax
     21d:	48 31 f6             	xor    rsi,rsi
     220:	48 b8 00 00 00 00 00 	movabs rax,0x0
     227:	00 00 00 
			222: R_X86_64_64	do_callback
     22a:	48 89 5c 24 20       	mov    QWORD PTR [rsp+0x20],rbx
     22f:	48 89 7c 24 28       	mov    QWORD PTR [rsp+0x28],rdi
     234:	4c 89 6c 24 30       	mov    QWORD PTR [rsp+0x30],r13
     239:	ff d0                	call   rax
     23b:	48 8b 5c 24 20       	mov    rbx,QWORD PTR [rsp+0x20]
     240:	4c 8b 6c 24 30       	mov    r13,QWORD PTR [rsp+0x30]
     245:	48 89 c6             	mov    rsi,rax
     248:	48 89 74 24 20       	mov    QWORD PTR [rsp+0x20],rsi
     24d:	49 8b b4 24 98 00 00 	mov    rsi,QWORD PTR [r12+0x98]
     254:	00 
     255:	48 8b 7b 08          	mov    rdi,QWORD PTR [rbx+0x8]
     259:	49 89 b4 24 98 00 00 	mov    QWORD PTR [r12+0x98],rsi
     260:	00 
     261:	4c 89 6e e0          	mov    QWORD PTR [rsi-0x20],r13
     265:	4c 89 76 e8          	mov    QWORD PTR [rsi-0x18],r14
     269:	b8 01 00 00 00       	mov    eax,0x1
     26e:	48 89 46 f0          	mov    QWORD PTR [rsi-0x10],rax
     272:	b8 01 00 00 00       	mov    eax,0x1
     277:	48 89 46 f8          	mov    QWORD PTR [rsi-0x8],rax
     27b:	48 31 f6             	xor    rsi,rsi
     27e:	48 b8 00 00 00 00 00 	movabs rax,0x0
     285:	00 00 00 
			280: R_X86_64_64	do_callback
     288:	48 89 5c 24 28       	mov    QWORD PTR [rsp+0x28],rbx
     28d:	48 89 7c 24 30       	mov    QWORD PTR [rsp+0x30],rdi
     292:	4c 89 6c 24 38       	mov    QWORD PTR [rsp+0x38],r13
     297:	ff d0                	call   rax
     299:	48 8b 5c 24 28       	mov    rbx,QWORD PTR [rsp+0x28]
     29e:	4c 8b 6c 24 38       	mov    r13,QWORD PTR [rsp+0x38]
     2a3:	48 89 c6             	mov    rsi,rax
     2a6:	48 89 74 24 28       	mov    QWORD PTR [rsp+0x28],rsi
     2ab:	49 8b b4 24 98 00 00 	mov    rsi,QWORD PTR [r12+0x98]
     2b2:	00 
     2b3:	48 8b 7b 08          	mov    rdi,QWORD PTR [rbx+0x8]
     2b7:	49 89 b4 24 98 00 00 	mov    QWORD PTR [r12+0x98],rsi
     2be:	00 
     2bf:	4c 89 6e e0          	mov    QWORD PTR [rsi-0x20],r13
     2c3:	4c 89 76 e8          	mov    QWORD PTR [rsi-0x18],r14
     2c7:	b8 01 00 00 00       	mov    eax,0x1
     2cc:	48 89 46 f0          	mov    QWORD PTR [rsi-0x10],rax
     2d0:	b8 01 00 00 00       	mov    eax,0x1
     2d5:	48 89 46 f8          	mov    QWORD PTR [rsi-0x8],rax
     2d9:	48 31 f6             	xor    rsi,rsi
     2dc:	48 b8 00 00 00 00 00 	movabs rax,0x0
     2e3:	00 00 00 
			2de: R_X86_64_64	do_callback
     2e6:	48 89 5c 24 30       	mov    QWORD PTR [rsp+0x30],rbx
     2eb:	48 89 7c 24 38       	mov    QWORD PTR [rsp+0x38],rdi
     2f0:	4c 89 6c 24 40       	mov    QWORD PTR [rsp+0x40],r13
     2f5:	ff d0                	call   rax
     2f7:	48 8b 5c 24 30       	mov    rbx,QWORD PTR [rsp+0x30]
     2fc:	4c 8b 6c 24 40       	mov    r13,QWORD PTR [rsp+0x40]
     301:	48 89 c6             	mov    rsi,rax
     304:	48 89 74 24 30       	mov    QWORD PTR [rsp+0x30],rsi
     309:	49 8b b4 24 98 00 00 	mov    rsi,QWORD PTR [r12+0x98]
     310:	00 
     311:	48 8b 7b 08          	mov    rdi,QWORD PTR [rbx+0x8]
     315:	49 89 b4 24 98 00 00 	mov    QWORD PTR [r12+0x98],rsi
     31c:	00 
     31d:	4c 89 6e e0          	mov    QWORD PTR [rsi-0x20],r13
     321:	4c 89 76 e8          	mov    QWORD PTR [rsi-0x18],r14
     325:	b8 01 00 00 00       	mov    eax,0x1
     32a:	48 89 46 f0          	mov    QWORD PTR [rsi-0x10],rax
     32e:	b8 01 00 00 00       	mov    eax,0x1
     333:	48 89 46 f8          	mov    QWORD PTR [rsi-0x8],rax
     337:	48 31 f6             	xor    rsi,rsi
     33a:	48 b8 00 00 00 00 00 	movabs rax,0x0
     341:	00 00 00 
			33c: R_X86_64_64	do_callback
     344:	48 89 5c 24 38       	mov    QWORD PTR [rsp+0x38],rbx
     349:	48 89 7c 24 40       	mov    QWORD PTR [rsp+0x40],rdi
     34e:	4c 89 6c 24 48       	mov    QWORD PTR [rsp+0x48],r13
     353:	ff d0                	call   rax
     355:	48 8b 5c 24 38       	mov    rbx,QWORD PTR [rsp+0x38]
     35a:	4c 8b 6c 24 48       	mov    r13,QWORD PTR [rsp+0x48]
     35f:	48 89 c6             	mov    rsi,rax
     362:	48 89 74 24 38       	mov    QWORD PTR [rsp+0x38],rsi
     367:	49 8b b4 24 98 00 00 	mov    rsi,QWORD PTR [r12+0x98]
     36e:	00 
     36f:	48 8b 7b 08          	mov    rdi,QWORD PTR [rbx+0x8]
     373:	49 89 b4 24 98 00 00 	mov    QWORD PTR [r12+0x98],rsi
     37a:	00 
     37b:	4c 89 6e e0          	mov    QWORD PTR [rsi-0x20],r13
     37f:	4c 89 76 e8          	mov    QWORD PTR [rsi-0x18],r14
     383:	b8 01 00 00 00       	mov    eax,0x1
     388:	48 89 46 f0          	mov    QWORD PTR [rsi-0x10],rax
     38c:	b8 01 00 00 00       	mov    eax,0x1
     391:	48 89 46 f8          	mov    QWORD PTR [rsi-0x8],rax
     395:	48 31 f6             	xor    rsi,rsi
     398:	48 b8 00 00 00 00 00 	movabs rax,0x0
     39f:	00 00 00 
			39a: R_X86_64_64	do_callback
     3a2:	48 89 5c 24 40       	mov    QWORD PTR [rsp+0x40],rbx
     3a7:	48 89 7c 24 48       	mov    QWORD PTR [rsp+0x48],rdi
     3ac:	4c 89 6c 24 50       	mov    QWORD PTR [rsp+0x50],r13
     3b1:	ff d0                	call   rax
     3b3:	48 8b 5c 24 40       	mov    rbx,QWORD PTR [rsp+0x40]
     3b8:	4c 8b 6c 24 50       	mov    r13,QWORD PTR [rsp+0x50]
     3bd:	48 89 c6             	mov    rsi,rax
     3c0:	48 89 74 24 40       	mov    QWORD PTR [rsp+0x40],rsi
     3c5:	49 8b b4 24 98 00 00 	mov    rsi,QWORD PTR [r12+0x98]
     3cc:	00 
     3cd:	48 8b 7b 08          	mov    rdi,QWORD PTR [rbx+0x8]
     3d1:	49 89 b4 24 98 00 00 	mov    QWORD PTR [r12+0x98],rsi
     3d8:	00 
     3d9:	4c 89 6e e0          	mov    QWORD PTR [rsi-0x20],r13
     3dd:	4c 89 76 e8          	mov    QWORD PTR [rsi-0x18],r14
     3e1:	b8 01 00 00 00       	mov    eax,0x1
     3e6:	48 89 46 f0          	mov    QWORD PTR [rsi-0x10],rax
     3ea:	b8 01 00 00 00       	mov    eax,0x1
     3ef:	48 89 46 f8          	mov    QWORD PTR [rsi-0x8],rax
     3f3:	48 31 f6             	xor    rsi,rsi
     3f6:	48 b8 00 00 00 00 00 	movabs rax,0x0
     3fd:	00 00 00 
			3f8: R_X86_64_64	do_callback
     400:	48 89 5c 24 48       	mov    QWORD PTR [rsp+0x48],rbx
     405:	48 89 7c 24 50       	mov    QWORD PTR [rsp+0x50],rdi
     40a:	4c 89 6c 24 58       	mov    QWORD PTR [rsp+0x58],r13
     40f:	ff d0                	call   rax
     411:	48 8b 5c 24 48       	mov    rbx,QWORD PTR [rsp+0x48]
     416:	4c 8b 6c 24 58       	mov    r13,QWORD PTR [rsp+0x58]
     41b:	48 89 c6             	mov    rsi,rax
     41e:	48 89 74 24 48       	mov    QWORD PTR [rsp+0x48],rsi
     423:	49 8b b4 24 98 00 00 	mov    rsi,QWORD PTR [r12+0x98]
     42a:	00 
     42b:	48 8b 7b 08          	mov    rdi,QWORD PTR [rbx+0x8]
     42f:	49 89 b4 24 98 00 00 	mov    QWORD PTR [r12+0x98],rsi
     436:	00 
     437:	4c 89 6e e0          	mov    QWORD PTR [rsi-0x20],r13
     43b:	4c 89 76 e8          	mov    QWORD PTR [rsi-0x18],r14
     43f:	b8 01 00 00 00       	mov    eax,0x1
     444:	48 89 46 f0          	mov    QWORD PTR [rsi-0x10],rax
     448:	b8 01 00 00 00       	mov    eax,0x1
     44d:	48 89 46 f8          	mov    QWORD PTR [rsi-0x8],rax
     451:	48 31 f6             	xor    rsi,rsi
     454:	48 b8 00 00 00 00 00 	movabs rax,0x0
     45b:	00 00 00 
			456: R_X86_64_64	do_callback
     45e:	48 89 5c 24 50       	mov    QWORD PTR [rsp+0x50],rbx
     463:	48 89 7c 24 58       	mov    QWORD PTR [rsp+0x58],rdi
     468:	4c 89 6c 24 60       	mov    QWORD PTR [rsp+0x60],r13
     46d:	ff d0                	call   rax
     46f:	48 8b 5c 24 50       	mov    rbx,QWORD PTR [rsp+0x50]
     474:	4c 8b 6c 24 60       	mov    r13,QWORD PTR [rsp+0x60]
     479:	48 89 c6             	mov    rsi,rax
     47c:	48 89 74 24 50       	mov    QWORD PTR [rsp+0x50],rsi
     481:	49 8b b4 24 98 00 00 	mov    rsi,QWORD PTR [r12+0x98]
     488:	00 
     489:	48 8b 7b 08          	mov    rdi,QWORD PTR [rbx+0x8]
     48d:	49 89 b4 24 98 00 00 	mov    QWORD PTR [r12+0x98],rsi
     494:	00 
     495:	4c 89 6e e0          	mov    QWORD PTR [rsi-0x20],r13
     499:	4c 89 76 e8          	mov    QWORD PTR [rsi-0x18],r14
     49d:	b8 01 00 00 00       	mov    eax,0x1
     4a2:	48 89 46 f0          	mov    QWORD PTR [rsi-0x10],rax
     4a6:	b8 01 00 00 00       	mov    eax,0x1
     4ab:	48 89 46 f8          	mov    QWORD PTR [rsi-0x8],rax
     4af:	48 31 f6             	xor    rsi,rsi
     4b2:	48 b8 00 00 00 00 00 	movabs rax,0x0
     4b9:	00 00 00 
			4b4: R_X86_64_64	do_callback
     4bc:	48 89 5c 24 58       	mov    QWORD PTR [rsp+0x58],rbx
     4c1:	48 89 7c 24 60       	mov    QWORD PTR [rsp+0x60],rdi
     4c6:	4c 89 6c 24 68       	mov    QWORD PTR [rsp+0x68],r13
     4cb:	ff d0                	call   rax
     4cd:	48 8b 5c 24 58       	mov    rbx,QWORD PTR [rsp+0x58]
     4d2:	4c 8b 6c 24 68       	mov    r13,QWORD PTR [rsp+0x68]
     4d7:	48 89 c6             	mov    rsi,rax
     4da:	48 89 74 24 58       	mov    QWORD PTR [rsp+0x58],rsi
     4df:	49 8b b4 24 98 00 00 	mov    rsi,QWORD PTR [r12+0x98]
     4e6:	00 
     4e7:	48 8b 7b 08          	mov    rdi,QWORD PTR [rbx+0x8]
     4eb:	49 89 b4 24 98 00 00 	mov    QWORD PTR [r12+0x98],rsi
     4f2:	00 
     4f3:	4c 89 6e e0          	mov    QWORD PTR [rsi-0x20],r13
     4f7:	4c 89 76 e8          	mov    QWORD PTR [rsi-0x18],r14
     4fb:	b8 01 00 00 00       	mov    eax,0x1
     500:	48 89 46 f0          	mov    QWORD PTR [rsi-0x10],rax
     504:	b8 01 00 00 00       	mov    eax,0x1
     509:	48 89 46 f8          	mov    QWORD PTR [rsi-0x8],rax
     50d:	48 31 f6             	xor    rsi,rsi
     510:	48 b8 00 00 00 00 00 	movabs rax,0x0
     517:	00 00 00 
			512: R_X86_64_64	do_callback
     51a:	48 89 5c 24 60       	mov    QWORD PTR [rsp+0x60],rbx
     51f:	48 89 7c 24 68       	mov    QWORD PTR [rsp+0x68],rdi
     524:	4c 89 6c 24 70       	mov    QWORD PTR [rsp+0x70],r13
     529:	ff d0                	call   rax
     52b:	48 8b 5c 24 60       	mov    rbx,QWORD PTR [rsp+0x60]
     530:	4c 8b 6c 24 70       	mov    r13,QWORD PTR [rsp+0x70]
     535:	48 89 c6             	mov    rsi,rax
     538:	48 89 74 24 60       	mov    QWORD PTR [rsp+0x60],rsi
     53d:	49 8b b4 24 98 00 00 	mov    rsi,QWORD PTR [r12+0x98]
     544:	00 
     545:	48 8b 7b 08          	mov    rdi,QWORD PTR [rbx+0x8]
     549:	49 89 b4 24 98 00 00 	mov    QWORD PTR [r12+0x98],rsi
     550:	00 
     551:	4c 89 6e e0          	mov    QWORD PTR [rsi-0x20],r13
     555:	4c 89 76 e8          	mov    QWORD PTR [rsi-0x18],r14
     559:	b8 01 00 00 00       	mov    eax,0x1
     55e:	48 89 46 f0          	mov    QWORD PTR [rsi-0x10],rax
     562:	b8 01 00 00 00       	mov    eax,0x1
     567:	48 89 46 f8          	mov    QWORD PTR [rsi-0x8],rax
     56b:	48 31 f6             	xor    rsi,rsi
     56e:	48 b8 00 00 00 00 00 	movabs rax,0x0
     575:	00 00 00 
			570: R_X86_64_64	do_callback
     578:	48 89 5c 24 68       	mov    QWORD PTR [rsp+0x68],rbx
     57d:	48 89 7c 24 70       	mov    QWORD PTR [rsp+0x70],rdi
     582:	4c 89 6c 24 78       	mov    QWORD PTR [rsp+0x78],r13
     587:	ff d0                	call   rax
     589:	48 8b 5c 24 68       	mov    rbx,QWORD PTR [rsp+0x68]
     58e:	4c 8b 6c 24 78       	mov    r13,QWORD PTR [rsp+0x78]
     593:	48 89 c6             	mov    rsi,rax
     596:	48 89 74 24 68       	mov    QWORD PTR [rsp+0x68],rsi
     59b:	49 8b b4 24 98 00 00 	mov    rsi,QWORD PTR [r12+0x98]
     5a2:	00 
     5a3:	48 8b 7b 08          	mov    rdi,QWORD PTR [rbx+0x8]
     5a7:	49 89 b4 24 98 00 00 	mov    QWORD PTR [r12+0x98],rsi
     5ae:	00 
     5af:	4c 89 6e e0          	mov    QWORD PTR [rsi-0x20],r13
     5b3:	4c 89 76 e8          	mov    QWORD PTR [rsi-0x18],r14
     5b7:	b8 01 00 00 00       	mov    eax,0x1
     5bc:	48 89 46 f0          	mov    QWORD PTR [rsi-0x10],rax
     5c0:	b8 01 00 00 00       	mov    eax,0x1
     5c5:	48 89 46 f8          	mov    QWORD PTR [rsi-0x8],rax
     5c9:	48 31 f6             	xor    rsi,rsi
     5cc:	48 b8 00 00 00 00 00 	movabs rax,0x0
     5d3:	00 00 00 
			5ce: R_X86_64_64	do_callback
     5d6:	48 89 5c 24 70       	mov    QWORD PTR [rsp+0x70],rbx
     5db:	48 89 7c 24 78       	mov    QWORD PTR [rsp+0x78],rdi
     5e0:	4c 89 ac 24 80 00 00 	mov    QWORD PTR [rsp+0x80],r13
     5e7:	00 
     5e8:	ff d0                	call   rax
     5ea:	48 8b 5c 24 70       	mov    rbx,QWORD PTR [rsp+0x70]
     5ef:	4c 8b ac 24 80 00 00 	mov    r13,QWORD PTR [rsp+0x80]
     5f6:	00 
     5f7:	48 89 c6             	mov    rsi,rax
     5fa:	48 89 74 24 70       	mov    QWORD PTR [rsp+0x70],rsi
     5ff:	49 8b b4 24 98 00 00 	mov    rsi,QWORD PTR [r12+0x98]
     606:	00 
     607:	48 8b 7b 08          	mov    rdi,QWORD PTR [rbx+0x8]
     60b:	49 89 b4 24 98 00 00 	mov    QWORD PTR [r12+0x98],rsi
     612:	00 
     613:	4c 89 6e e0          	mov    QWORD PTR [rsi-0x20],r13
     617:	4c 89 76 e8          	mov    QWORD PTR [rsi-0x18],r14
     61b:	b8 01 00 00 00       	mov    eax,0x1
     620:	48 89 46 f0          	mov    QWORD PTR [rsi-0x10],rax
     624:	b8 01 00 00 00       	mov    eax,0x1
     629:	48 89 46 f8          	mov    QWORD PTR [rsi-0x8],rax
     62d:	48 31 f6             	xor    rsi,rsi
     630:	48 b8 00 00 00 00 00 	movabs rax,0x0
     637:	00 00 00 
			632: R_X86_64_64	do_callback
     63a:	48 89 5c 24 78       	mov    QWORD PTR [rsp+0x78],rbx
     63f:	48 89 bc 24 80 00 00 	mov    QWORD PTR [rsp+0x80],rdi
     646:	00 
     647:	4c 89 ac 24 88 00 00 	mov    QWORD PTR [rsp+0x88],r13
     64e:	00 
     64f:	ff d0                	call   rax
     651:	48 8b 5c 24 78       	mov    rbx,QWORD PTR [rsp+0x78]
     656:	4c 8b ac 24 88 00 00 	mov    r13,QWORD PTR [rsp+0x88]
     65d:	00 
     65e:	48 89 c6             	mov    rsi,rax
     661:	48 89 74 24 78       	mov    QWORD PTR [rsp+0x78],rsi
     666:	49 8b b4 24 98 00 00 	mov    rsi,QWORD PTR [r12+0x98]
     66d:	00 
     66e:	48 8b 7b 08          	mov    rdi,QWORD PTR [rbx+0x8]
     672:	49 89 b4 24 98 00 00 	mov    QWORD PTR [r12+0x98],rsi
     679:	00 
     67a:	4c 89 6e e0          	mov    QWORD PTR [rsi-0x20],r13
     67e:	4c 89 76 e8          	mov    QWORD PTR [rsi-0x18],r14
     682:	b8 01 00 00 00       	mov    eax,0x1
     687:	48 89 46 f0          	mov    QWORD PTR [rsi-0x10],rax
     68b:	b8 01 00 00 00       	mov    eax,0x1
     690:	48 89 46 f8          	mov    QWORD PTR [rsi-0x8],rax
     694:	48 31 f6             	xor    rsi,rsi
     697:	48 b8 00 00 00 00 00 	movabs rax,0x0
     69e:	00 00 00 
			699: R_X86_64_64	do_callback
     6a1:	48 89 9c 24 80 00 00 	mov    QWORD PTR [rsp+0x80],rbx
     6a8:	00 
     6a9:	48 89 bc 24 88 00 00 	mov    QWORD PTR [rsp+0x88],rdi
     6b0:	00 
     6b1:	4c 89 ac 24 90 00 00 	mov    QWORD PTR [rsp+0x90],r13
     6b8:	00 
     6b9:	ff d0                	call   rax
     6bb:	48 8b 9c 24 80 00 00 	mov    rbx,QWORD PTR [rsp+0x80]
     6c2:	00 
     6c3:	4c 8b ac 24 90 00 00 	mov    r13,QWORD PTR [rsp+0x90]
     6ca:	00 
     6cb:	48 89 c6             	mov    rsi,rax
     6ce:	48 89 b4 24 80 00 00 	mov    QWORD PTR [rsp+0x80],rsi
     6d5:	00 
     6d6:	49 8b b4 24 98 00 00 	mov    rsi,QWORD PTR [r12+0x98]
     6dd:	00 
     6de:	48 8b 7b 08          	mov    rdi,QWORD PTR [rbx+0x8]
     6e2:	49 89 b4 24 98 00 00 	mov    QWORD PTR [r12+0x98],rsi
     6e9:	00 
     6ea:	4c 89 6e e0          	mov    QWORD PTR [rsi-0x20],r13
     6ee:	4c 89 76 e8          	mov    QWORD PTR [rsi-0x18],r14
     6f2:	b8 01 00 00 00       	mov    eax,0x1
     6f7:	48 89 46 f0          	mov    QWORD PTR [rsi-0x10],rax
     6fb:	b8 01 00 00 00       	mov    eax,0x1
     700:	48 89 46 f8          	mov    QWORD PTR [rsi-0x8],rax
     704:	48 31 f6             	xor    rsi,rsi
     707:	48 b8 00 00 00 00 00 	movabs rax,0x0
     70e:	00 00 00 
			709: R_X86_64_64	do_callback
     711:	48 89 9c 24 88 00 00 	mov    QWORD PTR [rsp+0x88],rbx
     718:	00 
     719:	48 89 bc 24 90 00 00 	mov    QWORD PTR [rsp+0x90],rdi
     720:	00 
     721:	4c 89 ac 24 98 00 00 	mov    QWORD PTR [rsp+0x98],r13
     728:	00 
     729:	ff d0                	call   rax
     72b:	48 8b 9c 24 88 00 00 	mov    rbx,QWORD PTR [rsp+0x88]
     732:	00 
     733:	4c 8b ac 24 98 00 00 	mov    r13,QWORD PTR [rsp+0x98]
     73a:	00 
     73b:	48 89 c6             	mov    rsi,rax
     73e:	48 89 b4 24 88 00 00 	mov    QWORD PTR [rsp+0x88],rsi
     745:	00 
     746:	49 8b b4 24 98 00 00 	mov    rsi,QWORD PTR [r12+0x98]
     74d:	00 
     74e:	48 8b 7b 08          	mov    rdi,QWORD PTR [rbx+0x8]
     752:	49 89 b4 24 98 00 00 	mov    QWORD PTR [r12+0x98],rsi
     759:	00 
     75a:	4c 89 6e e0          	mov    QWORD PTR [rsi-0x20],r13
     75e:	4c 89 76 e8          	mov    QWORD PTR [rsi-0x18],r14
     762:	b8 01 00 00 00       	mov    eax,0x1
     767:	48 89 46 f0          	mov    QWORD PTR [rsi-0x10],rax
     76b:	b8 01 00 00 00       	mov    eax,0x1
     770:	48 89 46 f8          	mov    QWORD PTR [rsi-0x8],rax
     774:	48 31 f6             	xor    rsi,rsi
     777:	48 b8 00 00 00 00 00 	movabs rax,0x0
     77e:	00 00 00 
			779: R_X86_64_64	do_callback
     781:	48 89 9c 24 90 00 00 	mov    QWORD PTR [rsp+0x90],rbx
     788:	00 
     789:	48 89 bc 24 98 00 00 	mov    QWORD PTR [rsp+0x98],rdi
     790:	00 
     791:	4c 89 ac 24 a0 00 00 	mov    QWORD PTR [rsp+0xa0],r13
     798:	00 
     799:	ff d0                	call   rax
     79b:	48 8b 9c 24 90 00 00 	mov    rbx,QWORD PTR [rsp+0x90]
     7a2:	00 
     7a3:	4c 8b ac 24 a0 00 00 	mov    r13,QWORD PTR [rsp+0xa0]
     7aa:	00 
     7ab:	48 89 c6             	mov    rsi,rax
     7ae:	48 89 b4 24 90 00 00 	mov    QWORD PTR [rsp+0x90],rsi
     7b5:	00 
     7b6:	49 8b b4 24 98 00 00 	mov    rsi,QWORD PTR [r12+0x98]
     7bd:	00 
     7be:	48 8b 7b 08          	mov    rdi,QWORD PTR [rbx+0x8]
     7c2:	49 89 b4 24 98 00 00 	mov    QWORD PTR [r12+0x98],rsi
     7c9:	00 
     7ca:	4c 89 6e e0          	mov    QWORD PTR [rsi-0x20],r13
     7ce:	4c 89 76 e8          	mov    QWORD PTR [rsi-0x18],r14
     7d2:	b8 01 00 00 00       	mov    eax,0x1
     7d7:	48 89 46 f0          	mov    QWORD PTR [rsi-0x10],rax
     7db:	b8 01 00 00 00       	mov    eax,0x1
     7e0:	48 89 46 f8          	mov    QWORD PTR [rsi-0x8],rax
     7e4:	48 31 f6             	xor    rsi,rsi
     7e7:	48 b8 00 00 00 00 00 	movabs rax,0x0
     7ee:	00 00 00 
			7e9: R_X86_64_64	do_callback
     7f1:	48 89 9c 24 98 00 00 	mov    QWORD PTR [rsp+0x98],rbx
     7f8:	00 
     7f9:	48 89 bc 24 a0 00 00 	mov    QWORD PTR [rsp+0xa0],rdi
     800:	00 
     801:	4c 89 ac 24 a8 00 00 	mov    QWORD PTR [rsp+0xa8],r13
     808:	00 
     809:	ff d0                	call   rax
     80b:	48 8b 9c 24 98 00 00 	mov    rbx,QWORD PTR [rsp+0x98]
     812:	00 
     813:	4c 8b ac 24 a8 00 00 	mov    r13,QWORD PTR [rsp+0xa8]
     81a:	00 
     81b:	48 89 c6             	mov    rsi,rax
     81e:	48 89 b4 24 98 00 00 	mov    QWORD PTR [rsp+0x98],rsi
     825:	00 
     826:	49 8b b4 24 98 00 00 	mov    rsi,QWORD PTR [r12+0x98]
     82d:	00 
     82e:	48 8b 7b 08          	mov    rdi,QWORD PTR [rbx+0x8]
     832:	49 89 b4 24 98 00 00 	mov    QWORD PTR [r12+0x98],rsi
     839:	00 
     83a:	4c 89 6e e0          	mov    QWORD PTR [rsi-0x20],r13
     83e:	4c 89 76 e8          	mov    QWORD PTR [rsi-0x18],r14
     842:	b8 01 00 00 00       	mov    eax,0x1
     847:	48 89 46 f0          	mov    QWORD PTR [rsi-0x10],rax
     84b:	b8 01 00 00 00       	mov    eax,0x1
     850:	48 89 46 f8          	mov    QWORD PTR [rsi-0x8],rax
     854:	48 31 f6             	xor    rsi,rsi
     857:	48 b8 00 00 00 00 00 	movabs rax,0x0
     85e:	00 00 00 
			859: R_X86_64_64	do_callback
     861:	48 89 9c 24 a0 00 00 	mov    QWORD PTR [rsp+0xa0],rbx
     868:	00 
     869:	48 89 bc 24 a8 00 00 	mov    QWORD PTR [rsp+0xa8],rdi
     870:	00 
     871:	4c 89 ac 24 b0 00 00 	mov    QWORD PTR [rsp+0xb0],r13
     878:	00 
     879:	ff d0                	call   rax
     87b:	48 8b 9c 24 a0 00 00 	mov    rbx,QWORD PTR [rsp+0xa0]
     882:	00 
     883:	4c 8b ac 24 b0 00 00 	mov    r13,QWORD PTR [rsp+0xb0]
     88a:	00 
     88b:	48 89 c6             	mov    rsi,rax
     88e:	48 89 b4 24 a0 00 00 	mov    QWORD PTR [rsp+0xa0],rsi
     895:	00 
     896:	49 8b b4 24 98 00 00 	mov    rsi,QWORD PTR [r12+0x98]
     89d:	00 
     89e:	48 8b 7b 08          	mov    rdi,QWORD PTR [rbx+0x8]
     8a2:	49 89 b4 24 98 00 00 	mov    QWORD PTR [r12+0x98],rsi
     8a9:	00 
     8aa:	4c 89 6e e0          	mov    QWORD PTR [rsi-0x20],r13
     8ae:	4c 89 76 e8          	mov    QWORD PTR [rsi-0x18],r14
     8b2:	b8 01 00 00 00       	mov    eax,0x1
     8b7:	48 89 46 f0          	mov    QWORD PTR [rsi-0x10],rax
     8bb:	b8 01 00 00 00       	mov    eax,0x1
     8c0:	48 89 46 f8          	mov    QWORD PTR [rsi-0x8],rax
     8c4:	48 31 f6             	xor    rsi,rsi
     8c7:	48 b8 00 00 00 00 00 	movabs rax,0x0
     8ce:	00 00 00 
			8c9: R_X86_64_64	do_callback
     8d1:	48 89 9c 24 a8 00 00 	mov    QWORD PTR [rsp+0xa8],rbx
     8d8:	00 
     8d9:	48 89 bc 24 b0 00 00 	mov    QWORD PTR [rsp+0xb0],rdi
     8e0:	00 
     8e1:	4c 89 ac 24 b8 00 00 	mov    QWORD PTR [rsp+0xb8],r13
     8e8:	00 
     8e9:	ff d0                	call   rax
     8eb:	48 8b 9c 24 a8 00 00 	mov    rbx,QWORD PTR [rsp+0xa8]
     8f2:	00 
     8f3:	4c 8b ac 24 b8 00 00 	mov    r13,QWORD PTR [rsp+0xb8]
     8fa:	00 
     8fb:	48 89 c6             	mov    rsi,rax
     8fe:	48 89 b4 24 a8 00 00 	mov    QWORD PTR [rsp+0xa8],rsi
     905:	00 
     906:	49 8b b4 24 98 00 00 	mov    rsi,QWORD PTR [r12+0x98]
     90d:	00 
     90e:	48 8b 7b 08          	mov    rdi,QWORD PTR [rbx+0x8]
     912:	49 89 b4 24 98 00 00 	mov    QWORD PTR [r12+0x98],rsi
     919:	00 
     91a:	4c 89 6e e0          	mov    QWORD PTR [rsi-0x20],r13
     91e:	4c 89 76 e8          	mov    QWORD PTR [rsi-0x18],r14
     922:	b8 01 00 00 00       	mov    eax,0x1
     927:	48 89 46 f0          	mov    QWORD PTR [rsi-0x10],rax
     92b:	b8 01 00 00 00       	mov    eax,0x1
     930:	48 89 46 f8          	mov    QWORD PTR [rsi-0x8],rax
     934:	48 31 f6             	xor    rsi,rsi
     937:	48 b8 00 00 00 00 00 	movabs rax,0x0
     93e:	00 00 00 
			939: R_X86_64_64	do_callback
     941:	48 89 9c 24 b0 00 00 	mov    QWORD PTR [rsp+0xb0],rbx
     948:	00 
     949:	48 89 bc 24 b8 00 00 	mov    QWORD PTR [rsp+0xb8],rdi
     950:	00 
     951:	4c 89 ac 24 c0 00 00 	mov    QWORD PTR [rsp+0xc0],r13
     958:	00 
     959:	ff d0                	call   rax
     95b:	48 8b 9c 24 b0 00 00 	mov    rbx,QWORD PTR [rsp+0xb0]
     962:	00 
     963:	4c 8b ac 24 c0 00 00 	mov    r13,QWORD PTR [rsp+0xc0]
     96a:	00 
     96b:	48 89 c6             	mov    rsi,rax
     96e:	48 89 b4 24 b0 00 00 	mov    QWORD PTR [rsp+0xb0],rsi
     975:	00 
     976:	49 8b b4 24 98 00 00 	mov    rsi,QWORD PTR [r12+0x98]
     97d:	00 
     97e:	48 8b 7b 08          	mov    rdi,QWORD PTR [rbx+0x8]
     982:	49 89 b4 24 98 00 00 	mov    QWORD PTR [r12+0x98],rsi
     989:	00 
     98a:	4c 89 6e e0          	mov    QWORD PTR [rsi-0x20],r13
     98e:	4c 89 76 e8          	mov    QWORD PTR [rsi-0x18],r14
     992:	b8 01 00 00 00       	mov    eax,0x1
     997:	48 89 46 f0          	mov    QWORD PTR [rsi-0x10],rax
     99b:	b8 01 00 00 00       	mov    eax,0x1
     9a0:	48 89 46 f8          	mov    QWORD PTR [rsi-0x8],rax
     9a4:	48 31 f6             	xor    rsi,rsi
     9a7:	48 b8 00 00 00 00 00 	movabs rax,0x0
     9ae:	00 00 00 
			9a9: R_X86_64_64	do_callback
     9b1:	48 89 9c 24 b8 00 00 	mov    QWORD PTR [rsp+0xb8],rbx
     9b8:	00 
     9b9:	48 89 bc 24 c0 00 00 	mov    QWORD PTR [rsp+0xc0],rdi
     9c0:	00 
     9c1:	4c 89 ac 24 c8 00 00 	mov    QWORD PTR [rsp+0xc8],r13
     9c8:	00 
     9c9:	ff d0                	call   rax
     9cb:	48 8b 9c 24 b8 00 00 	mov    rbx,QWORD PTR [rsp+0xb8]
     9d2:	00 
     9d3:	4c 8b ac 24 c8 00 00 	mov    r13,QWORD PTR [rsp+0xc8]
     9da:	00 
     9db:	48 89 c6             	mov    rsi,rax
     9de:	48 89 b4 24 b8 00 00 	mov    QWORD PTR [rsp+0xb8],rsi
     9e5:	00 
     9e6:	49 8b b4 24 98 00 00 	mov    rsi,QWORD PTR [r12+0x98]
     9ed:	00 
     9ee:	48 8b 7b 08          	mov    rdi,QWORD PTR [rbx+0x8]
     9f2:	49 89 b4 24 98 00 00 	mov    QWORD PTR [r12+0x98],rsi
     9f9:	00 
     9fa:	4c 89 6e e0          	mov    QWORD PTR [rsi-0x20],r13
     9fe:	4c 89 76 e8          	mov    QWORD PTR [rsi-0x18],r14
     a02:	b8 01 00 00 00       	mov    eax,0x1
     a07:	48 89 46 f0          	mov    QWORD PTR [rsi-0x10],rax
     a0b:	b8 01 00 00 00       	mov    eax,0x1
     a10:	48 89 46 f8          	mov    QWORD PTR [rsi-0x8],rax
     a14:	48 31 f6             	xor    rsi,rsi
     a17:	48 b8 00 00 00 00 00 	movabs rax,0x0
     a1e:	00 00 00 
			a19: R_X86_64_64	do_callback
     a21:	48 89 9c 24 c0 00 00 	mov    QWORD PTR [rsp+0xc0],rbx
     a28:	00 
     a29:	48 89 bc 24 c8 00 00 	mov    QWORD PTR [rsp+0xc8],rdi
     a30:	00 
     a31:	4c 89 ac 24 d0 00 00 	mov    QWORD PTR [rsp+0xd0],r13
     a38:	00 
     a39:	ff d0                	call   rax
     a3b:	48 8b 9c 24 c0 00 00 	mov    rbx,QWORD PTR [rsp+0xc0]
     a42:	00 
     a43:	4c 8b ac 24 d0 00 00 	mov    r13,QWORD PTR [rsp+0xd0]
     a4a:	00 
     a4b:	48 89 c6             	mov    rsi,rax
     a4e:	48 89 b4 24 c0 00 00 	mov    QWORD PTR [rsp+0xc0],rsi
     a55:	00 
     a56:	49 8b b4 24 98 00 00 	mov    rsi,QWORD PTR [r12+0x98]
     a5d:	00 
     a5e:	48 8b 7b 08          	mov    rdi,QWORD PTR [rbx+0x8]
     a62:	49 89 b4 24 98 00 00 	mov    QWORD PTR [r12+0x98],rsi
     a69:	00 
     a6a:	4c 89 6e e0          	mov    QWORD PTR [rsi-0x20],r13
     a6e:	4c 89 76 e8          	mov    QWORD PTR [rsi-0x18],r14
     a72:	b8 01 00 00 00       	mov    eax,0x1
     a77:	48 89 46 f0          	mov    QWORD PTR [rsi-0x10],rax
     a7b:	b8 01 00 00 00       	mov    eax,0x1
     a80:	48 89 46 f8          	mov    QWORD PTR [rsi-0x8],rax
     a84:	48 31 f6             	xor    rsi,rsi
     a87:	48 b8 00 00 00 00 00 	movabs rax,0x0
     a8e:	00 00 00 
			a89: R_X86_64_64	do_callback
     a91:	48 89 9c 24 c8 00 00 	mov    QWORD PTR [rsp+0xc8],rbx
     a98:	00 
     a99:	48 89 bc 24 d0 00 00 	mov    QWORD PTR [rsp+0xd0],rdi
     aa0:	00 
     aa1:	4c 89 ac 24 d8 00 00 	mov    QWORD PTR [rsp+0xd8],r13
     aa8:	00 
     aa9:	ff d0                	call   rax
     aab:	48 8b 9c 24 c8 00 00 	mov    rbx,QWORD PTR [rsp+0xc8]
     ab2:	00 
     ab3:	4c 8b ac 24 d8 00 00 	mov    r13,QWORD PTR [rsp+0xd8]
     aba:	00 
     abb:	48 89 c6             	mov    rsi,rax
     abe:	48 89 b4 24 c8 00 00 	mov    QWORD PTR [rsp+0xc8],rsi
     ac5:	00 
     ac6:	49 8b b4 24 98 00 00 	mov    rsi,QWORD PTR [r12+0x98]
     acd:	00 
     ace:	48 8b 7b 08          	mov    rdi,QWORD PTR [rbx+0x8]
     ad2:	49 89 b4 24 98 00 00 	mov    QWORD PTR [r12+0x98],rsi
     ad9:	00 
     ada:	4c 89 6e e0          	mov    QWORD PTR [rsi-0x20],r13
     ade:	4c 89 76 e8          	mov    QWORD PTR [rsi-0x18],r14
     ae2:	b8 01 00 00 00       	mov    eax,0x1
     ae7:	48 89 46 f0          	mov    QWORD PTR [rsi-0x10],rax
     aeb:	b8 01 00 00 00       	mov    eax,0x1
     af0:	48 89 46 f8          	mov    QWORD PTR [rsi-0x8],rax
     af4:	48 31 f6             	xor    rsi,rsi
     af7:	48 b8 00 00 00 00 00 	movabs rax,0x0
     afe:	00 00 00 
			af9: R_X86_64_64	do_callback
     b01:	48 89 9c 24 d0 00 00 	mov    QWORD PTR [rsp+0xd0],rbx
     b08:	00 
     b09:	48 89 bc 24 d8 00 00 	mov    QWORD PTR [rsp+0xd8],rdi
     b10:	00 
     b11:	4c 89 ac 24 e0 00 00 	mov    QWORD PTR [rsp+0xe0],r13
     b18:	00 
     b19:	ff d0                	call   rax
     b1b:	48 8b 9c 24 d0 00 00 	mov    rbx,QWORD PTR [rsp+0xd0]
     b22:	00 
     b23:	4c 8b ac 24 e0 00 00 	mov    r13,QWORD PTR [rsp+0xe0]
     b2a:	00 
     b2b:	48 89 c6             	mov    rsi,rax
     b2e:	48 89 b4 24 d0 00 00 	mov    QWORD PTR [rsp+0xd0],rsi
     b35:	00 
     b36:	49 8b b4 24 98 00 00 	mov    rsi,QWORD PTR [r12+0x98]
     b3d:	00 
     b3e:	48 8b 7b 08          	mov    rdi,QWORD PTR [rbx+0x8]
     b42:	49 89 b4 24 98 00 00 	mov    QWORD PTR [r12+0x98],rsi
     b49:	00 
     b4a:	4c 89 6e e0          	mov    QWORD PTR [rsi-0x20],r13
     b4e:	4c 89 76 e8          	mov    QWORD PTR [rsi-0x18],r14
     b52:	b8 01 00 00 00       	mov    eax,0x1
     b57:	48 89 46 f0          	mov    QWORD PTR [rsi-0x10],rax
     b5b:	b8 01 00 00 00       	mov    eax,0x1
     b60:	48 89 46 f8          	mov    QWORD PTR [rsi-0x8],rax
     b64:	48 31 f6             	xor    rsi,rsi
     b67:	48 b8 00 00 00 00 00 	movabs rax,0x0
     b6e:	00 00 00 
			b69: R_X86_64_64	do_callback
     b71:	48 89 9c 24 d8 00 00 	mov    QWORD PTR [rsp+0xd8],rbx
     b78:	00 
     b79:	48 89 bc 24 e0 00 00 	mov    QWORD PTR [rsp+0xe0],rdi
     b80:	00 
     b81:	4c 89 ac 24 e8 00 00 	mov    QWORD PTR [rsp+0xe8],r13
     b88:	00 
     b89:	ff d0                	call   rax
     b8b:	48 8b 9c 24 d8 00 00 	mov    rbx,QWORD PTR [rsp+0xd8]
     b92:	00 
     b93:	4c 8b ac 24 e8 00 00 	mov    r13,QWORD PTR [rsp+0xe8]
     b9a:	00 
     b9b:	48 89 c6             	mov    rsi,rax
     b9e:	48 89 b4 24 d8 00 00 	mov    QWORD PTR [rsp+0xd8],rsi
     ba5:	00 
     ba6:	49 8b b4 24 98 00 00 	mov    rsi,QWORD PTR [r12+0x98]
     bad:	00 
     bae:	48 8b 7b 08          	mov    rdi,QWORD PTR [rbx+0x8]
     bb2:	49 89 b4 24 98 00 00 	mov    QWORD PTR [r12+0x98],rsi
     bb9:	00 
     bba:	4c 89 6e e0          	mov    QWORD PTR [rsi-0x20],r13
     bbe:	4c 89 76 e8          	mov    QWORD PTR [rsi-0x18],r14
     bc2:	b8 01 00 00 00       	mov    eax,0x1
     bc7:	48 89 46 f0          	mov    QWORD PTR [rsi-0x10],rax
     bcb:	b8 01 00 00 00       	mov    eax,0x1
     bd0:	48 89 46 f8          	mov    QWORD PTR [rsi-0x8],rax
     bd4:	48 31 f6             	xor    rsi,rsi
     bd7:	48 b8 00 00 00 00 00 	movabs rax,0x0
     bde:	00 00 00 
			bd9: R_X86_64_64	do_callback
     be1:	48 89 9c 24 e0 00 00 	mov    QWORD PTR [rsp+0xe0],rbx
     be8:	00 
     be9:	48 89 bc 24 e8 00 00 	mov    QWORD PTR [rsp+0xe8],rdi
     bf0:	00 
     bf1:	4c 89 ac 24 f0 00 00 	mov    QWORD PTR [rsp+0xf0],r13
     bf8:	00 
     bf9:	ff d0                	call   rax
     bfb:	48 8b 9c 24 e0 00 00 	mov    rbx,QWORD PTR [rsp+0xe0]
     c02:	00 
     c03:	4c 8b ac 24 f0 00 00 	mov    r13,QWORD PTR [rsp+0xf0]
     c0a:	00 
     c0b:	48 89 c6             	mov    rsi,rax
     c0e:	48 89 b4 24 e0 00 00 	mov    QWORD PTR [rsp+0xe0],rsi
     c15:	00 
     c16:	49 8b b4 24 98 00 00 	mov    rsi,QWORD PTR [r12+0x98]
     c1d:	00 
     c1e:	48 8b 7b 08          	mov    rdi,QWORD PTR [rbx+0x8]
     c22:	49 89 b4 24 98 00 00 	mov    QWORD PTR [r12+0x98],rsi
     c29:	00 
     c2a:	4c 89 6e e0          	mov    QWORD PTR [rsi-0x20],r13
     c2e:	4c 89 76 e8          	mov    QWORD PTR [rsi-0x18],r14
     c32:	b8 01 00 00 00       	mov    eax,0x1
     c37:	48 89 46 f0          	mov    QWORD PTR [rsi-0x10],rax
     c3b:	b8 01 00 00 00       	mov    eax,0x1
     c40:	48 89 46 f8          	mov    QWORD PTR [rsi-0x8],rax
     c44:	48 31 f6             	xor    rsi,rsi
     c47:	48 b8 00 00 00 00 00 	movabs rax,0x0
     c4e:	00 00 00 
			c49: R_X86_64_64	do_callback
     c51:	48 89 9c 24 e8 00 00 	mov    QWORD PTR [rsp+0xe8],rbx
     c58:	00 
     c59:	48 89 bc 24 f0 00 00 	mov    QWORD PTR [rsp+0xf0],rdi
     c60:	00 
     c61:	4c 89 ac 24 f8 00 00 	mov    QWORD PTR [rsp+0xf8],r13
     c68:	00 
     c69:	ff d0                	call   rax
     c6b:	48 8b 9c 24 e8 00 00 	mov    rbx,QWORD PTR [rsp+0xe8]
     c72:	00 
     c73:	4c 8b ac 24 f8 00 00 	mov    r13,QWORD PTR [rsp+0xf8]
     c7a:	00 
     c7b:	48 89 c6             	mov    rsi,rax
     c7e:	48 89 b4 24 e8 00 00 	mov    QWORD PTR [rsp+0xe8],rsi
     c85:	00 
     c86:	49 8b b4 24 98 00 00 	mov    rsi,QWORD PTR [r12+0x98]
     c8d:	00 
     c8e:	48 8b 7b 08          	mov    rdi,QWORD PTR [rbx+0x8]
     c92:	49 89 b4 24 98 00 00 	mov    QWORD PTR [r12+0x98],rsi
     c99:	00 
     c9a:	4c 89 6e e0          	mov    QWORD PTR [rsi-0x20],r13
     c9e:	4c 89 76 e8          	mov    QWORD PTR [rsi-0x18],r14
     ca2:	b8 01 00 00 00       	mov    eax,0x1
     ca7:	48 89 46 f0          	mov    QWORD PTR [rsi-0x10],rax
     cab:	b8 01 00 00 00       	mov    eax,0x1
     cb0:	48 89 46 f8          	mov    QWORD PTR [rsi-0x8],rax
     cb4:	48 31 f6             	xor    rsi,rsi
     cb7:	48 b8 00 00 00 00 00 	movabs rax,0x0
     cbe:	00 00 00 
			cb9: R_X86_64_64	do_callback
     cc1:	48 89 9c 24 f0 00 00 	mov    QWORD PTR [rsp+0xf0],rbx
     cc8:	00 
     cc9:	48 89 bc 24 f8 00 00 	mov    QWORD PTR [rsp+0xf8],rdi
     cd0:	00 
     cd1:	4c 89 ac 24 00 01 00 	mov    QWORD PTR [rsp+0x100],r13
     cd8:	00 
     cd9:	ff d0                	call   rax
     cdb:	48 8b 9c 24 f0 00 00 	mov    rbx,QWORD PTR [rsp+0xf0]
     ce2:	00 
     ce3:	4c 8b ac 24 00 01 00 	mov    r13,QWORD PTR [rsp+0x100]
     cea:	00 
     ceb:	48 89 c6             	mov    rsi,rax
     cee:	48 89 b4 24 f0 00 00 	mov    QWORD PTR [rsp+0xf0],rsi
     cf5:	00 
     cf6:	49 8b b4 24 98 00 00 	mov    rsi,QWORD PTR [r12+0x98]
     cfd:	00 
     cfe:	48 8b 7b 08          	mov    rdi,QWORD PTR [rbx+0x8]
     d02:	49 89 b4 24 98 00 00 	mov    QWORD PTR [r12+0x98],rsi
     d09:	00 
     d0a:	4c 89 6e e0          	mov    QWORD PTR [rsi-0x20],r13
     d0e:	4c 89 76 e8          	mov    QWORD PTR [rsi-0x18],r14
     d12:	b8 01 00 00 00       	mov    eax,0x1
     d17:	48 89 46 f0          	mov    QWORD PTR [rsi-0x10],rax
     d1b:	b8 01 00 00 00       	mov    eax,0x1
     d20:	48 89 46 f8          	mov    QWORD PTR [rsi-0x8],rax
     d24:	48 31 f6             	xor    rsi,rsi
     d27:	48 b8 00 00 00 00 00 	movabs rax,0x0
     d2e:	00 00 00 
			d29: R_X86_64_64	do_callback
     d31:	48 89 9c 24 f8 00 00 	mov    QWORD PTR [rsp+0xf8],rbx
     d38:	00 
     d39:	48 89 bc 24 00 01 00 	mov    QWORD PTR [rsp+0x100],rdi
     d40:	00 
     d41:	4c 89 ac 24 08 01 00 	mov    QWORD PTR [rsp+0x108],r13
     d48:	00 
     d49:	ff d0                	call   rax
     d4b:	48 8b 9c 24 f8 00 00 	mov    rbx,QWORD PTR [rsp+0xf8]
     d52:	00 
     d53:	4c 8b ac 24 08 01 00 	mov    r13,QWORD PTR [rsp+0x108]
     d5a:	00 
     d5b:	48 89 c6             	mov    rsi,rax
     d5e:	48 89 b4 24 f8 00 00 	mov    QWORD PTR [rsp+0xf8],rsi
     d65:	00 
     d66:	49 8b b4 24 98 00 00 	mov    rsi,QWORD PTR [r12+0x98]
     d6d:	00 
     d6e:	48 8b 7b 08          	mov    rdi,QWORD PTR [rbx+0x8]
     d72:	49 89 b4 24 98 00 00 	mov    QWORD PTR [r12+0x98],rsi
     d79:	00 
     d7a:	4c 89 6e e0          	mov    QWORD PTR [rsi-0x20],r13
     d7e:	4c 89 76 e8          	mov    QWORD PTR [rsi-0x18],r14
     d82:	b8 01 00 00 00       	mov    eax,0x1
     d87:	48 89 46 f0          	mov    QWORD PTR [rsi-0x10],rax
     d8b:	b8 01 00 00 00       	mov    eax,0x1
     d90:	48 89 46 f8          	mov    QWORD PTR [rsi-0x8],rax
     d94:	48 31 f6             	xor    rsi,rsi
     d97:	48 b8 00 00 00 00 00 	movabs rax,0x0
     d9e:	00 00 00 
			d99: R_X86_64_64	do_callback
     da1:	48 89 9c 24 00 01 00 	mov    QWORD PTR [rsp+0x100],rbx
     da8:	00 
     da9:	48 89 bc 24 08 01 00 	mov    QWORD PTR [rsp+0x108],rdi
     db0:	00 
     db1:	4c 89 ac 24 10 01 00 	mov    QWORD PTR [rsp+0x110],r13
     db8:	00 
     db9:	ff d0                	call   rax
     dbb:	48 8b 9c 24 00 01 00 	mov    rbx,QWORD PTR [rsp+0x100]
     dc2:	00 
     dc3:	4c 8b ac 24 10 01 00 	mov    r13,QWORD PTR [rsp+0x110]
     dca:	00 
     dcb:	48 89 c6             	mov    rsi,rax
     dce:	48 89 b4 24 00 01 00 	mov    QWORD PTR [rsp+0x100],rsi
     dd5:	00 
     dd6:	49 8b b4 24 98 00 00 	mov    rsi,QWORD PTR [r12+0x98]
     ddd:	00 
     dde:	48 8b 7b 08          	mov    rdi,QWORD PTR [rbx+0x8]
     de2:	49 89 b4 24 98 00 00 	mov    QWORD PTR [r12+0x98],rsi
     de9:	00 
     dea:	4c 89 6e e0          	mov    QWORD PTR [rsi-0x20],r13
     dee:	4c 89 76 e8          	mov    QWORD PTR [rsi-0x18],r14
     df2:	b8 01 00 00 00       	mov    eax,0x1
     df7:	48 89 46 f0          	mov    QWORD PTR [rsi-0x10],rax
     dfb:	b8 01 00 00 00       	mov    eax,0x1
     e00:	48 89 46 f8          	mov    QWORD PTR [rsi-0x8],rax
     e04:	48 31 f6             	xor    rsi,rsi
     e07:	48 b8 00 00 00 00 00 	movabs rax,0x0
     e0e:	00 00 00 
			e09: R_X86_64_64	do_callback
     e11:	48 89 9c 24 08 01 00 	mov    QWORD PTR [rsp+0x108],rbx
     e18:	00 
     e19:	48 89 bc 24 10 01 00 	mov    QWORD PTR [rsp+0x110],rdi
     e20:	00 
     e21:	4c 89 ac 24 18 01 00 	mov    QWORD PTR [rsp+0x118],r13
     e28:	00 
     e29:	ff d0                	call   rax
     e2b:	48 8b 9c 24 08 01 00 	mov    rbx,QWORD PTR [rsp+0x108]
     e32:	00 
     e33:	4c 8b ac 24 18 01 00 	mov    r13,QWORD PTR [rsp+0x118]
     e3a:	00 
     e3b:	48 89 c6             	mov    rsi,rax
     e3e:	48 89 b4 24 08 01 00 	mov    QWORD PTR [rsp+0x108],rsi
     e45:	00 
     e46:	49 8b b4 24 98 00 00 	mov    rsi,QWORD PTR [r12+0x98]
     e4d:	00 
     e4e:	48 8b 7b 08          	mov    rdi,QWORD PTR [rbx+0x8]
     e52:	49 89 b4 24 98 00 00 	mov    QWORD PTR [r12+0x98],rsi
     e59:	00 
     e5a:	4c 89 6e e0          	mov    QWORD PTR [rsi-0x20],r13
     e5e:	4c 89 76 e8          	mov    QWORD PTR [rsi-0x18],r14
     e62:	b8 01 00 00 00       	mov    eax,0x1
     e67:	48 89 46 f0          	mov    QWORD PTR [rsi-0x10],rax
     e6b:	b8 01 00 00 00       	mov    eax,0x1
     e70:	48 89 46 f8          	mov    QWORD PTR [rsi-0x8],rax
     e74:	48 31 f6             	xor    rsi,rsi
     e77:	48 b8 00 00 00 00 00 	movabs rax,0x0
     e7e:	00 00 00 
			e79: R_X86_64_64	do_callback
     e81:	48 89 9c 24 10 01 00 	mov    QWORD PTR [rsp+0x110],rbx
     e88:	00 
     e89:	48 89 bc 24 18 01 00 	mov    QWORD PTR [rsp+0x118],rdi
     e90:	00 
     e91:	4c 89 ac 24 20 01 00 	mov    QWORD PTR [rsp+0x120],r13
     e98:	00 
     e99:	ff d0                	call   rax
     e9b:	48 8b 9c 24 10 01 00 	mov    rbx,QWORD PTR [rsp+0x110]
     ea2:	00 
     ea3:	4c 8b ac 24 20 01 00 	mov    r13,QWORD PTR [rsp+0x120]
     eaa:	00 
     eab:	48 89 c6             	mov    rsi,rax
     eae:	48 89 b4 24 10 01 00 	mov    QWORD PTR [rsp+0x110],rsi
     eb5:	00 
     eb6:	49 8b b4 24 98 00 00 	mov    rsi,QWORD PTR [r12+0x98]
     ebd:	00 
     ebe:	48 8b 7b 08          	mov    rdi,QWORD PTR [rbx+0x8]
     ec2:	49 89 b4 24 98 00 00 	mov    QWORD PTR [r12+0x98],rsi
     ec9:	00 
     eca:	4c 89 6e e0          	mov    QWORD PTR [rsi-0x20],r13
     ece:	4c 89 76 e8          	mov    QWORD PTR [rsi-0x18],r14
     ed2:	b8 01 00 00 00       	mov    eax,0x1
     ed7:	48 89 46 f0          	mov    QWORD PTR [rsi-0x10],rax
     edb:	b8 01 00 00 00       	mov    eax,0x1
     ee0:	48 89 46 f8          	mov    QWORD PTR [rsi-0x8],rax
     ee4:	48 31 f6             	xor    rsi,rsi
     ee7:	48 b8 00 00 00 00 00 	movabs rax,0x0
     eee:	00 00 00 
			ee9: R_X86_64_64	do_callback
     ef1:	48 89 9c 24 18 01 00 	mov    QWORD PTR [rsp+0x118],rbx
     ef8:	00 
     ef9:	48 89 bc 24 20 01 00 	mov    QWORD PTR [rsp+0x120],rdi
     f00:	00 
     f01:	4c 89 ac 24 28 01 00 	mov    QWORD PTR [rsp+0x128],r13
     f08:	00 
     f09:	ff d0                	call   rax
     f0b:	48 8b 9c 24 18 01 00 	mov    rbx,QWORD PTR [rsp+0x118]
     f12:	00 
     f13:	4c 8b ac 24 28 01 00 	mov    r13,QWORD PTR [rsp+0x128]
     f1a:	00 
     f1b:	48 89 c6             	mov    rsi,rax
     f1e:	48 89 b4 24 18 01 00 	mov    QWORD PTR [rsp+0x118],rsi
     f25:	00 
     f26:	49 8b b4 24 98 00 00 	mov    rsi,QWORD PTR [r12+0x98]
     f2d:	00 
     f2e:	48 8b 7b 08          	mov    rdi,QWORD PTR [rbx+0x8]
     f32:	49 89 b4 24 98 00 00 	mov    QWORD PTR [r12+0x98],rsi
     f39:	00 
     f3a:	4c 89 6e e0          	mov    QWORD PTR [rsi-0x20],r13
     f3e:	4c 89 76 e8          	mov    QWORD PTR [rsi-0x18],r14
     f42:	b8 01 00 00 00       	mov    eax,0x1
     f47:	48 89 46 f0          	mov    QWORD PTR [rsi-0x10],rax
     f4b:	b8 01 00 00 00       	mov    eax,0x1
     f50:	48 89 46 f8          	mov    QWORD PTR [rsi-0x8],rax
     f54:	48 31 f6             	xor    rsi,rsi
     f57:	48 b8 00 00 00 00 00 	movabs rax,0x0
     f5e:	00 00 00 
			f59: R_X86_64_64	do_callback
     f61:	48 89 9c 24 20 01 00 	mov    QWORD PTR [rsp+0x120],rbx
     f68:	00 
     f69:	48 89 bc 24 28 01 00 	mov    QWORD PTR [rsp+0x128],rdi
     f70:	00 
     f71:	4c 89 ac 24 30 01 00 	mov    QWORD PTR [rsp+0x130],r13
     f78:	00 
     f79:	ff d0                	call   rax
     f7b:	48 8b 9c 24 20 01 00 	mov    rbx,QWORD PTR [rsp+0x120]
     f82:	00 
     f83:	4c 8b ac 24 30 01 00 	mov    r13,QWORD PTR [rsp+0x130]
     f8a:	00 
     f8b:	48 89 c6             	mov    rsi,rax
     f8e:	48 89 b4 24 20 01 00 	mov    QWORD PTR [rsp+0x120],rsi
     f95:	00 
     f96:	49 8b b4 24 98 00 00 	mov    rsi,QWORD PTR [r12+0x98]
     f9d:	00 
     f9e:	48 8b 7b 08          	mov    rdi,QWORD PTR [rbx+0x8]
     fa2:	49 89 b4 24 98 00 00 	mov    QWORD PTR [r12+0x98],rsi
     fa9:	00 
     faa:	4c 89 6e e0          	mov    QWORD PTR [rsi-0x20],r13
     fae:	4c 89 76 e8          	mov    QWORD PTR [rsi-0x18],r14
     fb2:	b8 01 00 00 00       	mov    eax,0x1
     fb7:	48 89 46 f0          	mov    QWORD PTR [rsi-0x10],rax
     fbb:	b8 01 00 00 00       	mov    eax,0x1
     fc0:	48 89 46 f8          	mov    QWORD PTR [rsi-0x8],rax
     fc4:	48 31 f6             	xor    rsi,rsi
     fc7:	48 b8 00 00 00 00 00 	movabs rax,0x0
     fce:	00 00 00 
			fc9: R_X86_64_64	do_callback
     fd1:	48 89 9c 24 28 01 00 	mov    QWORD PTR [rsp+0x128],rbx
     fd8:	00 
     fd9:	48 89 bc 24 30 01 00 	mov    QWORD PTR [rsp+0x130],rdi
     fe0:	00 
     fe1:	4c 89 ac 24 38 01 00 	mov    QWORD PTR [rsp+0x138],r13
     fe8:	00 
     fe9:	ff d0                	call   rax
     feb:	48 8b 9c 24 28 01 00 	mov    rbx,QWORD PTR [rsp+0x128]
     ff2:	00 
     ff3:	4c 8b ac 24 38 01 00 	mov    r13,QWORD PTR [rsp+0x138]
     ffa:	00 
     ffb:	48 89 c6             	mov    rsi,rax
     ffe:	48 89 b4 24 28 01 00 	mov    QWORD PTR [rsp+0x128],rsi
    1005:	00 
    1006:	49 8b b4 24 98 00 00 	mov    rsi,QWORD PTR [r12+0x98]
    100d:	00 
    100e:	48 8b 7b 08          	mov    rdi,QWORD PTR [rbx+0x8]
    1012:	49 89 b4 24 98 00 00 	mov    QWORD PTR [r12+0x98],rsi
    1019:	00 
    101a:	4c 89 6e e0          	mov    QWORD PTR [rsi-0x20],r13
    101e:	4c 89 76 e8          	mov    QWORD PTR [rsi-0x18],r14
    1022:	b8 01 00 00 00       	mov    eax,0x1
    1027:	48 89 46 f0          	mov    QWORD PTR [rsi-0x10],rax
    102b:	b8 01 00 00 00       	mov    eax,0x1
    1030:	48 89 46 f8          	mov    QWORD PTR [rsi-0x8],rax
    1034:	48 31 f6             	xor    rsi,rsi
    1037:	48 b8 00 00 00 00 00 	movabs rax,0x0
    103e:	00 00 00 
			1039: R_X86_64_64	do_callback
    1041:	48 89 9c 24 30 01 00 	mov    QWORD PTR [rsp+0x130],rbx
    1048:	00 
    1049:	48 89 bc 24 38 01 00 	mov    QWORD PTR [rsp+0x138],rdi
    1050:	00 
    1051:	4c 89 ac 24 40 01 00 	mov    QWORD PTR [rsp+0x140],r13
    1058:	00 
    1059:	ff d0                	call   rax
    105b:	48 8b 9c 24 30 01 00 	mov    rbx,QWORD PTR [rsp+0x130]
    1062:	00 
    1063:	4c 8b ac 24 40 01 00 	mov    r13,QWORD PTR [rsp+0x140]
    106a:	00 
    106b:	48 89 c6             	mov    rsi,rax
    106e:	48 89 b4 24 30 01 00 	mov    QWORD PTR [rsp+0x130],rsi
    1075:	00 
    1076:	49 8b b4 24 98 00 00 	mov    rsi,QWORD PTR [r12+0x98]
    107d:	00 
    107e:	48 8b 7b 08          	mov    rdi,QWORD PTR [rbx+0x8]
    1082:	49 89 b4 24 98 00 00 	mov    QWORD PTR [r12+0x98],rsi
    1089:	00 
    108a:	4c 89 6e e0          	mov    QWORD PTR [rsi-0x20],r13
    108e:	4c 89 76 e8          	mov    QWORD PTR [rsi-0x18],r14
    1092:	b8 01 00 00 00       	mov    eax,0x1
    1097:	48 89 46 f0          	mov    QWORD PTR [rsi-0x10],rax
    109b:	b8 01 00 00 00       	mov    eax,0x1
    10a0:	48 89 46 f8          	mov    QWORD PTR [rsi-0x8],rax
    10a4:	48 31 f6             	xor    rsi,rsi
    10a7:	48 b8 00 00 00 00 00 	movabs rax,0x0
    10ae:	00 00 00 
			10a9: R_X86_64_64	do_callback
    10b1:	48 89 9c 24 38 01 00 	mov    QWORD PTR [rsp+0x138],rbx
    10b8:	00 
    10b9:	48 89 bc 24 40 01 00 	mov    QWORD PTR [rsp+0x140],rdi
    10c0:	00 
    10c1:	4c 89 ac 24 48 01 00 	mov    QWORD PTR [rsp+0x148],r13
    10c8:	00 
    10c9:	ff d0                	call   rax
    10cb:	48 8b 9c 24 38 01 00 	mov    rbx,QWORD PTR [rsp+0x138]
    10d2:	00 
    10d3:	4c 8b ac 24 48 01 00 	mov    r13,QWORD PTR [rsp+0x148]
    10da:	00 
    10db:	48 89 c6             	mov    rsi,rax
    10de:	48 89 b4 24 38 01 00 	mov    QWORD PTR [rsp+0x138],rsi
    10e5:	00 
    10e6:	49 8b b4 24 98 00 00 	mov    rsi,QWORD PTR [r12+0x98]
    10ed:	00 
    10ee:	48 8b 7b 08          	mov    rdi,QWORD PTR [rbx+0x8]
    10f2:	49 89 b4 24 98 00 00 	mov    QWORD PTR [r12+0x98],rsi
    10f9:	00 
    10fa:	4c 89 6e e0          	mov    QWORD PTR [rsi-0x20],r13
    10fe:	4c 89 76 e8          	mov    QWORD PTR [rsi-0x18],r14
    1102:	b8 01 00 00 00       	mov    eax,0x1
    1107:	48 89 46 f0          	mov    QWORD PTR [rsi-0x10],rax
    110b:	b8 01 00 00 00       	mov    eax,0x1
    1110:	48 89 46 f8          	mov    QWORD PTR [rsi-0x8],rax
    1114:	48 31 f6             	xor    rsi,rsi
    1117:	48 b8 00 00 00 00 00 	movabs rax,0x0
    111e:	00 00 00 
			1119: R_X86_64_64	do_callback
    1121:	48 89 9c 24 40 01 00 	mov    QWORD PTR [rsp+0x140],rbx
    1128:	00 
    1129:	48 89 bc 24 48 01 00 	mov    QWORD PTR [rsp+0x148],rdi
    1130:	00 
    1131:	4c 89 ac 24 50 01 00 	mov    QWORD PTR [rsp+0x150],r13
    1138:	00 
    1139:	ff d0                	call   rax
    113b:	48 8b 9c 24 40 01 00 	mov    rbx,QWORD PTR [rsp+0x140]
    1142:	00 
    1143:	4c 8b ac 24 50 01 00 	mov    r13,QWORD PTR [rsp+0x150]
    114a:	00 
    114b:	48 89 c6             	mov    rsi,rax
    114e:	48 89 b4 24 40 01 00 	mov    QWORD PTR [rsp+0x140],rsi
    1155:	00 
    1156:	49 8b b4 24 98 00 00 	mov    rsi,QWORD PTR [r12+0x98]
    115d:	00 
    115e:	48 8b 7b 08          	mov    rdi,QWORD PTR [rbx+0x8]
    1162:	49 89 b4 24 98 00 00 	mov    QWORD PTR [r12+0x98],rsi
    1169:	00 
    116a:	4c 89 6e e0          	mov    QWORD PTR [rsi-0x20],r13
    116e:	4c 89 76 e8          	mov    QWORD PTR [rsi-0x18],r14
    1172:	b8 01 00 00 00       	mov    eax,0x1
    1177:	48 89 46 f0          	mov    QWORD PTR [rsi-0x10],rax
    117b:	b8 01 00 00 00       	mov    eax,0x1
    1180:	48 89 46 f8          	mov    QWORD PTR [rsi-0x8],rax
    1184:	48 31 f6             	xor    rsi,rsi
    1187:	48 b8 00 00 00 00 00 	movabs rax,0x0
    118e:	00 00 00 
			1189: R_X86_64_64	do_callback
    1191:	48 89 9c 24 48 01 00 	mov    QWORD PTR [rsp+0x148],rbx
    1198:	00 
    1199:	48 89 bc 24 50 01 00 	mov    QWORD PTR [rsp+0x150],rdi
    11a0:	00 
    11a1:	4c 89 ac 24 58 01 00 	mov    QWORD PTR [rsp+0x158],r13
    11a8:	00 
    11a9:	ff d0                	call   rax
    11ab:	48 8b 9c 24 48 01 00 	mov    rbx,QWORD PTR [rsp+0x148]
    11b2:	00 
    11b3:	4c 8b ac 24 58 01 00 	mov    r13,QWORD PTR [rsp+0x158]
    11ba:	00 
    11bb:	48 89 c6             	mov    rsi,rax
    11be:	48 89 b4 24 48 01 00 	mov    QWORD PTR [rsp+0x148],rsi
    11c5:	00 
    11c6:	49 8b b4 24 98 00 00 	mov    rsi,QWORD PTR [r12+0x98]
    11cd:	00 
    11ce:	48 8b 7b 08          	mov    rdi,QWORD PTR [rbx+0x8]
    11d2:	49 89 b4 24 98 00 00 	mov    QWORD PTR [r12+0x98],rsi
    11d9:	00 
    11da:	4c 89 6e e0          	mov    QWORD PTR [rsi-0x20],r13
    11de:	4c 89 76 e8          	mov    QWORD PTR [rsi-0x18],r14
    11e2:	b8 01 00 00 00       	mov    eax,0x1
    11e7:	48 89 46 f0          	mov    QWORD PTR [rsi-0x10],rax
    11eb:	b8 01 00 00 00       	mov    eax,0x1
    11f0:	48 89 46 f8          	mov    QWORD PTR [rsi-0x8],rax
    11f4:	48 31 f6             	xor    rsi,rsi
    11f7:	48 b8 00 00 00 00 00 	movabs rax,0x0
    11fe:	00 00 00 
			11f9: R_X86_64_64	do_callback
    1201:	48 89 9c 24 50 01 00 	mov    QWORD PTR [rsp+0x150],rbx
    1208:	00 
    1209:	48 89 bc 24 58 01 00 	mov    QWORD PTR [rsp+0x158],rdi
    1210:	00 
    1211:	4c 89 ac 24 60 01 00 	mov    QWORD PTR [rsp+0x160],r13
    1218:	00 
    1219:	ff d0                	call   rax
    121b:	48 8b 9c 24 50 01 00 	mov    rbx,QWORD PTR [rsp+0x150]
    1222:	00 
    1223:	4c 8b ac 24 60 01 00 	mov    r13,QWORD PTR [rsp+0x160]
    122a:	00 
    122b:	48 89 c6             	mov    rsi,rax
    122e:	48 89 b4 24 50 01 00 	mov    QWORD PTR [rsp+0x150],rsi
    1235:	00 
    1236:	49 8b b4 24 98 00 00 	mov    rsi,QWORD PTR [r12+0x98]
    123d:	00 
    123e:	48 8b 7b 08          	mov    rdi,QWORD PTR [rbx+0x8]
    1242:	49 89 b4 24 98 00 00 	mov    QWORD PTR [r12+0x98],rsi
    1249:	00 
    124a:	4c 89 6e e0          	mov    QWORD PTR [rsi-0x20],r13
    124e:	4c 89 76 e8          	mov    QWORD PTR [rsi-0x18],r14
    1252:	b8 01 00 00 00       	mov    eax,0x1
    1257:	48 89 46 f0          	mov    QWORD PTR [rsi-0x10],rax
    125b:	b8 01 00 00 00       	mov    eax,0x1
    1260:	48 89 46 f8          	mov    QWORD PTR [rsi-0x8],rax
    1264:	48 31 f6             	xor    rsi,rsi
    1267:	48 b8 00 00 00 00 00 	movabs rax,0x0
    126e:	00 00 00 
			1269: R_X86_64_64	do_callback
    1271:	48 89 9c 24 58 01 00 	mov    QWORD PTR [rsp+0x158],rbx
    1278:	00 
    1279:	48 89 bc 24 60 01 00 	mov    QWORD PTR [rsp+0x160],rdi
    1280:	00 
    1281:	4c 89 ac 24 68 01 00 	mov    QWORD PTR [rsp+0x168],r13
    1288:	00 
    1289:	ff d0                	call   rax
    128b:	48 8b 9c 24 58 01 00 	mov    rbx,QWORD PTR [rsp+0x158]
    1292:	00 
    1293:	4c 8b ac 24 68 01 00 	mov    r13,QWORD PTR [rsp+0x168]
    129a:	00 
    129b:	48 89 c6             	mov    rsi,rax
    129e:	48 89 b4 24 58 01 00 	mov    QWORD PTR [rsp+0x158],rsi
    12a5:	00 
    12a6:	49 8b b4 24 98 00 00 	mov    rsi,QWORD PTR [r12+0x98]
    12ad:	00 
    12ae:	48 8b 7b 08          	mov    rdi,QWORD PTR [rbx+0x8]
    12b2:	49 89 b4 24 98 00 00 	mov    QWORD PTR [r12+0x98],rsi
    12b9:	00 
    12ba:	4c 89 6e e0          	mov    QWORD PTR [rsi-0x20],r13
    12be:	4c 89 76 e8          	mov    QWORD PTR [rsi-0x18],r14
    12c2:	b8 01 00 00 00       	mov    eax,0x1
    12c7:	48 89 46 f0          	mov    QWORD PTR [rsi-0x10],rax
    12cb:	b8 01 00 00 00       	mov    eax,0x1
    12d0:	48 89 46 f8          	mov    QWORD PTR [rsi-0x8],rax
    12d4:	48 31 f6             	xor    rsi,rsi
    12d7:	48 b8 00 00 00 00 00 	movabs rax,0x0
    12de:	00 00 00 
			12d9: R_X86_64_64	do_callback
    12e1:	48 89 9c 24 60 01 00 	mov    QWORD PTR [rsp+0x160],rbx
    12e8:	00 
    12e9:	48 89 bc 24 68 01 00 	mov    QWORD PTR [rsp+0x168],rdi
    12f0:	00 
    12f1:	4c 89 ac 24 70 01 00 	mov    QWORD PTR [rsp+0x170],r13
    12f8:	00 
    12f9:	ff d0                	call   rax
    12fb:	48 8b 9c 24 60 01 00 	mov    rbx,QWORD PTR [rsp+0x160]
    1302:	00 
    1303:	4c 8b ac 24 70 01 00 	mov    r13,QWORD PTR [rsp+0x170]
    130a:	00 
    130b:	48 89 c6             	mov    rsi,rax
    130e:	48 89 b4 24 60 01 00 	mov    QWORD PTR [rsp+0x160],rsi
    1315:	00 
    1316:	49 8b b4 24 98 00 00 	mov    rsi,QWORD PTR [r12+0x98]
    131d:	00 
    131e:	48 8b 7b 08          	mov    rdi,QWORD PTR [rbx+0x8]
    1322:	49 89 b4 24 98 00 00 	mov    QWORD PTR [r12+0x98],rsi
    1329:	00 
    132a:	4c 89 6e e0          	mov    QWORD PTR [rsi-0x20],r13
    132e:	4c 89 76 e8          	mov    QWORD PTR [rsi-0x18],r14
    1332:	b8 01 00 00 00       	mov    eax,0x1
    1337:	48 89 46 f0          	mov    QWORD PTR [rsi-0x10],rax
    133b:	b8 01 00 00 00       	mov    eax,0x1
    1340:	48 89 46 f8          	mov    QWORD PTR [rsi-0x8],rax
    1344:	48 31 f6             	xor    rsi,rsi
    1347:	48 b8 00 00 00 00 00 	movabs rax,0x0
    134e:	00 00 00 
			1349: R_X86_64_64	do_callback
    1351:	48 89 9c 24 68 01 00 	mov    QWORD PTR [rsp+0x168],rbx
    1358:	00 
    1359:	48 89 bc 24 70 01 00 	mov    QWORD PTR [rsp+0x170],rdi
    1360:	00 
    1361:	4c 89 ac 24 78 01 00 	mov    QWORD PTR [rsp+0x178],r13
    1368:	00 
    1369:	ff d0                	call   rax
    136b:	48 8b 9c 24 68 01 00 	mov    rbx,QWORD PTR [rsp+0x168]
    1372:	00 
    1373:	4c 8b ac 24 78 01 00 	mov    r13,QWORD PTR [rsp+0x178]
    137a:	00 
    137b:	48 89 c6             	mov    rsi,rax
    137e:	48 89 b4 24 68 01 00 	mov    QWORD PTR [rsp+0x168],rsi
    1385:	00 
    1386:	49 8b b4 24 98 00 00 	mov    rsi,QWORD PTR [r12+0x98]
    138d:	00 
    138e:	48 8b 7b 08          	mov    rdi,QWORD PTR [rbx+0x8]
    1392:	49 89 b4 24 98 00 00 	mov    QWORD PTR [r12+0x98],rsi
    1399:	00 
    139a:	4c 89 6e e0          	mov    QWORD PTR [rsi-0x20],r13
    139e:	4c 89 76 e8          	mov    QWORD PTR [rsi-0x18],r14
    13a2:	b8 01 00 00 00       	mov    eax,0x1
    13a7:	48 89 46 f0          	mov    QWORD PTR [rsi-0x10],rax
    13ab:	b8 01 00 00 00       	mov    eax,0x1
    13b0:	48 89 46 f8          	mov    QWORD PTR [rsi-0x8],rax
    13b4:	48 31 f6             	xor    rsi,rsi
    13b7:	48 b8 00 00 00 00 00 	movabs rax,0x0
    13be:	00 00 00 
			13b9: R_X86_64_64	do_callback
    13c1:	48 89 9c 24 70 01 00 	mov    QWORD PTR [rsp+0x170],rbx
    13c8:	00 
    13c9:	48 89 bc 24 78 01 00 	mov    QWORD PTR [rsp+0x178],rdi
    13d0:	00 
    13d1:	4c 89 ac 24 80 01 00 	mov    QWORD PTR [rsp+0x180],r13
    13d8:	00 
    13d9:	ff d0                	call   rax
    13db:	48 8b 9c 24 70 01 00 	mov    rbx,QWORD PTR [rsp+0x170]
    13e2:	00 
    13e3:	4c 8b ac 24 80 01 00 	mov    r13,QWORD PTR [rsp+0x180]
    13ea:	00 
    13eb:	48 89 c6             	mov    rsi,rax
    13ee:	48 89 b4 24 70 01 00 	mov    QWORD PTR [rsp+0x170],rsi
    13f5:	00 
    13f6:	49 8b b4 24 98 00 00 	mov    rsi,QWORD PTR [r12+0x98]
    13fd:	00 
    13fe:	48 8b 7b 08          	mov    rdi,QWORD PTR [rbx+0x8]
    1402:	49 89 b4 24 98 00 00 	mov    QWORD PTR [r12+0x98],rsi
    1409:	00 
    140a:	4c 89 6e e0          	mov    QWORD PTR [rsi-0x20],r13
    140e:	4c 89 76 e8          	mov    QWORD PTR [rsi-0x18],r14
    1412:	b8 01 00 00 00       	mov    eax,0x1
    1417:	48 89 46 f0          	mov    QWORD PTR [rsi-0x10],rax
    141b:	b8 01 00 00 00       	mov    eax,0x1
    1420:	48 89 46 f8          	mov    QWORD PTR [rsi-0x8],rax
    1424:	48 31 f6             	xor    rsi,rsi
    1427:	48 b8 00 00 00 00 00 	movabs rax,0x0
    142e:	00 00 00 
			1429: R_X86_64_64	do_callback
    1431:	48 89 9c 24 78 01 00 	mov    QWORD PTR [rsp+0x178],rbx
    1438:	00 
    1439:	48 89 bc 24 80 01 00 	mov    QWORD PTR [rsp+0x180],rdi
    1440:	00 
    1441:	4c 89 ac 24 88 01 00 	mov    QWORD PTR [rsp+0x188],r13
    1448:	00 
    1449:	ff d0                	call   rax
    144b:	48 8b 9c 24 78 01 00 	mov    rbx,QWORD PTR [rsp+0x178]
    1452:	00 
    1453:	4c 8b ac 24 88 01 00 	mov    r13,QWORD PTR [rsp+0x188]
    145a:	00 
    145b:	48 89 c6             	mov    rsi,rax
    145e:	48 89 b4 24 78 01 00 	mov    QWORD PTR [rsp+0x178],rsi
    1465:	00 
    1466:	49 8b b4 24 98 00 00 	mov    rsi,QWORD PTR [r12+0x98]
    146d:	00 
    146e:	48 8b 7b 08          	mov    rdi,QWORD PTR [rbx+0x8]
    1472:	49 89 b4 24 98 00 00 	mov    QWORD PTR [r12+0x98],rsi
    1479:	00 
    147a:	4c 89 6e e0          	mov    QWORD PTR [rsi-0x20],r13
    147e:	4c 89 76 e8          	mov    QWORD PTR [rsi-0x18],r14
    1482:	b8 01 00 00 00       	mov    eax,0x1
    1487:	48 89 46 f0          	mov    QWORD PTR [rsi-0x10],rax
    148b:	b8 01 00 00 00       	mov    eax,0x1
    1490:	48 89 46 f8          	mov    QWORD PTR [rsi-0x8],rax
    1494:	48 31 f6             	xor    rsi,rsi
    1497:	48 b8 00 00 00 00 00 	movabs rax,0x0
    149e:	00 00 00 
			1499: R_X86_64_64	do_callback
    14a1:	48 89 9c 24 80 01 00 	mov    QWORD PTR [rsp+0x180],rbx
    14a8:	00 
    14a9:	48 89 bc 24 88 01 00 	mov    QWORD PTR [rsp+0x188],rdi
    14b0:	00 
    14b1:	4c 89 ac 24 90 01 00 	mov    QWORD PTR [rsp+0x190],r13
    14b8:	00 
    14b9:	ff d0                	call   rax
    14bb:	48 8b 9c 24 80 01 00 	mov    rbx,QWORD PTR [rsp+0x180]
    14c2:	00 
    14c3:	4c 8b ac 24 90 01 00 	mov    r13,QWORD PTR [rsp+0x190]
    14ca:	00 
    14cb:	48 89 c6             	mov    rsi,rax
    14ce:	48 89 b4 24 80 01 00 	mov    QWORD PTR [rsp+0x180],rsi
    14d5:	00 
    14d6:	49 8b b4 24 98 00 00 	mov    rsi,QWORD PTR [r12+0x98]
    14dd:	00 
    14de:	48 8b 7b 08          	mov    rdi,QWORD PTR [rbx+0x8]
    14e2:	49 89 b4 24 98 00 00 	mov    QWORD PTR [r12+0x98],rsi
    14e9:	00 
    14ea:	4c 89 6e e0          	mov    QWORD PTR [rsi-0x20],r13
    14ee:	4c 89 76 e8          	mov    QWORD PTR [rsi-0x18],r14
    14f2:	b8 01 00 00 00       	mov    eax,0x1
    14f7:	48 89 46 f0          	mov    QWORD PTR [rsi-0x10],rax
    14fb:	b8 01 00 00 00       	mov    eax,0x1
    1500:	48 89 46 f8          	mov    QWORD PTR [rsi-0x8],rax
    1504:	48 31 f6             	xor    rsi,rsi
    1507:	48 b8 00 00 00 00 00 	movabs rax,0x0
    150e:	00 00 00 
			1509: R_X86_64_64	do_callback
    1511:	48 89 9c 24 88 01 00 	mov    QWORD PTR [rsp+0x188],rbx
    1518:	00 
    1519:	48 89 bc 24 90 01 00 	mov    QWORD PTR [rsp+0x190],rdi
    1520:	00 
    1521:	4c 89 ac 24 98 01 00 	mov    QWORD PTR [rsp+0x198],r13
    1528:	00 
    1529:	ff d0                	call   rax
    152b:	48 8b 9c 24 88 01 00 	mov    rbx,QWORD PTR [rsp+0x188]
    1532:	00 
    1533:	4c 8b ac 24 98 01 00 	mov    r13,QWORD PTR [rsp+0x198]
    153a:	00 
    153b:	48 89 c6             	mov    rsi,rax
    153e:	48 89 b4 24 88 01 00 	mov    QWORD PTR [rsp+0x188],rsi
    1545:	00 
    1546:	49 8b b4 24 98 00 00 	mov    rsi,QWORD PTR [r12+0x98]
    154d:	00 
    154e:	48 8b 7b 08          	mov    rdi,QWORD PTR [rbx+0x8]
    1552:	49 89 b4 24 98 00 00 	mov    QWORD PTR [r12+0x98],rsi
    1559:	00 
    155a:	4c 89 6e e0          	mov    QWORD PTR [rsi-0x20],r13
    155e:	4c 89 76 e8          	mov    QWORD PTR [rsi-0x18],r14
    1562:	b8 01 00 00 00       	mov    eax,0x1
    1567:	48 89 46 f0          	mov    QWORD PTR [rsi-0x10],rax
    156b:	b8 01 00 00 00       	mov    eax,0x1
    1570:	48 89 46 f8          	mov    QWORD PTR [rsi-0x8],rax
    1574:	48 31 f6             	xor    rsi,rsi
    1577:	48 b8 00 00 00 00 00 	movabs rax,0x0
    157e:	00 00 00 
			1579: R_X86_64_64	do_callback
    1581:	48 89 9c 24 90 01 00 	mov    QWORD PTR [rsp+0x190],rbx
    1588:	00 
    1589:	48 89 bc 24 98 01 00 	mov    QWORD PTR [rsp+0x198],rdi
    1590:	00 
    1591:	4c 89 ac 24 a0 01 00 	mov    QWORD PTR [rsp+0x1a0],r13
    1598:	00 
    1599:	ff d0                	call   rax
    159b:	48 8b 9c 24 90 01 00 	mov    rbx,QWORD PTR [rsp+0x190]
    15a2:	00 
    15a3:	4c 8b ac 24 a0 01 00 	mov    r13,QWORD PTR [rsp+0x1a0]
    15aa:	00 
    15ab:	48 89 c6             	mov    rsi,rax
    15ae:	48 89 b4 24 90 01 00 	mov    QWORD PTR [rsp+0x190],rsi
    15b5:	00 
    15b6:	49 8b b4 24 98 00 00 	mov    rsi,QWORD PTR [r12+0x98]
    15bd:	00 
    15be:	48 8b 7b 08          	mov    rdi,QWORD PTR [rbx+0x8]
    15c2:	49 89 b4 24 98 00 00 	mov    QWORD PTR [r12+0x98],rsi
    15c9:	00 
    15ca:	4c 89 6e e0          	mov    QWORD PTR [rsi-0x20],r13
    15ce:	4c 89 76 e8          	mov    QWORD PTR [rsi-0x18],r14
    15d2:	b8 01 00 00 00       	mov    eax,0x1
    15d7:	48 89 46 f0          	mov    QWORD PTR [rsi-0x10],rax
    15db:	b8 01 00 00 00       	mov    eax,0x1
    15e0:	48 89 46 f8          	mov    QWORD PTR [rsi-0x8],rax
    15e4:	48 31 f6             	xor    rsi,rsi
    15e7:	48 b8 00 00 00 00 00 	movabs rax,0x0
    15ee:	00 00 00 
			15e9: R_X86_64_64	do_callback
    15f1:	48 89 9c 24 98 01 00 	mov    QWORD PTR [rsp+0x198],rbx
    15f8:	00 
    15f9:	48 89 bc 24 a0 01 00 	mov    QWORD PTR [rsp+0x1a0],rdi
    1600:	00 
    1601:	4c 89 ac 24 a8 01 00 	mov    QWORD PTR [rsp+0x1a8],r13
    1608:	00 
    1609:	ff d0                	call   rax
    160b:	48 8b 9c 24 98 01 00 	mov    rbx,QWORD PTR [rsp+0x198]
    1612:	00 
    1613:	4c 8b ac 24 a8 01 00 	mov    r13,QWORD PTR [rsp+0x1a8]
    161a:	00 
    161b:	48 89 c6             	mov    rsi,rax
    161e:	48 89 b4 24 98 01 00 	mov    QWORD PTR [rsp+0x198],rsi
    1625:	00 
    1626:	49 8b b4 24 98 00 00 	mov    rsi,QWORD PTR [r12+0x98]
    162d:	00 
    162e:	48 8b 7b 08          	mov    rdi,QWORD PTR [rbx+0x8]
    1632:	49 89 b4 24 98 00 00 	mov    QWORD PTR [r12+0x98],rsi
    1639:	00 
    163a:	4c 89 6e e0          	mov    QWORD PTR [rsi-0x20],r13
    163e:	4c 89 76 e8          	mov    QWORD PTR [rsi-0x18],r14
    1642:	b8 01 00 00 00       	mov    eax,0x1
    1647:	48 89 46 f0          	mov    QWORD PTR [rsi-0x10],rax
    164b:	b8 01 00 00 00       	mov    eax,0x1
    1650:	48 89 46 f8          	mov    QWORD PTR [rsi-0x8],rax
    1654:	48 31 f6             	xor    rsi,rsi
    1657:	48 b8 00 00 00 00 00 	movabs rax,0x0
    165e:	00 00 00 
			1659: R_X86_64_64	do_callback
    1661:	48 89 9c 24 a0 01 00 	mov    QWORD PTR [rsp+0x1a0],rbx
    1668:	00 
    1669:	48 89 bc 24 a8 01 00 	mov    QWORD PTR [rsp+0x1a8],rdi
    1670:	00 
    1671:	4c 89 ac 24 b0 01 00 	mov    QWORD PTR [rsp+0x1b0],r13
    1678:	00 
    1679:	ff d0                	call   rax
    167b:	48 8b 9c 24 a0 01 00 	mov    rbx,QWORD PTR [rsp+0x1a0]
    1682:	00 
    1683:	4c 8b ac 24 b0 01 00 	mov    r13,QWORD PTR [rsp+0x1b0]
    168a:	00 
    168b:	48 89 c6             	mov    rsi,rax
    168e:	48 89 b4 24 a0 01 00 	mov    QWORD PTR [rsp+0x1a0],rsi
    1695:	00 
    1696:	49 8b b4 24 98 00 00 	mov    rsi,QWORD PTR [r12+0x98]
    169d:	00 
    169e:	48 8b 7b 08          	mov    rdi,QWORD PTR [rbx+0x8]
    16a2:	49 89 b4 24 98 00 00 	mov    QWORD PTR [r12+0x98],rsi
    16a9:	00 
    16aa:	4c 89 6e e0          	mov    QWORD PTR [rsi-0x20],r13
    16ae:	4c 89 76 e8          	mov    QWORD PTR [rsi-0x18],r14
    16b2:	b8 01 00 00 00       	mov    eax,0x1
    16b7:	48 89 46 f0          	mov    QWORD PTR [rsi-0x10],rax
    16bb:	b8 01 00 00 00       	mov    eax,0x1
    16c0:	48 89 46 f8          	mov    QWORD PTR [rsi-0x8],rax
    16c4:	48 31 f6             	xor    rsi,rsi
    16c7:	48 b8 00 00 00 00 00 	movabs rax,0x0
    16ce:	00 00 00 
			16c9: R_X86_64_64	do_callback
    16d1:	48 89 9c 24 a8 01 00 	mov    QWORD PTR [rsp+0x1a8],rbx
    16d8:	00 
    16d9:	48 89 bc 24 b0 01 00 	mov    QWORD PTR [rsp+0x1b0],rdi
    16e0:	00 
    16e1:	4c 89 ac 24 b8 01 00 	mov    QWORD PTR [rsp+0x1b8],r13
    16e8:	00 
    16e9:	ff d0                	call   rax
    16eb:	48 8b 9c 24 a8 01 00 	mov    rbx,QWORD PTR [rsp+0x1a8]
    16f2:	00 
    16f3:	4c 8b ac 24 b8 01 00 	mov    r13,QWORD PTR [rsp+0x1b8]
    16fa:	00 
    16fb:	48 89 c6             	mov    rsi,rax
    16fe:	48 89 b4 24 a8 01 00 	mov    QWORD PTR [rsp+0x1a8],rsi
    1705:	00 
    1706:	49 8b b4 24 98 00 00 	mov    rsi,QWORD PTR [r12+0x98]
    170d:	00 
    170e:	48 8b 7b 08          	mov    rdi,QWORD PTR [rbx+0x8]
    1712:	49 89 b4 24 98 00 00 	mov    QWORD PTR [r12+0x98],rsi
    1719:	00 
    171a:	4c 89 6e e0          	mov    QWORD PTR [rsi-0x20],r13
    171e:	4c 89 76 e8          	mov    QWORD PTR [rsi-0x18],r14
    1722:	b8 01 00 00 00       	mov    eax,0x1
    1727:	48 89 46 f0          	mov    QWORD PTR [rsi-0x10],rax
    172b:	b8 01 00 00 00       	mov    eax,0x1
    1730:	48 89 46 f8          	mov    QWORD PTR [rsi-0x8],rax
    1734:	48 31 f6             	xor    rsi,rsi
    1737:	48 b8 00 00 00 00 00 	movabs rax,0x0
    173e:	00 00 00 
			1739: R_X86_64_64	do_callback
    1741:	48 89 9c 24 b0 01 00 	mov    QWORD PTR [rsp+0x1b0],rbx
    1748:	00 
    1749:	48 89 bc 24 b8 01 00 	mov    QWORD PTR [rsp+0x1b8],rdi
    1750:	00 
    1751:	4c 89 ac 24 c0 01 00 	mov    QWORD PTR [rsp+0x1c0],r13
    1758:	00 
    1759:	ff d0                	call   rax
    175b:	48 8b 9c 24 b0 01 00 	mov    rbx,QWORD PTR [rsp+0x1b0]
    1762:	00 
    1763:	4c 8b ac 24 c0 01 00 	mov    r13,QWORD PTR [rsp+0x1c0]
    176a:	00 
    176b:	48 89 c6             	mov    rsi,rax
    176e:	48 89 b4 24 b0 01 00 	mov    QWORD PTR [rsp+0x1b0],rsi
    1775:	00 
    1776:	49 8b b4 24 98 00 00 	mov    rsi,QWORD PTR [r12+0x98]
    177d:	00 
    177e:	48 8b 7b 08          	mov    rdi,QWORD PTR [rbx+0x8]
    1782:	49 89 b4 24 98 00 00 	mov    QWORD PTR [r12+0x98],rsi
    1789:	00 
    178a:	4c 89 6e e0          	mov    QWORD PTR [rsi-0x20],r13
    178e:	4c 89 76 e8          	mov    QWORD PTR [rsi-0x18],r14
    1792:	b8 01 00 00 00       	mov    eax,0x1
    1797:	48 89 46 f0          	mov    QWORD PTR [rsi-0x10],rax
    179b:	b8 01 00 00 00       	mov    eax,0x1
    17a0:	48 89 46 f8          	mov    QWORD PTR [rsi-0x8],rax
    17a4:	48 31 f6             	xor    rsi,rsi
    17a7:	48 b8 00 00 00 00 00 	movabs rax,0x0
    17ae:	00 00 00 
			17a9: R_X86_64_64	do_callback
    17b1:	48 89 9c 24 b8 01 00 	mov    QWORD PTR [rsp+0x1b8],rbx
    17b8:	00 
    17b9:	48 89 bc 24 c0 01 00 	mov    QWORD PTR [rsp+0x1c0],rdi
    17c0:	00 
    17c1:	4c 89 ac 24 c8 01 00 	mov    QWORD PTR [rsp+0x1c8],r13
    17c8:	00 
    17c9:	ff d0                	call   rax
    17cb:	48 8b 9c 24 b8 01 00 	mov    rbx,QWORD PTR [rsp+0x1b8]
    17d2:	00 
    17d3:	4c 8b ac 24 c8 01 00 	mov    r13,QWORD PTR [rsp+0x1c8]
    17da:	00 
    17db:	48 89 c6             	mov    rsi,rax
    17de:	48 89 b4 24 b8 01 00 	mov    QWORD PTR [rsp+0x1b8],rsi
    17e5:	00 
    17e6:	49 8b b4 24 98 00 00 	mov    rsi,QWORD PTR [r12+0x98]
    17ed:	00 
    17ee:	48 8b 7b 08          	mov    rdi,QWORD PTR [rbx+0x8]
    17f2:	49 89 b4 24 98 00 00 	mov    QWORD PTR [r12+0x98],rsi
    17f9:	00 
    17fa:	4c 89 6e e0          	mov    QWORD PTR [rsi-0x20],r13
    17fe:	4c 89 76 e8          	mov    QWORD PTR [rsi-0x18],r14
    1802:	b8 01 00 00 00       	mov    eax,0x1
    1807:	48 89 46 f0          	mov    QWORD PTR [rsi-0x10],rax
    180b:	b8 01 00 00 00       	mov    eax,0x1
    1810:	48 89 46 f8          	mov    QWORD PTR [rsi-0x8],rax
    1814:	48 31 f6             	xor    rsi,rsi
    1817:	48 b8 00 00 00 00 00 	movabs rax,0x0
    181e:	00 00 00 
			1819: R_X86_64_64	do_callback
    1821:	48 89 9c 24 c0 01 00 	mov    QWORD PTR [rsp+0x1c0],rbx
    1828:	00 
    1829:	48 89 bc 24 c8 01 00 	mov    QWORD PTR [rsp+0x1c8],rdi
    1830:	00 
    1831:	4c 89 ac 24 d0 01 00 	mov    QWORD PTR [rsp+0x1d0],r13
    1838:	00 
    1839:	ff d0                	call   rax
    183b:	48 8b 9c 24 c0 01 00 	mov    rbx,QWORD PTR [rsp+0x1c0]
    1842:	00 
    1843:	4c 8b ac 24 d0 01 00 	mov    r13,QWORD PTR [rsp+0x1d0]
    184a:	00 
    184b:	48 89 c6             	mov    rsi,rax
    184e:	48 89 b4 24 c0 01 00 	mov    QWORD PTR [rsp+0x1c0],rsi
    1855:	00 
    1856:	49 8b b4 24 98 00 00 	mov    rsi,QWORD PTR [r12+0x98]
    185d:	00 
    185e:	48 8b 7b 08          	mov    rdi,QWORD PTR [rbx+0x8]
    1862:	49 89 b4 24 98 00 00 	mov    QWORD PTR [r12+0x98],rsi
    1869:	00 
    186a:	4c 89 6e e0          	mov    QWORD PTR [rsi-0x20],r13
    186e:	4c 89 76 e8          	mov    QWORD PTR [rsi-0x18],r14
    1872:	b8 01 00 00 00       	mov    eax,0x1
    1877:	48 89 46 f0          	mov    QWORD PTR [rsi-0x10],rax
    187b:	b8 01 00 00 00       	mov    eax,0x1
    1880:	48 89 46 f8          	mov    QWORD PTR [rsi-0x8],rax
    1884:	48 31 f6             	xor    rsi,rsi
    1887:	48 b8 00 00 00 00 00 	movabs rax,0x0
    188e:	00 00 00 
			1889: R_X86_64_64	do_callback
    1891:	48 89 9c 24 c8 01 00 	mov    QWORD PTR [rsp+0x1c8],rbx
    1898:	00 
    1899:	48 89 bc 24 d0 01 00 	mov    QWORD PTR [rsp+0x1d0],rdi
    18a0:	00 
    18a1:	4c 89 ac 24 d8 01 00 	mov    QWORD PTR [rsp+0x1d8],r13
    18a8:	00 
    18a9:	ff d0                	call   rax
    18ab:	48 8b 9c 24 c8 01 00 	mov    rbx,QWORD PTR [rsp+0x1c8]
    18b2:	00 
    18b3:	4c 8b ac 24 d8 01 00 	mov    r13,QWORD PTR [rsp+0x1d8]
    18ba:	00 
    18bb:	48 89 c6             	mov    rsi,rax
    18be:	48 89 b4 24 c8 01 00 	mov    QWORD PTR [rsp+0x1c8],rsi
    18c5:	00 
    18c6:	49 8b b4 24 98 00 00 	mov    rsi,QWORD PTR [r12+0x98]
    18cd:	00 
    18ce:	48 8b 7b 08          	mov    rdi,QWORD PTR [rbx+0x8]
    18d2:	49 89 b4 24 98 00 00 	mov    QWORD PTR [r12+0x98],rsi
    18d9:	00 
    18da:	4c 89 6e e0          	mov    QWORD PTR [rsi-0x20],r13
    18de:	4c 89 76 e8          	mov    QWORD PTR [rsi-0x18],r14
    18e2:	b8 01 00 00 00       	mov    eax,0x1
    18e7:	48 89 46 f0          	mov    QWORD PTR [rsi-0x10],rax
    18eb:	b8 01 00 00 00       	mov    eax,0x1
    18f0:	48 89 46 f8          	mov    QWORD PTR [rsi-0x8],rax
    18f4:	48 31 f6             	xor    rsi,rsi
    18f7:	48 b8 00 00 00 00 00 	movabs rax,0x0
    18fe:	00 00 00 
			18f9: R_X86_64_64	do_callback
    1901:	48 89 9c 24 d0 01 00 	mov    QWORD PTR [rsp+0x1d0],rbx
    1908:	00 
    1909:	48 89 bc 24 d8 01 00 	mov    QWORD PTR [rsp+0x1d8],rdi
    1910:	00 
    1911:	4c 89 ac 24 e0 01 00 	mov    QWORD PTR [rsp+0x1e0],r13
    1918:	00 
    1919:	ff d0                	call   rax
    191b:	48 8b 9c 24 d0 01 00 	mov    rbx,QWORD PTR [rsp+0x1d0]
    1922:	00 
    1923:	4c 8b ac 24 e0 01 00 	mov    r13,QWORD PTR [rsp+0x1e0]
    192a:	00 
    192b:	48 89 c6             	mov    rsi,rax
    192e:	48 89 b4 24 d0 01 00 	mov    QWORD PTR [rsp+0x1d0],rsi
    1935:	00 
    1936:	49 8b b4 24 98 00 00 	mov    rsi,QWORD PTR [r12+0x98]
    193d:	00 
    193e:	48 8b 7b 08          	mov    rdi,QWORD PTR [rbx+0x8]
    1942:	49 89 b4 24 98 00 00 	mov    QWORD PTR [r12+0x98],rsi
    1949:	00 
    194a:	4c 89 6e e0          	mov    QWORD PTR [rsi-0x20],r13
    194e:	4c 89 76 e8          	mov    QWORD PTR [rsi-0x18],r14
    1952:	b8 01 00 00 00       	mov    eax,0x1
    1957:	48 89 46 f0          	mov    QWORD PTR [rsi-0x10],rax
    195b:	b8 01 00 00 00       	mov    eax,0x1
    1960:	48 89 46 f8          	mov    QWORD PTR [rsi-0x8],rax
    1964:	48 31 f6             	xor    rsi,rsi
    1967:	48 b8 00 00 00 00 00 	movabs rax,0x0
    196e:	00 00 00 
			1969: R_X86_64_64	do_callback
    1971:	48 89 9c 24 d8 01 00 	mov    QWORD PTR [rsp+0x1d8],rbx
    1978:	00 
    1979:	48 89 bc 24 e0 01 00 	mov    QWORD PTR [rsp+0x1e0],rdi
    1980:	00 
    1981:	4c 89 ac 24 e8 01 00 	mov    QWORD PTR [rsp+0x1e8],r13
    1988:	00 
    1989:	ff d0                	call   rax
    198b:	48 8b 9c 24 d8 01 00 	mov    rbx,QWORD PTR [rsp+0x1d8]
    1992:	00 
    1993:	4c 8b ac 24 e8 01 00 	mov    r13,QWORD PTR [rsp+0x1e8]
    199a:	00 
    199b:	48 89 c6             	mov    rsi,rax
    199e:	48 89 b4 24 d8 01 00 	mov    QWORD PTR [rsp+0x1d8],rsi
    19a5:	00 
    19a6:	49 8b b4 24 98 00 00 	mov    rsi,QWORD PTR [r12+0x98]
    19ad:	00 
    19ae:	48 8b 7b 08          	mov    rdi,QWORD PTR [rbx+0x8]
    19b2:	49 89 b4 24 98 00 00 	mov    QWORD PTR [r12+0x98],rsi
    19b9:	00 
    19ba:	4c 89 6e e0          	mov    QWORD PTR [rsi-0x20],r13
    19be:	4c 89 76 e8          	mov    QWORD PTR [rsi-0x18],r14
    19c2:	b8 01 00 00 00       	mov    eax,0x1
    19c7:	48 89 46 f0          	mov    QWORD PTR [rsi-0x10],rax
    19cb:	b8 01 00 00 00       	mov    eax,0x1
    19d0:	48 89 46 f8          	mov    QWORD PTR [rsi-0x8],rax
    19d4:	48 31 f6             	xor    rsi,rsi
    19d7:	48 b8 00 00 00 00 00 	movabs rax,0x0
    19de:	00 00 00 
			19d9: R_X86_64_64	do_callback
    19e1:	48 89 9c 24 e0 01 00 	mov    QWORD PTR [rsp+0x1e0],rbx
    19e8:	00 
    19e9:	48 89 bc 24 e8 01 00 	mov    QWORD PTR [rsp+0x1e8],rdi
    19f0:	00 
    19f1:	4c 89 ac 24 f0 01 00 	mov    QWORD PTR [rsp+0x1f0],r13
    19f8:	00 
    19f9:	ff d0                	call   rax
    19fb:	48 8b 9c 24 e0 01 00 	mov    rbx,QWORD PTR [rsp+0x1e0]
    1a02:	00 
    1a03:	4c 8b ac 24 f0 01 00 	mov    r13,QWORD PTR [rsp+0x1f0]
    1a0a:	00 
    1a0b:	48 89 c6             	mov    rsi,rax
    1a0e:	48 89 b4 24 e0 01 00 	mov    QWORD PTR [rsp+0x1e0],rsi
    1a15:	00 
    1a16:	49 8b b4 24 98 00 00 	mov    rsi,QWORD PTR [r12+0x98]
    1a1d:	00 
    1a1e:	48 8b 7b 08          	mov    rdi,QWORD PTR [rbx+0x8]
    1a22:	49 89 b4 24 98 00 00 	mov    QWORD PTR [r12+0x98],rsi
    1a29:	00 
    1a2a:	4c 89 6e e0          	mov    QWORD PTR [rsi-0x20],r13
    1a2e:	4c 89 76 e8          	mov    QWORD PTR [rsi-0x18],r14
    1a32:	b8 01 00 00 00       	mov    eax,0x1
    1a37:	48 89 46 f0          	mov    QWORD PTR [rsi-0x10],rax
    1a3b:	b8 01 00 00 00       	mov    eax,0x1
    1a40:	48 89 46 f8          	mov    QWORD PTR [rsi-0x8],rax
    1a44:	48 31 f6             	xor    rsi,rsi
    1a47:	48 b8 00 00 00 00 00 	movabs rax,0x0
    1a4e:	00 00 00 
			1a49: R_X86_64_64	do_callback
    1a51:	48 89 9c 24 e8 01 00 	mov    QWORD PTR [rsp+0x1e8],rbx
    1a58:	00 
    1a59:	48 89 bc 24 f0 01 00 	mov    QWORD PTR [rsp+0x1f0],rdi
    1a60:	00 
    1a61:	4c 89 ac 24 f8 01 00 	mov    QWORD PTR [rsp+0x1f8],r13
    1a68:	00 
    1a69:	ff d0                	call   rax
    1a6b:	48 8b 9c 24 e8 01 00 	mov    rbx,QWORD PTR [rsp+0x1e8]
    1a72:	00 
    1a73:	4c 8b ac 24 f8 01 00 	mov    r13,QWORD PTR [rsp+0x1f8]
    1a7a:	00 
    1a7b:	48 89 c6             	mov    rsi,rax
    1a7e:	48 89 b4 24 e8 01 00 	mov    QWORD PTR [rsp+0x1e8],rsi
    1a85:	00 
    1a86:	49 8b b4 24 98 00 00 	mov    rsi,QWORD PTR [r12+0x98]
    1a8d:	00 
    1a8e:	48 8b 7b 08          	mov    rdi,QWORD PTR [rbx+0x8]
    1a92:	49 89 b4 24 98 00 00 	mov    QWORD PTR [r12+0x98],rsi
    1a99:	00 
    1a9a:	4c 89 6e e0          	mov    QWORD PTR [rsi-0x20],r13
    1a9e:	4c 89 76 e8          	mov    QWORD PTR [rsi-0x18],r14
    1aa2:	b8 01 00 00 00       	mov    eax,0x1
    1aa7:	48 89 46 f0          	mov    QWORD PTR [rsi-0x10],rax
    1aab:	b8 01 00 00 00       	mov    eax,0x1
    1ab0:	48 89 46 f8          	mov    QWORD PTR [rsi-0x8],rax
    1ab4:	48 31 f6             	xor    rsi,rsi
    1ab7:	48 b8 00 00 00 00 00 	movabs rax,0x0
    1abe:	00 00 00 
			1ab9: R_X86_64_64	do_callback
    1ac1:	48 89 9c 24 f0 01 00 	mov    QWORD PTR [rsp+0x1f0],rbx
    1ac8:	00 
    1ac9:	48 89 bc 24 f8 01 00 	mov    QWORD PTR [rsp+0x1f8],rdi
    1ad0:	00 
    1ad1:	4c 89 ac 24 00 02 00 	mov    QWORD PTR [rsp+0x200],r13
    1ad8:	00 
    1ad9:	ff d0                	call   rax
    1adb:	48 8b 9c 24 f0 01 00 	mov    rbx,QWORD PTR [rsp+0x1f0]
    1ae2:	00 
    1ae3:	4c 8b ac 24 00 02 00 	mov    r13,QWORD PTR [rsp+0x200]
    1aea:	00 
    1aeb:	48 89 c6             	mov    rsi,rax
    1aee:	48 89 b4 24 f0 01 00 	mov    QWORD PTR [rsp+0x1f0],rsi
    1af5:	00 
    1af6:	49 8b b4 24 98 00 00 	mov    rsi,QWORD PTR [r12+0x98]
    1afd:	00 
    1afe:	48 8b 7b 08          	mov    rdi,QWORD PTR [rbx+0x8]
    1b02:	49 89 b4 24 98 00 00 	mov    QWORD PTR [r12+0x98],rsi
    1b09:	00 
    1b0a:	4c 89 6e e0          	mov    QWORD PTR [rsi-0x20],r13
    1b0e:	4c 89 76 e8          	mov    QWORD PTR [rsi-0x18],r14
    1b12:	b8 01 00 00 00       	mov    eax,0x1
    1b17:	48 89 46 f0          	mov    QWORD PTR [rsi-0x10],rax
    1b1b:	b8 01 00 00 00       	mov    eax,0x1
    1b20:	48 89 46 f8          	mov    QWORD PTR [rsi-0x8],rax
    1b24:	48 31 f6             	xor    rsi,rsi
    1b27:	48 b8 00 00 00 00 00 	movabs rax,0x0
    1b2e:	00 00 00 
			1b29: R_X86_64_64	do_callback
    1b31:	48 89 9c 24 f8 01 00 	mov    QWORD PTR [rsp+0x1f8],rbx
    1b38:	00 
    1b39:	48 89 bc 24 00 02 00 	mov    QWORD PTR [rsp+0x200],rdi
    1b40:	00 
    1b41:	4c 89 ac 24 08 02 00 	mov    QWORD PTR [rsp+0x208],r13
    1b48:	00 
    1b49:	ff d0                	call   rax
    1b4b:	48 8b 9c 24 f8 01 00 	mov    rbx,QWORD PTR [rsp+0x1f8]
    1b52:	00 
    1b53:	4c 8b ac 24 08 02 00 	mov    r13,QWORD PTR [rsp+0x208]
    1b5a:	00 
    1b5b:	48 89 c6             	mov    rsi,rax
    1b5e:	48 89 b4 24 f8 01 00 	mov    QWORD PTR [rsp+0x1f8],rsi
    1b65:	00 
    1b66:	49 8b b4 24 98 00 00 	mov    rsi,QWORD PTR [r12+0x98]
    1b6d:	00 
    1b6e:	48 8b 7b 08          	mov    rdi,QWORD PTR [rbx+0x8]
    1b72:	49 89 b4 24 98 00 00 	mov    QWORD PTR [r12+0x98],rsi
    1b79:	00 
    1b7a:	4c 89 6e e0          	mov    QWORD PTR [rsi-0x20],r13
    1b7e:	4c 89 76 e8          	mov    QWORD PTR [rsi-0x18],r14
    1b82:	b8 01 00 00 00       	mov    eax,0x1
    1b87:	48 89 46 f0          	mov    QWORD PTR [rsi-0x10],rax
    1b8b:	b8 01 00 00 00       	mov    eax,0x1
    1b90:	48 89 46 f8          	mov    QWORD PTR [rsi-0x8],rax
    1b94:	48 31 f6             	xor    rsi,rsi
    1b97:	48 b8 00 00 00 00 00 	movabs rax,0x0
    1b9e:	00 00 00 
			1b99: R_X86_64_64	do_callback
    1ba1:	48 89 9c 24 00 02 00 	mov    QWORD PTR [rsp+0x200],rbx
    1ba8:	00 
    1ba9:	48 89 bc 24 08 02 00 	mov    QWORD PTR [rsp+0x208],rdi
    1bb0:	00 
    1bb1:	4c 89 ac 24 10 02 00 	mov    QWORD PTR [rsp+0x210],r13
    1bb8:	00 
    1bb9:	ff d0                	call   rax
    1bbb:	48 8b 9c 24 00 02 00 	mov    rbx,QWORD PTR [rsp+0x200]
    1bc2:	00 
    1bc3:	4c 8b ac 24 10 02 00 	mov    r13,QWORD PTR [rsp+0x210]
    1bca:	00 
    1bcb:	48 89 c6             	mov    rsi,rax
    1bce:	48 89 b4 24 00 02 00 	mov    QWORD PTR [rsp+0x200],rsi
    1bd5:	00 
    1bd6:	49 8b b4 24 98 00 00 	mov    rsi,QWORD PTR [r12+0x98]
    1bdd:	00 
    1bde:	48 8b 7b 08          	mov    rdi,QWORD PTR [rbx+0x8]
    1be2:	49 89 b4 24 98 00 00 	mov    QWORD PTR [r12+0x98],rsi
    1be9:	00 
    1bea:	4c 89 6e e0          	mov    QWORD PTR [rsi-0x20],r13
    1bee:	4c 89 76 e8          	mov    QWORD PTR [rsi-0x18],r14
    1bf2:	b8 01 00 00 00       	mov    eax,0x1
    1bf7:	48 89 46 f0          	mov    QWORD PTR [rsi-0x10],rax
    1bfb:	b8 01 00 00 00       	mov    eax,0x1
    1c00:	48 89 46 f8          	mov    QWORD PTR [rsi-0x8],rax
    1c04:	48 31 f6             	xor    rsi,rsi
    1c07:	48 b8 00 00 00 00 00 	movabs rax,0x0
    1c0e:	00 00 00 
			1c09: R_X86_64_64	do_callback
    1c11:	48 89 9c 24 08 02 00 	mov    QWORD PTR [rsp+0x208],rbx
    1c18:	00 
    1c19:	48 89 bc 24 10 02 00 	mov    QWORD PTR [rsp+0x210],rdi
    1c20:	00 
    1c21:	4c 89 ac 24 18 02 00 	mov    QWORD PTR [rsp+0x218],r13
    1c28:	00 
    1c29:	ff d0                	call   rax
    1c2b:	48 8b 9c 24 08 02 00 	mov    rbx,QWORD PTR [rsp+0x208]
    1c32:	00 
    1c33:	4c 8b ac 24 18 02 00 	mov    r13,QWORD PTR [rsp+0x218]
    1c3a:	00 
    1c3b:	48 89 c6             	mov    rsi,rax
    1c3e:	48 89 b4 24 08 02 00 	mov    QWORD PTR [rsp+0x208],rsi
    1c45:	00 
    1c46:	49 8b b4 24 98 00 00 	mov    rsi,QWORD PTR [r12+0x98]
    1c4d:	00 
    1c4e:	48 8b 7b 08          	mov    rdi,QWORD PTR [rbx+0x8]
    1c52:	49 89 b4 24 98 00 00 	mov    QWORD PTR [r12+0x98],rsi
    1c59:	00 
    1c5a:	4c 89 6e e0          	mov    QWORD PTR [rsi-0x20],r13
    1c5e:	4c 89 76 e8          	mov    QWORD PTR [rsi-0x18],r14
    1c62:	b8 01 00 00 00       	mov    eax,0x1
    1c67:	48 89 46 f0          	mov    QWORD PTR [rsi-0x10],rax
    1c6b:	b8 01 00 00 00       	mov    eax,0x1
    1c70:	48 89 46 f8          	mov    QWORD PTR [rsi-0x8],rax
    1c74:	48 31 f6             	xor    rsi,rsi
    1c77:	48 b8 00 00 00 00 00 	movabs rax,0x0
    1c7e:	00 00 00 
			1c79: R_X86_64_64	do_callback
    1c81:	48 89 9c 24 10 02 00 	mov    QWORD PTR [rsp+0x210],rbx
    1c88:	00 
    1c89:	48 89 bc 24 18 02 00 	mov    QWORD PTR [rsp+0x218],rdi
    1c90:	00 
    1c91:	4c 89 ac 24 20 02 00 	mov    QWORD PTR [rsp+0x220],r13
    1c98:	00 
    1c99:	ff d0                	call   rax
    1c9b:	48 8b 9c 24 10 02 00 	mov    rbx,QWORD PTR [rsp+0x210]
    1ca2:	00 
    1ca3:	4c 8b ac 24 20 02 00 	mov    r13,QWORD PTR [rsp+0x220]
    1caa:	00 
    1cab:	48 89 c6             	mov    rsi,rax
    1cae:	48 89 b4 24 10 02 00 	mov    QWORD PTR [rsp+0x210],rsi
    1cb5:	00 
    1cb6:	49 8b b4 24 98 00 00 	mov    rsi,QWORD PTR [r12+0x98]
    1cbd:	00 
    1cbe:	48 8b 7b 08          	mov    rdi,QWORD PTR [rbx+0x8]
    1cc2:	49 89 b4 24 98 00 00 	mov    QWORD PTR [r12+0x98],rsi
    1cc9:	00 
    1cca:	4c 89 6e e0          	mov    QWORD PTR [rsi-0x20],r13
    1cce:	4c 89 76 e8          	mov    QWORD PTR [rsi-0x18],r14
    1cd2:	b8 01 00 00 00       	mov    eax,0x1
    1cd7:	48 89 46 f0          	mov    QWORD PTR [rsi-0x10],rax
    1cdb:	b8 01 00 00 00       	mov    eax,0x1
    1ce0:	48 89 46 f8          	mov    QWORD PTR [rsi-0x8],rax
    1ce4:	48 31 f6             	xor    rsi,rsi
    1ce7:	48 b8 00 00 00 00 00 	movabs rax,0x0
    1cee:	00 00 00 
			1ce9: R_X86_64_64	do_callback
    1cf1:	48 89 9c 24 18 02 00 	mov    QWORD PTR [rsp+0x218],rbx
    1cf8:	00 
    1cf9:	48 89 bc 24 20 02 00 	mov    QWORD PTR [rsp+0x220],rdi
    1d00:	00 
    1d01:	4c 89 ac 24 28 02 00 	mov    QWORD PTR [rsp+0x228],r13
    1d08:	00 
    1d09:	ff d0                	call   rax
    1d0b:	48 8b 9c 24 18 02 00 	mov    rbx,QWORD PTR [rsp+0x218]
    1d12:	00 
    1d13:	4c 8b ac 24 28 02 00 	mov    r13,QWORD PTR [rsp+0x228]
    1d1a:	00 
    1d1b:	48 89 c6             	mov    rsi,rax
    1d1e:	48 89 b4 24 18 02 00 	mov    QWORD PTR [rsp+0x218],rsi
    1d25:	00 
    1d26:	49 8b b4 24 98 00 00 	mov    rsi,QWORD PTR [r12+0x98]
    1d2d:	00 
    1d2e:	48 8b 7b 08          	mov    rdi,QWORD PTR [rbx+0x8]
    1d32:	49 89 b4 24 98 00 00 	mov    QWORD PTR [r12+0x98],rsi
    1d39:	00 
    1d3a:	4c 89 6e e0          	mov    QWORD PTR [rsi-0x20],r13
    1d3e:	4c 89 76 e8          	mov    QWORD PTR [rsi-0x18],r14
    1d42:	b8 01 00 00 00       	mov    eax,0x1
    1d47:	48 89 46 f0          	mov    QWORD PTR [rsi-0x10],rax
    1d4b:	b8 01 00 00 00       	mov    eax,0x1
    1d50:	48 89 46 f8          	mov    QWORD PTR [rsi-0x8],rax
    1d54:	48 31 f6             	xor    rsi,rsi
    1d57:	48 b8 00 00 00 00 00 	movabs rax,0x0
    1d5e:	00 00 00 
			1d59: R_X86_64_64	do_callback
    1d61:	48 89 9c 24 20 02 00 	mov    QWORD PTR [rsp+0x220],rbx
    1d68:	00 
    1d69:	48 89 bc 24 28 02 00 	mov    QWORD PTR [rsp+0x228],rdi
    1d70:	00 
    1d71:	4c 89 ac 24 30 02 00 	mov    QWORD PTR [rsp+0x230],r13
    1d78:	00 
    1d79:	ff d0                	call   rax
    1d7b:	48 8b 9c 24 20 02 00 	mov    rbx,QWORD PTR [rsp+0x220]
    1d82:	00 
    1d83:	4c 8b ac 24 30 02 00 	mov    r13,QWORD PTR [rsp+0x230]
    1d8a:	00 
    1d8b:	48 89 c6             	mov    rsi,rax
    1d8e:	48 89 b4 24 20 02 00 	mov    QWORD PTR [rsp+0x220],rsi
    1d95:	00 
    1d96:	49 8b b4 24 98 00 00 	mov    rsi,QWORD PTR [r12+0x98]
    1d9d:	00 
    1d9e:	48 8b 7b 08          	mov    rdi,QWORD PTR [rbx+0x8]
    1da2:	49 89 b4 24 98 00 00 	mov    QWORD PTR [r12+0x98],rsi
    1da9:	00 
    1daa:	4c 89 6e e0          	mov    QWORD PTR [rsi-0x20],r13
    1dae:	4c 89 76 e8          	mov    QWORD PTR [rsi-0x18],r14
    1db2:	b8 01 00 00 00       	mov    eax,0x1
    1db7:	48 89 46 f0          	mov    QWORD PTR [rsi-0x10],rax
    1dbb:	b8 01 00 00 00       	mov    eax,0x1
    1dc0:	48 89 46 f8          	mov    QWORD PTR [rsi-0x8],rax
    1dc4:	48 31 f6             	xor    rsi,rsi
    1dc7:	48 b8 00 00 00 00 00 	movabs rax,0x0
    1dce:	00 00 00 
			1dc9: R_X86_64_64	do_callback
    1dd1:	48 89 9c 24 28 02 00 	mov    QWORD PTR [rsp+0x228],rbx
    1dd8:	00 
    1dd9:	48 89 bc 24 30 02 00 	mov    QWORD PTR [rsp+0x230],rdi
    1de0:	00 
    1de1:	4c 89 ac 24 38 02 00 	mov    QWORD PTR [rsp+0x238],r13
    1de8:	00 
    1de9:	ff d0                	call   rax
    1deb:	48 8b 9c 24 28 02 00 	mov    rbx,QWORD PTR [rsp+0x228]
    1df2:	00 
    1df3:	4c 8b ac 24 38 02 00 	mov    r13,QWORD PTR [rsp+0x238]
    1dfa:	00 
    1dfb:	48 89 c6             	mov    rsi,rax
    1dfe:	48 89 b4 24 28 02 00 	mov    QWORD PTR [rsp+0x228],rsi
    1e05:	00 
    1e06:	49 8b b4 24 98 00 00 	mov    rsi,QWORD PTR [r12+0x98]
    1e0d:	00 
    1e0e:	48 8b 7b 08          	mov    rdi,QWORD PTR [rbx+0x8]
    1e12:	49 89 b4 24 98 00 00 	mov    QWORD PTR [r12+0x98],rsi
    1e19:	00 
    1e1a:	4c 89 6e e0          	mov    QWORD PTR [rsi-0x20],r13
    1e1e:	4c 89 76 e8          	mov    QWORD PTR [rsi-0x18],r14
    1e22:	b8 01 00 00 00       	mov    eax,0x1
    1e27:	48 89 46 f0          	mov    QWORD PTR [rsi-0x10],rax
    1e2b:	b8 01 00 00 00       	mov    eax,0x1
    1e30:	48 89 46 f8          	mov    QWORD PTR [rsi-0x8],rax
    1e34:	48 31 f6             	xor    rsi,rsi
    1e37:	48 b8 00 00 00 00 00 	movabs rax,0x0
    1e3e:	00 00 00 
			1e39: R_X86_64_64	do_callback
    1e41:	48 89 9c 24 30 02 00 	mov    QWORD PTR [rsp+0x230],rbx
    1e48:	00 
    1e49:	48 89 bc 24 38 02 00 	mov    QWORD PTR [rsp+0x238],rdi
    1e50:	00 
    1e51:	4c 89 ac 24 40 02 00 	mov    QWORD PTR [rsp+0x240],r13
    1e58:	00 
    1e59:	ff d0                	call   rax
    1e5b:	48 8b 9c 24 30 02 00 	mov    rbx,QWORD PTR [rsp+0x230]
    1e62:	00 
    1e63:	4c 8b ac 24 40 02 00 	mov    r13,QWORD PTR [rsp+0x240]
    1e6a:	00 
    1e6b:	48 89 c6             	mov    rsi,rax
    1e6e:	48 89 b4 24 30 02 00 	mov    QWORD PTR [rsp+0x230],rsi
    1e75:	00 
    1e76:	49 8b b4 24 98 00 00 	mov    rsi,QWORD PTR [r12+0x98]
    1e7d:	00 
    1e7e:	48 8b 7b 08          	mov    rdi,QWORD PTR [rbx+0x8]
    1e82:	49 89 b4 24 98 00 00 	mov    QWORD PTR [r12+0x98],rsi
    1e89:	00 
    1e8a:	4c 89 6e e0          	mov    QWORD PTR [rsi-0x20],r13
    1e8e:	4c 89 76 e8          	mov    QWORD PTR [rsi-0x18],r14
    1e92:	b8 01 00 00 00       	mov    eax,0x1
    1e97:	48 89 46 f0          	mov    QWORD PTR [rsi-0x10],rax
    1e9b:	b8 01 00 00 00       	mov    eax,0x1
    1ea0:	48 89 46 f8          	mov    QWORD PTR [rsi-0x8],rax
    1ea4:	48 31 f6             	xor    rsi,rsi
    1ea7:	48 b8 00 00 00 00 00 	movabs rax,0x0
    1eae:	00 00 00 
			1ea9: R_X86_64_64	do_callback
    1eb1:	48 89 9c 24 38 02 00 	mov    QWORD PTR [rsp+0x238],rbx
    1eb8:	00 
    1eb9:	48 89 bc 24 40 02 00 	mov    QWORD PTR [rsp+0x240],rdi
    1ec0:	00 
    1ec1:	4c 89 ac 24 48 02 00 	mov    QWORD PTR [rsp+0x248],r13
    1ec8:	00 
    1ec9:	ff d0                	call   rax
    1ecb:	48 8b 9c 24 38 02 00 	mov    rbx,QWORD PTR [rsp+0x238]
    1ed2:	00 
    1ed3:	4c 8b ac 24 48 02 00 	mov    r13,QWORD PTR [rsp+0x248]
    1eda:	00 
    1edb:	48 89 c6             	mov    rsi,rax
    1ede:	48 89 b4 24 38 02 00 	mov    QWORD PTR [rsp+0x238],rsi
    1ee5:	00 
    1ee6:	49 8b b4 24 98 00 00 	mov    rsi,QWORD PTR [r12+0x98]
    1eed:	00 
    1eee:	48 8b 7b 08          	mov    rdi,QWORD PTR [rbx+0x8]
    1ef2:	49 89 b4 24 98 00 00 	mov    QWORD PTR [r12+0x98],rsi
    1ef9:	00 
    1efa:	4c 89 6e e0          	mov    QWORD PTR [rsi-0x20],r13
    1efe:	4c 89 76 e8          	mov    QWORD PTR [rsi-0x18],r14
    1f02:	b8 01 00 00 00       	mov    eax,0x1
    1f07:	48 89 46 f0          	mov    QWORD PTR [rsi-0x10],rax
    1f0b:	b8 01 00 00 00       	mov    eax,0x1
    1f10:	48 89 46 f8          	mov    QWORD PTR [rsi-0x8],rax
    1f14:	48 31 f6             	xor    rsi,rsi
    1f17:	48 b8 00 00 00 00 00 	movabs rax,0x0
    1f1e:	00 00 00 
			1f19: R_X86_64_64	do_callback
    1f21:	48 89 9c 24 40 02 00 	mov    QWORD PTR [rsp+0x240],rbx
    1f28:	00 
    1f29:	48 89 bc 24 48 02 00 	mov    QWORD PTR [rsp+0x248],rdi
    1f30:	00 
    1f31:	4c 89 ac 24 50 02 00 	mov    QWORD PTR [rsp+0x250],r13
    1f38:	00 
    1f39:	ff d0                	call   rax
    1f3b:	48 8b 9c 24 40 02 00 	mov    rbx,QWORD PTR [rsp+0x240]
    1f42:	00 
    1f43:	4c 8b ac 24 50 02 00 	mov    r13,QWORD PTR [rsp+0x250]
    1f4a:	00 
    1f4b:	48 89 c6             	mov    rsi,rax
    1f4e:	48 89 b4 24 40 02 00 	mov    QWORD PTR [rsp+0x240],rsi
    1f55:	00 
    1f56:	49 8b b4 24 98 00 00 	mov    rsi,QWORD PTR [r12+0x98]
    1f5d:	00 
    1f5e:	48 8b 7b 08          	mov    rdi,QWORD PTR [rbx+0x8]
    1f62:	49 89 b4 24 98 00 00 	mov    QWORD PTR [r12+0x98],rsi
    1f69:	00 
    1f6a:	4c 89 6e e0          	mov    QWORD PTR [rsi-0x20],r13
    1f6e:	4c 89 76 e8          	mov    QWORD PTR [rsi-0x18],r14
    1f72:	b8 01 00 00 00       	mov    eax,0x1
    1f77:	48 89 46 f0          	mov    QWORD PTR [rsi-0x10],rax
    1f7b:	b8 01 00 00 00       	mov    eax,0x1
    1f80:	48 89 46 f8          	mov    QWORD PTR [rsi-0x8],rax
    1f84:	48 31 f6             	xor    rsi,rsi
    1f87:	48 b8 00 00 00 00 00 	movabs rax,0x0
    1f8e:	00 00 00 
			1f89: R_X86_64_64	do_callback
    1f91:	48 89 9c 24 48 02 00 	mov    QWORD PTR [rsp+0x248],rbx
    1f98:	00 
    1f99:	48 89 bc 24 50 02 00 	mov    QWORD PTR [rsp+0x250],rdi
    1fa0:	00 
    1fa1:	4c 89 ac 24 58 02 00 	mov    QWORD PTR [rsp+0x258],r13
    1fa8:	00 
    1fa9:	ff d0                	call   rax
    1fab:	48 8b 9c 24 48 02 00 	mov    rbx,QWORD PTR [rsp+0x248]
    1fb2:	00 
    1fb3:	4c 8b ac 24 58 02 00 	mov    r13,QWORD PTR [rsp+0x258]
    1fba:	00 
    1fbb:	48 89 c6             	mov    rsi,rax
    1fbe:	48 89 b4 24 48 02 00 	mov    QWORD PTR [rsp+0x248],rsi
    1fc5:	00 
    1fc6:	49 8b b4 24 98 00 00 	mov    rsi,QWORD PTR [r12+0x98]
    1fcd:	00 
    1fce:	48 8b 7b 08          	mov    rdi,QWORD PTR [rbx+0x8]
    1fd2:	49 89 b4 24 98 00 00 	mov    QWORD PTR [r12+0x98],rsi
    1fd9:	00 
    1fda:	4c 89 6e e0          	mov    QWORD PTR [rsi-0x20],r13
    1fde:	4c 89 76 e8          	mov    QWORD PTR [rsi-0x18],r14
    1fe2:	b8 01 00 00 00       	mov    eax,0x1
    1fe7:	48 89 46 f0          	mov    QWORD PTR [rsi-0x10],rax
    1feb:	b8 01 00 00 00       	mov    eax,0x1
    1ff0:	48 89 46 f8          	mov    QWORD PTR [rsi-0x8],rax
    1ff4:	48 31 f6             	xor    rsi,rsi
    1ff7:	48 b8 00 00 00 00 00 	movabs rax,0x0
    1ffe:	00 00 00 
			1ff9: R_X86_64_64	do_callback
    2001:	48 89 9c 24 50 02 00 	mov    QWORD PTR [rsp+0x250],rbx
    2008:	00 
    2009:	48 89 bc 24 58 02 00 	mov    QWORD PTR [rsp+0x258],rdi
    2010:	00 
    2011:	4c 89 ac 24 60 02 00 	mov    QWORD PTR [rsp+0x260],r13
    2018:	00 
    2019:	ff d0                	call   rax
    201b:	48 8b 9c 24 50 02 00 	mov    rbx,QWORD PTR [rsp+0x250]
    2022:	00 
    2023:	4c 8b ac 24 60 02 00 	mov    r13,QWORD PTR [rsp+0x260]
    202a:	00 
    202b:	48 89 c6             	mov    rsi,rax
    202e:	48 89 b4 24 50 02 00 	mov    QWORD PTR [rsp+0x250],rsi
    2035:	00 
    2036:	49 8b b4 24 98 00 00 	mov    rsi,QWORD PTR [r12+0x98]
    203d:	00 
    203e:	48 8b 7b 08          	mov    rdi,QWORD PTR [rbx+0x8]
    2042:	49 89 b4 24 98 00 00 	mov    QWORD PTR [r12+0x98],rsi
    2049:	00 
    204a:	4c 89 6e e0          	mov    QWORD PTR [rsi-0x20],r13
    204e:	4c 89 76 e8          	mov    QWORD PTR [rsi-0x18],r14
    2052:	b8 01 00 00 00       	mov    eax,0x1
    2057:	48 89 46 f0          	mov    QWORD PTR [rsi-0x10],rax
    205b:	b8 01 00 00 00       	mov    eax,0x1
    2060:	48 89 46 f8          	mov    QWORD PTR [rsi-0x8],rax
    2064:	48 31 f6             	xor    rsi,rsi
    2067:	48 b8 00 00 00 00 00 	movabs rax,0x0
    206e:	00 00 00 
			2069: R_X86_64_64	do_callback
    2071:	48 89 9c 24 58 02 00 	mov    QWORD PTR [rsp+0x258],rbx
    2078:	00 
    2079:	48 89 bc 24 60 02 00 	mov    QWORD PTR [rsp+0x260],rdi
    2080:	00 
    2081:	4c 89 ac 24 68 02 00 	mov    QWORD PTR [rsp+0x268],r13
    2088:	00 
    2089:	ff d0                	call   rax
    208b:	48 8b 9c 24 58 02 00 	mov    rbx,QWORD PTR [rsp+0x258]
    2092:	00 
    2093:	4c 8b ac 24 68 02 00 	mov    r13,QWORD PTR [rsp+0x268]
    209a:	00 
    209b:	48 89 c6             	mov    rsi,rax
    209e:	48 89 b4 24 58 02 00 	mov    QWORD PTR [rsp+0x258],rsi
    20a5:	00 
    20a6:	49 8b b4 24 98 00 00 	mov    rsi,QWORD PTR [r12+0x98]
    20ad:	00 
    20ae:	48 8b 7b 08          	mov    rdi,QWORD PTR [rbx+0x8]
    20b2:	49 89 b4 24 98 00 00 	mov    QWORD PTR [r12+0x98],rsi
    20b9:	00 
    20ba:	4c 89 6e e0          	mov    QWORD PTR [rsi-0x20],r13
    20be:	4c 89 76 e8          	mov    QWORD PTR [rsi-0x18],r14
    20c2:	b8 01 00 00 00       	mov    eax,0x1
    20c7:	48 89 46 f0          	mov    QWORD PTR [rsi-0x10],rax
    20cb:	b8 01 00 00 00       	mov    eax,0x1
    20d0:	48 89 46 f8          	mov    QWORD PTR [rsi-0x8],rax
    20d4:	48 31 f6             	xor    rsi,rsi
    20d7:	48 b8 00 00 00 00 00 	movabs rax,0x0
    20de:	00 00 00 
			20d9: R_X86_64_64	do_callback
    20e1:	48 89 9c 24 60 02 00 	mov    QWORD PTR [rsp+0x260],rbx
    20e8:	00 
    20e9:	48 89 bc 24 68 02 00 	mov    QWORD PTR [rsp+0x268],rdi
    20f0:	00 
    20f1:	4c 89 ac 24 70 02 00 	mov    QWORD PTR [rsp+0x270],r13
    20f8:	00 
    20f9:	ff d0                	call   rax
    20fb:	48 8b 9c 24 60 02 00 	mov    rbx,QWORD PTR [rsp+0x260]
    2102:	00 
    2103:	4c 8b ac 24 70 02 00 	mov    r13,QWORD PTR [rsp+0x270]
    210a:	00 
    210b:	48 89 c6             	mov    rsi,rax
    210e:	48 89 b4 24 60 02 00 	mov    QWORD PTR [rsp+0x260],rsi
    2115:	00 
    2116:	49 8b b4 24 98 00 00 	mov    rsi,QWORD PTR [r12+0x98]
    211d:	00 
    211e:	48 8b 7b 08          	mov    rdi,QWORD PTR [rbx+0x8]
    2122:	49 89 b4 24 98 00 00 	mov    QWORD PTR [r12+0x98],rsi
    2129:	00 
    212a:	4c 89 6e e0          	mov    QWORD PTR [rsi-0x20],r13
    212e:	4c 89 76 e8          	mov    QWORD PTR [rsi-0x18],r14
    2132:	b8 01 00 00 00       	mov    eax,0x1
    2137:	48 89 46 f0          	mov    QWORD PTR [rsi-0x10],rax
    213b:	b8 01 00 00 00       	mov    eax,0x1
    2140:	48 89 46 f8          	mov    QWORD PTR [rsi-0x8],rax
    2144:	48 31 f6             	xor    rsi,rsi
    2147:	48 b8 00 00 00 00 00 	movabs rax,0x0
    214e:	00 00 00 
			2149: R_X86_64_64	do_callback
    2151:	48 89 9c 24 68 02 00 	mov    QWORD PTR [rsp+0x268],rbx
    2158:	00 
    2159:	48 89 bc 24 70 02 00 	mov    QWORD PTR [rsp+0x270],rdi
    2160:	00 
    2161:	4c 89 ac 24 78 02 00 	mov    QWORD PTR [rsp+0x278],r13
    2168:	00 
    2169:	ff d0                	call   rax
    216b:	48 8b 9c 24 68 02 00 	mov    rbx,QWORD PTR [rsp+0x268]
    2172:	00 
    2173:	4c 8b ac 24 78 02 00 	mov    r13,QWORD PTR [rsp+0x278]
    217a:	00 
    217b:	48 89 c6             	mov    rsi,rax
    217e:	48 89 b4 24 68 02 00 	mov    QWORD PTR [rsp+0x268],rsi
    2185:	00 
    2186:	49 8b b4 24 98 00 00 	mov    rsi,QWORD PTR [r12+0x98]
    218d:	00 
    218e:	48 8b 7b 08          	mov    rdi,QWORD PTR [rbx+0x8]
    2192:	49 89 b4 24 98 00 00 	mov    QWORD PTR [r12+0x98],rsi
    2199:	00 
    219a:	4c 89 6e e0          	mov    QWORD PTR [rsi-0x20],r13
    219e:	4c 89 76 e8          	mov    QWORD PTR [rsi-0x18],r14
    21a2:	b8 01 00 00 00       	mov    eax,0x1
    21a7:	48 89 46 f0          	mov    QWORD PTR [rsi-0x10],rax
    21ab:	b8 01 00 00 00       	mov    eax,0x1
    21b0:	48 89 46 f8          	mov    QWORD PTR [rsi-0x8],rax
    21b4:	48 31 f6             	xor    rsi,rsi
    21b7:	48 b8 00 00 00 00 00 	movabs rax,0x0
    21be:	00 00 00 
			21b9: R_X86_64_64	do_callback
    21c1:	48 89 9c 24 70 02 00 	mov    QWORD PTR [rsp+0x270],rbx
    21c8:	00 
    21c9:	48 89 bc 24 78 02 00 	mov    QWORD PTR [rsp+0x278],rdi
    21d0:	00 
    21d1:	4c 89 ac 24 80 02 00 	mov    QWORD PTR [rsp+0x280],r13
    21d8:	00 
    21d9:	ff d0                	call   rax
    21db:	48 8b 9c 24 70 02 00 	mov    rbx,QWORD PTR [rsp+0x270]
    21e2:	00 
    21e3:	4c 8b ac 24 80 02 00 	mov    r13,QWORD PTR [rsp+0x280]
    21ea:	00 
    21eb:	48 89 c6             	mov    rsi,rax
    21ee:	48 89 b4 24 70 02 00 	mov    QWORD PTR [rsp+0x270],rsi
    21f5:	00 
    21f6:	49 8b b4 24 98 00 00 	mov    rsi,QWORD PTR [r12+0x98]
    21fd:	00 
    21fe:	48 8b 7b 08          	mov    rdi,QWORD PTR [rbx+0x8]
    2202:	49 89 b4 24 98 00 00 	mov    QWORD PTR [r12+0x98],rsi
    2209:	00 
    220a:	4c 89 6e e0          	mov    QWORD PTR [rsi-0x20],r13
    220e:	4c 89 76 e8          	mov    QWORD PTR [rsi-0x18],r14
    2212:	b8 01 00 00 00       	mov    eax,0x1
    2217:	48 89 46 f0          	mov    QWORD PTR [rsi-0x10],rax
    221b:	b8 01 00 00 00       	mov    eax,0x1
    2220:	48 89 46 f8          	mov    QWORD PTR [rsi-0x8],rax
    2224:	48 31 f6             	xor    rsi,rsi
    2227:	48 b8 00 00 00 00 00 	movabs rax,0x0
    222e:	00 00 00 
			2229: R_X86_64_64	do_callback
    2231:	48 89 9c 24 78 02 00 	mov    QWORD PTR [rsp+0x278],rbx
    2238:	00 
    2239:	48 89 bc 24 80 02 00 	mov    QWORD PTR [rsp+0x280],rdi
    2240:	00 
    2241:	4c 89 ac 24 88 02 00 	mov    QWORD PTR [rsp+0x288],r13
    2248:	00 
    2249:	ff d0                	call   rax
    224b:	48 8b 9c 24 78 02 00 	mov    rbx,QWORD PTR [rsp+0x278]
    2252:	00 
    2253:	4c 8b ac 24 88 02 00 	mov    r13,QWORD PTR [rsp+0x288]
    225a:	00 
    225b:	48 89 c6             	mov    rsi,rax
    225e:	48 89 b4 24 78 02 00 	mov    QWORD PTR [rsp+0x278],rsi
    2265:	00 
    2266:	49 8b b4 24 98 00 00 	mov    rsi,QWORD PTR [r12+0x98]
    226d:	00 
    226e:	48 8b 7b 08          	mov    rdi,QWORD PTR [rbx+0x8]
    2272:	49 89 b4 24 98 00 00 	mov    QWORD PTR [r12+0x98],rsi
    2279:	00 
    227a:	4c 89 6e e0          	mov    QWORD PTR [rsi-0x20],r13
    227e:	4c 89 76 e8          	mov    QWORD PTR [rsi-0x18],r14
    2282:	b8 01 00 00 00       	mov    eax,0x1
    2287:	48 89 46 f0          	mov    QWORD PTR [rsi-0x10],rax
    228b:	b8 01 00 00 00       	mov    eax,0x1
    2290:	48 89 46 f8          	mov    QWORD PTR [rsi-0x8],rax
    2294:	48 31 f6             	xor    rsi,rsi
    2297:	48 b8 00 00 00 00 00 	movabs rax,0x0
    229e:	00 00 00 
			2299: R_X86_64_64	do_callback
    22a1:	48 89 9c 24 80 02 00 	mov    QWORD PTR [rsp+0x280],rbx
    22a8:	00 
    22a9:	48 89 bc 24 88 02 00 	mov    QWORD PTR [rsp+0x288],rdi
    22b0:	00 
    22b1:	4c 89 ac 24 90 02 00 	mov    QWORD PTR [rsp+0x290],r13
    22b8:	00 
    22b9:	ff d0                	call   rax
    22bb:	48 8b 9c 24 80 02 00 	mov    rbx,QWORD PTR [rsp+0x280]
    22c2:	00 
    22c3:	4c 8b ac 24 90 02 00 	mov    r13,QWORD PTR [rsp+0x290]
    22ca:	00 
    22cb:	48 89 c6             	mov    rsi,rax
    22ce:	48 89 b4 24 80 02 00 	mov    QWORD PTR [rsp+0x280],rsi
    22d5:	00 
    22d6:	49 8b b4 24 98 00 00 	mov    rsi,QWORD PTR [r12+0x98]
    22dd:	00 
    22de:	48 8b 7b 08          	mov    rdi,QWORD PTR [rbx+0x8]
    22e2:	49 89 b4 24 98 00 00 	mov    QWORD PTR [r12+0x98],rsi
    22e9:	00 
    22ea:	4c 89 6e e0          	mov    QWORD PTR [rsi-0x20],r13
    22ee:	4c 89 76 e8          	mov    QWORD PTR [rsi-0x18],r14
    22f2:	b8 01 00 00 00       	mov    eax,0x1
    22f7:	48 89 46 f0          	mov    QWORD PTR [rsi-0x10],rax
    22fb:	b8 01 00 00 00       	mov    eax,0x1
    2300:	48 89 46 f8          	mov    QWORD PTR [rsi-0x8],rax
    2304:	48 31 f6             	xor    rsi,rsi
    2307:	48 b8 00 00 00 00 00 	movabs rax,0x0
    230e:	00 00 00 
			2309: R_X86_64_64	do_callback
    2311:	48 89 9c 24 88 02 00 	mov    QWORD PTR [rsp+0x288],rbx
    2318:	00 
    2319:	48 89 bc 24 90 02 00 	mov    QWORD PTR [rsp+0x290],rdi
    2320:	00 
    2321:	4c 89 ac 24 98 02 00 	mov    QWORD PTR [rsp+0x298],r13
    2328:	00 
    2329:	ff d0                	call   rax
    232b:	48 8b 9c 24 88 02 00 	mov    rbx,QWORD PTR [rsp+0x288]
    2332:	00 
    2333:	4c 8b ac 24 98 02 00 	mov    r13,QWORD PTR [rsp+0x298]
    233a:	00 
    233b:	48 89 c6             	mov    rsi,rax
    233e:	48 89 b4 24 88 02 00 	mov    QWORD PTR [rsp+0x288],rsi
    2345:	00 
    2346:	49 8b b4 24 98 00 00 	mov    rsi,QWORD PTR [r12+0x98]
    234d:	00 
    234e:	48 8b 7b 08          	mov    rdi,QWORD PTR [rbx+0x8]
    2352:	49 89 b4 24 98 00 00 	mov    QWORD PTR [r12+0x98],rsi
    2359:	00 
    235a:	4c 89 6e e0          	mov    QWORD PTR [rsi-0x20],r13
    235e:	4c 89 76 e8          	mov    QWORD PTR [rsi-0x18],r14
    2362:	b8 01 00 00 00       	mov    eax,0x1
    2367:	48 89 46 f0          	mov    QWORD PTR [rsi-0x10],rax
    236b:	b8 01 00 00 00       	mov    eax,0x1
    2370:	48 89 46 f8          	mov    QWORD PTR [rsi-0x8],rax
    2374:	48 31 f6             	xor    rsi,rsi
    2377:	48 b8 00 00 00 00 00 	movabs rax,0x0
    237e:	00 00 00 
			2379: R_X86_64_64	do_callback
    2381:	48 89 9c 24 90 02 00 	mov    QWORD PTR [rsp+0x290],rbx
    2388:	00 
    2389:	48 89 bc 24 98 02 00 	mov    QWORD PTR [rsp+0x298],rdi
    2390:	00 
    2391:	4c 89 ac 24 a0 02 00 	mov    QWORD PTR [rsp+0x2a0],r13
    2398:	00 
    2399:	ff d0                	call   rax
    239b:	48 8b 9c 24 90 02 00 	mov    rbx,QWORD PTR [rsp+0x290]
    23a2:	00 
    23a3:	4c 8b ac 24 a0 02 00 	mov    r13,QWORD PTR [rsp+0x2a0]
    23aa:	00 
    23ab:	48 89 c6             	mov    rsi,rax
    23ae:	48 89 b4 24 90 02 00 	mov    QWORD PTR [rsp+0x290],rsi
    23b5:	00 
    23b6:	49 8b b4 24 98 00 00 	mov    rsi,QWORD PTR [r12+0x98]
    23bd:	00 
    23be:	48 8b 7b 08          	mov    rdi,QWORD PTR [rbx+0x8]
    23c2:	49 89 b4 24 98 00 00 	mov    QWORD PTR [r12+0x98],rsi
    23c9:	00 
    23ca:	4c 89 6e e0          	mov    QWORD PTR [rsi-0x20],r13
    23ce:	4c 89 76 e8          	mov    QWORD PTR [rsi-0x18],r14
    23d2:	b8 01 00 00 00       	mov    eax,0x1
    23d7:	48 89 46 f0          	mov    QWORD PTR [rsi-0x10],rax
    23db:	b8 01 00 00 00       	mov    eax,0x1
    23e0:	48 89 46 f8          	mov    QWORD PTR [rsi-0x8],rax
    23e4:	48 31 f6             	xor    rsi,rsi
    23e7:	48 b8 00 00 00 00 00 	movabs rax,0x0
    23ee:	00 00 00 
			23e9: R_X86_64_64	do_callback
    23f1:	48 89 9c 24 98 02 00 	mov    QWORD PTR [rsp+0x298],rbx
    23f8:	00 
    23f9:	48 89 bc 24 a0 02 00 	mov    QWORD PTR [rsp+0x2a0],rdi
    2400:	00 
    2401:	4c 89 ac 24 a8 02 00 	mov    QWORD PTR [rsp+0x2a8],r13
    2408:	00 
    2409:	ff d0                	call   rax
    240b:	48 8b 9c 24 98 02 00 	mov    rbx,QWORD PTR [rsp+0x298]
    2412:	00 
    2413:	4c 8b ac 24 a8 02 00 	mov    r13,QWORD PTR [rsp+0x2a8]
    241a:	00 
    241b:	48 89 c6             	mov    rsi,rax
    241e:	48 89 b4 24 98 02 00 	mov    QWORD PTR [rsp+0x298],rsi
    2425:	00 
    2426:	49 8b b4 24 98 00 00 	mov    rsi,QWORD PTR [r12+0x98]
    242d:	00 
    242e:	48 8b 7b 08          	mov    rdi,QWORD PTR [rbx+0x8]
    2432:	49 89 b4 24 98 00 00 	mov    QWORD PTR [r12+0x98],rsi
    2439:	00 
    243a:	4c 89 6e e0          	mov    QWORD PTR [rsi-0x20],r13
    243e:	4c 89 76 e8          	mov    QWORD PTR [rsi-0x18],r14
    2442:	b8 01 00 00 00       	mov    eax,0x1
    2447:	48 89 46 f0          	mov    QWORD PTR [rsi-0x10],rax
    244b:	b8 01 00 00 00       	mov    eax,0x1
    2450:	48 89 46 f8          	mov    QWORD PTR [rsi-0x8],rax
    2454:	48 31 f6             	xor    rsi,rsi
    2457:	48 b8 00 00 00 00 00 	movabs rax,0x0
    245e:	00 00 00 
			2459: R_X86_64_64	do_callback
    2461:	48 89 9c 24 a0 02 00 	mov    QWORD PTR [rsp+0x2a0],rbx
    2468:	00 
    2469:	48 89 bc 24 a8 02 00 	mov    QWORD PTR [rsp+0x2a8],rdi
    2470:	00 
    2471:	4c 89 ac 24 b0 02 00 	mov    QWORD PTR [rsp+0x2b0],r13
    2478:	00 
    2479:	ff d0                	call   rax
    247b:	48 8b 9c 24 a0 02 00 	mov    rbx,QWORD PTR [rsp+0x2a0]
    2482:	00 
    2483:	4c 8b ac 24 b0 02 00 	mov    r13,QWORD PTR [rsp+0x2b0]
    248a:	00 
    248b:	48 89 c6             	mov    rsi,rax
    248e:	48 89 b4 24 a0 02 00 	mov    QWORD PTR [rsp+0x2a0],rsi
    2495:	00 
    2496:	49 8b b4 24 98 00 00 	mov    rsi,QWORD PTR [r12+0x98]
    249d:	00 
    249e:	48 8b 7b 08          	mov    rdi,QWORD PTR [rbx+0x8]
    24a2:	49 89 b4 24 98 00 00 	mov    QWORD PTR [r12+0x98],rsi
    24a9:	00 
    24aa:	4c 89 6e e0          	mov    QWORD PTR [rsi-0x20],r13
    24ae:	4c 89 76 e8          	mov    QWORD PTR [rsi-0x18],r14
    24b2:	b8 01 00 00 00       	mov    eax,0x1
    24b7:	48 89 46 f0          	mov    QWORD PTR [rsi-0x10],rax
    24bb:	b8 01 00 00 00       	mov    eax,0x1
    24c0:	48 89 46 f8          	mov    QWORD PTR [rsi-0x8],rax
    24c4:	48 31 f6             	xor    rsi,rsi
    24c7:	48 b8 00 00 00 00 00 	movabs rax,0x0
    24ce:	00 00 00 
			24c9: R_X86_64_64	do_callback
    24d1:	48 89 9c 24 a8 02 00 	mov    QWORD PTR [rsp+0x2a8],rbx
    24d8:	00 
    24d9:	48 89 bc 24 b0 02 00 	mov    QWORD PTR [rsp+0x2b0],rdi
    24e0:	00 
    24e1:	4c 89 ac 24 b8 02 00 	mov    QWORD PTR [rsp+0x2b8],r13
    24e8:	00 
    24e9:	ff d0                	call   rax
    24eb:	48 8b 9c 24 a8 02 00 	mov    rbx,QWORD PTR [rsp+0x2a8]
    24f2:	00 
    24f3:	4c 8b ac 24 b8 02 00 	mov    r13,QWORD PTR [rsp+0x2b8]
    24fa:	00 
    24fb:	48 89 c6             	mov    rsi,rax
    24fe:	48 89 b4 24 a8 02 00 	mov    QWORD PTR [rsp+0x2a8],rsi
    2505:	00 
    2506:	49 8b b4 24 98 00 00 	mov    rsi,QWORD PTR [r12+0x98]
    250d:	00 
    250e:	48 8b 7b 08          	mov    rdi,QWORD PTR [rbx+0x8]
    2512:	49 89 b4 24 98 00 00 	mov    QWORD PTR [r12+0x98],rsi
    2519:	00 
    251a:	4c 89 6e e0          	mov    QWORD PTR [rsi-0x20],r13
    251e:	4c 89 76 e8          	mov    QWORD PTR [rsi-0x18],r14
    2522:	b8 01 00 00 00       	mov    eax,0x1
    2527:	48 89 46 f0          	mov    QWORD PTR [rsi-0x10],rax
    252b:	b8 01 00 00 00       	mov    eax,0x1
    2530:	48 89 46 f8          	mov    QWORD PTR [rsi-0x8],rax
    2534:	48 31 f6             	xor    rsi,rsi
    2537:	48 b8 00 00 00 00 00 	movabs rax,0x0
    253e:	00 00 00 
			2539: R_X86_64_64	do_callback
    2541:	48 89 9c 24 b0 02 00 	mov    QWORD PTR [rsp+0x2b0],rbx
    2548:	00 
    2549:	48 89 bc 24 b8 02 00 	mov    QWORD PTR [rsp+0x2b8],rdi
    2550:	00 
    2551:	4c 89 ac 24 c0 02 00 	mov    QWORD PTR [rsp+0x2c0],r13
    2558:	00 
    2559:	ff d0                	call   rax
    255b:	48 8b 9c 24 b0 02 00 	mov    rbx,QWORD PTR [rsp+0x2b0]
    2562:	00 
    2563:	4c 8b ac 24 c0 02 00 	mov    r13,QWORD PTR [rsp+0x2c0]
    256a:	00 
    256b:	48 89 c6             	mov    rsi,rax
    256e:	48 89 b4 24 b0 02 00 	mov    QWORD PTR [rsp+0x2b0],rsi
    2575:	00 
    2576:	49 8b b4 24 98 00 00 	mov    rsi,QWORD PTR [r12+0x98]
    257d:	00 
    257e:	48 8b 7b 08          	mov    rdi,QWORD PTR [rbx+0x8]
    2582:	49 89 b4 24 98 00 00 	mov    QWORD PTR [r12+0x98],rsi
    2589:	00 
    258a:	4c 89 6e e0          	mov    QWORD PTR [rsi-0x20],r13
    258e:	4c 89 76 e8          	mov    QWORD PTR [rsi-0x18],r14
    2592:	b8 01 00 00 00       	mov    eax,0x1
    2597:	48 89 46 f0          	mov    QWORD PTR [rsi-0x10],rax
    259b:	b8 01 00 00 00       	mov    eax,0x1
    25a0:	48 89 46 f8          	mov    QWORD PTR [rsi-0x8],rax
    25a4:	48 31 f6             	xor    rsi,rsi
    25a7:	48 b8 00 00 00 00 00 	movabs rax,0x0
    25ae:	00 00 00 
			25a9: R_X86_64_64	do_callback
    25b1:	48 89 9c 24 b8 02 00 	mov    QWORD PTR [rsp+0x2b8],rbx
    25b8:	00 
    25b9:	48 89 bc 24 c0 02 00 	mov    QWORD PTR [rsp+0x2c0],rdi
    25c0:	00 
    25c1:	4c 89 ac 24 c8 02 00 	mov    QWORD PTR [rsp+0x2c8],r13
    25c8:	00 
    25c9:	ff d0                	call   rax
    25cb:	48 8b 9c 24 b8 02 00 	mov    rbx,QWORD PTR [rsp+0x2b8]
    25d2:	00 
    25d3:	4c 8b ac 24 c8 02 00 	mov    r13,QWORD PTR [rsp+0x2c8]
    25da:	00 
    25db:	48 89 c6             	mov    rsi,rax
    25de:	48 89 b4 24 b8 02 00 	mov    QWORD PTR [rsp+0x2b8],rsi
    25e5:	00 
    25e6:	49 8b b4 24 98 00 00 	mov    rsi,QWORD PTR [r12+0x98]
    25ed:	00 
    25ee:	48 8b 7b 08          	mov    rdi,QWORD PTR [rbx+0x8]
    25f2:	49 89 b4 24 98 00 00 	mov    QWORD PTR [r12+0x98],rsi
    25f9:	00 
    25fa:	4c 89 6e e0          	mov    QWORD PTR [rsi-0x20],r13
    25fe:	4c 89 76 e8          	mov    QWORD PTR [rsi-0x18],r14
    2602:	b8 01 00 00 00       	mov    eax,0x1
    2607:	48 89 46 f0          	mov    QWORD PTR [rsi-0x10],rax
    260b:	b8 01 00 00 00       	mov    eax,0x1
    2610:	48 89 46 f8          	mov    QWORD PTR [rsi-0x8],rax
    2614:	48 31 f6             	xor    rsi,rsi
    2617:	48 b8 00 00 00 00 00 	movabs rax,0x0
    261e:	00 00 00 
			2619: R_X86_64_64	do_callback
    2621:	48 89 9c 24 c0 02 00 	mov    QWORD PTR [rsp+0x2c0],rbx
    2628:	00 
    2629:	48 89 bc 24 c8 02 00 	mov    QWORD PTR [rsp+0x2c8],rdi
    2630:	00 
    2631:	4c 89 ac 24 d0 02 00 	mov    QWORD PTR [rsp+0x2d0],r13
    2638:	00 
    2639:	ff d0                	call   rax
    263b:	48 8b 9c 24 c0 02 00 	mov    rbx,QWORD PTR [rsp+0x2c0]
    2642:	00 
    2643:	4c 8b ac 24 d0 02 00 	mov    r13,QWORD PTR [rsp+0x2d0]
    264a:	00 
    264b:	48 89 c6             	mov    rsi,rax
    264e:	48 89 b4 24 c0 02 00 	mov    QWORD PTR [rsp+0x2c0],rsi
    2655:	00 
    2656:	49 8b b4 24 98 00 00 	mov    rsi,QWORD PTR [r12+0x98]
    265d:	00 
    265e:	48 8b 7b 08          	mov    rdi,QWORD PTR [rbx+0x8]
    2662:	49 89 b4 24 98 00 00 	mov    QWORD PTR [r12+0x98],rsi
    2669:	00 
    266a:	4c 89 6e e0          	mov    QWORD PTR [rsi-0x20],r13
    266e:	4c 89 76 e8          	mov    QWORD PTR [rsi-0x18],r14
    2672:	b8 01 00 00 00       	mov    eax,0x1
    2677:	48 89 46 f0          	mov    QWORD PTR [rsi-0x10],rax
    267b:	b8 01 00 00 00       	mov    eax,0x1
    2680:	48 89 46 f8          	mov    QWORD PTR [rsi-0x8],rax
    2684:	48 31 f6             	xor    rsi,rsi
    2687:	48 b8 00 00 00 00 00 	movabs rax,0x0
    268e:	00 00 00 
			2689: R_X86_64_64	do_callback
    2691:	48 89 9c 24 c8 02 00 	mov    QWORD PTR [rsp+0x2c8],rbx
    2698:	00 
    2699:	48 89 bc 24 d0 02 00 	mov    QWORD PTR [rsp+0x2d0],rdi
    26a0:	00 
    26a1:	4c 89 ac 24 d8 02 00 	mov    QWORD PTR [rsp+0x2d8],r13
    26a8:	00 
    26a9:	ff d0                	call   rax
    26ab:	48 8b 9c 24 c8 02 00 	mov    rbx,QWORD PTR [rsp+0x2c8]
    26b2:	00 
    26b3:	4c 8b ac 24 d8 02 00 	mov    r13,QWORD PTR [rsp+0x2d8]
    26ba:	00 
    26bb:	48 89 c6             	mov    rsi,rax
    26be:	48 89 b4 24 c8 02 00 	mov    QWORD PTR [rsp+0x2c8],rsi
    26c5:	00 
    26c6:	49 8b b4 24 98 00 00 	mov    rsi,QWORD PTR [r12+0x98]
    26cd:	00 
    26ce:	48 8b 7b 08          	mov    rdi,QWORD PTR [rbx+0x8]
    26d2:	49 89 b4 24 98 00 00 	mov    QWORD PTR [r12+0x98],rsi
    26d9:	00 
    26da:	4c 89 6e e0          	mov    QWORD PTR [rsi-0x20],r13
    26de:	4c 89 76 e8          	mov    QWORD PTR [rsi-0x18],r14
    26e2:	b8 01 00 00 00       	mov    eax,0x1
    26e7:	48 89 46 f0          	mov    QWORD PTR [rsi-0x10],rax
    26eb:	b8 01 00 00 00       	mov    eax,0x1
    26f0:	48 89 46 f8          	mov    QWORD PTR [rsi-0x8],rax
    26f4:	48 31 f6             	xor    rsi,rsi
    26f7:	48 b8 00 00 00 00 00 	movabs rax,0x0
    26fe:	00 00 00 
			26f9: R_X86_64_64	do_callback
    2701:	48 89 9c 24 d0 02 00 	mov    QWORD PTR [rsp+0x2d0],rbx
    2708:	00 
    2709:	48 89 bc 24 d8 02 00 	mov    QWORD PTR [rsp+0x2d8],rdi
    2710:	00 
    2711:	4c 89 ac 24 e0 02 00 	mov    QWORD PTR [rsp+0x2e0],r13
    2718:	00 
    2719:	ff d0                	call   rax
    271b:	48 8b 9c 24 d0 02 00 	mov    rbx,QWORD PTR [rsp+0x2d0]
    2722:	00 
    2723:	4c 8b ac 24 e0 02 00 	mov    r13,QWORD PTR [rsp+0x2e0]
    272a:	00 
    272b:	48 89 c6             	mov    rsi,rax
    272e:	48 89 b4 24 d0 02 00 	mov    QWORD PTR [rsp+0x2d0],rsi
    2735:	00 
    2736:	49 8b b4 24 98 00 00 	mov    rsi,QWORD PTR [r12+0x98]
    273d:	00 
    273e:	48 8b 7b 08          	mov    rdi,QWORD PTR [rbx+0x8]
    2742:	49 89 b4 24 98 00 00 	mov    QWORD PTR [r12+0x98],rsi
    2749:	00 
    274a:	4c 89 6e e0          	mov    QWORD PTR [rsi-0x20],r13
    274e:	4c 89 76 e8          	mov    QWORD PTR [rsi-0x18],r14
    2752:	b8 01 00 00 00       	mov    eax,0x1
    2757:	48 89 46 f0          	mov    QWORD PTR [rsi-0x10],rax
    275b:	b8 01 00 00 00       	mov    eax,0x1
    2760:	48 89 46 f8          	mov    QWORD PTR [rsi-0x8],rax
    2764:	48 31 f6             	xor    rsi,rsi
    2767:	48 b8 00 00 00 00 00 	movabs rax,0x0
    276e:	00 00 00 
			2769: R_X86_64_64	do_callback
    2771:	48 89 9c 24 d8 02 00 	mov    QWORD PTR [rsp+0x2d8],rbx
    2778:	00 
    2779:	48 89 bc 24 e0 02 00 	mov    QWORD PTR [rsp+0x2e0],rdi
    2780:	00 
    2781:	4c 89 ac 24 e8 02 00 	mov    QWORD PTR [rsp+0x2e8],r13
    2788:	00 
    2789:	ff d0                	call   rax
    278b:	48 8b 9c 24 d8 02 00 	mov    rbx,QWORD PTR [rsp+0x2d8]
    2792:	00 
    2793:	4c 8b ac 24 e8 02 00 	mov    r13,QWORD PTR [rsp+0x2e8]
    279a:	00 
    279b:	48 89 c6             	mov    rsi,rax
    279e:	48 89 b4 24 d8 02 00 	mov    QWORD PTR [rsp+0x2d8],rsi
    27a5:	00 
    27a6:	49 8b b4 24 98 00 00 	mov    rsi,QWORD PTR [r12+0x98]
    27ad:	00 
    27ae:	48 8b 7b 08          	mov    rdi,QWORD PTR [rbx+0x8]
    27b2:	49 89 b4 24 98 00 00 	mov    QWORD PTR [r12+0x98],rsi
    27b9:	00 
    27ba:	4c 89 6e e0          	mov    QWORD PTR [rsi-0x20],r13
    27be:	4c 89 76 e8          	mov    QWORD PTR [rsi-0x18],r14
    27c2:	b8 01 00 00 00       	mov    eax,0x1
    27c7:	48 89 46 f0          	mov    QWORD PTR [rsi-0x10],rax
    27cb:	b8 01 00 00 00       	mov    eax,0x1
    27d0:	48 89 46 f8          	mov    QWORD PTR [rsi-0x8],rax
    27d4:	48 31 f6             	xor    rsi,rsi
    27d7:	48 b8 00 00 00 00 00 	movabs rax,0x0
    27de:	00 00 00 
			27d9: R_X86_64_64	do_callback
    27e1:	48 89 9c 24 e0 02 00 	mov    QWORD PTR [rsp+0x2e0],rbx
    27e8:	00 
    27e9:	48 89 bc 24 e8 02 00 	mov    QWORD PTR [rsp+0x2e8],rdi
    27f0:	00 
    27f1:	4c 89 ac 24 f0 02 00 	mov    QWORD PTR [rsp+0x2f0],r13
    27f8:	00 
    27f9:	ff d0                	call   rax
    27fb:	48 8b 9c 24 e0 02 00 	mov    rbx,QWORD PTR [rsp+0x2e0]
    2802:	00 
    2803:	4c 8b ac 24 f0 02 00 	mov    r13,QWORD PTR [rsp+0x2f0]
    280a:	00 
    280b:	48 89 c6             	mov    rsi,rax
    280e:	48 89 b4 24 e0 02 00 	mov    QWORD PTR [rsp+0x2e0],rsi
    2815:	00 
    2816:	49 8b b4 24 98 00 00 	mov    rsi,QWORD PTR [r12+0x98]
    281d:	00 
    281e:	48 8b 7b 08          	mov    rdi,QWORD PTR [rbx+0x8]
    2822:	49 89 b4 24 98 00 00 	mov    QWORD PTR [r12+0x98],rsi
    2829:	00 
    282a:	4c 89 6e e0          	mov    QWORD PTR [rsi-0x20],r13
    282e:	4c 89 76 e8          	mov    QWORD PTR [rsi-0x18],r14
    2832:	b8 01 00 00 00       	mov    eax,0x1
    2837:	48 89 46 f0          	mov    QWORD PTR [rsi-0x10],rax
    283b:	b8 01 00 00 00       	mov    eax,0x1
    2840:	48 89 46 f8          	mov    QWORD PTR [rsi-0x8],rax
    2844:	48 31 f6             	xor    rsi,rsi
    2847:	48 b8 00 00 00 00 00 	movabs rax,0x0
    284e:	00 00 00 
			2849: R_X86_64_64	do_callback
    2851:	48 89 9c 24 e8 02 00 	mov    QWORD PTR [rsp+0x2e8],rbx
    2858:	00 
    2859:	48 89 bc 24 f0 02 00 	mov    QWORD PTR [rsp+0x2f0],rdi
    2860:	00 
    2861:	4c 89 ac 24 f8 02 00 	mov    QWORD PTR [rsp+0x2f8],r13
    2868:	00 
    2869:	ff d0                	call   rax
    286b:	48 8b 9c 24 e8 02 00 	mov    rbx,QWORD PTR [rsp+0x2e8]
    2872:	00 
    2873:	4c 8b ac 24 f8 02 00 	mov    r13,QWORD PTR [rsp+0x2f8]
    287a:	00 
    287b:	48 89 c6             	mov    rsi,rax
    287e:	48 89 b4 24 e8 02 00 	mov    QWORD PTR [rsp+0x2e8],rsi
    2885:	00 
    2886:	49 8b b4 24 98 00 00 	mov    rsi,QWORD PTR [r12+0x98]
    288d:	00 
    288e:	48 8b 7b 08          	mov    rdi,QWORD PTR [rbx+0x8]
    2892:	49 89 b4 24 98 00 00 	mov    QWORD PTR [r12+0x98],rsi
    2899:	00 
    289a:	4c 89 6e e0          	mov    QWORD PTR [rsi-0x20],r13
    289e:	4c 89 76 e8          	mov    QWORD PTR [rsi-0x18],r14
    28a2:	b8 01 00 00 00       	mov    eax,0x1
    28a7:	48 89 46 f0          	mov    QWORD PTR [rsi-0x10],rax
    28ab:	b8 01 00 00 00       	mov    eax,0x1
    28b0:	48 89 46 f8          	mov    QWORD PTR [rsi-0x8],rax
    28b4:	48 31 f6             	xor    rsi,rsi
    28b7:	48 b8 00 00 00 00 00 	movabs rax,0x0
    28be:	00 00 00 
			28b9: R_X86_64_64	do_callback
    28c1:	48 89 9c 24 f0 02 00 	mov    QWORD PTR [rsp+0x2f0],rbx
    28c8:	00 
    28c9:	48 89 bc 24 f8 02 00 	mov    QWORD PTR [rsp+0x2f8],rdi
    28d0:	00 
    28d1:	4c 89 ac 24 00 03 00 	mov    QWORD PTR [rsp+0x300],r13
    28d8:	00 
    28d9:	ff d0                	call   rax
    28db:	48 8b 9c 24 f0 02 00 	mov    rbx,QWORD PTR [rsp+0x2f0]
    28e2:	00 
    28e3:	4c 8b ac 24 00 03 00 	mov    r13,QWORD PTR [rsp+0x300]
    28ea:	00 
    28eb:	48 89 c6             	mov    rsi,rax
    28ee:	48 89 b4 24 f0 02 00 	mov    QWORD PTR [rsp+0x2f0],rsi
    28f5:	00 
    28f6:	49 8b b4 24 98 00 00 	mov    rsi,QWORD PTR [r12+0x98]
    28fd:	00 
    28fe:	48 8b 7b 08          	mov    rdi,QWORD PTR [rbx+0x8]
    2902:	49 89 b4 24 98 00 00 	mov    QWORD PTR [r12+0x98],rsi
    2909:	00 
    290a:	4c 89 6e e0          	mov    QWORD PTR [rsi-0x20],r13
    290e:	4c 89 76 e8          	mov    QWORD PTR [rsi-0x18],r14
    2912:	b8 01 00 00 00       	mov    eax,0x1
    2917:	48 89 46 f0          	mov    QWORD PTR [rsi-0x10],rax
    291b:	b8 01 00 00 00       	mov    eax,0x1
    2920:	48 89 46 f8          	mov    QWORD PTR [rsi-0x8],rax
    2924:	48 31 f6             	xor    rsi,rsi
    2927:	48 b8 00 00 00 00 00 	movabs rax,0x0
    292e:	00 00 00 
			2929: R_X86_64_64	do_callback
    2931:	48 89 9c 24 f8 02 00 	mov    QWORD PTR [rsp+0x2f8],rbx
    2938:	00 
    2939:	48 89 bc 24 00 03 00 	mov    QWORD PTR [rsp+0x300],rdi
    2940:	00 
    2941:	4c 89 ac 24 08 03 00 	mov    QWORD PTR [rsp+0x308],r13
    2948:	00 
    2949:	ff d0                	call   rax
    294b:	48 8b 9c 24 f8 02 00 	mov    rbx,QWORD PTR [rsp+0x2f8]
    2952:	00 
    2953:	4c 8b ac 24 08 03 00 	mov    r13,QWORD PTR [rsp+0x308]
    295a:	00 
    295b:	48 89 c6             	mov    rsi,rax
    295e:	48 89 b4 24 f8 02 00 	mov    QWORD PTR [rsp+0x2f8],rsi
    2965:	00 
    2966:	49 8b b4 24 98 00 00 	mov    rsi,QWORD PTR [r12+0x98]
    296d:	00 
    296e:	48 8b 7b 08          	mov    rdi,QWORD PTR [rbx+0x8]
    2972:	49 89 b4 24 98 00 00 	mov    QWORD PTR [r12+0x98],rsi
    2979:	00 
    297a:	4c 89 6e e0          	mov    QWORD PTR [rsi-0x20],r13
    297e:	4c 89 76 e8          	mov    QWORD PTR [rsi-0x18],r14
    2982:	b8 01 00 00 00       	mov    eax,0x1
    2987:	48 89 46 f0          	mov    QWORD PTR [rsi-0x10],rax
    298b:	b8 01 00 00 00       	mov    eax,0x1
    2990:	48 89 46 f8          	mov    QWORD PTR [rsi-0x8],rax
    2994:	48 31 f6             	xor    rsi,rsi
    2997:	48 b8 00 00 00 00 00 	movabs rax,0x0
    299e:	00 00 00 
			2999: R_X86_64_64	do_callback
    29a1:	48 89 9c 24 00 03 00 	mov    QWORD PTR [rsp+0x300],rbx
    29a8:	00 
    29a9:	48 89 bc 24 08 03 00 	mov    QWORD PTR [rsp+0x308],rdi
    29b0:	00 
    29b1:	4c 89 ac 24 10 03 00 	mov    QWORD PTR [rsp+0x310],r13
    29b8:	00 
    29b9:	ff d0                	call   rax
    29bb:	48 8b 9c 24 00 03 00 	mov    rbx,QWORD PTR [rsp+0x300]
    29c2:	00 
    29c3:	4c 8b ac 24 10 03 00 	mov    r13,QWORD PTR [rsp+0x310]
    29ca:	00 
    29cb:	48 89 c6             	mov    rsi,rax
    29ce:	48 89 b4 24 00 03 00 	mov    QWORD PTR [rsp+0x300],rsi
    29d5:	00 
    29d6:	49 8b b4 24 98 00 00 	mov    rsi,QWORD PTR [r12+0x98]
    29dd:	00 
    29de:	48 8b 7b 08          	mov    rdi,QWORD PTR [rbx+0x8]
    29e2:	49 89 b4 24 98 00 00 	mov    QWORD PTR [r12+0x98],rsi
    29e9:	00 
    29ea:	4c 89 6e e0          	mov    QWORD PTR [rsi-0x20],r13
    29ee:	4c 89 76 e8          	mov    QWORD PTR [rsi-0x18],r14
    29f2:	b8 01 00 00 00       	mov    eax,0x1
    29f7:	48 89 46 f0          	mov    QWORD PTR [rsi-0x10],rax
    29fb:	b8 01 00 00 00       	mov    eax,0x1
    2a00:	48 89 46 f8          	mov    QWORD PTR [rsi-0x8],rax
    2a04:	48 31 f6             	xor    rsi,rsi
    2a07:	48 b8 00 00 00 00 00 	movabs rax,0x0
    2a0e:	00 00 00 
			2a09: R_X86_64_64	do_callback
    2a11:	48 89 9c 24 08 03 00 	mov    QWORD PTR [rsp+0x308],rbx
    2a18:	00 
    2a19:	48 89 bc 24 10 03 00 	mov    QWORD PTR [rsp+0x310],rdi
    2a20:	00 
    2a21:	4c 89 ac 24 18 03 00 	mov    QWORD PTR [rsp+0x318],r13
    2a28:	00 
    2a29:	ff d0                	call   rax
    2a2b:	48 8b 9c 24 08 03 00 	mov    rbx,QWORD PTR [rsp+0x308]
    2a32:	00 
    2a33:	4c 8b ac 24 18 03 00 	mov    r13,QWORD PTR [rsp+0x318]
    2a3a:	00 
    2a3b:	48 89 c6             	mov    rsi,rax
    2a3e:	48 89 b4 24 08 03 00 	mov    QWORD PTR [rsp+0x308],rsi
    2a45:	00 
    2a46:	49 8b b4 24 98 00 00 	mov    rsi,QWORD PTR [r12+0x98]
    2a4d:	00 
    2a4e:	48 8b 7b 08          	mov    rdi,QWORD PTR [rbx+0x8]
    2a52:	49 89 b4 24 98 00 00 	mov    QWORD PTR [r12+0x98],rsi
    2a59:	00 
    2a5a:	4c 89 6e e0          	mov    QWORD PTR [rsi-0x20],r13
    2a5e:	4c 89 76 e8          	mov    QWORD PTR [rsi-0x18],r14
    2a62:	b8 01 00 00 00       	mov    eax,0x1
    2a67:	48 89 46 f0          	mov    QWORD PTR [rsi-0x10],rax
    2a6b:	b8 01 00 00 00       	mov    eax,0x1
    2a70:	48 89 46 f8          	mov    QWORD PTR [rsi-0x8],rax
    2a74:	48 31 f6             	xor    rsi,rsi
    2a77:	48 b8 00 00 00 00 00 	movabs rax,0x0
    2a7e:	00 00 00 
			2a79: R_X86_64_64	do_callback
    2a81:	48 89 9c 24 10 03 00 	mov    QWORD PTR [rsp+0x310],rbx
    2a88:	00 
    2a89:	48 89 bc 24 18 03 00 	mov    QWORD PTR [rsp+0x318],rdi
    2a90:	00 
    2a91:	4c 89 ac 24 20 03 00 	mov    QWORD PTR [rsp+0x320],r13
    2a98:	00 
    2a99:	ff d0                	call   rax
    2a9b:	48 8b 9c 24 10 03 00 	mov    rbx,QWORD PTR [rsp+0x310]
    2aa2:	00 
    2aa3:	4c 8b ac 24 20 03 00 	mov    r13,QWORD PTR [rsp+0x320]
    2aaa:	00 
    2aab:	48 89 c6             	mov    rsi,rax
    2aae:	48 89 b4 24 10 03 00 	mov    QWORD PTR [rsp+0x310],rsi
    2ab5:	00 
    2ab6:	49 8b b4 24 98 00 00 	mov    rsi,QWORD PTR [r12+0x98]
    2abd:	00 
    2abe:	48 8b 7b 08          	mov    rdi,QWORD PTR [rbx+0x8]
    2ac2:	49 89 b4 24 98 00 00 	mov    QWORD PTR [r12+0x98],rsi
    2ac9:	00 
    2aca:	4c 89 6e e0          	mov    QWORD PTR [rsi-0x20],r13
    2ace:	4c 89 76 e8          	mov    QWORD PTR [rsi-0x18],r14
    2ad2:	b8 01 00 00 00       	mov    eax,0x1
    2ad7:	48 89 46 f0          	mov    QWORD PTR [rsi-0x10],rax
    2adb:	b8 01 00 00 00       	mov    eax,0x1
    2ae0:	48 89 46 f8          	mov    QWORD PTR [rsi-0x8],rax
    2ae4:	48 31 f6             	xor    rsi,rsi
    2ae7:	48 b8 00 00 00 00 00 	movabs rax,0x0
    2aee:	00 00 00 
			2ae9: R_X86_64_64	do_callback
    2af1:	48 89 9c 24 18 03 00 	mov    QWORD PTR [rsp+0x318],rbx
    2af8:	00 
    2af9:	48 89 bc 24 20 03 00 	mov    QWORD PTR [rsp+0x320],rdi
    2b00:	00 
    2b01:	4c 89 ac 24 28 03 00 	mov    QWORD PTR [rsp+0x328],r13
    2b08:	00 
    2b09:	ff d0                	call   rax
    2b0b:	48 8b 9c 24 18 03 00 	mov    rbx,QWORD PTR [rsp+0x318]
    2b12:	00 
    2b13:	4c 8b ac 24 28 03 00 	mov    r13,QWORD PTR [rsp+0x328]
    2b1a:	00 
    2b1b:	48 89 c6             	mov    rsi,rax
    2b1e:	48 89 b4 24 18 03 00 	mov    QWORD PTR [rsp+0x318],rsi
    2b25:	00 
    2b26:	49 8b b4 24 98 00 00 	mov    rsi,QWORD PTR [r12+0x98]
    2b2d:	00 
    2b2e:	48 8b 7b 08          	mov    rdi,QWORD PTR [rbx+0x8]
    2b32:	49 89 b4 24 98 00 00 	mov    QWORD PTR [r12+0x98],rsi
    2b39:	00 
    2b3a:	4c 89 6e e0          	mov    QWORD PTR [rsi-0x20],r13
    2b3e:	4c 89 76 e8          	mov    QWORD PTR [rsi-0x18],r14
    2b42:	b8 01 00 00 00       	mov    eax,0x1
    2b47:	48 89 46 f0          	mov    QWORD PTR [rsi-0x10],rax
    2b4b:	b8 01 00 00 00       	mov    eax,0x1
    2b50:	48 89 46 f8          	mov    QWORD PTR [rsi-0x8],rax
    2b54:	48 31 f6             	xor    rsi,rsi
    2b57:	48 b8 00 00 00 00 00 	movabs rax,0x0
    2b5e:	00 00 00 
			2b59: R_X86_64_64	do_callback
    2b61:	48 89 9c 24 20 03 00 	mov    QWORD PTR [rsp+0x320],rbx
    2b68:	00 
    2b69:	48 89 bc 24 28 03 00 	mov    QWORD PTR [rsp+0x328],rdi
    2b70:	00 
    2b71:	4c 89 ac 24 30 03 00 	mov    QWORD PTR [rsp+0x330],r13
    2b78:	00 
    2b79:	ff d0                	call   rax
    2b7b:	48 8b 9c 24 20 03 00 	mov    rbx,QWORD PTR [rsp+0x320]
    2b82:	00 
    2b83:	4c 8b ac 24 30 03 00 	mov    r13,QWORD PTR [rsp+0x330]
    2b8a:	00 
    2b8b:	48 89 c6             	mov    rsi,rax
    2b8e:	48 89 b4 24 20 03 00 	mov    QWORD PTR [rsp+0x320],rsi
    2b95:	00 
    2b96:	49 8b b4 24 98 00 00 	mov    rsi,QWORD PTR [r12+0x98]
    2b9d:	00 
    2b9e:	48 8b 7b 08          	mov    rdi,QWORD PTR [rbx+0x8]
    2ba2:	49 89 b4 24 98 00 00 	mov    QWORD PTR [r12+0x98],rsi
    2ba9:	00 
    2baa:	4c 89 6e e0          	mov    QWORD PTR [rsi-0x20],r13
    2bae:	4c 89 76 e8          	mov    QWORD PTR [rsi-0x18],r14
    2bb2:	b8 01 00 00 00       	mov    eax,0x1
    2bb7:	48 89 46 f0          	mov    QWORD PTR [rsi-0x10],rax
    2bbb:	b8 01 00 00 00       	mov    eax,0x1
    2bc0:	48 89 46 f8          	mov    QWORD PTR [rsi-0x8],rax
    2bc4:	48 31 f6             	xor    rsi,rsi
    2bc7:	48 b8 00 00 00 00 00 	movabs rax,0x0
    2bce:	00 00 00 
			2bc9: R_X86_64_64	do_callback
    2bd1:	48 89 9c 24 28 03 00 	mov    QWORD PTR [rsp+0x328],rbx
    2bd8:	00 
    2bd9:	48 89 bc 24 30 03 00 	mov    QWORD PTR [rsp+0x330],rdi
    2be0:	00 
    2be1:	4c 89 ac 24 38 03 00 	mov    QWORD PTR [rsp+0x338],r13
    2be8:	00 
    2be9:	ff d0                	call   rax
    2beb:	48 8b 9c 24 28 03 00 	mov    rbx,QWORD PTR [rsp+0x328]
    2bf2:	00 
    2bf3:	4c 8b ac 24 38 03 00 	mov    r13,QWORD PTR [rsp+0x338]
    2bfa:	00 
    2bfb:	48 89 c6             	mov    rsi,rax
    2bfe:	48 89 b4 24 28 03 00 	mov    QWORD PTR [rsp+0x328],rsi
    2c05:	00 
    2c06:	49 8b b4 24 98 00 00 	mov    rsi,QWORD PTR [r12+0x98]
    2c0d:	00 
    2c0e:	48 8b 7b 08          	mov    rdi,QWORD PTR [rbx+0x8]
    2c12:	49 89 b4 24 98 00 00 	mov    QWORD PTR [r12+0x98],rsi
    2c19:	00 
    2c1a:	4c 89 6e e0          	mov    QWORD PTR [rsi-0x20],r13
    2c1e:	4c 89 76 e8          	mov    QWORD PTR [rsi-0x18],r14
    2c22:	b8 01 00 00 00       	mov    eax,0x1
    2c27:	48 89 46 f0          	mov    QWORD PTR [rsi-0x10],rax
    2c2b:	b8 01 00 00 00       	mov    eax,0x1
    2c30:	48 89 46 f8          	mov    QWORD PTR [rsi-0x8],rax
    2c34:	48 31 f6             	xor    rsi,rsi
    2c37:	48 b8 00 00 00 00 00 	movabs rax,0x0
    2c3e:	00 00 00 
			2c39: R_X86_64_64	do_callback
    2c41:	48 89 9c 24 30 03 00 	mov    QWORD PTR [rsp+0x330],rbx
    2c48:	00 
    2c49:	48 89 bc 24 38 03 00 	mov    QWORD PTR [rsp+0x338],rdi
    2c50:	00 
    2c51:	4c 89 ac 24 40 03 00 	mov    QWORD PTR [rsp+0x340],r13
    2c58:	00 
    2c59:	ff d0                	call   rax
    2c5b:	48 8b 9c 24 30 03 00 	mov    rbx,QWORD PTR [rsp+0x330]
    2c62:	00 
    2c63:	4c 8b ac 24 40 03 00 	mov    r13,QWORD PTR [rsp+0x340]
    2c6a:	00 
    2c6b:	48 89 c6             	mov    rsi,rax
    2c6e:	48 89 b4 24 30 03 00 	mov    QWORD PTR [rsp+0x330],rsi
    2c75:	00 
    2c76:	49 8b b4 24 98 00 00 	mov    rsi,QWORD PTR [r12+0x98]
    2c7d:	00 
    2c7e:	48 8b 7b 08          	mov    rdi,QWORD PTR [rbx+0x8]
    2c82:	49 89 b4 24 98 00 00 	mov    QWORD PTR [r12+0x98],rsi
    2c89:	00 
    2c8a:	4c 89 6e e0          	mov    QWORD PTR [rsi-0x20],r13
    2c8e:	4c 89 76 e8          	mov    QWORD PTR [rsi-0x18],r14
    2c92:	b8 01 00 00 00       	mov    eax,0x1
    2c97:	48 89 46 f0          	mov    QWORD PTR [rsi-0x10],rax
    2c9b:	b8 01 00 00 00       	mov    eax,0x1
    2ca0:	48 89 46 f8          	mov    QWORD PTR [rsi-0x8],rax
    2ca4:	48 31 f6             	xor    rsi,rsi
    2ca7:	48 b8 00 00 00 00 00 	movabs rax,0x0
    2cae:	00 00 00 
			2ca9: R_X86_64_64	do_callback
    2cb1:	48 89 9c 24 38 03 00 	mov    QWORD PTR [rsp+0x338],rbx
    2cb8:	00 
    2cb9:	48 89 bc 24 40 03 00 	mov    QWORD PTR [rsp+0x340],rdi
    2cc0:	00 
    2cc1:	4c 89 ac 24 48 03 00 	mov    QWORD PTR [rsp+0x348],r13
    2cc8:	00 
    2cc9:	ff d0                	call   rax
    2ccb:	48 8b 9c 24 38 03 00 	mov    rbx,QWORD PTR [rsp+0x338]
    2cd2:	00 
    2cd3:	4c 8b ac 24 48 03 00 	mov    r13,QWORD PTR [rsp+0x348]
    2cda:	00 
    2cdb:	48 89 c6             	mov    rsi,rax
    2cde:	48 89 b4 24 38 03 00 	mov    QWORD PTR [rsp+0x338],rsi
    2ce5:	00 
    2ce6:	49 8b b4 24 98 00 00 	mov    rsi,QWORD PTR [r12+0x98]
    2ced:	00 
    2cee:	48 8b 7b 08          	mov    rdi,QWORD PTR [rbx+0x8]
    2cf2:	49 89 b4 24 98 00 00 	mov    QWORD PTR [r12+0x98],rsi
    2cf9:	00 
    2cfa:	4c 89 6e e0          	mov    QWORD PTR [rsi-0x20],r13
    2cfe:	4c 89 76 e8          	mov    QWORD PTR [rsi-0x18],r14
    2d02:	b8 01 00 00 00       	mov    eax,0x1
    2d07:	48 89 46 f0          	mov    QWORD PTR [rsi-0x10],rax
    2d0b:	b8 01 00 00 00       	mov    eax,0x1
    2d10:	48 89 46 f8          	mov    QWORD PTR [rsi-0x8],rax
    2d14:	48 31 f6             	xor    rsi,rsi
    2d17:	48 b8 00 00 00 00 00 	movabs rax,0x0
    2d1e:	00 00 00 
			2d19: R_X86_64_64	do_callback
    2d21:	48 89 9c 24 40 03 00 	mov    QWORD PTR [rsp+0x340],rbx
    2d28:	00 
    2d29:	48 89 bc 24 48 03 00 	mov    QWORD PTR [rsp+0x348],rdi
    2d30:	00 
    2d31:	4c 89 ac 24 50 03 00 	mov    QWORD PTR [rsp+0x350],r13
    2d38:	00 
    2d39:	ff d0                	call   rax
    2d3b:	48 8b 9c 24 40 03 00 	mov    rbx,QWORD PTR [rsp+0x340]
    2d42:	00 
    2d43:	4c 8b ac 24 50 03 00 	mov    r13,QWORD PTR [rsp+0x350]
    2d4a:	00 
    2d4b:	48 89 c6             	mov    rsi,rax
    2d4e:	48 89 b4 24 40 03 00 	mov    QWORD PTR [rsp+0x340],rsi
    2d55:	00 
    2d56:	49 8b b4 24 98 00 00 	mov    rsi,QWORD PTR [r12+0x98]
    2d5d:	00 
    2d5e:	48 8b 7b 08          	mov    rdi,QWORD PTR [rbx+0x8]
    2d62:	49 89 b4 24 98 00 00 	mov    QWORD PTR [r12+0x98],rsi
    2d69:	00 
    2d6a:	4c 89 6e e0          	mov    QWORD PTR [rsi-0x20],r13
    2d6e:	4c 89 76 e8          	mov    QWORD PTR [rsi-0x18],r14
    2d72:	b8 01 00 00 00       	mov    eax,0x1
    2d77:	48 89 46 f0          	mov    QWORD PTR [rsi-0x10],rax
    2d7b:	b8 01 00 00 00       	mov    eax,0x1
    2d80:	48 89 46 f8          	mov    QWORD PTR [rsi-0x8],rax
    2d84:	48 31 f6             	xor    rsi,rsi
    2d87:	48 b8 00 00 00 00 00 	movabs rax,0x0
    2d8e:	00 00 00 
			2d89: R_X86_64_64	do_callback
    2d91:	48 89 9c 24 48 03 00 	mov    QWORD PTR [rsp+0x348],rbx
    2d98:	00 
    2d99:	48 89 bc 24 50 03 00 	mov    QWORD PTR [rsp+0x350],rdi
    2da0:	00 
    2da1:	4c 89 ac 24 58 03 00 	mov    QWORD PTR [rsp+0x358],r13
    2da8:	00 
    2da9:	ff d0                	call   rax
    2dab:	48 8b 9c 24 48 03 00 	mov    rbx,QWORD PTR [rsp+0x348]
    2db2:	00 
    2db3:	4c 8b ac 24 58 03 00 	mov    r13,QWORD PTR [rsp+0x358]
    2dba:	00 
    2dbb:	48 89 c6             	mov    rsi,rax
    2dbe:	48 89 b4 24 48 03 00 	mov    QWORD PTR [rsp+0x348],rsi
    2dc5:	00 
    2dc6:	49 8b b4 24 98 00 00 	mov    rsi,QWORD PTR [r12+0x98]
    2dcd:	00 
    2dce:	48 8b 7b 08          	mov    rdi,QWORD PTR [rbx+0x8]
    2dd2:	49 89 b4 24 98 00 00 	mov    QWORD PTR [r12+0x98],rsi
    2dd9:	00 
    2dda:	4c 89 6e e0          	mov    QWORD PTR [rsi-0x20],r13
    2dde:	4c 89 76 e8          	mov    QWORD PTR [rsi-0x18],r14
    2de2:	b8 01 00 00 00       	mov    eax,0x1
    2de7:	48 89 46 f0          	mov    QWORD PTR [rsi-0x10],rax
    2deb:	b8 01 00 00 00       	mov    eax,0x1
    2df0:	48 89 46 f8          	mov    QWORD PTR [rsi-0x8],rax
    2df4:	48 31 f6             	xor    rsi,rsi
    2df7:	48 b8 00 00 00 00 00 	movabs rax,0x0
    2dfe:	00 00 00 
			2df9: R_X86_64_64	do_callback
    2e01:	48 89 9c 24 50 03 00 	mov    QWORD PTR [rsp+0x350],rbx
    2e08:	00 
    2e09:	48 89 bc 24 58 03 00 	mov    QWORD PTR [rsp+0x358],rdi
    2e10:	00 
    2e11:	4c 89 ac 24 60 03 00 	mov    QWORD PTR [rsp+0x360],r13
    2e18:	00 
    2e19:	ff d0                	call   rax
    2e1b:	48 8b 9c 24 50 03 00 	mov    rbx,QWORD PTR [rsp+0x350]
    2e22:	00 
    2e23:	4c 8b ac 24 60 03 00 	mov    r13,QWORD PTR [rsp+0x360]
    2e2a:	00 
    2e2b:	48 89 c6             	mov    rsi,rax
    2e2e:	48 89 b4 24 50 03 00 	mov    QWORD PTR [rsp+0x350],rsi
    2e35:	00 
    2e36:	49 8b b4 24 98 00 00 	mov    rsi,QWORD PTR [r12+0x98]
    2e3d:	00 
    2e3e:	48 8b 7b 08          	mov    rdi,QWORD PTR [rbx+0x8]
    2e42:	49 89 b4 24 98 00 00 	mov    QWORD PTR [r12+0x98],rsi
    2e49:	00 
    2e4a:	4c 89 6e e0          	mov    QWORD PTR [rsi-0x20],r13
    2e4e:	4c 89 76 e8          	mov    QWORD PTR [rsi-0x18],r14
    2e52:	b8 01 00 00 00       	mov    eax,0x1
    2e57:	48 89 46 f0          	mov    QWORD PTR [rsi-0x10],rax
    2e5b:	b8 01 00 00 00       	mov    eax,0x1
    2e60:	48 89 46 f8          	mov    QWORD PTR [rsi-0x8],rax
    2e64:	48 31 f6             	xor    rsi,rsi
    2e67:	48 b8 00 00 00 00 00 	movabs rax,0x0
    2e6e:	00 00 00 
			2e69: R_X86_64_64	do_callback
    2e71:	48 89 9c 24 58 03 00 	mov    QWORD PTR [rsp+0x358],rbx
    2e78:	00 
    2e79:	48 89 bc 24 60 03 00 	mov    QWORD PTR [rsp+0x360],rdi
    2e80:	00 
    2e81:	4c 89 ac 24 68 03 00 	mov    QWORD PTR [rsp+0x368],r13
    2e88:	00 
    2e89:	ff d0                	call   rax
    2e8b:	48 8b 9c 24 58 03 00 	mov    rbx,QWORD PTR [rsp+0x358]
    2e92:	00 
    2e93:	4c 8b ac 24 68 03 00 	mov    r13,QWORD PTR [rsp+0x368]
    2e9a:	00 
    2e9b:	48 89 c6             	mov    rsi,rax
    2e9e:	48 89 b4 24 58 03 00 	mov    QWORD PTR [rsp+0x358],rsi
    2ea5:	00 
    2ea6:	49 8b b4 24 98 00 00 	mov    rsi,QWORD PTR [r12+0x98]
    2ead:	00 
    2eae:	48 8b 7b 08          	mov    rdi,QWORD PTR [rbx+0x8]
    2eb2:	49 89 b4 24 98 00 00 	mov    QWORD PTR [r12+0x98],rsi
    2eb9:	00 
    2eba:	4c 89 6e e0          	mov    QWORD PTR [rsi-0x20],r13
    2ebe:	4c 89 76 e8          	mov    QWORD PTR [rsi-0x18],r14
    2ec2:	b8 01 00 00 00       	mov    eax,0x1
    2ec7:	48 89 46 f0          	mov    QWORD PTR [rsi-0x10],rax
    2ecb:	b8 01 00 00 00       	mov    eax,0x1
    2ed0:	48 89 46 f8          	mov    QWORD PTR [rsi-0x8],rax
    2ed4:	48 31 f6             	xor    rsi,rsi
    2ed7:	48 b8 00 00 00 00 00 	movabs rax,0x0
    2ede:	00 00 00 
			2ed9: R_X86_64_64	do_callback
    2ee1:	48 89 9c 24 60 03 00 	mov    QWORD PTR [rsp+0x360],rbx
    2ee8:	00 
    2ee9:	48 89 bc 24 68 03 00 	mov    QWORD PTR [rsp+0x368],rdi
    2ef0:	00 
    2ef1:	4c 89 ac 24 70 03 00 	mov    QWORD PTR [rsp+0x370],r13
    2ef8:	00 
    2ef9:	ff d0                	call   rax
    2efb:	48 8b 9c 24 60 03 00 	mov    rbx,QWORD PTR [rsp+0x360]
    2f02:	00 
    2f03:	4c 8b ac 24 70 03 00 	mov    r13,QWORD PTR [rsp+0x370]
    2f0a:	00 
    2f0b:	48 89 c6             	mov    rsi,rax
    2f0e:	48 89 b4 24 60 03 00 	mov    QWORD PTR [rsp+0x360],rsi
    2f15:	00 
    2f16:	49 8b b4 24 98 00 00 	mov    rsi,QWORD PTR [r12+0x98]
    2f1d:	00 
    2f1e:	48 8b 7b 08          	mov    rdi,QWORD PTR [rbx+0x8]
    2f22:	49 89 b4 24 98 00 00 	mov    QWORD PTR [r12+0x98],rsi
    2f29:	00 
    2f2a:	4c 89 6e e0          	mov    QWORD PTR [rsi-0x20],r13
    2f2e:	4c 89 76 e8          	mov    QWORD PTR [rsi-0x18],r14
    2f32:	b8 01 00 00 00       	mov    eax,0x1
    2f37:	48 89 46 f0          	mov    QWORD PTR [rsi-0x10],rax
    2f3b:	b8 01 00 00 00       	mov    eax,0x1
    2f40:	48 89 46 f8          	mov    QWORD PTR [rsi-0x8],rax
    2f44:	48 31 f6             	xor    rsi,rsi
    2f47:	48 b8 00 00 00 00 00 	movabs rax,0x0
    2f4e:	00 00 00 
			2f49: R_X86_64_64	do_callback
    2f51:	48 89 9c 24 68 03 00 	mov    QWORD PTR [rsp+0x368],rbx
    2f58:	00 
    2f59:	48 89 bc 24 70 03 00 	mov    QWORD PTR [rsp+0x370],rdi
    2f60:	00 
    2f61:	4c 89 ac 24 78 03 00 	mov    QWORD PTR [rsp+0x378],r13
    2f68:	00 
    2f69:	ff d0                	call   rax
    2f6b:	48 8b 9c 24 68 03 00 	mov    rbx,QWORD PTR [rsp+0x368]
    2f72:	00 
    2f73:	4c 8b ac 24 78 03 00 	mov    r13,QWORD PTR [rsp+0x378]
    2f7a:	00 
    2f7b:	48 89 c6             	mov    rsi,rax
    2f7e:	48 89 b4 24 68 03 00 	mov    QWORD PTR [rsp+0x368],rsi
    2f85:	00 
    2f86:	49 8b b4 24 98 00 00 	mov    rsi,QWORD PTR [r12+0x98]
    2f8d:	00 
    2f8e:	48 8b 7b 08          	mov    rdi,QWORD PTR [rbx+0x8]
    2f92:	49 89 b4 24 98 00 00 	mov    QWORD PTR [r12+0x98],rsi
    2f99:	00 
    2f9a:	4c 89 6e e0          	mov    QWORD PTR [rsi-0x20],r13
    2f9e:	4c 89 76 e8          	mov    QWORD PTR [rsi-0x18],r14
    2fa2:	b8 01 00 00 00       	mov    eax,0x1
    2fa7:	48 89 46 f0          	mov    QWORD PTR [rsi-0x10],rax
    2fab:	b8 01 00 00 00       	mov    eax,0x1
    2fb0:	48 89 46 f8          	mov    QWORD PTR [rsi-0x8],rax
    2fb4:	48 31 f6             	xor    rsi,rsi
    2fb7:	48 b8 00 00 00 00 00 	movabs rax,0x0
    2fbe:	00 00 00 
			2fb9: R_X86_64_64	do_callback
    2fc1:	48 89 9c 24 70 03 00 	mov    QWORD PTR [rsp+0x370],rbx
    2fc8:	00 
    2fc9:	48 89 bc 24 78 03 00 	mov    QWORD PTR [rsp+0x378],rdi
    2fd0:	00 
    2fd1:	4c 89 ac 24 80 03 00 	mov    QWORD PTR [rsp+0x380],r13
    2fd8:	00 
    2fd9:	ff d0                	call   rax
    2fdb:	48 8b 9c 24 70 03 00 	mov    rbx,QWORD PTR [rsp+0x370]
    2fe2:	00 
    2fe3:	4c 8b ac 24 80 03 00 	mov    r13,QWORD PTR [rsp+0x380]
    2fea:	00 
    2feb:	48 89 c6             	mov    rsi,rax
    2fee:	48 89 b4 24 70 03 00 	mov    QWORD PTR [rsp+0x370],rsi
    2ff5:	00 
    2ff6:	49 8b b4 24 98 00 00 	mov    rsi,QWORD PTR [r12+0x98]
    2ffd:	00 
    2ffe:	48 8b 7b 08          	mov    rdi,QWORD PTR [rbx+0x8]
    3002:	49 89 b4 24 98 00 00 	mov    QWORD PTR [r12+0x98],rsi
    3009:	00 
    300a:	4c 89 6e e0          	mov    QWORD PTR [rsi-0x20],r13
    300e:	4c 89 76 e8          	mov    QWORD PTR [rsi-0x18],r14
    3012:	b8 01 00 00 00       	mov    eax,0x1
    3017:	48 89 46 f0          	mov    QWORD PTR [rsi-0x10],rax
    301b:	b8 01 00 00 00       	mov    eax,0x1
    3020:	48 89 46 f8          	mov    QWORD PTR [rsi-0x8],rax
    3024:	48 31 f6             	xor    rsi,rsi
    3027:	48 b8 00 00 00 00 00 	movabs rax,0x0
    302e:	00 00 00 
			3029: R_X86_64_64	do_callback
    3031:	48 89 9c 24 78 03 00 	mov    QWORD PTR [rsp+0x378],rbx
    3038:	00 
    3039:	48 89 bc 24 80 03 00 	mov    QWORD PTR [rsp+0x380],rdi
    3040:	00 
    3041:	4c 89 ac 24 88 03 00 	mov    QWORD PTR [rsp+0x388],r13
    3048:	00 
    3049:	ff d0                	call   rax
    304b:	48 8b 9c 24 78 03 00 	mov    rbx,QWORD PTR [rsp+0x378]
    3052:	00 
    3053:	4c 8b ac 24 88 03 00 	mov    r13,QWORD PTR [rsp+0x388]
    305a:	00 
    305b:	48 89 c6             	mov    rsi,rax
    305e:	48 89 b4 24 78 03 00 	mov    QWORD PTR [rsp+0x378],rsi
    3065:	00 
    3066:	49 8b b4 24 98 00 00 	mov    rsi,QWORD PTR [r12+0x98]
    306d:	00 
    306e:	48 8b 7b 08          	mov    rdi,QWORD PTR [rbx+0x8]
    3072:	49 89 b4 24 98 00 00 	mov    QWORD PTR [r12+0x98],rsi
    3079:	00 
    307a:	4c 89 6e e0          	mov    QWORD PTR [rsi-0x20],r13
    307e:	4c 89 76 e8          	mov    QWORD PTR [rsi-0x18],r14
    3082:	b8 01 00 00 00       	mov    eax,0x1
    3087:	48 89 46 f0          	mov    QWORD PTR [rsi-0x10],rax
    308b:	b8 01 00 00 00       	mov    eax,0x1
    3090:	48 89 46 f8          	mov    QWORD PTR [rsi-0x8],rax
    3094:	48 31 f6             	xor    rsi,rsi
    3097:	48 b8 00 00 00 00 00 	movabs rax,0x0
    309e:	00 00 00 
			3099: R_X86_64_64	do_callback
    30a1:	48 89 9c 24 80 03 00 	mov    QWORD PTR [rsp+0x380],rbx
    30a8:	00 
    30a9:	48 89 bc 24 88 03 00 	mov    QWORD PTR [rsp+0x388],rdi
    30b0:	00 
    30b1:	4c 89 ac 24 90 03 00 	mov    QWORD PTR [rsp+0x390],r13
    30b8:	00 
    30b9:	ff d0                	call   rax
    30bb:	48 8b 9c 24 80 03 00 	mov    rbx,QWORD PTR [rsp+0x380]
    30c2:	00 
    30c3:	4c 8b ac 24 90 03 00 	mov    r13,QWORD PTR [rsp+0x390]
    30ca:	00 
    30cb:	48 89 c6             	mov    rsi,rax
    30ce:	48 89 b4 24 80 03 00 	mov    QWORD PTR [rsp+0x380],rsi
    30d5:	00 
    30d6:	49 8b b4 24 98 00 00 	mov    rsi,QWORD PTR [r12+0x98]
    30dd:	00 
    30de:	48 8b 7b 08          	mov    rdi,QWORD PTR [rbx+0x8]
    30e2:	49 89 b4 24 98 00 00 	mov    QWORD PTR [r12+0x98],rsi
    30e9:	00 
    30ea:	4c 89 6e e0          	mov    QWORD PTR [rsi-0x20],r13
    30ee:	4c 89 76 e8          	mov    QWORD PTR [rsi-0x18],r14
    30f2:	b8 01 00 00 00       	mov    eax,0x1
    30f7:	48 89 46 f0          	mov    QWORD PTR [rsi-0x10],rax
    30fb:	b8 01 00 00 00       	mov    eax,0x1
    3100:	48 89 46 f8          	mov    QWORD PTR [rsi-0x8],rax
    3104:	48 31 f6             	xor    rsi,rsi
    3107:	48 b8 00 00 00 00 00 	movabs rax,0x0
    310e:	00 00 00 
			3109: R_X86_64_64	do_callback
    3111:	48 89 9c 24 88 03 00 	mov    QWORD PTR [rsp+0x388],rbx
    3118:	00 
    3119:	48 89 bc 24 90 03 00 	mov    QWORD PTR [rsp+0x390],rdi
    3120:	00 
    3121:	4c 89 ac 24 98 03 00 	mov    QWORD PTR [rsp+0x398],r13
    3128:	00 
    3129:	ff d0                	call   rax
    312b:	48 8b 9c 24 88 03 00 	mov    rbx,QWORD PTR [rsp+0x388]
    3132:	00 
    3133:	4c 8b ac 24 98 03 00 	mov    r13,QWORD PTR [rsp+0x398]
    313a:	00 
    313b:	48 89 c6             	mov    rsi,rax
    313e:	48 89 b4 24 88 03 00 	mov    QWORD PTR [rsp+0x388],rsi
    3145:	00 
    3146:	49 8b b4 24 98 00 00 	mov    rsi,QWORD PTR [r12+0x98]
    314d:	00 
    314e:	48 8b 7b 08          	mov    rdi,QWORD PTR [rbx+0x8]
    3152:	49 89 b4 24 98 00 00 	mov    QWORD PTR [r12+0x98],rsi
    3159:	00 
    315a:	4c 89 6e e0          	mov    QWORD PTR [rsi-0x20],r13
    315e:	4c 89 76 e8          	mov    QWORD PTR [rsi-0x18],r14
    3162:	b8 01 00 00 00       	mov    eax,0x1
    3167:	48 89 46 f0          	mov    QWORD PTR [rsi-0x10],rax
    316b:	b8 01 00 00 00       	mov    eax,0x1
    3170:	48 89 46 f8          	mov    QWORD PTR [rsi-0x8],rax
    3174:	48 31 f6             	xor    rsi,rsi
    3177:	48 b8 00 00 00 00 00 	movabs rax,0x0
    317e:	00 00 00 
			3179: R_X86_64_64	do_callback
    3181:	48 89 9c 24 90 03 00 	mov    QWORD PTR [rsp+0x390],rbx
    3188:	00 
    3189:	48 89 bc 24 98 03 00 	mov    QWORD PTR [rsp+0x398],rdi
    3190:	00 
    3191:	4c 89 ac 24 a0 03 00 	mov    QWORD PTR [rsp+0x3a0],r13
    3198:	00 
    3199:	ff d0                	call   rax
    319b:	48 8b 9c 24 90 03 00 	mov    rbx,QWORD PTR [rsp+0x390]
    31a2:	00 
    31a3:	4c 8b ac 24 a0 03 00 	mov    r13,QWORD PTR [rsp+0x3a0]
    31aa:	00 
    31ab:	48 89 c6             	mov    rsi,rax
    31ae:	48 89 b4 24 90 03 00 	mov    QWORD PTR [rsp+0x390],rsi
    31b5:	00 
    31b6:	49 8b b4 24 98 00 00 	mov    rsi,QWORD PTR [r12+0x98]
    31bd:	00 
    31be:	48 8b 7b 08          	mov    rdi,QWORD PTR [rbx+0x8]
    31c2:	49 89 b4 24 98 00 00 	mov    QWORD PTR [r12+0x98],rsi
    31c9:	00 
    31ca:	4c 89 6e e0          	mov    QWORD PTR [rsi-0x20],r13
    31ce:	4c 89 76 e8          	mov    QWORD PTR [rsi-0x18],r14
    31d2:	b8 01 00 00 00       	mov    eax,0x1
    31d7:	48 89 46 f0          	mov    QWORD PTR [rsi-0x10],rax
    31db:	b8 01 00 00 00       	mov    eax,0x1
    31e0:	48 89 46 f8          	mov    QWORD PTR [rsi-0x8],rax
    31e4:	48 31 f6             	xor    rsi,rsi
    31e7:	48 b8 00 00 00 00 00 	movabs rax,0x0
    31ee:	00 00 00 
			31e9: R_X86_64_64	do_callback
    31f1:	48 89 9c 24 98 03 00 	mov    QWORD PTR [rsp+0x398],rbx
    31f8:	00 
    31f9:	48 89 bc 24 a0 03 00 	mov    QWORD PTR [rsp+0x3a0],rdi
    3200:	00 
    3201:	4c 89 ac 24 a8 03 00 	mov    QWORD PTR [rsp+0x3a8],r13
    3208:	00 
    3209:	ff d0                	call   rax
    320b:	48 8b 9c 24 98 03 00 	mov    rbx,QWORD PTR [rsp+0x398]
    3212:	00 
    3213:	4c 8b ac 24 a8 03 00 	mov    r13,QWORD PTR [rsp+0x3a8]
    321a:	00 
    321b:	48 89 c6             	mov    rsi,rax
    321e:	48 89 b4 24 98 03 00 	mov    QWORD PTR [rsp+0x398],rsi
    3225:	00 
    3226:	49 8b b4 24 98 00 00 	mov    rsi,QWORD PTR [r12+0x98]
    322d:	00 
    322e:	48 8b 7b 08          	mov    rdi,QWORD PTR [rbx+0x8]
    3232:	49 89 b4 24 98 00 00 	mov    QWORD PTR [r12+0x98],rsi
    3239:	00 
    323a:	4c 89 6e e0          	mov    QWORD PTR [rsi-0x20],r13
    323e:	4c 89 76 e8          	mov    QWORD PTR [rsi-0x18],r14
    3242:	b8 01 00 00 00       	mov    eax,0x1
    3247:	48 89 46 f0          	mov    QWORD PTR [rsi-0x10],rax
    324b:	b8 01 00 00 00       	mov    eax,0x1
    3250:	48 89 46 f8          	mov    QWORD PTR [rsi-0x8],rax
    3254:	48 31 f6             	xor    rsi,rsi
    3257:	48 b8 00 00 00 00 00 	movabs rax,0x0
    325e:	00 00 00 
			3259: R_X86_64_64	do_callback
    3261:	48 89 9c 24 a0 03 00 	mov    QWORD PTR [rsp+0x3a0],rbx
    3268:	00 
    3269:	48 89 bc 24 a8 03 00 	mov    QWORD PTR [rsp+0x3a8],rdi
    3270:	00 
    3271:	4c 89 ac 24 b0 03 00 	mov    QWORD PTR [rsp+0x3b0],r13
    3278:	00 
    3279:	ff d0                	call   rax
    327b:	48 8b 9c 24 a0 03 00 	mov    rbx,QWORD PTR [rsp+0x3a0]
    3282:	00 
    3283:	4c 8b ac 24 b0 03 00 	mov    r13,QWORD PTR [rsp+0x3b0]
    328a:	00 
    328b:	48 89 c6             	mov    rsi,rax
    328e:	48 89 b4 24 a0 03 00 	mov    QWORD PTR [rsp+0x3a0],rsi
    3295:	00 
    3296:	49 8b b4 24 98 00 00 	mov    rsi,QWORD PTR [r12+0x98]
    329d:	00 
    329e:	48 8b 7b 08          	mov    rdi,QWORD PTR [rbx+0x8]
    32a2:	49 89 b4 24 98 00 00 	mov    QWORD PTR [r12+0x98],rsi
    32a9:	00 
    32aa:	4c 89 6e e0          	mov    QWORD PTR [rsi-0x20],r13
    32ae:	4c 89 76 e8          	mov    QWORD PTR [rsi-0x18],r14
    32b2:	b8 01 00 00 00       	mov    eax,0x1
    32b7:	48 89 46 f0          	mov    QWORD PTR [rsi-0x10],rax
    32bb:	b8 01 00 00 00       	mov    eax,0x1
    32c0:	48 89 46 f8          	mov    QWORD PTR [rsi-0x8],rax
    32c4:	48 31 f6             	xor    rsi,rsi
    32c7:	48 b8 00 00 00 00 00 	movabs rax,0x0
    32ce:	00 00 00 
			32c9: R_X86_64_64	do_callback
    32d1:	48 89 9c 24 a8 03 00 	mov    QWORD PTR [rsp+0x3a8],rbx
    32d8:	00 
    32d9:	48 89 bc 24 b0 03 00 	mov    QWORD PTR [rsp+0x3b0],rdi
    32e0:	00 
    32e1:	4c 89 ac 24 b8 03 00 	mov    QWORD PTR [rsp+0x3b8],r13
    32e8:	00 
    32e9:	ff d0                	call   rax
    32eb:	48 8b 9c 24 a8 03 00 	mov    rbx,QWORD PTR [rsp+0x3a8]
    32f2:	00 
    32f3:	4c 8b ac 24 b8 03 00 	mov    r13,QWORD PTR [rsp+0x3b8]
    32fa:	00 
    32fb:	48 89 c6             	mov    rsi,rax
    32fe:	48 89 b4 24 a8 03 00 	mov    QWORD PTR [rsp+0x3a8],rsi
    3305:	00 
    3306:	49 8b b4 24 98 00 00 	mov    rsi,QWORD PTR [r12+0x98]
    330d:	00 
    330e:	48 8b 7b 08          	mov    rdi,QWORD PTR [rbx+0x8]
    3312:	49 89 b4 24 98 00 00 	mov    QWORD PTR [r12+0x98],rsi
    3319:	00 
    331a:	4c 89 6e e0          	mov    QWORD PTR [rsi-0x20],r13
    331e:	4c 89 76 e8          	mov    QWORD PTR [rsi-0x18],r14
    3322:	b8 01 00 00 00       	mov    eax,0x1
    3327:	48 89 46 f0          	mov    QWORD PTR [rsi-0x10],rax
    332b:	b8 01 00 00 00       	mov    eax,0x1
    3330:	48 89 46 f8          	mov    QWORD PTR [rsi-0x8],rax
    3334:	48 31 f6             	xor    rsi,rsi
    3337:	48 b8 00 00 00 00 00 	movabs rax,0x0
    333e:	00 00 00 
			3339: R_X86_64_64	do_callback
    3341:	48 89 9c 24 b0 03 00 	mov    QWORD PTR [rsp+0x3b0],rbx
    3348:	00 
    3349:	48 89 bc 24 b8 03 00 	mov    QWORD PTR [rsp+0x3b8],rdi
    3350:	00 
    3351:	4c 89 ac 24 c0 03 00 	mov    QWORD PTR [rsp+0x3c0],r13
    3358:	00 
    3359:	ff d0                	call   rax
    335b:	48 8b 9c 24 b0 03 00 	mov    rbx,QWORD PTR [rsp+0x3b0]
    3362:	00 
    3363:	4c 8b ac 24 c0 03 00 	mov    r13,QWORD PTR [rsp+0x3c0]
    336a:	00 
    336b:	48 89 c6             	mov    rsi,rax
    336e:	48 89 b4 24 b0 03 00 	mov    QWORD PTR [rsp+0x3b0],rsi
    3375:	00 
    3376:	49 8b b4 24 98 00 00 	mov    rsi,QWORD PTR [r12+0x98]
    337d:	00 
    337e:	48 8b 7b 08          	mov    rdi,QWORD PTR [rbx+0x8]
    3382:	49 89 b4 24 98 00 00 	mov    QWORD PTR [r12+0x98],rsi
    3389:	00 
    338a:	4c 89 6e e0          	mov    QWORD PTR [rsi-0x20],r13
    338e:	4c 89 76 e8          	mov    QWORD PTR [rsi-0x18],r14
    3392:	b8 01 00 00 00       	mov    eax,0x1
    3397:	48 89 46 f0          	mov    QWORD PTR [rsi-0x10],rax
    339b:	b8 01 00 00 00       	mov    eax,0x1
    33a0:	48 89 46 f8          	mov    QWORD PTR [rsi-0x8],rax
    33a4:	48 31 f6             	xor    rsi,rsi
    33a7:	48 b8 00 00 00 00 00 	movabs rax,0x0
    33ae:	00 00 00 
			33a9: R_X86_64_64	do_callback
    33b1:	48 89 9c 24 b8 03 00 	mov    QWORD PTR [rsp+0x3b8],rbx
    33b8:	00 
    33b9:	48 89 bc 24 c0 03 00 	mov    QWORD PTR [rsp+0x3c0],rdi
    33c0:	00 
    33c1:	4c 89 ac 24 c8 03 00 	mov    QWORD PTR [rsp+0x3c8],r13
    33c8:	00 
    33c9:	ff d0                	call   rax
    33cb:	48 8b 9c 24 b8 03 00 	mov    rbx,QWORD PTR [rsp+0x3b8]
    33d2:	00 
    33d3:	4c 8b ac 24 c8 03 00 	mov    r13,QWORD PTR [rsp+0x3c8]
    33da:	00 
    33db:	48 89 c6             	mov    rsi,rax
    33de:	48 89 b4 24 b8 03 00 	mov    QWORD PTR [rsp+0x3b8],rsi
    33e5:	00 
    33e6:	49 8b b4 24 98 00 00 	mov    rsi,QWORD PTR [r12+0x98]
    33ed:	00 
    33ee:	48 8b 7b 08          	mov    rdi,QWORD PTR [rbx+0x8]
    33f2:	49 89 b4 24 98 00 00 	mov    QWORD PTR [r12+0x98],rsi
    33f9:	00 
    33fa:	4c 89 6e e0          	mov    QWORD PTR [rsi-0x20],r13
    33fe:	4c 89 76 e8          	mov    QWORD PTR [rsi-0x18],r14
    3402:	b8 01 00 00 00       	mov    eax,0x1
    3407:	48 89 46 f0          	mov    QWORD PTR [rsi-0x10],rax
    340b:	b8 01 00 00 00       	mov    eax,0x1
    3410:	48 89 46 f8          	mov    QWORD PTR [rsi-0x8],rax
    3414:	48 31 f6             	xor    rsi,rsi
    3417:	48 b8 00 00 00 00 00 	movabs rax,0x0
    341e:	00 00 00 
			3419: R_X86_64_64	do_callback
    3421:	48 89 9c 24 c0 03 00 	mov    QWORD PTR [rsp+0x3c0],rbx
    3428:	00 
    3429:	48 89 bc 24 c8 03 00 	mov    QWORD PTR [rsp+0x3c8],rdi
    3430:	00 
    3431:	4c 89 ac 24 d0 03 00 	mov    QWORD PTR [rsp+0x3d0],r13
    3438:	00 
    3439:	ff d0                	call   rax
    343b:	48 8b 9c 24 c0 03 00 	mov    rbx,QWORD PTR [rsp+0x3c0]
    3442:	00 
    3443:	4c 8b ac 24 d0 03 00 	mov    r13,QWORD PTR [rsp+0x3d0]
    344a:	00 
    344b:	48 89 c6             	mov    rsi,rax
    344e:	48 89 b4 24 c0 03 00 	mov    QWORD PTR [rsp+0x3c0],rsi
    3455:	00 
    3456:	49 8b b4 24 98 00 00 	mov    rsi,QWORD PTR [r12+0x98]
    345d:	00 
    345e:	48 8b 7b 08          	mov    rdi,QWORD PTR [rbx+0x8]
    3462:	49 89 b4 24 98 00 00 	mov    QWORD PTR [r12+0x98],rsi
    3469:	00 
    346a:	4c 89 6e e0          	mov    QWORD PTR [rsi-0x20],r13
    346e:	4c 89 76 e8          	mov    QWORD PTR [rsi-0x18],r14
    3472:	b8 01 00 00 00       	mov    eax,0x1
    3477:	48 89 46 f0          	mov    QWORD PTR [rsi-0x10],rax
    347b:	b8 01 00 00 00       	mov    eax,0x1
    3480:	48 89 46 f8          	mov    QWORD PTR [rsi-0x8],rax
    3484:	48 31 f6             	xor    rsi,rsi
    3487:	48 b8 00 00 00 00 00 	movabs rax,0x0
    348e:	00 00 00 
			3489: R_X86_64_64	do_callback
    3491:	48 89 9c 24 c8 03 00 	mov    QWORD PTR [rsp+0x3c8],rbx
    3498:	00 
    3499:	48 89 bc 24 d0 03 00 	mov    QWORD PTR [rsp+0x3d0],rdi
    34a0:	00 
    34a1:	4c 89 ac 24 d8 03 00 	mov    QWORD PTR [rsp+0x3d8],r13
    34a8:	00 
    34a9:	ff d0                	call   rax
    34ab:	48 8b 9c 24 c8 03 00 	mov    rbx,QWORD PTR [rsp+0x3c8]
    34b2:	00 
    34b3:	4c 8b ac 24 d8 03 00 	mov    r13,QWORD PTR [rsp+0x3d8]
    34ba:	00 
    34bb:	48 89 c6             	mov    rsi,rax
    34be:	48 89 b4 24 c8 03 00 	mov    QWORD PTR [rsp+0x3c8],rsi
    34c5:	00 
    34c6:	49 8b b4 24 98 00 00 	mov    rsi,QWORD PTR [r12+0x98]
    34cd:	00 
    34ce:	48 8b 7b 08          	mov    rdi,QWORD PTR [rbx+0x8]
    34d2:	49 89 b4 24 98 00 00 	mov    QWORD PTR [r12+0x98],rsi
    34d9:	00 
    34da:	4c 89 6e e0          	mov    QWORD PTR [rsi-0x20],r13
    34de:	4c 89 76 e8          	mov    QWORD PTR [rsi-0x18],r14
    34e2:	b8 01 00 00 00       	mov    eax,0x1
    34e7:	48 89 46 f0          	mov    QWORD PTR [rsi-0x10],rax
    34eb:	b8 01 00 00 00       	mov    eax,0x1
    34f0:	48 89 46 f8          	mov    QWORD PTR [rsi-0x8],rax
    34f4:	48 31 f6             	xor    rsi,rsi
    34f7:	48 b8 00 00 00 00 00 	movabs rax,0x0
    34fe:	00 00 00 
			34f9: R_X86_64_64	do_callback
    3501:	48 89 9c 24 d0 03 00 	mov    QWORD PTR [rsp+0x3d0],rbx
    3508:	00 
    3509:	48 89 bc 24 d8 03 00 	mov    QWORD PTR [rsp+0x3d8],rdi
    3510:	00 
    3511:	4c 89 ac 24 e0 03 00 	mov    QWORD PTR [rsp+0x3e0],r13
    3518:	00 
    3519:	ff d0                	call   rax
    351b:	48 8b 9c 24 d0 03 00 	mov    rbx,QWORD PTR [rsp+0x3d0]
    3522:	00 
    3523:	4c 8b ac 24 e0 03 00 	mov    r13,QWORD PTR [rsp+0x3e0]
    352a:	00 
    352b:	48 89 c6             	mov    rsi,rax
    352e:	48 89 b4 24 d0 03 00 	mov    QWORD PTR [rsp+0x3d0],rsi
    3535:	00 
    3536:	49 8b b4 24 98 00 00 	mov    rsi,QWORD PTR [r12+0x98]
    353d:	00 
    353e:	48 8b 7b 08          	mov    rdi,QWORD PTR [rbx+0x8]
    3542:	49 89 b4 24 98 00 00 	mov    QWORD PTR [r12+0x98],rsi
    3549:	00 
    354a:	4c 89 6e e0          	mov    QWORD PTR [rsi-0x20],r13
    354e:	4c 89 76 e8          	mov    QWORD PTR [rsi-0x18],r14
    3552:	b8 01 00 00 00       	mov    eax,0x1
    3557:	48 89 46 f0          	mov    QWORD PTR [rsi-0x10],rax
    355b:	b8 01 00 00 00       	mov    eax,0x1
    3560:	48 89 46 f8          	mov    QWORD PTR [rsi-0x8],rax
    3564:	48 31 f6             	xor    rsi,rsi
    3567:	48 b8 00 00 00 00 00 	movabs rax,0x0
    356e:	00 00 00 
			3569: R_X86_64_64	do_callback
    3571:	48 89 9c 24 d8 03 00 	mov    QWORD PTR [rsp+0x3d8],rbx
    3578:	00 
    3579:	48 89 bc 24 e0 03 00 	mov    QWORD PTR [rsp+0x3e0],rdi
    3580:	00 
    3581:	4c 89 ac 24 e8 03 00 	mov    QWORD PTR [rsp+0x3e8],r13
    3588:	00 
    3589:	ff d0                	call   rax
    358b:	48 8b 9c 24 d8 03 00 	mov    rbx,QWORD PTR [rsp+0x3d8]
    3592:	00 
    3593:	4c 8b ac 24 e8 03 00 	mov    r13,QWORD PTR [rsp+0x3e8]
    359a:	00 
    359b:	48 89 c6             	mov    rsi,rax
    359e:	48 89 b4 24 d8 03 00 	mov    QWORD PTR [rsp+0x3d8],rsi
    35a5:	00 
    35a6:	49 8b b4 24 98 00 00 	mov    rsi,QWORD PTR [r12+0x98]
    35ad:	00 
    35ae:	48 8b 7b 08          	mov    rdi,QWORD PTR [rbx+0x8]
    35b2:	49 89 b4 24 98 00 00 	mov    QWORD PTR [r12+0x98],rsi
    35b9:	00 
    35ba:	4c 89 6e e0          	mov    QWORD PTR [rsi-0x20],r13
    35be:	4c 89 76 e8          	mov    QWORD PTR [rsi-0x18],r14
    35c2:	b8 01 00 00 00       	mov    eax,0x1
    35c7:	48 89 46 f0          	mov    QWORD PTR [rsi-0x10],rax
    35cb:	b8 01 00 00 00       	mov    eax,0x1
    35d0:	48 89 46 f8          	mov    QWORD PTR [rsi-0x8],rax
    35d4:	48 31 f6             	xor    rsi,rsi
    35d7:	48 b8 00 00 00 00 00 	movabs rax,0x0
    35de:	00 00 00 
			35d9: R_X86_64_64	do_callback
    35e1:	48 89 9c 24 e0 03 00 	mov    QWORD PTR [rsp+0x3e0],rbx
    35e8:	00 
    35e9:	48 89 bc 24 e8 03 00 	mov    QWORD PTR [rsp+0x3e8],rdi
    35f0:	00 
    35f1:	4c 89 ac 24 f0 03 00 	mov    QWORD PTR [rsp+0x3f0],r13
    35f8:	00 
    35f9:	ff d0                	call   rax
    35fb:	48 8b 9c 24 e0 03 00 	mov    rbx,QWORD PTR [rsp+0x3e0]
    3602:	00 
    3603:	4c 8b ac 24 f0 03 00 	mov    r13,QWORD PTR [rsp+0x3f0]
    360a:	00 
    360b:	48 89 c6             	mov    rsi,rax
    360e:	48 89 b4 24 e0 03 00 	mov    QWORD PTR [rsp+0x3e0],rsi
    3615:	00 
    3616:	49 8b b4 24 98 00 00 	mov    rsi,QWORD PTR [r12+0x98]
    361d:	00 
    361e:	48 8b 7b 08          	mov    rdi,QWORD PTR [rbx+0x8]
    3622:	49 89 b4 24 98 00 00 	mov    QWORD PTR [r12+0x98],rsi
    3629:	00 
    362a:	4c 89 6e e0          	mov    QWORD PTR [rsi-0x20],r13
    362e:	4c 89 76 e8          	mov    QWORD PTR [rsi-0x18],r14
    3632:	b8 01 00 00 00       	mov    eax,0x1
    3637:	48 89 46 f0          	mov    QWORD PTR [rsi-0x10],rax
    363b:	b8 01 00 00 00       	mov    eax,0x1
    3640:	48 89 46 f8          	mov    QWORD PTR [rsi-0x8],rax
    3644:	48 31 f6             	xor    rsi,rsi
    3647:	48 b8 00 00 00 00 00 	movabs rax,0x0
    364e:	00 00 00 
			3649: R_X86_64_64	do_callback
    3651:	48 89 9c 24 e8 03 00 	mov    QWORD PTR [rsp+0x3e8],rbx
    3658:	00 
    3659:	48 89 bc 24 f0 03 00 	mov    QWORD PTR [rsp+0x3f0],rdi
    3660:	00 
    3661:	4c 89 ac 24 f8 03 00 	mov    QWORD PTR [rsp+0x3f8],r13
    3668:	00 
    3669:	ff d0                	call   rax
    366b:	48 8b 9c 24 e8 03 00 	mov    rbx,QWORD PTR [rsp+0x3e8]
    3672:	00 
    3673:	4c 8b ac 24 f8 03 00 	mov    r13,QWORD PTR [rsp+0x3f8]
    367a:	00 
    367b:	48 89 c6             	mov    rsi,rax
    367e:	48 89 b4 24 e8 03 00 	mov    QWORD PTR [rsp+0x3e8],rsi
    3685:	00 
    3686:	49 8b b4 24 98 00 00 	mov    rsi,QWORD PTR [r12+0x98]
    368d:	00 
    368e:	48 8b 7b 08          	mov    rdi,QWORD PTR [rbx+0x8]
    3692:	49 89 b4 24 98 00 00 	mov    QWORD PTR [r12+0x98],rsi
    3699:	00 
    369a:	4c 89 6e e0          	mov    QWORD PTR [rsi-0x20],r13
    369e:	4c 89 76 e8          	mov    QWORD PTR [rsi-0x18],r14
    36a2:	b8 01 00 00 00       	mov    eax,0x1
    36a7:	48 89 46 f0          	mov    QWORD PTR [rsi-0x10],rax
    36ab:	b8 01 00 00 00       	mov    eax,0x1
    36b0:	48 89 46 f8          	mov    QWORD PTR [rsi-0x8],rax
    36b4:	48 31 f6             	xor    rsi,rsi
    36b7:	48 b8 00 00 00 00 00 	movabs rax,0x0
    36be:	00 00 00 
			36b9: R_X86_64_64	do_callback
    36c1:	48 89 9c 24 f0 03 00 	mov    QWORD PTR [rsp+0x3f0],rbx
    36c8:	00 
    36c9:	48 89 bc 24 f8 03 00 	mov    QWORD PTR [rsp+0x3f8],rdi
    36d0:	00 
    36d1:	4c 89 ac 24 00 04 00 	mov    QWORD PTR [rsp+0x400],r13
    36d8:	00 
    36d9:	ff d0                	call   rax
    36db:	48 8b 9c 24 f0 03 00 	mov    rbx,QWORD PTR [rsp+0x3f0]
    36e2:	00 
    36e3:	4c 8b ac 24 00 04 00 	mov    r13,QWORD PTR [rsp+0x400]
    36ea:	00 
    36eb:	48 89 c6             	mov    rsi,rax
    36ee:	48 89 b4 24 f0 03 00 	mov    QWORD PTR [rsp+0x3f0],rsi
    36f5:	00 
    36f6:	49 8b b4 24 98 00 00 	mov    rsi,QWORD PTR [r12+0x98]
    36fd:	00 
    36fe:	48 8b 7b 08          	mov    rdi,QWORD PTR [rbx+0x8]
    3702:	49 89 b4 24 98 00 00 	mov    QWORD PTR [r12+0x98],rsi
    3709:	00 
    370a:	4c 89 6e e0          	mov    QWORD PTR [rsi-0x20],r13
    370e:	4c 89 76 e8          	mov    QWORD PTR [rsi-0x18],r14
    3712:	b8 01 00 00 00       	mov    eax,0x1
    3717:	48 89 46 f0          	mov    QWORD PTR [rsi-0x10],rax
    371b:	b8 01 00 00 00       	mov    eax,0x1
    3720:	48 89 46 f8          	mov    QWORD PTR [rsi-0x8],rax
    3724:	48 31 f6             	xor    rsi,rsi
    3727:	48 b8 00 00 00 00 00 	movabs rax,0x0
    372e:	00 00 00 
			3729: R_X86_64_64	do_callback
    3731:	48 89 9c 24 f8 03 00 	mov    QWORD PTR [rsp+0x3f8],rbx
    3738:	00 
    3739:	48 89 bc 24 00 04 00 	mov    QWORD PTR [rsp+0x400],rdi
    3740:	00 
    3741:	4c 89 ac 24 08 04 00 	mov    QWORD PTR [rsp+0x408],r13
    3748:	00 
    3749:	ff d0                	call   rax
    374b:	48 8b 9c 24 f8 03 00 	mov    rbx,QWORD PTR [rsp+0x3f8]
    3752:	00 
    3753:	4c 8b ac 24 08 04 00 	mov    r13,QWORD PTR [rsp+0x408]
    375a:	00 
    375b:	48 89 c6             	mov    rsi,rax
    375e:	48 89 b4 24 f8 03 00 	mov    QWORD PTR [rsp+0x3f8],rsi
    3765:	00 
    3766:	49 8b b4 24 98 00 00 	mov    rsi,QWORD PTR [r12+0x98]
    376d:	00 
    376e:	48 8b 7b 08          	mov    rdi,QWORD PTR [rbx+0x8]
    3772:	49 89 b4 24 98 00 00 	mov    QWORD PTR [r12+0x98],rsi
    3779:	00 
    377a:	4c 89 6e e0          	mov    QWORD PTR [rsi-0x20],r13
    377e:	4c 89 76 e8          	mov    QWORD PTR [rsi-0x18],r14
    3782:	b8 01 00 00 00       	mov    eax,0x1
    3787:	48 89 46 f0          	mov    QWORD PTR [rsi-0x10],rax
    378b:	b8 01 00 00 00       	mov    eax,0x1
    3790:	48 89 46 f8          	mov    QWORD PTR [rsi-0x8],rax
    3794:	48 31 f6             	xor    rsi,rsi
    3797:	48 b8 00 00 00 00 00 	movabs rax,0x0
    379e:	00 00 00 
			3799: R_X86_64_64	do_callback
    37a1:	48 89 9c 24 00 04 00 	mov    QWORD PTR [rsp+0x400],rbx
    37a8:	00 
    37a9:	48 89 bc 24 08 04 00 	mov    QWORD PTR [rsp+0x408],rdi
    37b0:	00 
    37b1:	4c 89 ac 24 10 04 00 	mov    QWORD PTR [rsp+0x410],r13
    37b8:	00 
    37b9:	ff d0                	call   rax
    37bb:	48 8b 9c 24 00 04 00 	mov    rbx,QWORD PTR [rsp+0x400]
    37c2:	00 
    37c3:	4c 8b ac 24 10 04 00 	mov    r13,QWORD PTR [rsp+0x410]
    37ca:	00 
    37cb:	48 89 c6             	mov    rsi,rax
    37ce:	48 89 b4 24 00 04 00 	mov    QWORD PTR [rsp+0x400],rsi
    37d5:	00 
    37d6:	49 8b b4 24 98 00 00 	mov    rsi,QWORD PTR [r12+0x98]
    37dd:	00 
    37de:	48 8b 7b 08          	mov    rdi,QWORD PTR [rbx+0x8]
    37e2:	49 89 b4 24 98 00 00 	mov    QWORD PTR [r12+0x98],rsi
    37e9:	00 
    37ea:	4c 89 6e e0          	mov    QWORD PTR [rsi-0x20],r13
    37ee:	4c 89 76 e8          	mov    QWORD PTR [rsi-0x18],r14
    37f2:	b8 01 00 00 00       	mov    eax,0x1
    37f7:	48 89 46 f0          	mov    QWORD PTR [rsi-0x10],rax
    37fb:	b8 01 00 00 00       	mov    eax,0x1
    3800:	48 89 46 f8          	mov    QWORD PTR [rsi-0x8],rax
    3804:	48 31 f6             	xor    rsi,rsi
    3807:	48 b8 00 00 00 00 00 	movabs rax,0x0
    380e:	00 00 00 
			3809: R_X86_64_64	do_callback
    3811:	48 89 9c 24 08 04 00 	mov    QWORD PTR [rsp+0x408],rbx
    3818:	00 
    3819:	48 89 bc 24 10 04 00 	mov    QWORD PTR [rsp+0x410],rdi
    3820:	00 
    3821:	4c 89 ac 24 18 04 00 	mov    QWORD PTR [rsp+0x418],r13
    3828:	00 
    3829:	ff d0                	call   rax
    382b:	48 8b 9c 24 08 04 00 	mov    rbx,QWORD PTR [rsp+0x408]
    3832:	00 
    3833:	4c 8b ac 24 18 04 00 	mov    r13,QWORD PTR [rsp+0x418]
    383a:	00 
    383b:	48 89 c6             	mov    rsi,rax
    383e:	48 89 b4 24 08 04 00 	mov    QWORD PTR [rsp+0x408],rsi
    3845:	00 
    3846:	49 8b b4 24 98 00 00 	mov    rsi,QWORD PTR [r12+0x98]
    384d:	00 
    384e:	48 8b 7b 08          	mov    rdi,QWORD PTR [rbx+0x8]
    3852:	49 89 b4 24 98 00 00 	mov    QWORD PTR [r12+0x98],rsi
    3859:	00 
    385a:	4c 89 6e e0          	mov    QWORD PTR [rsi-0x20],r13
    385e:	4c 89 76 e8          	mov    QWORD PTR [rsi-0x18],r14
    3862:	b8 01 00 00 00       	mov    eax,0x1
    3867:	48 89 46 f0          	mov    QWORD PTR [rsi-0x10],rax
    386b:	b8 01 00 00 00       	mov    eax,0x1
    3870:	48 89 46 f8          	mov    QWORD PTR [rsi-0x8],rax
    3874:	48 31 f6             	xor    rsi,rsi
    3877:	48 b8 00 00 00 00 00 	movabs rax,0x0
    387e:	00 00 00 
			3879: R_X86_64_64	do_callback
    3881:	48 89 9c 24 10 04 00 	mov    QWORD PTR [rsp+0x410],rbx
    3888:	00 
    3889:	48 89 bc 24 18 04 00 	mov    QWORD PTR [rsp+0x418],rdi
    3890:	00 
    3891:	4c 89 ac 24 20 04 00 	mov    QWORD PTR [rsp+0x420],r13
    3898:	00 
    3899:	ff d0                	call   rax
    389b:	48 8b 9c 24 10 04 00 	mov    rbx,QWORD PTR [rsp+0x410]
    38a2:	00 
    38a3:	4c 8b ac 24 20 04 00 	mov    r13,QWORD PTR [rsp+0x420]
    38aa:	00 
    38ab:	48 89 c6             	mov    rsi,rax
    38ae:	48 89 b4 24 10 04 00 	mov    QWORD PTR [rsp+0x410],rsi
    38b5:	00 
    38b6:	49 8b b4 24 98 00 00 	mov    rsi,QWORD PTR [r12+0x98]
    38bd:	00 
    38be:	48 8b 7b 08          	mov    rdi,QWORD PTR [rbx+0x8]
    38c2:	49 89 b4 24 98 00 00 	mov    QWORD PTR [r12+0x98],rsi
    38c9:	00 
    38ca:	4c 89 6e e0          	mov    QWORD PTR [rsi-0x20],r13
    38ce:	4c 89 76 e8          	mov    QWORD PTR [rsi-0x18],r14
    38d2:	b8 01 00 00 00       	mov    eax,0x1
    38d7:	48 89 46 f0          	mov    QWORD PTR [rsi-0x10],rax
    38db:	b8 01 00 00 00       	mov    eax,0x1
    38e0:	48 89 46 f8          	mov    QWORD PTR [rsi-0x8],rax
    38e4:	48 31 f6             	xor    rsi,rsi
    38e7:	48 b8 00 00 00 00 00 	movabs rax,0x0
    38ee:	00 00 00 
			38e9: R_X86_64_64	do_callback
    38f1:	48 89 9c 24 18 04 00 	mov    QWORD PTR [rsp+0x418],rbx
    38f8:	00 
    38f9:	48 89 bc 24 20 04 00 	mov    QWORD PTR [rsp+0x420],rdi
    3900:	00 
    3901:	4c 89 ac 24 28 04 00 	mov    QWORD PTR [rsp+0x428],r13
    3908:	00 
    3909:	ff d0                	call   rax
    390b:	48 8b 9c 24 18 04 00 	mov    rbx,QWORD PTR [rsp+0x418]
    3912:	00 
    3913:	4c 8b ac 24 28 04 00 	mov    r13,QWORD PTR [rsp+0x428]
    391a:	00 
    391b:	48 89 c6             	mov    rsi,rax
    391e:	48 89 b4 24 18 04 00 	mov    QWORD PTR [rsp+0x418],rsi
    3925:	00 
    3926:	49 8b b4 24 98 00 00 	mov    rsi,QWORD PTR [r12+0x98]
    392d:	00 
    392e:	48 8b 7b 08          	mov    rdi,QWORD PTR [rbx+0x8]
    3932:	49 89 b4 24 98 00 00 	mov    QWORD PTR [r12+0x98],rsi
    3939:	00 
    393a:	4c 89 6e e0          	mov    QWORD PTR [rsi-0x20],r13
    393e:	4c 89 76 e8          	mov    QWORD PTR [rsi-0x18],r14
    3942:	b8 01 00 00 00       	mov    eax,0x1
    3947:	48 89 46 f0          	mov    QWORD PTR [rsi-0x10],rax
    394b:	b8 01 00 00 00       	mov    eax,0x1
    3950:	48 89 46 f8          	mov    QWORD PTR [rsi-0x8],rax
    3954:	48 31 f6             	xor    rsi,rsi
    3957:	48 b8 00 00 00 00 00 	movabs rax,0x0
    395e:	00 00 00 
			3959: R_X86_64_64	do_callback
    3961:	48 89 9c 24 20 04 00 	mov    QWORD PTR [rsp+0x420],rbx
    3968:	00 
    3969:	48 89 bc 24 28 04 00 	mov    QWORD PTR [rsp+0x428],rdi
    3970:	00 
    3971:	4c 89 ac 24 30 04 00 	mov    QWORD PTR [rsp+0x430],r13
    3978:	00 
    3979:	ff d0                	call   rax
    397b:	48 8b 9c 24 20 04 00 	mov    rbx,QWORD PTR [rsp+0x420]
    3982:	00 
    3983:	4c 8b ac 24 30 04 00 	mov    r13,QWORD PTR [rsp+0x430]
    398a:	00 
    398b:	48 89 c6             	mov    rsi,rax
    398e:	48 89 b4 24 20 04 00 	mov    QWORD PTR [rsp+0x420],rsi
    3995:	00 
    3996:	49 8b b4 24 98 00 00 	mov    rsi,QWORD PTR [r12+0x98]
    399d:	00 
    399e:	48 8b 7b 08          	mov    rdi,QWORD PTR [rbx+0x8]
    39a2:	49 89 b4 24 98 00 00 	mov    QWORD PTR [r12+0x98],rsi
    39a9:	00 
    39aa:	4c 89 6e e0          	mov    QWORD PTR [rsi-0x20],r13
    39ae:	4c 89 76 e8          	mov    QWORD PTR [rsi-0x18],r14
    39b2:	b8 01 00 00 00       	mov    eax,0x1
    39b7:	48 89 46 f0          	mov    QWORD PTR [rsi-0x10],rax
    39bb:	b8 01 00 00 00       	mov    eax,0x1
    39c0:	48 89 46 f8          	mov    QWORD PTR [rsi-0x8],rax
    39c4:	48 31 f6             	xor    rsi,rsi
    39c7:	48 b8 00 00 00 00 00 	movabs rax,0x0
    39ce:	00 00 00 
			39c9: R_X86_64_64	do_callback
    39d1:	48 89 9c 24 28 04 00 	mov    QWORD PTR [rsp+0x428],rbx
    39d8:	00 
    39d9:	48 89 bc 24 30 04 00 	mov    QWORD PTR [rsp+0x430],rdi
    39e0:	00 
    39e1:	4c 89 ac 24 38 04 00 	mov    QWORD PTR [rsp+0x438],r13
    39e8:	00 
    39e9:	ff d0                	call   rax
    39eb:	48 8b 9c 24 28 04 00 	mov    rbx,QWORD PTR [rsp+0x428]
    39f2:	00 
    39f3:	4c 8b ac 24 38 04 00 	mov    r13,QWORD PTR [rsp+0x438]
    39fa:	00 
    39fb:	48 89 c6             	mov    rsi,rax
    39fe:	48 89 b4 24 28 04 00 	mov    QWORD PTR [rsp+0x428],rsi
    3a05:	00 
    3a06:	49 8b b4 24 98 00 00 	mov    rsi,QWORD PTR [r12+0x98]
    3a0d:	00 
    3a0e:	48 8b 7b 08          	mov    rdi,QWORD PTR [rbx+0x8]
    3a12:	49 89 b4 24 98 00 00 	mov    QWORD PTR [r12+0x98],rsi
    3a19:	00 
    3a1a:	4c 89 6e e0          	mov    QWORD PTR [rsi-0x20],r13
    3a1e:	4c 89 76 e8          	mov    QWORD PTR [rsi-0x18],r14
    3a22:	b8 01 00 00 00       	mov    eax,0x1
    3a27:	48 89 46 f0          	mov    QWORD PTR [rsi-0x10],rax
    3a2b:	b8 01 00 00 00       	mov    eax,0x1
    3a30:	48 89 46 f8          	mov    QWORD PTR [rsi-0x8],rax
    3a34:	48 31 f6             	xor    rsi,rsi
    3a37:	48 b8 00 00 00 00 00 	movabs rax,0x0
    3a3e:	00 00 00 
			3a39: R_X86_64_64	do_callback
    3a41:	48 89 9c 24 30 04 00 	mov    QWORD PTR [rsp+0x430],rbx
    3a48:	00 
    3a49:	48 89 bc 24 38 04 00 	mov    QWORD PTR [rsp+0x438],rdi
    3a50:	00 
    3a51:	4c 89 ac 24 40 04 00 	mov    QWORD PTR [rsp+0x440],r13
    3a58:	00 
    3a59:	ff d0                	call   rax
    3a5b:	48 8b 9c 24 30 04 00 	mov    rbx,QWORD PTR [rsp+0x430]
    3a62:	00 
    3a63:	4c 8b ac 24 40 04 00 	mov    r13,QWORD PTR [rsp+0x440]
    3a6a:	00 
    3a6b:	48 89 c6             	mov    rsi,rax
    3a6e:	48 89 b4 24 30 04 00 	mov    QWORD PTR [rsp+0x430],rsi
    3a75:	00 
    3a76:	49 8b b4 24 98 00 00 	mov    rsi,QWORD PTR [r12+0x98]
    3a7d:	00 
    3a7e:	48 8b 7b 08          	mov    rdi,QWORD PTR [rbx+0x8]
    3a82:	49 89 b4 24 98 00 00 	mov    QWORD PTR [r12+0x98],rsi
    3a89:	00 
    3a8a:	4c 89 6e e0          	mov    QWORD PTR [rsi-0x20],r13
    3a8e:	4c 89 76 e8          	mov    QWORD PTR [rsi-0x18],r14
    3a92:	b8 01 00 00 00       	mov    eax,0x1
    3a97:	48 89 46 f0          	mov    QWORD PTR [rsi-0x10],rax
    3a9b:	b8 01 00 00 00       	mov    eax,0x1
    3aa0:	48 89 46 f8          	mov    QWORD PTR [rsi-0x8],rax
    3aa4:	48 31 f6             	xor    rsi,rsi
    3aa7:	48 b8 00 00 00 00 00 	movabs rax,0x0
    3aae:	00 00 00 
			3aa9: R_X86_64_64	do_callback
    3ab1:	48 89 9c 24 38 04 00 	mov    QWORD PTR [rsp+0x438],rbx
    3ab8:	00 
    3ab9:	48 89 bc 24 40 04 00 	mov    QWORD PTR [rsp+0x440],rdi
    3ac0:	00 
    3ac1:	4c 89 ac 24 48 04 00 	mov    QWORD PTR [rsp+0x448],r13
    3ac8:	00 
    3ac9:	ff d0                	call   rax
    3acb:	48 8b 9c 24 38 04 00 	mov    rbx,QWORD PTR [rsp+0x438]
    3ad2:	00 
    3ad3:	4c 8b ac 24 48 04 00 	mov    r13,QWORD PTR [rsp+0x448]
    3ada:	00 
    3adb:	48 89 c6             	mov    rsi,rax
    3ade:	48 89 b4 24 38 04 00 	mov    QWORD PTR [rsp+0x438],rsi
    3ae5:	00 
    3ae6:	49 8b b4 24 98 00 00 	mov    rsi,QWORD PTR [r12+0x98]
    3aed:	00 
    3aee:	48 8b 7b 08          	mov    rdi,QWORD PTR [rbx+0x8]
    3af2:	49 89 b4 24 98 00 00 	mov    QWORD PTR [r12+0x98],rsi
    3af9:	00 
    3afa:	4c 89 6e e0          	mov    QWORD PTR [rsi-0x20],r13
    3afe:	4c 89 76 e8          	mov    QWORD PTR [rsi-0x18],r14
    3b02:	b8 01 00 00 00       	mov    eax,0x1
    3b07:	48 89 46 f0          	mov    QWORD PTR [rsi-0x10],rax
    3b0b:	b8 01 00 00 00       	mov    eax,0x1
    3b10:	48 89 46 f8          	mov    QWORD PTR [rsi-0x8],rax
    3b14:	48 31 f6             	xor    rsi,rsi
    3b17:	48 b8 00 00 00 00 00 	movabs rax,0x0
    3b1e:	00 00 00 
			3b19: R_X86_64_64	do_callback
    3b21:	48 89 9c 24 40 04 00 	mov    QWORD PTR [rsp+0x440],rbx
    3b28:	00 
    3b29:	48 89 bc 24 48 04 00 	mov    QWORD PTR [rsp+0x448],rdi
    3b30:	00 
    3b31:	4c 89 ac 24 50 04 00 	mov    QWORD PTR [rsp+0x450],r13
    3b38:	00 
    3b39:	ff d0                	call   rax
    3b3b:	48 8b 9c 24 40 04 00 	mov    rbx,QWORD PTR [rsp+0x440]
    3b42:	00 
    3b43:	4c 8b ac 24 50 04 00 	mov    r13,QWORD PTR [rsp+0x450]
    3b4a:	00 
    3b4b:	48 89 c6             	mov    rsi,rax
    3b4e:	48 89 b4 24 40 04 00 	mov    QWORD PTR [rsp+0x440],rsi
    3b55:	00 
    3b56:	49 8b b4 24 98 00 00 	mov    rsi,QWORD PTR [r12+0x98]
    3b5d:	00 
    3b5e:	48 8b 7b 08          	mov    rdi,QWORD PTR [rbx+0x8]
    3b62:	49 89 b4 24 98 00 00 	mov    QWORD PTR [r12+0x98],rsi
    3b69:	00 
    3b6a:	4c 89 6e e0          	mov    QWORD PTR [rsi-0x20],r13
    3b6e:	4c 89 76 e8          	mov    QWORD PTR [rsi-0x18],r14
    3b72:	b8 01 00 00 00       	mov    eax,0x1
    3b77:	48 89 46 f0          	mov    QWORD PTR [rsi-0x10],rax
    3b7b:	b8 01 00 00 00       	mov    eax,0x1
    3b80:	48 89 46 f8          	mov    QWORD PTR [rsi-0x8],rax
    3b84:	48 31 f6             	xor    rsi,rsi
    3b87:	48 b8 00 00 00 00 00 	movabs rax,0x0
    3b8e:	00 00 00 
			3b89: R_X86_64_64	do_callback
    3b91:	48 89 9c 24 48 04 00 	mov    QWORD PTR [rsp+0x448],rbx
    3b98:	00 
    3b99:	48 89 bc 24 50 04 00 	mov    QWORD PTR [rsp+0x450],rdi
    3ba0:	00 
    3ba1:	4c 89 ac 24 58 04 00 	mov    QWORD PTR [rsp+0x458],r13
    3ba8:	00 
    3ba9:	ff d0                	call   rax
    3bab:	48 8b 9c 24 48 04 00 	mov    rbx,QWORD PTR [rsp+0x448]
    3bb2:	00 
    3bb3:	4c 8b ac 24 58 04 00 	mov    r13,QWORD PTR [rsp+0x458]
    3bba:	00 
    3bbb:	48 89 c6             	mov    rsi,rax
    3bbe:	48 89 b4 24 48 04 00 	mov    QWORD PTR [rsp+0x448],rsi
    3bc5:	00 
    3bc6:	49 8b b4 24 98 00 00 	mov    rsi,QWORD PTR [r12+0x98]
    3bcd:	00 
    3bce:	48 8b 7b 08          	mov    rdi,QWORD PTR [rbx+0x8]
    3bd2:	49 89 b4 24 98 00 00 	mov    QWORD PTR [r12+0x98],rsi
    3bd9:	00 
    3bda:	4c 89 6e e0          	mov    QWORD PTR [rsi-0x20],r13
    3bde:	4c 89 76 e8          	mov    QWORD PTR [rsi-0x18],r14
    3be2:	b8 01 00 00 00       	mov    eax,0x1
    3be7:	48 89 46 f0          	mov    QWORD PTR [rsi-0x10],rax
    3beb:	b8 01 00 00 00       	mov    eax,0x1
    3bf0:	48 89 46 f8          	mov    QWORD PTR [rsi-0x8],rax
    3bf4:	48 31 f6             	xor    rsi,rsi
    3bf7:	48 b8 00 00 00 00 00 	movabs rax,0x0
    3bfe:	00 00 00 
			3bf9: R_X86_64_64	do_callback
    3c01:	48 89 9c 24 50 04 00 	mov    QWORD PTR [rsp+0x450],rbx
    3c08:	00 
    3c09:	48 89 bc 24 58 04 00 	mov    QWORD PTR [rsp+0x458],rdi
    3c10:	00 
    3c11:	4c 89 ac 24 60 04 00 	mov    QWORD PTR [rsp+0x460],r13
    3c18:	00 
    3c19:	ff d0                	call   rax
    3c1b:	48 8b 9c 24 50 04 00 	mov    rbx,QWORD PTR [rsp+0x450]
    3c22:	00 
    3c23:	4c 8b ac 24 60 04 00 	mov    r13,QWORD PTR [rsp+0x460]
    3c2a:	00 
    3c2b:	48 89 c6             	mov    rsi,rax
    3c2e:	48 89 b4 24 50 04 00 	mov    QWORD PTR [rsp+0x450],rsi
    3c35:	00 
    3c36:	49 8b b4 24 98 00 00 	mov    rsi,QWORD PTR [r12+0x98]
    3c3d:	00 
    3c3e:	48 8b 7b 08          	mov    rdi,QWORD PTR [rbx+0x8]
    3c42:	49 89 b4 24 98 00 00 	mov    QWORD PTR [r12+0x98],rsi
    3c49:	00 
    3c4a:	4c 89 6e e0          	mov    QWORD PTR [rsi-0x20],r13
    3c4e:	4c 89 76 e8          	mov    QWORD PTR [rsi-0x18],r14
    3c52:	b8 01 00 00 00       	mov    eax,0x1
    3c57:	48 89 46 f0          	mov    QWORD PTR [rsi-0x10],rax
    3c5b:	b8 01 00 00 00       	mov    eax,0x1
    3c60:	48 89 46 f8          	mov    QWORD PTR [rsi-0x8],rax
    3c64:	48 31 f6             	xor    rsi,rsi
    3c67:	48 b8 00 00 00 00 00 	movabs rax,0x0
    3c6e:	00 00 00 
			3c69: R_X86_64_64	do_callback
    3c71:	48 89 9c 24 58 04 00 	mov    QWORD PTR [rsp+0x458],rbx
    3c78:	00 
    3c79:	48 89 bc 24 60 04 00 	mov    QWORD PTR [rsp+0x460],rdi
    3c80:	00 
    3c81:	4c 89 ac 24 68 04 00 	mov    QWORD PTR [rsp+0x468],r13
    3c88:	00 
    3c89:	ff d0                	call   rax
    3c8b:	48 8b 9c 24 58 04 00 	mov    rbx,QWORD PTR [rsp+0x458]
    3c92:	00 
    3c93:	4c 8b ac 24 68 04 00 	mov    r13,QWORD PTR [rsp+0x468]
    3c9a:	00 
    3c9b:	48 89 c6             	mov    rsi,rax
    3c9e:	48 89 b4 24 58 04 00 	mov    QWORD PTR [rsp+0x458],rsi
    3ca5:	00 
    3ca6:	49 8b b4 24 98 00 00 	mov    rsi,QWORD PTR [r12+0x98]
    3cad:	00 
    3cae:	48 8b 7b 08          	mov    rdi,QWORD PTR [rbx+0x8]
    3cb2:	49 89 b4 24 98 00 00 	mov    QWORD PTR [r12+0x98],rsi
    3cb9:	00 
    3cba:	4c 89 6e e0          	mov    QWORD PTR [rsi-0x20],r13
    3cbe:	4c 89 76 e8          	mov    QWORD PTR [rsi-0x18],r14
    3cc2:	b8 01 00 00 00       	mov    eax,0x1
    3cc7:	48 89 46 f0          	mov    QWORD PTR [rsi-0x10],rax
    3ccb:	b8 01 00 00 00       	mov    eax,0x1
    3cd0:	48 89 46 f8          	mov    QWORD PTR [rsi-0x8],rax
    3cd4:	48 31 f6             	xor    rsi,rsi
    3cd7:	48 b8 00 00 00 00 00 	movabs rax,0x0
    3cde:	00 00 00 
			3cd9: R_X86_64_64	do_callback
    3ce1:	48 89 9c 24 60 04 00 	mov    QWORD PTR [rsp+0x460],rbx
    3ce8:	00 
    3ce9:	48 89 bc 24 68 04 00 	mov    QWORD PTR [rsp+0x468],rdi
    3cf0:	00 
    3cf1:	4c 89 ac 24 70 04 00 	mov    QWORD PTR [rsp+0x470],r13
    3cf8:	00 
    3cf9:	ff d0                	call   rax
    3cfb:	48 8b 9c 24 60 04 00 	mov    rbx,QWORD PTR [rsp+0x460]
    3d02:	00 
    3d03:	4c 8b ac 24 70 04 00 	mov    r13,QWORD PTR [rsp+0x470]
    3d0a:	00 
    3d0b:	48 89 c6             	mov    rsi,rax
    3d0e:	48 89 b4 24 60 04 00 	mov    QWORD PTR [rsp+0x460],rsi
    3d15:	00 
    3d16:	49 8b b4 24 98 00 00 	mov    rsi,QWORD PTR [r12+0x98]
    3d1d:	00 
    3d1e:	48 8b 7b 08          	mov    rdi,QWORD PTR [rbx+0x8]
    3d22:	49 89 b4 24 98 00 00 	mov    QWORD PTR [r12+0x98],rsi
    3d29:	00 
    3d2a:	4c 89 6e e0          	mov    QWORD PTR [rsi-0x20],r13
    3d2e:	4c 89 76 e8          	mov    QWORD PTR [rsi-0x18],r14
    3d32:	b8 01 00 00 00       	mov    eax,0x1
    3d37:	48 89 46 f0          	mov    QWORD PTR [rsi-0x10],rax
    3d3b:	b8 01 00 00 00       	mov    eax,0x1
    3d40:	48 89 46 f8          	mov    QWORD PTR [rsi-0x8],rax
    3d44:	48 31 f6             	xor    rsi,rsi
    3d47:	48 b8 00 00 00 00 00 	movabs rax,0x0
    3d4e:	00 00 00 
			3d49: R_X86_64_64	do_callback
    3d51:	48 89 9c 24 68 04 00 	mov    QWORD PTR [rsp+0x468],rbx
    3d58:	00 
    3d59:	48 89 bc 24 70 04 00 	mov    QWORD PTR [rsp+0x470],rdi
    3d60:	00 
    3d61:	4c 89 ac 24 78 04 00 	mov    QWORD PTR [rsp+0x478],r13
    3d68:	00 
    3d69:	ff d0                	call   rax
    3d6b:	48 8b 9c 24 68 04 00 	mov    rbx,QWORD PTR [rsp+0x468]
    3d72:	00 
    3d73:	4c 8b ac 24 78 04 00 	mov    r13,QWORD PTR [rsp+0x478]
    3d7a:	00 
    3d7b:	48 89 c6             	mov    rsi,rax
    3d7e:	48 89 b4 24 68 04 00 	mov    QWORD PTR [rsp+0x468],rsi
    3d85:	00 
    3d86:	49 8b b4 24 98 00 00 	mov    rsi,QWORD PTR [r12+0x98]
    3d8d:	00 
    3d8e:	48 8b 7b 08          	mov    rdi,QWORD PTR [rbx+0x8]
    3d92:	49 89 b4 24 98 00 00 	mov    QWORD PTR [r12+0x98],rsi
    3d99:	00 
    3d9a:	4c 89 6e e0          	mov    QWORD PTR [rsi-0x20],r13
    3d9e:	4c 89 76 e8          	mov    QWORD PTR [rsi-0x18],r14
    3da2:	b8 01 00 00 00       	mov    eax,0x1
    3da7:	48 89 46 f0          	mov    QWORD PTR [rsi-0x10],rax
    3dab:	b8 01 00 00 00       	mov    eax,0x1
    3db0:	48 89 46 f8          	mov    QWORD PTR [rsi-0x8],rax
    3db4:	48 31 f6             	xor    rsi,rsi
    3db7:	48 b8 00 00 00 00 00 	movabs rax,0x0
    3dbe:	00 00 00 
			3db9: R_X86_64_64	do_callback
    3dc1:	48 89 9c 24 70 04 00 	mov    QWORD PTR [rsp+0x470],rbx
    3dc8:	00 
    3dc9:	48 89 bc 24 78 04 00 	mov    QWORD PTR [rsp+0x478],rdi
    3dd0:	00 
    3dd1:	4c 89 ac 24 80 04 00 	mov    QWORD PTR [rsp+0x480],r13
    3dd8:	00 
    3dd9:	ff d0                	call   rax
    3ddb:	48 8b 9c 24 70 04 00 	mov    rbx,QWORD PTR [rsp+0x470]
    3de2:	00 
    3de3:	4c 8b ac 24 80 04 00 	mov    r13,QWORD PTR [rsp+0x480]
    3dea:	00 
    3deb:	48 89 c6             	mov    rsi,rax
    3dee:	48 89 b4 24 70 04 00 	mov    QWORD PTR [rsp+0x470],rsi
    3df5:	00 
    3df6:	49 8b b4 24 98 00 00 	mov    rsi,QWORD PTR [r12+0x98]
    3dfd:	00 
    3dfe:	48 8b 7b 08          	mov    rdi,QWORD PTR [rbx+0x8]
    3e02:	49 89 b4 24 98 00 00 	mov    QWORD PTR [r12+0x98],rsi
    3e09:	00 
    3e0a:	4c 89 6e e0          	mov    QWORD PTR [rsi-0x20],r13
    3e0e:	4c 89 76 e8          	mov    QWORD PTR [rsi-0x18],r14
    3e12:	b8 01 00 00 00       	mov    eax,0x1
    3e17:	48 89 46 f0          	mov    QWORD PTR [rsi-0x10],rax
    3e1b:	b8 01 00 00 00       	mov    eax,0x1
    3e20:	48 89 46 f8          	mov    QWORD PTR [rsi-0x8],rax
    3e24:	48 31 f6             	xor    rsi,rsi
    3e27:	48 b8 00 00 00 00 00 	movabs rax,0x0
    3e2e:	00 00 00 
			3e29: R_X86_64_64	do_callback
    3e31:	48 89 9c 24 78 04 00 	mov    QWORD PTR [rsp+0x478],rbx
    3e38:	00 
    3e39:	48 89 bc 24 80 04 00 	mov    QWORD PTR [rsp+0x480],rdi
    3e40:	00 
    3e41:	4c 89 ac 24 88 04 00 	mov    QWORD PTR [rsp+0x488],r13
    3e48:	00 
    3e49:	ff d0                	call   rax
    3e4b:	48 8b 9c 24 78 04 00 	mov    rbx,QWORD PTR [rsp+0x478]
    3e52:	00 
    3e53:	4c 8b ac 24 88 04 00 	mov    r13,QWORD PTR [rsp+0x488]
    3e5a:	00 
    3e5b:	48 89 c6             	mov    rsi,rax
    3e5e:	48 89 b4 24 78 04 00 	mov    QWORD PTR [rsp+0x478],rsi
    3e65:	00 
    3e66:	49 8b b4 24 98 00 00 	mov    rsi,QWORD PTR [r12+0x98]
    3e6d:	00 
    3e6e:	48 8b 7b 08          	mov    rdi,QWORD PTR [rbx+0x8]
    3e72:	49 89 b4 24 98 00 00 	mov    QWORD PTR [r12+0x98],rsi
    3e79:	00 
    3e7a:	4c 89 6e e0          	mov    QWORD PTR [rsi-0x20],r13
    3e7e:	4c 89 76 e8          	mov    QWORD PTR [rsi-0x18],r14
    3e82:	b8 01 00 00 00       	mov    eax,0x1
    3e87:	48 89 46 f0          	mov    QWORD PTR [rsi-0x10],rax
    3e8b:	b8 01 00 00 00       	mov    eax,0x1
    3e90:	48 89 46 f8          	mov    QWORD PTR [rsi-0x8],rax
    3e94:	48 31 f6             	xor    rsi,rsi
    3e97:	48 b8 00 00 00 00 00 	movabs rax,0x0
    3e9e:	00 00 00 
			3e99: R_X86_64_64	do_callback
    3ea1:	48 89 9c 24 80 04 00 	mov    QWORD PTR [rsp+0x480],rbx
    3ea8:	00 
    3ea9:	48 89 bc 24 88 04 00 	mov    QWORD PTR [rsp+0x488],rdi
    3eb0:	00 
    3eb1:	4c 89 ac 24 90 04 00 	mov    QWORD PTR [rsp+0x490],r13
    3eb8:	00 
    3eb9:	ff d0                	call   rax
    3ebb:	48 8b 9c 24 80 04 00 	mov    rbx,QWORD PTR [rsp+0x480]
    3ec2:	00 
    3ec3:	4c 8b ac 24 90 04 00 	mov    r13,QWORD PTR [rsp+0x490]
    3eca:	00 
    3ecb:	48 89 c6             	mov    rsi,rax
    3ece:	48 89 b4 24 80 04 00 	mov    QWORD PTR [rsp+0x480],rsi
    3ed5:	00 
    3ed6:	49 8b b4 24 98 00 00 	mov    rsi,QWORD PTR [r12+0x98]
    3edd:	00 
    3ede:	48 8b 7b 08          	mov    rdi,QWORD PTR [rbx+0x8]
    3ee2:	49 89 b4 24 98 00 00 	mov    QWORD PTR [r12+0x98],rsi
    3ee9:	00 
    3eea:	4c 89 6e e0          	mov    QWORD PTR [rsi-0x20],r13
    3eee:	4c 89 76 e8          	mov    QWORD PTR [rsi-0x18],r14
    3ef2:	b8 01 00 00 00       	mov    eax,0x1
    3ef7:	48 89 46 f0          	mov    QWORD PTR [rsi-0x10],rax
    3efb:	b8 01 00 00 00       	mov    eax,0x1
    3f00:	48 89 46 f8          	mov    QWORD PTR [rsi-0x8],rax
    3f04:	48 31 f6             	xor    rsi,rsi
    3f07:	48 b8 00 00 00 00 00 	movabs rax,0x0
    3f0e:	00 00 00 
			3f09: R_X86_64_64	do_callback
    3f11:	48 89 9c 24 88 04 00 	mov    QWORD PTR [rsp+0x488],rbx
    3f18:	00 
    3f19:	48 89 bc 24 90 04 00 	mov    QWORD PTR [rsp+0x490],rdi
    3f20:	00 
    3f21:	4c 89 ac 24 98 04 00 	mov    QWORD PTR [rsp+0x498],r13
    3f28:	00 
    3f29:	ff d0                	call   rax
    3f2b:	48 8b 9c 24 88 04 00 	mov    rbx,QWORD PTR [rsp+0x488]
    3f32:	00 
    3f33:	4c 8b ac 24 98 04 00 	mov    r13,QWORD PTR [rsp+0x498]
    3f3a:	00 
    3f3b:	48 89 c6             	mov    rsi,rax
    3f3e:	48 89 b4 24 88 04 00 	mov    QWORD PTR [rsp+0x488],rsi
    3f45:	00 
    3f46:	49 8b b4 24 98 00 00 	mov    rsi,QWORD PTR [r12+0x98]
    3f4d:	00 
    3f4e:	48 8b 7b 08          	mov    rdi,QWORD PTR [rbx+0x8]
    3f52:	49 89 b4 24 98 00 00 	mov    QWORD PTR [r12+0x98],rsi
    3f59:	00 
    3f5a:	4c 89 6e e0          	mov    QWORD PTR [rsi-0x20],r13
    3f5e:	4c 89 76 e8          	mov    QWORD PTR [rsi-0x18],r14
    3f62:	b8 01 00 00 00       	mov    eax,0x1
    3f67:	48 89 46 f0          	mov    QWORD PTR [rsi-0x10],rax
    3f6b:	b8 01 00 00 00       	mov    eax,0x1
    3f70:	48 89 46 f8          	mov    QWORD PTR [rsi-0x8],rax
    3f74:	48 31 f6             	xor    rsi,rsi
    3f77:	48 b8 00 00 00 00 00 	movabs rax,0x0
    3f7e:	00 00 00 
			3f79: R_X86_64_64	do_callback
    3f81:	48 89 9c 24 90 04 00 	mov    QWORD PTR [rsp+0x490],rbx
    3f88:	00 
    3f89:	48 89 bc 24 98 04 00 	mov    QWORD PTR [rsp+0x498],rdi
    3f90:	00 
    3f91:	4c 89 ac 24 a0 04 00 	mov    QWORD PTR [rsp+0x4a0],r13
    3f98:	00 
    3f99:	ff d0                	call   rax
    3f9b:	48 8b 9c 24 90 04 00 	mov    rbx,QWORD PTR [rsp+0x490]
    3fa2:	00 
    3fa3:	4c 8b ac 24 a0 04 00 	mov    r13,QWORD PTR [rsp+0x4a0]
    3faa:	00 
    3fab:	48 89 c6             	mov    rsi,rax
    3fae:	48 89 b4 24 90 04 00 	mov    QWORD PTR [rsp+0x490],rsi
    3fb5:	00 
    3fb6:	49 8b b4 24 98 00 00 	mov    rsi,QWORD PTR [r12+0x98]
    3fbd:	00 
    3fbe:	48 8b 7b 08          	mov    rdi,QWORD PTR [rbx+0x8]
    3fc2:	49 89 b4 24 98 00 00 	mov    QWORD PTR [r12+0x98],rsi
    3fc9:	00 
    3fca:	4c 89 6e e0          	mov    QWORD PTR [rsi-0x20],r13
    3fce:	4c 89 76 e8          	mov    QWORD PTR [rsi-0x18],r14
    3fd2:	b8 01 00 00 00       	mov    eax,0x1
    3fd7:	48 89 46 f0          	mov    QWORD PTR [rsi-0x10],rax
    3fdb:	b8 01 00 00 00       	mov    eax,0x1
    3fe0:	48 89 46 f8          	mov    QWORD PTR [rsi-0x8],rax
    3fe4:	48 31 f6             	xor    rsi,rsi
    3fe7:	48 b8 00 00 00 00 00 	movabs rax,0x0
    3fee:	00 00 00 
			3fe9: R_X86_64_64	do_callback
    3ff1:	48 89 9c 24 98 04 00 	mov    QWORD PTR [rsp+0x498],rbx
    3ff8:	00 
    3ff9:	48 89 bc 24 a0 04 00 	mov    QWORD PTR [rsp+0x4a0],rdi
    4000:	00 
    4001:	4c 89 ac 24 a8 04 00 	mov    QWORD PTR [rsp+0x4a8],r13
    4008:	00 
    4009:	ff d0                	call   rax
    400b:	48 8b 9c 24 98 04 00 	mov    rbx,QWORD PTR [rsp+0x498]
    4012:	00 
    4013:	4c 8b ac 24 a8 04 00 	mov    r13,QWORD PTR [rsp+0x4a8]
    401a:	00 
    401b:	48 89 c6             	mov    rsi,rax
    401e:	48 89 b4 24 98 04 00 	mov    QWORD PTR [rsp+0x498],rsi
    4025:	00 
    4026:	49 8b b4 24 98 00 00 	mov    rsi,QWORD PTR [r12+0x98]
    402d:	00 
    402e:	48 8b 7b 08          	mov    rdi,QWORD PTR [rbx+0x8]
    4032:	49 89 b4 24 98 00 00 	mov    QWORD PTR [r12+0x98],rsi
    4039:	00 
    403a:	4c 89 6e e0          	mov    QWORD PTR [rsi-0x20],r13
    403e:	4c 89 76 e8          	mov    QWORD PTR [rsi-0x18],r14
    4042:	b8 01 00 00 00       	mov    eax,0x1
    4047:	48 89 46 f0          	mov    QWORD PTR [rsi-0x10],rax
    404b:	b8 01 00 00 00       	mov    eax,0x1
    4050:	48 89 46 f8          	mov    QWORD PTR [rsi-0x8],rax
    4054:	48 31 f6             	xor    rsi,rsi
    4057:	48 b8 00 00 00 00 00 	movabs rax,0x0
    405e:	00 00 00 
			4059: R_X86_64_64	do_callback
    4061:	48 89 9c 24 a0 04 00 	mov    QWORD PTR [rsp+0x4a0],rbx
    4068:	00 
    4069:	48 89 bc 24 a8 04 00 	mov    QWORD PTR [rsp+0x4a8],rdi
    4070:	00 
    4071:	4c 89 ac 24 b0 04 00 	mov    QWORD PTR [rsp+0x4b0],r13
    4078:	00 
    4079:	ff d0                	call   rax
    407b:	48 8b 9c 24 a0 04 00 	mov    rbx,QWORD PTR [rsp+0x4a0]
    4082:	00 
    4083:	4c 8b ac 24 b0 04 00 	mov    r13,QWORD PTR [rsp+0x4b0]
    408a:	00 
    408b:	48 89 c6             	mov    rsi,rax
    408e:	48 89 b4 24 a0 04 00 	mov    QWORD PTR [rsp+0x4a0],rsi
    4095:	00 
    4096:	49 8b b4 24 98 00 00 	mov    rsi,QWORD PTR [r12+0x98]
    409d:	00 
    409e:	48 8b 7b 08          	mov    rdi,QWORD PTR [rbx+0x8]
    40a2:	49 89 b4 24 98 00 00 	mov    QWORD PTR [r12+0x98],rsi
    40a9:	00 
    40aa:	4c 89 6e e0          	mov    QWORD PTR [rsi-0x20],r13
    40ae:	4c 89 76 e8          	mov    QWORD PTR [rsi-0x18],r14
    40b2:	b8 01 00 00 00       	mov    eax,0x1
    40b7:	48 89 46 f0          	mov    QWORD PTR [rsi-0x10],rax
    40bb:	b8 01 00 00 00       	mov    eax,0x1
    40c0:	48 89 46 f8          	mov    QWORD PTR [rsi-0x8],rax
    40c4:	48 31 f6             	xor    rsi,rsi
    40c7:	48 b8 00 00 00 00 00 	movabs rax,0x0
    40ce:	00 00 00 
			40c9: R_X86_64_64	do_callback
    40d1:	48 89 9c 24 a8 04 00 	mov    QWORD PTR [rsp+0x4a8],rbx
    40d8:	00 
    40d9:	48 89 bc 24 b0 04 00 	mov    QWORD PTR [rsp+0x4b0],rdi
    40e0:	00 
    40e1:	4c 89 ac 24 b8 04 00 	mov    QWORD PTR [rsp+0x4b8],r13
    40e8:	00 
    40e9:	ff d0                	call   rax
    40eb:	48 8b 9c 24 a8 04 00 	mov    rbx,QWORD PTR [rsp+0x4a8]
    40f2:	00 
    40f3:	4c 8b ac 24 b8 04 00 	mov    r13,QWORD PTR [rsp+0x4b8]
    40fa:	00 
    40fb:	48 89 c6             	mov    rsi,rax
    40fe:	48 89 b4 24 a8 04 00 	mov    QWORD PTR [rsp+0x4a8],rsi
    4105:	00 
    4106:	49 8b b4 24 98 00 00 	mov    rsi,QWORD PTR [r12+0x98]
    410d:	00 
    410e:	48 8b 7b 08          	mov    rdi,QWORD PTR [rbx+0x8]
    4112:	49 89 b4 24 98 00 00 	mov    QWORD PTR [r12+0x98],rsi
    4119:	00 
    411a:	4c 89 6e e0          	mov    QWORD PTR [rsi-0x20],r13
    411e:	4c 89 76 e8          	mov    QWORD PTR [rsi-0x18],r14
    4122:	b8 01 00 00 00       	mov    eax,0x1
    4127:	48 89 46 f0          	mov    QWORD PTR [rsi-0x10],rax
    412b:	b8 01 00 00 00       	mov    eax,0x1
    4130:	48 89 46 f8          	mov    QWORD PTR [rsi-0x8],rax
    4134:	48 31 f6             	xor    rsi,rsi
    4137:	48 b8 00 00 00 00 00 	movabs rax,0x0
    413e:	00 00 00 
			4139: R_X86_64_64	do_callback
    4141:	48 89 9c 24 b0 04 00 	mov    QWORD PTR [rsp+0x4b0],rbx
    4148:	00 
    4149:	48 89 bc 24 b8 04 00 	mov    QWORD PTR [rsp+0x4b8],rdi
    4150:	00 
    4151:	4c 89 ac 24 c0 04 00 	mov    QWORD PTR [rsp+0x4c0],r13
    4158:	00 
    4159:	ff d0                	call   rax
    415b:	48 8b 9c 24 b0 04 00 	mov    rbx,QWORD PTR [rsp+0x4b0]
    4162:	00 
    4163:	4c 8b ac 24 c0 04 00 	mov    r13,QWORD PTR [rsp+0x4c0]
    416a:	00 
    416b:	48 89 c6             	mov    rsi,rax
    416e:	48 89 b4 24 b0 04 00 	mov    QWORD PTR [rsp+0x4b0],rsi
    4175:	00 
    4176:	49 8b b4 24 98 00 00 	mov    rsi,QWORD PTR [r12+0x98]
    417d:	00 
    417e:	48 8b 7b 08          	mov    rdi,QWORD PTR [rbx+0x8]
    4182:	49 89 b4 24 98 00 00 	mov    QWORD PTR [r12+0x98],rsi
    4189:	00 
    418a:	4c 89 6e e0          	mov    QWORD PTR [rsi-0x20],r13
    418e:	4c 89 76 e8          	mov    QWORD PTR [rsi-0x18],r14
    4192:	b8 01 00 00 00       	mov    eax,0x1
    4197:	48 89 46 f0          	mov    QWORD PTR [rsi-0x10],rax
    419b:	b8 01 00 00 00       	mov    eax,0x1
    41a0:	48 89 46 f8          	mov    QWORD PTR [rsi-0x8],rax
    41a4:	48 31 f6             	xor    rsi,rsi
    41a7:	48 b8 00 00 00 00 00 	movabs rax,0x0
    41ae:	00 00 00 
			41a9: R_X86_64_64	do_callback
    41b1:	48 89 9c 24 b8 04 00 	mov    QWORD PTR [rsp+0x4b8],rbx
    41b8:	00 
    41b9:	48 89 bc 24 c0 04 00 	mov    QWORD PTR [rsp+0x4c0],rdi
    41c0:	00 
    41c1:	4c 89 ac 24 c8 04 00 	mov    QWORD PTR [rsp+0x4c8],r13
    41c8:	00 
    41c9:	ff d0                	call   rax
    41cb:	48 8b 9c 24 b8 04 00 	mov    rbx,QWORD PTR [rsp+0x4b8]
    41d2:	00 
    41d3:	4c 8b ac 24 c8 04 00 	mov    r13,QWORD PTR [rsp+0x4c8]
    41da:	00 
    41db:	48 89 c6             	mov    rsi,rax
    41de:	48 89 b4 24 b8 04 00 	mov    QWORD PTR [rsp+0x4b8],rsi
    41e5:	00 
    41e6:	49 8b b4 24 98 00 00 	mov    rsi,QWORD PTR [r12+0x98]
    41ed:	00 
    41ee:	48 8b 7b 08          	mov    rdi,QWORD PTR [rbx+0x8]
    41f2:	49 89 b4 24 98 00 00 	mov    QWORD PTR [r12+0x98],rsi
    41f9:	00 
    41fa:	4c 89 6e e0          	mov    QWORD PTR [rsi-0x20],r13
    41fe:	4c 89 76 e8          	mov    QWORD PTR [rsi-0x18],r14
    4202:	b8 01 00 00 00       	mov    eax,0x1
    4207:	48 89 46 f0          	mov    QWORD PTR [rsi-0x10],rax
    420b:	b8 01 00 00 00       	mov    eax,0x1
    4210:	48 89 46 f8          	mov    QWORD PTR [rsi-0x8],rax
    4214:	48 31 f6             	xor    rsi,rsi
    4217:	48 b8 00 00 00 00 00 	movabs rax,0x0
    421e:	00 00 00 
			4219: R_X86_64_64	do_callback
    4221:	48 89 9c 24 c0 04 00 	mov    QWORD PTR [rsp+0x4c0],rbx
    4228:	00 
    4229:	48 89 bc 24 c8 04 00 	mov    QWORD PTR [rsp+0x4c8],rdi
    4230:	00 
    4231:	4c 89 ac 24 d0 04 00 	mov    QWORD PTR [rsp+0x4d0],r13
    4238:	00 
    4239:	ff d0                	call   rax
    423b:	48 8b 9c 24 c0 04 00 	mov    rbx,QWORD PTR [rsp+0x4c0]
    4242:	00 
    4243:	4c 8b ac 24 d0 04 00 	mov    r13,QWORD PTR [rsp+0x4d0]
    424a:	00 
    424b:	48 89 c6             	mov    rsi,rax
    424e:	48 89 b4 24 c0 04 00 	mov    QWORD PTR [rsp+0x4c0],rsi
    4255:	00 
    4256:	49 8b b4 24 98 00 00 	mov    rsi,QWORD PTR [r12+0x98]
    425d:	00 
    425e:	48 8b 7b 08          	mov    rdi,QWORD PTR [rbx+0x8]
    4262:	49 89 b4 24 98 00 00 	mov    QWORD PTR [r12+0x98],rsi
    4269:	00 
    426a:	4c 89 6e e0          	mov    QWORD PTR [rsi-0x20],r13
    426e:	4c 89 76 e8          	mov    QWORD PTR [rsi-0x18],r14
    4272:	b8 01 00 00 00       	mov    eax,0x1
    4277:	48 89 46 f0          	mov    QWORD PTR [rsi-0x10],rax
    427b:	b8 01 00 00 00       	mov    eax,0x1
    4280:	48 89 46 f8          	mov    QWORD PTR [rsi-0x8],rax
    4284:	48 31 f6             	xor    rsi,rsi
    4287:	48 b8 00 00 00 00 00 	movabs rax,0x0
    428e:	00 00 00 
			4289: R_X86_64_64	do_callback
    4291:	48 89 9c 24 c8 04 00 	mov    QWORD PTR [rsp+0x4c8],rbx
    4298:	00 
    4299:	48 89 bc 24 d0 04 00 	mov    QWORD PTR [rsp+0x4d0],rdi
    42a0:	00 
    42a1:	4c 89 ac 24 d8 04 00 	mov    QWORD PTR [rsp+0x4d8],r13
    42a8:	00 
    42a9:	ff d0                	call   rax
    42ab:	48 8b 9c 24 c8 04 00 	mov    rbx,QWORD PTR [rsp+0x4c8]
    42b2:	00 
    42b3:	4c 8b ac 24 d8 04 00 	mov    r13,QWORD PTR [rsp+0x4d8]
    42ba:	00 
    42bb:	48 89 c6             	mov    rsi,rax
    42be:	48 89 b4 24 c8 04 00 	mov    QWORD PTR [rsp+0x4c8],rsi
    42c5:	00 
    42c6:	49 8b b4 24 98 00 00 	mov    rsi,QWORD PTR [r12+0x98]
    42cd:	00 
    42ce:	48 8b 7b 08          	mov    rdi,QWORD PTR [rbx+0x8]
    42d2:	49 89 b4 24 98 00 00 	mov    QWORD PTR [r12+0x98],rsi
    42d9:	00 
    42da:	4c 89 6e e0          	mov    QWORD PTR [rsi-0x20],r13
    42de:	4c 89 76 e8          	mov    QWORD PTR [rsi-0x18],r14
    42e2:	b8 01 00 00 00       	mov    eax,0x1
    42e7:	48 89 46 f0          	mov    QWORD PTR [rsi-0x10],rax
    42eb:	b8 01 00 00 00       	mov    eax,0x1
    42f0:	48 89 46 f8          	mov    QWORD PTR [rsi-0x8],rax
    42f4:	48 31 f6             	xor    rsi,rsi
    42f7:	48 b8 00 00 00 00 00 	movabs rax,0x0
    42fe:	00 00 00 
			42f9: R_X86_64_64	do_callback
    4301:	48 89 9c 24 d0 04 00 	mov    QWORD PTR [rsp+0x4d0],rbx
    4308:	00 
    4309:	48 89 bc 24 d8 04 00 	mov    QWORD PTR [rsp+0x4d8],rdi
    4310:	00 
    4311:	4c 89 ac 24 e0 04 00 	mov    QWORD PTR [rsp+0x4e0],r13
    4318:	00 
    4319:	ff d0                	call   rax
    431b:	48 8b 9c 24 d0 04 00 	mov    rbx,QWORD PTR [rsp+0x4d0]
    4322:	00 
    4323:	4c 8b ac 24 e0 04 00 	mov    r13,QWORD PTR [rsp+0x4e0]
    432a:	00 
    432b:	48 89 c6             	mov    rsi,rax
    432e:	48 89 b4 24 d0 04 00 	mov    QWORD PTR [rsp+0x4d0],rsi
    4335:	00 
    4336:	49 8b b4 24 98 00 00 	mov    rsi,QWORD PTR [r12+0x98]
    433d:	00 
    433e:	48 8b 7b 08          	mov    rdi,QWORD PTR [rbx+0x8]
    4342:	49 89 b4 24 98 00 00 	mov    QWORD PTR [r12+0x98],rsi
    4349:	00 
    434a:	4c 89 6e e0          	mov    QWORD PTR [rsi-0x20],r13
    434e:	4c 89 76 e8          	mov    QWORD PTR [rsi-0x18],r14
    4352:	b8 01 00 00 00       	mov    eax,0x1
    4357:	48 89 46 f0          	mov    QWORD PTR [rsi-0x10],rax
    435b:	b8 01 00 00 00       	mov    eax,0x1
    4360:	48 89 46 f8          	mov    QWORD PTR [rsi-0x8],rax
    4364:	48 31 f6             	xor    rsi,rsi
    4367:	48 b8 00 00 00 00 00 	movabs rax,0x0
    436e:	00 00 00 
			4369: R_X86_64_64	do_callback
    4371:	48 89 9c 24 d8 04 00 	mov    QWORD PTR [rsp+0x4d8],rbx
    4378:	00 
    4379:	48 89 bc 24 e0 04 00 	mov    QWORD PTR [rsp+0x4e0],rdi
    4380:	00 
    4381:	4c 89 ac 24 e8 04 00 	mov    QWORD PTR [rsp+0x4e8],r13
    4388:	00 
    4389:	ff d0                	call   rax
    438b:	48 8b 9c 24 d8 04 00 	mov    rbx,QWORD PTR [rsp+0x4d8]
    4392:	00 
    4393:	4c 8b ac 24 e8 04 00 	mov    r13,QWORD PTR [rsp+0x4e8]
    439a:	00 
    439b:	48 89 c6             	mov    rsi,rax
    439e:	48 89 b4 24 d8 04 00 	mov    QWORD PTR [rsp+0x4d8],rsi
    43a5:	00 
    43a6:	49 8b b4 24 98 00 00 	mov    rsi,QWORD PTR [r12+0x98]
    43ad:	00 
    43ae:	48 8b 7b 08          	mov    rdi,QWORD PTR [rbx+0x8]
    43b2:	49 89 b4 24 98 00 00 	mov    QWORD PTR [r12+0x98],rsi
    43b9:	00 
    43ba:	4c 89 6e e0          	mov    QWORD PTR [rsi-0x20],r13
    43be:	4c 89 76 e8          	mov    QWORD PTR [rsi-0x18],r14
    43c2:	b8 01 00 00 00       	mov    eax,0x1
    43c7:	48 89 46 f0          	mov    QWORD PTR [rsi-0x10],rax
    43cb:	b8 01 00 00 00       	mov    eax,0x1
    43d0:	48 89 46 f8          	mov    QWORD PTR [rsi-0x8],rax
    43d4:	48 31 f6             	xor    rsi,rsi
    43d7:	48 b8 00 00 00 00 00 	movabs rax,0x0
    43de:	00 00 00 
			43d9: R_X86_64_64	do_callback
    43e1:	48 89 9c 24 e0 04 00 	mov    QWORD PTR [rsp+0x4e0],rbx
    43e8:	00 
    43e9:	48 89 bc 24 e8 04 00 	mov    QWORD PTR [rsp+0x4e8],rdi
    43f0:	00 
    43f1:	4c 89 ac 24 f0 04 00 	mov    QWORD PTR [rsp+0x4f0],r13
    43f8:	00 
    43f9:	ff d0                	call   rax
    43fb:	48 8b 9c 24 e0 04 00 	mov    rbx,QWORD PTR [rsp+0x4e0]
    4402:	00 
    4403:	4c 8b ac 24 f0 04 00 	mov    r13,QWORD PTR [rsp+0x4f0]
    440a:	00 
    440b:	48 89 c6             	mov    rsi,rax
    440e:	48 89 b4 24 e0 04 00 	mov    QWORD PTR [rsp+0x4e0],rsi
    4415:	00 
    4416:	49 8b b4 24 98 00 00 	mov    rsi,QWORD PTR [r12+0x98]
    441d:	00 
    441e:	48 8b 7b 08          	mov    rdi,QWORD PTR [rbx+0x8]
    4422:	49 89 b4 24 98 00 00 	mov    QWORD PTR [r12+0x98],rsi
    4429:	00 
    442a:	4c 89 6e e0          	mov    QWORD PTR [rsi-0x20],r13
    442e:	4c 89 76 e8          	mov    QWORD PTR [rsi-0x18],r14
    4432:	b8 01 00 00 00       	mov    eax,0x1
    4437:	48 89 46 f0          	mov    QWORD PTR [rsi-0x10],rax
    443b:	b8 01 00 00 00       	mov    eax,0x1
    4440:	48 89 46 f8          	mov    QWORD PTR [rsi-0x8],rax
    4444:	48 31 f6             	xor    rsi,rsi
    4447:	48 b8 00 00 00 00 00 	movabs rax,0x0
    444e:	00 00 00 
			4449: R_X86_64_64	do_callback
    4451:	48 89 9c 24 e8 04 00 	mov    QWORD PTR [rsp+0x4e8],rbx
    4458:	00 
    4459:	48 89 bc 24 f0 04 00 	mov    QWORD PTR [rsp+0x4f0],rdi
    4460:	00 
    4461:	4c 89 ac 24 f8 04 00 	mov    QWORD PTR [rsp+0x4f8],r13
    4468:	00 
    4469:	ff d0                	call   rax
    446b:	48 8b 9c 24 e8 04 00 	mov    rbx,QWORD PTR [rsp+0x4e8]
    4472:	00 
    4473:	4c 8b ac 24 f8 04 00 	mov    r13,QWORD PTR [rsp+0x4f8]
    447a:	00 
    447b:	48 89 c6             	mov    rsi,rax
    447e:	48 89 b4 24 e8 04 00 	mov    QWORD PTR [rsp+0x4e8],rsi
    4485:	00 
    4486:	49 8b b4 24 98 00 00 	mov    rsi,QWORD PTR [r12+0x98]
    448d:	00 
    448e:	48 8b 7b 08          	mov    rdi,QWORD PTR [rbx+0x8]
    4492:	49 89 b4 24 98 00 00 	mov    QWORD PTR [r12+0x98],rsi
    4499:	00 
    449a:	4c 89 6e e0          	mov    QWORD PTR [rsi-0x20],r13
    449e:	4c 89 76 e8          	mov    QWORD PTR [rsi-0x18],r14
    44a2:	b8 01 00 00 00       	mov    eax,0x1
    44a7:	48 89 46 f0          	mov    QWORD PTR [rsi-0x10],rax
    44ab:	b8 01 00 00 00       	mov    eax,0x1
    44b0:	48 89 46 f8          	mov    QWORD PTR [rsi-0x8],rax
    44b4:	48 31 f6             	xor    rsi,rsi
    44b7:	48 b8 00 00 00 00 00 	movabs rax,0x0
    44be:	00 00 00 
			44b9: R_X86_64_64	do_callback
    44c1:	48 89 9c 24 f0 04 00 	mov    QWORD PTR [rsp+0x4f0],rbx
    44c8:	00 
    44c9:	48 89 bc 24 f8 04 00 	mov    QWORD PTR [rsp+0x4f8],rdi
    44d0:	00 
    44d1:	4c 89 ac 24 00 05 00 	mov    QWORD PTR [rsp+0x500],r13
    44d8:	00 
    44d9:	ff d0                	call   rax
    44db:	48 8b 9c 24 f0 04 00 	mov    rbx,QWORD PTR [rsp+0x4f0]
    44e2:	00 
    44e3:	4c 8b ac 24 00 05 00 	mov    r13,QWORD PTR [rsp+0x500]
    44ea:	00 
    44eb:	48 89 c6             	mov    rsi,rax
    44ee:	48 89 b4 24 f0 04 00 	mov    QWORD PTR [rsp+0x4f0],rsi
    44f5:	00 
    44f6:	49 8b b4 24 98 00 00 	mov    rsi,QWORD PTR [r12+0x98]
    44fd:	00 
    44fe:	48 8b 7b 08          	mov    rdi,QWORD PTR [rbx+0x8]
    4502:	49 89 b4 24 98 00 00 	mov    QWORD PTR [r12+0x98],rsi
    4509:	00 
    450a:	4c 89 6e e0          	mov    QWORD PTR [rsi-0x20],r13
    450e:	4c 89 76 e8          	mov    QWORD PTR [rsi-0x18],r14
    4512:	b8 01 00 00 00       	mov    eax,0x1
    4517:	48 89 46 f0          	mov    QWORD PTR [rsi-0x10],rax
    451b:	b8 01 00 00 00       	mov    eax,0x1
    4520:	48 89 46 f8          	mov    QWORD PTR [rsi-0x8],rax
    4524:	48 31 f6             	xor    rsi,rsi
    4527:	48 b8 00 00 00 00 00 	movabs rax,0x0
    452e:	00 00 00 
			4529: R_X86_64_64	do_callback
    4531:	48 89 9c 24 f8 04 00 	mov    QWORD PTR [rsp+0x4f8],rbx
    4538:	00 
    4539:	48 89 bc 24 00 05 00 	mov    QWORD PTR [rsp+0x500],rdi
    4540:	00 
    4541:	4c 89 ac 24 08 05 00 	mov    QWORD PTR [rsp+0x508],r13
    4548:	00 
    4549:	ff d0                	call   rax
    454b:	48 8b 9c 24 f8 04 00 	mov    rbx,QWORD PTR [rsp+0x4f8]
    4552:	00 
    4553:	4c 8b ac 24 08 05 00 	mov    r13,QWORD PTR [rsp+0x508]
    455a:	00 
    455b:	48 89 c6             	mov    rsi,rax
    455e:	48 89 b4 24 f8 04 00 	mov    QWORD PTR [rsp+0x4f8],rsi
    4565:	00 
    4566:	49 8b b4 24 98 00 00 	mov    rsi,QWORD PTR [r12+0x98]
    456d:	00 
    456e:	48 8b 7b 08          	mov    rdi,QWORD PTR [rbx+0x8]
    4572:	49 89 b4 24 98 00 00 	mov    QWORD PTR [r12+0x98],rsi
    4579:	00 
    457a:	4c 89 6e e0          	mov    QWORD PTR [rsi-0x20],r13
    457e:	4c 89 76 e8          	mov    QWORD PTR [rsi-0x18],r14
    4582:	b8 01 00 00 00       	mov    eax,0x1
    4587:	48 89 46 f0          	mov    QWORD PTR [rsi-0x10],rax
    458b:	b8 01 00 00 00       	mov    eax,0x1
    4590:	48 89 46 f8          	mov    QWORD PTR [rsi-0x8],rax
    4594:	48 31 f6             	xor    rsi,rsi
    4597:	48 b8 00 00 00 00 00 	movabs rax,0x0
    459e:	00 00 00 
			4599: R_X86_64_64	do_callback
    45a1:	48 89 9c 24 00 05 00 	mov    QWORD PTR [rsp+0x500],rbx
    45a8:	00 
    45a9:	48 89 bc 24 08 05 00 	mov    QWORD PTR [rsp+0x508],rdi
    45b0:	00 
    45b1:	4c 89 ac 24 10 05 00 	mov    QWORD PTR [rsp+0x510],r13
    45b8:	00 
    45b9:	ff d0                	call   rax
    45bb:	48 8b 9c 24 00 05 00 	mov    rbx,QWORD PTR [rsp+0x500]
    45c2:	00 
    45c3:	4c 8b ac 24 10 05 00 	mov    r13,QWORD PTR [rsp+0x510]
    45ca:	00 
    45cb:	48 89 c6             	mov    rsi,rax
    45ce:	48 89 b4 24 00 05 00 	mov    QWORD PTR [rsp+0x500],rsi
    45d5:	00 
    45d6:	49 8b b4 24 98 00 00 	mov    rsi,QWORD PTR [r12+0x98]
    45dd:	00 
    45de:	48 8b 7b 08          	mov    rdi,QWORD PTR [rbx+0x8]
    45e2:	49 89 b4 24 98 00 00 	mov    QWORD PTR [r12+0x98],rsi
    45e9:	00 
    45ea:	4c 89 6e e0          	mov    QWORD PTR [rsi-0x20],r13
    45ee:	4c 89 76 e8          	mov    QWORD PTR [rsi-0x18],r14
    45f2:	b8 01 00 00 00       	mov    eax,0x1
    45f7:	48 89 46 f0          	mov    QWORD PTR [rsi-0x10],rax
    45fb:	b8 01 00 00 00       	mov    eax,0x1
    4600:	48 89 46 f8          	mov    QWORD PTR [rsi-0x8],rax
    4604:	48 31 f6             	xor    rsi,rsi
    4607:	48 b8 00 00 00 00 00 	movabs rax,0x0
    460e:	00 00 00 
			4609: R_X86_64_64	do_callback
    4611:	48 89 9c 24 08 05 00 	mov    QWORD PTR [rsp+0x508],rbx
    4618:	00 
    4619:	48 89 bc 24 10 05 00 	mov    QWORD PTR [rsp+0x510],rdi
    4620:	00 
    4621:	4c 89 ac 24 18 05 00 	mov    QWORD PTR [rsp+0x518],r13
    4628:	00 
    4629:	ff d0                	call   rax
    462b:	48 8b 9c 24 08 05 00 	mov    rbx,QWORD PTR [rsp+0x508]
    4632:	00 
    4633:	4c 8b ac 24 18 05 00 	mov    r13,QWORD PTR [rsp+0x518]
    463a:	00 
    463b:	48 89 c6             	mov    rsi,rax
    463e:	48 89 b4 24 08 05 00 	mov    QWORD PTR [rsp+0x508],rsi
    4645:	00 
    4646:	49 8b b4 24 98 00 00 	mov    rsi,QWORD PTR [r12+0x98]
    464d:	00 
    464e:	48 8b 7b 08          	mov    rdi,QWORD PTR [rbx+0x8]
    4652:	49 89 b4 24 98 00 00 	mov    QWORD PTR [r12+0x98],rsi
    4659:	00 
    465a:	4c 89 6e e0          	mov    QWORD PTR [rsi-0x20],r13
    465e:	4c 89 76 e8          	mov    QWORD PTR [rsi-0x18],r14
    4662:	b8 01 00 00 00       	mov    eax,0x1
    4667:	48 89 46 f0          	mov    QWORD PTR [rsi-0x10],rax
    466b:	b8 01 00 00 00       	mov    eax,0x1
    4670:	48 89 46 f8          	mov    QWORD PTR [rsi-0x8],rax
    4674:	48 31 f6             	xor    rsi,rsi
    4677:	48 b8 00 00 00 00 00 	movabs rax,0x0
    467e:	00 00 00 
			4679: R_X86_64_64	do_callback
    4681:	48 89 9c 24 10 05 00 	mov    QWORD PTR [rsp+0x510],rbx
    4688:	00 
    4689:	48 89 bc 24 18 05 00 	mov    QWORD PTR [rsp+0x518],rdi
    4690:	00 
    4691:	4c 89 ac 24 20 05 00 	mov    QWORD PTR [rsp+0x520],r13
    4698:	00 
    4699:	ff d0                	call   rax
    469b:	48 8b 9c 24 10 05 00 	mov    rbx,QWORD PTR [rsp+0x510]
    46a2:	00 
    46a3:	4c 8b ac 24 20 05 00 	mov    r13,QWORD PTR [rsp+0x520]
    46aa:	00 
    46ab:	48 89 c6             	mov    rsi,rax
    46ae:	48 89 b4 24 10 05 00 	mov    QWORD PTR [rsp+0x510],rsi
    46b5:	00 
    46b6:	49 8b b4 24 98 00 00 	mov    rsi,QWORD PTR [r12+0x98]
    46bd:	00 
    46be:	48 8b 7b 08          	mov    rdi,QWORD PTR [rbx+0x8]
    46c2:	49 89 b4 24 98 00 00 	mov    QWORD PTR [r12+0x98],rsi
    46c9:	00 
    46ca:	4c 89 6e e0          	mov    QWORD PTR [rsi-0x20],r13
    46ce:	4c 89 76 e8          	mov    QWORD PTR [rsi-0x18],r14
    46d2:	b8 01 00 00 00       	mov    eax,0x1
    46d7:	48 89 46 f0          	mov    QWORD PTR [rsi-0x10],rax
    46db:	b8 01 00 00 00       	mov    eax,0x1
    46e0:	48 89 46 f8          	mov    QWORD PTR [rsi-0x8],rax
    46e4:	48 31 f6             	xor    rsi,rsi
    46e7:	48 b8 00 00 00 00 00 	movabs rax,0x0
    46ee:	00 00 00 
			46e9: R_X86_64_64	do_callback
    46f1:	48 89 9c 24 18 05 00 	mov    QWORD PTR [rsp+0x518],rbx
    46f8:	00 
    46f9:	48 89 bc 24 20 05 00 	mov    QWORD PTR [rsp+0x520],rdi
    4700:	00 
    4701:	4c 89 ac 24 28 05 00 	mov    QWORD PTR [rsp+0x528],r13
    4708:	00 
    4709:	ff d0                	call   rax
    470b:	48 8b 9c 24 18 05 00 	mov    rbx,QWORD PTR [rsp+0x518]
    4712:	00 
    4713:	4c 8b ac 24 28 05 00 	mov    r13,QWORD PTR [rsp+0x528]
    471a:	00 
    471b:	48 89 c6             	mov    rsi,rax
    471e:	48 89 b4 24 18 05 00 	mov    QWORD PTR [rsp+0x518],rsi
    4725:	00 
    4726:	49 8b b4 24 98 00 00 	mov    rsi,QWORD PTR [r12+0x98]
    472d:	00 
    472e:	48 8b 7b 08          	mov    rdi,QWORD PTR [rbx+0x8]
    4732:	49 89 b4 24 98 00 00 	mov    QWORD PTR [r12+0x98],rsi
    4739:	00 
    473a:	4c 89 6e e0          	mov    QWORD PTR [rsi-0x20],r13
    473e:	4c 89 76 e8          	mov    QWORD PTR [rsi-0x18],r14
    4742:	b8 01 00 00 00       	mov    eax,0x1
    4747:	48 89 46 f0          	mov    QWORD PTR [rsi-0x10],rax
    474b:	b8 01 00 00 00       	mov    eax,0x1
    4750:	48 89 46 f8          	mov    QWORD PTR [rsi-0x8],rax
    4754:	48 31 f6             	xor    rsi,rsi
    4757:	48 b8 00 00 00 00 00 	movabs rax,0x0
    475e:	00 00 00 
			4759: R_X86_64_64	do_callback
    4761:	48 89 9c 24 20 05 00 	mov    QWORD PTR [rsp+0x520],rbx
    4768:	00 
    4769:	48 89 bc 24 28 05 00 	mov    QWORD PTR [rsp+0x528],rdi
    4770:	00 
    4771:	4c 89 ac 24 30 05 00 	mov    QWORD PTR [rsp+0x530],r13
    4778:	00 
    4779:	ff d0                	call   rax
    477b:	48 8b 9c 24 20 05 00 	mov    rbx,QWORD PTR [rsp+0x520]
    4782:	00 
    4783:	4c 8b ac 24 30 05 00 	mov    r13,QWORD PTR [rsp+0x530]
    478a:	00 
    478b:	48 89 c6             	mov    rsi,rax
    478e:	48 89 b4 24 20 05 00 	mov    QWORD PTR [rsp+0x520],rsi
    4795:	00 
    4796:	49 8b b4 24 98 00 00 	mov    rsi,QWORD PTR [r12+0x98]
    479d:	00 
    479e:	48 8b 7b 08          	mov    rdi,QWORD PTR [rbx+0x8]
    47a2:	49 89 b4 24 98 00 00 	mov    QWORD PTR [r12+0x98],rsi
    47a9:	00 
    47aa:	4c 89 6e e0          	mov    QWORD PTR [rsi-0x20],r13
    47ae:	4c 89 76 e8          	mov    QWORD PTR [rsi-0x18],r14
    47b2:	b8 01 00 00 00       	mov    eax,0x1
    47b7:	48 89 46 f0          	mov    QWORD PTR [rsi-0x10],rax
    47bb:	b8 01 00 00 00       	mov    eax,0x1
    47c0:	48 89 46 f8          	mov    QWORD PTR [rsi-0x8],rax
    47c4:	48 31 f6             	xor    rsi,rsi
    47c7:	48 b8 00 00 00 00 00 	movabs rax,0x0
    47ce:	00 00 00 
			47c9: R_X86_64_64	do_callback
    47d1:	48 89 9c 24 28 05 00 	mov    QWORD PTR [rsp+0x528],rbx
    47d8:	00 
    47d9:	48 89 bc 24 30 05 00 	mov    QWORD PTR [rsp+0x530],rdi
    47e0:	00 
    47e1:	4c 89 ac 24 38 05 00 	mov    QWORD PTR [rsp+0x538],r13
    47e8:	00 
    47e9:	ff d0                	call   rax
    47eb:	48 8b 9c 24 28 05 00 	mov    rbx,QWORD PTR [rsp+0x528]
    47f2:	00 
    47f3:	4c 8b ac 24 38 05 00 	mov    r13,QWORD PTR [rsp+0x538]
    47fa:	00 
    47fb:	48 89 c6             	mov    rsi,rax
    47fe:	48 89 b4 24 28 05 00 	mov    QWORD PTR [rsp+0x528],rsi
    4805:	00 
    4806:	49 8b b4 24 98 00 00 	mov    rsi,QWORD PTR [r12+0x98]
    480d:	00 
    480e:	48 8b 7b 08          	mov    rdi,QWORD PTR [rbx+0x8]
    4812:	49 89 b4 24 98 00 00 	mov    QWORD PTR [r12+0x98],rsi
    4819:	00 
    481a:	4c 89 6e e0          	mov    QWORD PTR [rsi-0x20],r13
    481e:	4c 89 76 e8          	mov    QWORD PTR [rsi-0x18],r14
    4822:	b8 01 00 00 00       	mov    eax,0x1
    4827:	48 89 46 f0          	mov    QWORD PTR [rsi-0x10],rax
    482b:	b8 01 00 00 00       	mov    eax,0x1
    4830:	48 89 46 f8          	mov    QWORD PTR [rsi-0x8],rax
    4834:	48 31 f6             	xor    rsi,rsi
    4837:	48 b8 00 00 00 00 00 	movabs rax,0x0
    483e:	00 00 00 
			4839: R_X86_64_64	do_callback
    4841:	48 89 9c 24 30 05 00 	mov    QWORD PTR [rsp+0x530],rbx
    4848:	00 
    4849:	48 89 bc 24 38 05 00 	mov    QWORD PTR [rsp+0x538],rdi
    4850:	00 
    4851:	4c 89 ac 24 40 05 00 	mov    QWORD PTR [rsp+0x540],r13
    4858:	00 
    4859:	ff d0                	call   rax
    485b:	48 8b 9c 24 30 05 00 	mov    rbx,QWORD PTR [rsp+0x530]
    4862:	00 
    4863:	4c 8b ac 24 40 05 00 	mov    r13,QWORD PTR [rsp+0x540]
    486a:	00 
    486b:	48 89 c6             	mov    rsi,rax
    486e:	48 89 b4 24 30 05 00 	mov    QWORD PTR [rsp+0x530],rsi
    4875:	00 
    4876:	49 8b b4 24 98 00 00 	mov    rsi,QWORD PTR [r12+0x98]
    487d:	00 
    487e:	48 8b 7b 08          	mov    rdi,QWORD PTR [rbx+0x8]
    4882:	49 89 b4 24 98 00 00 	mov    QWORD PTR [r12+0x98],rsi
    4889:	00 
    488a:	4c 89 6e e0          	mov    QWORD PTR [rsi-0x20],r13
    488e:	4c 89 76 e8          	mov    QWORD PTR [rsi-0x18],r14
    4892:	b8 01 00 00 00       	mov    eax,0x1
    4897:	48 89 46 f0          	mov    QWORD PTR [rsi-0x10],rax
    489b:	b8 01 00 00 00       	mov    eax,0x1
    48a0:	48 89 46 f8          	mov    QWORD PTR [rsi-0x8],rax
    48a4:	48 31 f6             	xor    rsi,rsi
    48a7:	48 b8 00 00 00 00 00 	movabs rax,0x0
    48ae:	00 00 00 
			48a9: R_X86_64_64	do_callback
    48b1:	48 89 9c 24 38 05 00 	mov    QWORD PTR [rsp+0x538],rbx
    48b8:	00 
    48b9:	48 89 bc 24 40 05 00 	mov    QWORD PTR [rsp+0x540],rdi
    48c0:	00 
    48c1:	4c 89 ac 24 48 05 00 	mov    QWORD PTR [rsp+0x548],r13
    48c8:	00 
    48c9:	ff d0                	call   rax
    48cb:	48 8b 9c 24 38 05 00 	mov    rbx,QWORD PTR [rsp+0x538]
    48d2:	00 
    48d3:	4c 8b ac 24 48 05 00 	mov    r13,QWORD PTR [rsp+0x548]
    48da:	00 
    48db:	48 89 c6             	mov    rsi,rax
    48de:	48 89 b4 24 38 05 00 	mov    QWORD PTR [rsp+0x538],rsi
    48e5:	00 
    48e6:	49 8b b4 24 98 00 00 	mov    rsi,QWORD PTR [r12+0x98]
    48ed:	00 
    48ee:	48 8b 7b 08          	mov    rdi,QWORD PTR [rbx+0x8]
    48f2:	49 89 b4 24 98 00 00 	mov    QWORD PTR [r12+0x98],rsi
    48f9:	00 
    48fa:	4c 89 6e e0          	mov    QWORD PTR [rsi-0x20],r13
    48fe:	4c 89 76 e8          	mov    QWORD PTR [rsi-0x18],r14
    4902:	b8 01 00 00 00       	mov    eax,0x1
    4907:	48 89 46 f0          	mov    QWORD PTR [rsi-0x10],rax
    490b:	b8 01 00 00 00       	mov    eax,0x1
    4910:	48 89 46 f8          	mov    QWORD PTR [rsi-0x8],rax
    4914:	48 31 f6             	xor    rsi,rsi
    4917:	48 b8 00 00 00 00 00 	movabs rax,0x0
    491e:	00 00 00 
			4919: R_X86_64_64	do_callback
    4921:	48 89 9c 24 40 05 00 	mov    QWORD PTR [rsp+0x540],rbx
    4928:	00 
    4929:	48 89 bc 24 48 05 00 	mov    QWORD PTR [rsp+0x548],rdi
    4930:	00 
    4931:	4c 89 ac 24 50 05 00 	mov    QWORD PTR [rsp+0x550],r13
    4938:	00 
    4939:	ff d0                	call   rax
    493b:	48 8b 9c 24 40 05 00 	mov    rbx,QWORD PTR [rsp+0x540]
    4942:	00 
    4943:	4c 8b ac 24 50 05 00 	mov    r13,QWORD PTR [rsp+0x550]
    494a:	00 
    494b:	48 89 c6             	mov    rsi,rax
    494e:	48 89 b4 24 40 05 00 	mov    QWORD PTR [rsp+0x540],rsi
    4955:	00 
    4956:	49 8b b4 24 98 00 00 	mov    rsi,QWORD PTR [r12+0x98]
    495d:	00 
    495e:	48 8b 7b 08          	mov    rdi,QWORD PTR [rbx+0x8]
    4962:	49 89 b4 24 98 00 00 	mov    QWORD PTR [r12+0x98],rsi
    4969:	00 
    496a:	4c 89 6e e0          	mov    QWORD PTR [rsi-0x20],r13
    496e:	4c 89 76 e8          	mov    QWORD PTR [rsi-0x18],r14
    4972:	b8 01 00 00 00       	mov    eax,0x1
    4977:	48 89 46 f0          	mov    QWORD PTR [rsi-0x10],rax
    497b:	b8 01 00 00 00       	mov    eax,0x1
    4980:	48 89 46 f8          	mov    QWORD PTR [rsi-0x8],rax
    4984:	48 31 f6             	xor    rsi,rsi
    4987:	48 b8 00 00 00 00 00 	movabs rax,0x0
    498e:	00 00 00 
			4989: R_X86_64_64	do_callback
    4991:	48 89 9c 24 48 05 00 	mov    QWORD PTR [rsp+0x548],rbx
    4998:	00 
    4999:	48 89 bc 24 50 05 00 	mov    QWORD PTR [rsp+0x550],rdi
    49a0:	00 
    49a1:	4c 89 ac 24 58 05 00 	mov    QWORD PTR [rsp+0x558],r13
    49a8:	00 
    49a9:	ff d0                	call   rax
    49ab:	48 8b 9c 24 48 05 00 	mov    rbx,QWORD PTR [rsp+0x548]
    49b2:	00 
    49b3:	4c 8b ac 24 58 05 00 	mov    r13,QWORD PTR [rsp+0x558]
    49ba:	00 
    49bb:	48 89 c6             	mov    rsi,rax
    49be:	48 89 b4 24 48 05 00 	mov    QWORD PTR [rsp+0x548],rsi
    49c5:	00 
    49c6:	49 8b b4 24 98 00 00 	mov    rsi,QWORD PTR [r12+0x98]
    49cd:	00 
    49ce:	48 8b 7b 08          	mov    rdi,QWORD PTR [rbx+0x8]
    49d2:	49 89 b4 24 98 00 00 	mov    QWORD PTR [r12+0x98],rsi
    49d9:	00 
    49da:	4c 89 6e e0          	mov    QWORD PTR [rsi-0x20],r13
    49de:	4c 89 76 e8          	mov    QWORD PTR [rsi-0x18],r14
    49e2:	b8 01 00 00 00       	mov    eax,0x1
    49e7:	48 89 46 f0          	mov    QWORD PTR [rsi-0x10],rax
    49eb:	b8 01 00 00 00       	mov    eax,0x1
    49f0:	48 89 46 f8          	mov    QWORD PTR [rsi-0x8],rax
    49f4:	48 31 f6             	xor    rsi,rsi
    49f7:	48 b8 00 00 00 00 00 	movabs rax,0x0
    49fe:	00 00 00 
			49f9: R_X86_64_64	do_callback
    4a01:	48 89 9c 24 50 05 00 	mov    QWORD PTR [rsp+0x550],rbx
    4a08:	00 
    4a09:	48 89 bc 24 58 05 00 	mov    QWORD PTR [rsp+0x558],rdi
    4a10:	00 
    4a11:	4c 89 ac 24 60 05 00 	mov    QWORD PTR [rsp+0x560],r13
    4a18:	00 
    4a19:	ff d0                	call   rax
    4a1b:	48 8b 9c 24 50 05 00 	mov    rbx,QWORD PTR [rsp+0x550]
    4a22:	00 
    4a23:	4c 8b ac 24 60 05 00 	mov    r13,QWORD PTR [rsp+0x560]
    4a2a:	00 
    4a2b:	48 89 c6             	mov    rsi,rax
    4a2e:	48 89 b4 24 50 05 00 	mov    QWORD PTR [rsp+0x550],rsi
    4a35:	00 
    4a36:	49 8b b4 24 98 00 00 	mov    rsi,QWORD PTR [r12+0x98]
    4a3d:	00 
    4a3e:	48 8b 7b 08          	mov    rdi,QWORD PTR [rbx+0x8]
    4a42:	49 89 b4 24 98 00 00 	mov    QWORD PTR [r12+0x98],rsi
    4a49:	00 
    4a4a:	4c 89 6e e0          	mov    QWORD PTR [rsi-0x20],r13
    4a4e:	4c 89 76 e8          	mov    QWORD PTR [rsi-0x18],r14
    4a52:	b8 01 00 00 00       	mov    eax,0x1
    4a57:	48 89 46 f0          	mov    QWORD PTR [rsi-0x10],rax
    4a5b:	b8 01 00 00 00       	mov    eax,0x1
    4a60:	48 89 46 f8          	mov    QWORD PTR [rsi-0x8],rax
    4a64:	48 31 f6             	xor    rsi,rsi
    4a67:	48 b8 00 00 00 00 00 	movabs rax,0x0
    4a6e:	00 00 00 
			4a69: R_X86_64_64	do_callback
    4a71:	48 89 9c 24 58 05 00 	mov    QWORD PTR [rsp+0x558],rbx
    4a78:	00 
    4a79:	48 89 bc 24 60 05 00 	mov    QWORD PTR [rsp+0x560],rdi
    4a80:	00 
    4a81:	4c 89 ac 24 68 05 00 	mov    QWORD PTR [rsp+0x568],r13
    4a88:	00 
    4a89:	ff d0                	call   rax
    4a8b:	48 8b 9c 24 58 05 00 	mov    rbx,QWORD PTR [rsp+0x558]
    4a92:	00 
    4a93:	4c 8b ac 24 68 05 00 	mov    r13,QWORD PTR [rsp+0x568]
    4a9a:	00 
    4a9b:	48 89 c6             	mov    rsi,rax
    4a9e:	48 89 b4 24 58 05 00 	mov    QWORD PTR [rsp+0x558],rsi
    4aa5:	00 
    4aa6:	49 8b b4 24 98 00 00 	mov    rsi,QWORD PTR [r12+0x98]
    4aad:	00 
    4aae:	48 8b 7b 08          	mov    rdi,QWORD PTR [rbx+0x8]
    4ab2:	49 89 b4 24 98 00 00 	mov    QWORD PTR [r12+0x98],rsi
    4ab9:	00 
    4aba:	4c 89 6e e0          	mov    QWORD PTR [rsi-0x20],r13
    4abe:	4c 89 76 e8          	mov    QWORD PTR [rsi-0x18],r14
    4ac2:	b8 01 00 00 00       	mov    eax,0x1
    4ac7:	48 89 46 f0          	mov    QWORD PTR [rsi-0x10],rax
    4acb:	b8 01 00 00 00       	mov    eax,0x1
    4ad0:	48 89 46 f8          	mov    QWORD PTR [rsi-0x8],rax
    4ad4:	48 31 f6             	xor    rsi,rsi
    4ad7:	48 b8 00 00 00 00 00 	movabs rax,0x0
    4ade:	00 00 00 
			4ad9: R_X86_64_64	do_callback
    4ae1:	48 89 9c 24 60 05 00 	mov    QWORD PTR [rsp+0x560],rbx
    4ae8:	00 
    4ae9:	48 89 bc 24 68 05 00 	mov    QWORD PTR [rsp+0x568],rdi
    4af0:	00 
    4af1:	4c 89 ac 24 70 05 00 	mov    QWORD PTR [rsp+0x570],r13
    4af8:	00 
    4af9:	ff d0                	call   rax
    4afb:	48 8b 9c 24 60 05 00 	mov    rbx,QWORD PTR [rsp+0x560]
    4b02:	00 
    4b03:	4c 8b ac 24 70 05 00 	mov    r13,QWORD PTR [rsp+0x570]
    4b0a:	00 
    4b0b:	48 89 c6             	mov    rsi,rax
    4b0e:	48 89 b4 24 60 05 00 	mov    QWORD PTR [rsp+0x560],rsi
    4b15:	00 
    4b16:	49 8b b4 24 98 00 00 	mov    rsi,QWORD PTR [r12+0x98]
    4b1d:	00 
    4b1e:	48 8b 7b 08          	mov    rdi,QWORD PTR [rbx+0x8]
    4b22:	49 89 b4 24 98 00 00 	mov    QWORD PTR [r12+0x98],rsi
    4b29:	00 
    4b2a:	4c 89 6e e0          	mov    QWORD PTR [rsi-0x20],r13
    4b2e:	4c 89 76 e8          	mov    QWORD PTR [rsi-0x18],r14
    4b32:	b8 01 00 00 00       	mov    eax,0x1
    4b37:	48 89 46 f0          	mov    QWORD PTR [rsi-0x10],rax
    4b3b:	b8 01 00 00 00       	mov    eax,0x1
    4b40:	48 89 46 f8          	mov    QWORD PTR [rsi-0x8],rax
    4b44:	48 31 f6             	xor    rsi,rsi
    4b47:	48 b8 00 00 00 00 00 	movabs rax,0x0
    4b4e:	00 00 00 
			4b49: R_X86_64_64	do_callback
    4b51:	48 89 9c 24 68 05 00 	mov    QWORD PTR [rsp+0x568],rbx
    4b58:	00 
    4b59:	48 89 bc 24 70 05 00 	mov    QWORD PTR [rsp+0x570],rdi
    4b60:	00 
    4b61:	4c 89 ac 24 78 05 00 	mov    QWORD PTR [rsp+0x578],r13
    4b68:	00 
    4b69:	ff d0                	call   rax
    4b6b:	48 8b 9c 24 68 05 00 	mov    rbx,QWORD PTR [rsp+0x568]
    4b72:	00 
    4b73:	4c 8b ac 24 78 05 00 	mov    r13,QWORD PTR [rsp+0x578]
    4b7a:	00 
    4b7b:	48 89 c6             	mov    rsi,rax
    4b7e:	48 89 b4 24 68 05 00 	mov    QWORD PTR [rsp+0x568],rsi
    4b85:	00 
    4b86:	49 8b b4 24 98 00 00 	mov    rsi,QWORD PTR [r12+0x98]
    4b8d:	00 
    4b8e:	48 8b 7b 08          	mov    rdi,QWORD PTR [rbx+0x8]
    4b92:	49 89 b4 24 98 00 00 	mov    QWORD PTR [r12+0x98],rsi
    4b99:	00 
    4b9a:	4c 89 6e e0          	mov    QWORD PTR [rsi-0x20],r13
    4b9e:	4c 89 76 e8          	mov    QWORD PTR [rsi-0x18],r14
    4ba2:	b8 01 00 00 00       	mov    eax,0x1
    4ba7:	48 89 46 f0          	mov    QWORD PTR [rsi-0x10],rax
    4bab:	b8 01 00 00 00       	mov    eax,0x1
    4bb0:	48 89 46 f8          	mov    QWORD PTR [rsi-0x8],rax
    4bb4:	48 31 f6             	xor    rsi,rsi
    4bb7:	48 b8 00 00 00 00 00 	movabs rax,0x0
    4bbe:	00 00 00 
			4bb9: R_X86_64_64	do_callback
    4bc1:	48 89 9c 24 70 05 00 	mov    QWORD PTR [rsp+0x570],rbx
    4bc8:	00 
    4bc9:	48 89 bc 24 78 05 00 	mov    QWORD PTR [rsp+0x578],rdi
    4bd0:	00 
    4bd1:	4c 89 ac 24 80 05 00 	mov    QWORD PTR [rsp+0x580],r13
    4bd8:	00 
    4bd9:	ff d0                	call   rax
    4bdb:	48 8b 9c 24 70 05 00 	mov    rbx,QWORD PTR [rsp+0x570]
    4be2:	00 
    4be3:	4c 8b ac 24 80 05 00 	mov    r13,QWORD PTR [rsp+0x580]
    4bea:	00 
    4beb:	48 89 c6             	mov    rsi,rax
    4bee:	48 89 b4 24 70 05 00 	mov    QWORD PTR [rsp+0x570],rsi
    4bf5:	00 
    4bf6:	49 8b b4 24 98 00 00 	mov    rsi,QWORD PTR [r12+0x98]
    4bfd:	00 
    4bfe:	48 8b 7b 08          	mov    rdi,QWORD PTR [rbx+0x8]
    4c02:	49 89 b4 24 98 00 00 	mov    QWORD PTR [r12+0x98],rsi
    4c09:	00 
    4c0a:	4c 89 6e e0          	mov    QWORD PTR [rsi-0x20],r13
    4c0e:	4c 89 76 e8          	mov    QWORD PTR [rsi-0x18],r14
    4c12:	b8 01 00 00 00       	mov    eax,0x1
    4c17:	48 89 46 f0          	mov    QWORD PTR [rsi-0x10],rax
    4c1b:	b8 01 00 00 00       	mov    eax,0x1
    4c20:	48 89 46 f8          	mov    QWORD PTR [rsi-0x8],rax
    4c24:	48 31 f6             	xor    rsi,rsi
    4c27:	48 b8 00 00 00 00 00 	movabs rax,0x0
    4c2e:	00 00 00 
			4c29: R_X86_64_64	do_callback
    4c31:	48 89 9c 24 78 05 00 	mov    QWORD PTR [rsp+0x578],rbx
    4c38:	00 
    4c39:	48 89 bc 24 80 05 00 	mov    QWORD PTR [rsp+0x580],rdi
    4c40:	00 
    4c41:	4c 89 ac 24 88 05 00 	mov    QWORD PTR [rsp+0x588],r13
    4c48:	00 
    4c49:	ff d0                	call   rax
    4c4b:	48 8b 9c 24 78 05 00 	mov    rbx,QWORD PTR [rsp+0x578]
    4c52:	00 
    4c53:	4c 8b ac 24 88 05 00 	mov    r13,QWORD PTR [rsp+0x588]
    4c5a:	00 
    4c5b:	48 89 c6             	mov    rsi,rax
    4c5e:	48 89 b4 24 78 05 00 	mov    QWORD PTR [rsp+0x578],rsi
    4c65:	00 
    4c66:	49 8b b4 24 98 00 00 	mov    rsi,QWORD PTR [r12+0x98]
    4c6d:	00 
    4c6e:	48 8b 7b 08          	mov    rdi,QWORD PTR [rbx+0x8]
    4c72:	49 89 b4 24 98 00 00 	mov    QWORD PTR [r12+0x98],rsi
    4c79:	00 
    4c7a:	4c 89 6e e0          	mov    QWORD PTR [rsi-0x20],r13
    4c7e:	4c 89 76 e8          	mov    QWORD PTR [rsi-0x18],r14
    4c82:	b8 01 00 00 00       	mov    eax,0x1
    4c87:	48 89 46 f0          	mov    QWORD PTR [rsi-0x10],rax
    4c8b:	b8 01 00 00 00       	mov    eax,0x1
    4c90:	48 89 46 f8          	mov    QWORD PTR [rsi-0x8],rax
    4c94:	48 31 f6             	xor    rsi,rsi
    4c97:	48 b8 00 00 00 00 00 	movabs rax,0x0
    4c9e:	00 00 00 
			4c99: R_X86_64_64	do_callback
    4ca1:	48 89 9c 24 80 05 00 	mov    QWORD PTR [rsp+0x580],rbx
    4ca8:	00 
    4ca9:	48 89 bc 24 88 05 00 	mov    QWORD PTR [rsp+0x588],rdi
    4cb0:	00 
    4cb1:	4c 89 ac 24 90 05 00 	mov    QWORD PTR [rsp+0x590],r13
    4cb8:	00 
    4cb9:	ff d0                	call   rax
    4cbb:	48 8b 9c 24 80 05 00 	mov    rbx,QWORD PTR [rsp+0x580]
    4cc2:	00 
    4cc3:	4c 8b ac 24 90 05 00 	mov    r13,QWORD PTR [rsp+0x590]
    4cca:	00 
    4ccb:	48 89 c6             	mov    rsi,rax
    4cce:	48 89 b4 24 80 05 00 	mov    QWORD PTR [rsp+0x580],rsi
    4cd5:	00 
    4cd6:	49 8b b4 24 98 00 00 	mov    rsi,QWORD PTR [r12+0x98]
    4cdd:	00 
    4cde:	48 8b 7b 08          	mov    rdi,QWORD PTR [rbx+0x8]
    4ce2:	49 89 b4 24 98 00 00 	mov    QWORD PTR [r12+0x98],rsi
    4ce9:	00 
    4cea:	4c 89 6e e0          	mov    QWORD PTR [rsi-0x20],r13
    4cee:	4c 89 76 e8          	mov    QWORD PTR [rsi-0x18],r14
    4cf2:	b8 01 00 00 00       	mov    eax,0x1
    4cf7:	48 89 46 f0          	mov    QWORD PTR [rsi-0x10],rax
    4cfb:	b8 01 00 00 00       	mov    eax,0x1
    4d00:	48 89 46 f8          	mov    QWORD PTR [rsi-0x8],rax
    4d04:	48 31 f6             	xor    rsi,rsi
    4d07:	48 b8 00 00 00 00 00 	movabs rax,0x0
    4d0e:	00 00 00 
			4d09: R_X86_64_64	do_callback
    4d11:	48 89 9c 24 88 05 00 	mov    QWORD PTR [rsp+0x588],rbx
    4d18:	00 
    4d19:	48 89 bc 24 90 05 00 	mov    QWORD PTR [rsp+0x590],rdi
    4d20:	00 
    4d21:	4c 89 ac 24 98 05 00 	mov    QWORD PTR [rsp+0x598],r13
    4d28:	00 
    4d29:	ff d0                	call   rax
    4d2b:	48 8b 9c 24 88 05 00 	mov    rbx,QWORD PTR [rsp+0x588]
    4d32:	00 
    4d33:	4c 8b ac 24 98 05 00 	mov    r13,QWORD PTR [rsp+0x598]
    4d3a:	00 
    4d3b:	48 89 c6             	mov    rsi,rax
    4d3e:	48 89 b4 24 88 05 00 	mov    QWORD PTR [rsp+0x588],rsi
    4d45:	00 
    4d46:	49 8b b4 24 98 00 00 	mov    rsi,QWORD PTR [r12+0x98]
    4d4d:	00 
    4d4e:	48 8b 7b 08          	mov    rdi,QWORD PTR [rbx+0x8]
    4d52:	49 89 b4 24 98 00 00 	mov    QWORD PTR [r12+0x98],rsi
    4d59:	00 
    4d5a:	4c 89 6e e0          	mov    QWORD PTR [rsi-0x20],r13
    4d5e:	4c 89 76 e8          	mov    QWORD PTR [rsi-0x18],r14
    4d62:	b8 01 00 00 00       	mov    eax,0x1
    4d67:	48 89 46 f0          	mov    QWORD PTR [rsi-0x10],rax
    4d6b:	b8 01 00 00 00       	mov    eax,0x1
    4d70:	48 89 46 f8          	mov    QWORD PTR [rsi-0x8],rax
    4d74:	48 31 f6             	xor    rsi,rsi
    4d77:	48 b8 00 00 00 00 00 	movabs rax,0x0
    4d7e:	00 00 00 
			4d79: R_X86_64_64	do_callback
    4d81:	48 89 9c 24 90 05 00 	mov    QWORD PTR [rsp+0x590],rbx
    4d88:	00 
    4d89:	48 89 bc 24 98 05 00 	mov    QWORD PTR [rsp+0x598],rdi
    4d90:	00 
    4d91:	4c 89 ac 24 a0 05 00 	mov    QWORD PTR [rsp+0x5a0],r13
    4d98:	00 
    4d99:	ff d0                	call   rax
    4d9b:	48 8b 9c 24 90 05 00 	mov    rbx,QWORD PTR [rsp+0x590]
    4da2:	00 
    4da3:	4c 8b ac 24 a0 05 00 	mov    r13,QWORD PTR [rsp+0x5a0]
    4daa:	00 
    4dab:	48 89 c6             	mov    rsi,rax
    4dae:	48 89 b4 24 90 05 00 	mov    QWORD PTR [rsp+0x590],rsi
    4db5:	00 
    4db6:	49 8b b4 24 98 00 00 	mov    rsi,QWORD PTR [r12+0x98]
    4dbd:	00 
    4dbe:	48 8b 7b 08          	mov    rdi,QWORD PTR [rbx+0x8]
    4dc2:	49 89 b4 24 98 00 00 	mov    QWORD PTR [r12+0x98],rsi
    4dc9:	00 
    4dca:	4c 89 6e e0          	mov    QWORD PTR [rsi-0x20],r13
    4dce:	4c 89 76 e8          	mov    QWORD PTR [rsi-0x18],r14
    4dd2:	b8 01 00 00 00       	mov    eax,0x1
    4dd7:	48 89 46 f0          	mov    QWORD PTR [rsi-0x10],rax
    4ddb:	b8 01 00 00 00       	mov    eax,0x1
    4de0:	48 89 46 f8          	mov    QWORD PTR [rsi-0x8],rax
    4de4:	48 31 f6             	xor    rsi,rsi
    4de7:	48 b8 00 00 00 00 00 	movabs rax,0x0
    4dee:	00 00 00 
			4de9: R_X86_64_64	do_callback
    4df1:	48 89 9c 24 98 05 00 	mov    QWORD PTR [rsp+0x598],rbx
    4df8:	00 
    4df9:	48 89 bc 24 a0 05 00 	mov    QWORD PTR [rsp+0x5a0],rdi
    4e00:	00 
    4e01:	4c 89 ac 24 a8 05 00 	mov    QWORD PTR [rsp+0x5a8],r13
    4e08:	00 
    4e09:	ff d0                	call   rax
    4e0b:	48 8b 9c 24 98 05 00 	mov    rbx,QWORD PTR [rsp+0x598]
    4e12:	00 
    4e13:	4c 8b ac 24 a8 05 00 	mov    r13,QWORD PTR [rsp+0x5a8]
    4e1a:	00 
    4e1b:	48 89 c6             	mov    rsi,rax
    4e1e:	48 89 b4 24 98 05 00 	mov    QWORD PTR [rsp+0x598],rsi
    4e25:	00 
    4e26:	49 8b b4 24 98 00 00 	mov    rsi,QWORD PTR [r12+0x98]
    4e2d:	00 
    4e2e:	48 8b 7b 08          	mov    rdi,QWORD PTR [rbx+0x8]
    4e32:	49 89 b4 24 98 00 00 	mov    QWORD PTR [r12+0x98],rsi
    4e39:	00 
    4e3a:	4c 89 6e e0          	mov    QWORD PTR [rsi-0x20],r13
    4e3e:	4c 89 76 e8          	mov    QWORD PTR [rsi-0x18],r14
    4e42:	b8 01 00 00 00       	mov    eax,0x1
    4e47:	48 89 46 f0          	mov    QWORD PTR [rsi-0x10],rax
    4e4b:	b8 01 00 00 00       	mov    eax,0x1
    4e50:	48 89 46 f8          	mov    QWORD PTR [rsi-0x8],rax
    4e54:	48 31 f6             	xor    rsi,rsi
    4e57:	48 b8 00 00 00 00 00 	movabs rax,0x0
    4e5e:	00 00 00 
			4e59: R_X86_64_64	do_callback
    4e61:	48 89 9c 24 a0 05 00 	mov    QWORD PTR [rsp+0x5a0],rbx
    4e68:	00 
    4e69:	48 89 bc 24 a8 05 00 	mov    QWORD PTR [rsp+0x5a8],rdi
    4e70:	00 
    4e71:	4c 89 ac 24 b0 05 00 	mov    QWORD PTR [rsp+0x5b0],r13
    4e78:	00 
    4e79:	ff d0                	call   rax
    4e7b:	48 8b 9c 24 a0 05 00 	mov    rbx,QWORD PTR [rsp+0x5a0]
    4e82:	00 
    4e83:	4c 8b ac 24 b0 05 00 	mov    r13,QWORD PTR [rsp+0x5b0]
    4e8a:	00 
    4e8b:	48 89 c6             	mov    rsi,rax
    4e8e:	48 89 b4 24 a0 05 00 	mov    QWORD PTR [rsp+0x5a0],rsi
    4e95:	00 
    4e96:	49 8b b4 24 98 00 00 	mov    rsi,QWORD PTR [r12+0x98]
    4e9d:	00 
    4e9e:	48 8b 7b 08          	mov    rdi,QWORD PTR [rbx+0x8]
    4ea2:	49 89 b4 24 98 00 00 	mov    QWORD PTR [r12+0x98],rsi
    4ea9:	00 
    4eaa:	4c 89 6e e0          	mov    QWORD PTR [rsi-0x20],r13
    4eae:	4c 89 76 e8          	mov    QWORD PTR [rsi-0x18],r14
    4eb2:	b8 01 00 00 00       	mov    eax,0x1
    4eb7:	48 89 46 f0          	mov    QWORD PTR [rsi-0x10],rax
    4ebb:	b8 01 00 00 00       	mov    eax,0x1
    4ec0:	48 89 46 f8          	mov    QWORD PTR [rsi-0x8],rax
    4ec4:	48 31 f6             	xor    rsi,rsi
    4ec7:	48 b8 00 00 00 00 00 	movabs rax,0x0
    4ece:	00 00 00 
			4ec9: R_X86_64_64	do_callback
    4ed1:	48 89 9c 24 a8 05 00 	mov    QWORD PTR [rsp+0x5a8],rbx
    4ed8:	00 
    4ed9:	48 89 bc 24 b0 05 00 	mov    QWORD PTR [rsp+0x5b0],rdi
    4ee0:	00 
    4ee1:	4c 89 ac 24 b8 05 00 	mov    QWORD PTR [rsp+0x5b8],r13
    4ee8:	00 
    4ee9:	ff d0                	call   rax
    4eeb:	48 8b 9c 24 a8 05 00 	mov    rbx,QWORD PTR [rsp+0x5a8]
    4ef2:	00 
    4ef3:	4c 8b ac 24 b8 05 00 	mov    r13,QWORD PTR [rsp+0x5b8]
    4efa:	00 
    4efb:	48 89 c6             	mov    rsi,rax
    4efe:	48 89 b4 24 a8 05 00 	mov    QWORD PTR [rsp+0x5a8],rsi
    4f05:	00 
    4f06:	49 8b b4 24 98 00 00 	mov    rsi,QWORD PTR [r12+0x98]
    4f0d:	00 
    4f0e:	48 8b 7b 08          	mov    rdi,QWORD PTR [rbx+0x8]
    4f12:	49 89 b4 24 98 00 00 	mov    QWORD PTR [r12+0x98],rsi
    4f19:	00 
    4f1a:	4c 89 6e e0          	mov    QWORD PTR [rsi-0x20],r13
    4f1e:	4c 89 76 e8          	mov    QWORD PTR [rsi-0x18],r14
    4f22:	b8 01 00 00 00       	mov    eax,0x1
    4f27:	48 89 46 f0          	mov    QWORD PTR [rsi-0x10],rax
    4f2b:	b8 01 00 00 00       	mov    eax,0x1
    4f30:	48 89 46 f8          	mov    QWORD PTR [rsi-0x8],rax
    4f34:	48 31 f6             	xor    rsi,rsi
    4f37:	48 b8 00 00 00 00 00 	movabs rax,0x0
    4f3e:	00 00 00 
			4f39: R_X86_64_64	do_callback
    4f41:	48 89 9c 24 b0 05 00 	mov    QWORD PTR [rsp+0x5b0],rbx
    4f48:	00 
    4f49:	48 89 bc 24 b8 05 00 	mov    QWORD PTR [rsp+0x5b8],rdi
    4f50:	00 
    4f51:	4c 89 ac 24 c0 05 00 	mov    QWORD PTR [rsp+0x5c0],r13
    4f58:	00 
    4f59:	ff d0                	call   rax
    4f5b:	48 8b 9c 24 b0 05 00 	mov    rbx,QWORD PTR [rsp+0x5b0]
    4f62:	00 
    4f63:	4c 8b ac 24 c0 05 00 	mov    r13,QWORD PTR [rsp+0x5c0]
    4f6a:	00 
    4f6b:	48 89 c6             	mov    rsi,rax
    4f6e:	48 89 b4 24 b0 05 00 	mov    QWORD PTR [rsp+0x5b0],rsi
    4f75:	00 
    4f76:	49 8b b4 24 98 00 00 	mov    rsi,QWORD PTR [r12+0x98]
    4f7d:	00 
    4f7e:	48 8b 7b 08          	mov    rdi,QWORD PTR [rbx+0x8]
    4f82:	49 89 b4 24 98 00 00 	mov    QWORD PTR [r12+0x98],rsi
    4f89:	00 
    4f8a:	4c 89 6e e0          	mov    QWORD PTR [rsi-0x20],r13
    4f8e:	4c 89 76 e8          	mov    QWORD PTR [rsi-0x18],r14
    4f92:	b8 01 00 00 00       	mov    eax,0x1
    4f97:	48 89 46 f0          	mov    QWORD PTR [rsi-0x10],rax
    4f9b:	b8 01 00 00 00       	mov    eax,0x1
    4fa0:	48 89 46 f8          	mov    QWORD PTR [rsi-0x8],rax
    4fa4:	48 31 f6             	xor    rsi,rsi
    4fa7:	48 b8 00 00 00 00 00 	movabs rax,0x0
    4fae:	00 00 00 
			4fa9: R_X86_64_64	do_callback
    4fb1:	48 89 9c 24 b8 05 00 	mov    QWORD PTR [rsp+0x5b8],rbx
    4fb8:	00 
    4fb9:	48 89 bc 24 c0 05 00 	mov    QWORD PTR [rsp+0x5c0],rdi
    4fc0:	00 
    4fc1:	4c 89 ac 24 c8 05 00 	mov    QWORD PTR [rsp+0x5c8],r13
    4fc8:	00 
    4fc9:	ff d0                	call   rax
    4fcb:	48 8b 9c 24 b8 05 00 	mov    rbx,QWORD PTR [rsp+0x5b8]
    4fd2:	00 
    4fd3:	4c 8b ac 24 c8 05 00 	mov    r13,QWORD PTR [rsp+0x5c8]
    4fda:	00 
    4fdb:	48 89 c6             	mov    rsi,rax
    4fde:	48 89 b4 24 b8 05 00 	mov    QWORD PTR [rsp+0x5b8],rsi
    4fe5:	00 
    4fe6:	49 8b b4 24 98 00 00 	mov    rsi,QWORD PTR [r12+0x98]
    4fed:	00 
    4fee:	48 8b 7b 08          	mov    rdi,QWORD PTR [rbx+0x8]
    4ff2:	49 89 b4 24 98 00 00 	mov    QWORD PTR [r12+0x98],rsi
    4ff9:	00 
    4ffa:	4c 89 6e e0          	mov    QWORD PTR [rsi-0x20],r13
    4ffe:	4c 89 76 e8          	mov    QWORD PTR [rsi-0x18],r14
    5002:	b8 01 00 00 00       	mov    eax,0x1
    5007:	48 89 46 f0          	mov    QWORD PTR [rsi-0x10],rax
    500b:	b8 01 00 00 00       	mov    eax,0x1
    5010:	48 89 46 f8          	mov    QWORD PTR [rsi-0x8],rax
    5014:	48 31 f6             	xor    rsi,rsi
    5017:	48 b8 00 00 00 00 00 	movabs rax,0x0
    501e:	00 00 00 
			5019: R_X86_64_64	do_callback
    5021:	48 89 9c 24 c0 05 00 	mov    QWORD PTR [rsp+0x5c0],rbx
    5028:	00 
    5029:	48 89 bc 24 c8 05 00 	mov    QWORD PTR [rsp+0x5c8],rdi
    5030:	00 
    5031:	4c 89 ac 24 d0 05 00 	mov    QWORD PTR [rsp+0x5d0],r13
    5038:	00 
    5039:	ff d0                	call   rax
    503b:	48 8b 9c 24 c0 05 00 	mov    rbx,QWORD PTR [rsp+0x5c0]
    5042:	00 
    5043:	4c 8b ac 24 d0 05 00 	mov    r13,QWORD PTR [rsp+0x5d0]
    504a:	00 
    504b:	48 89 c6             	mov    rsi,rax
    504e:	48 89 b4 24 c0 05 00 	mov    QWORD PTR [rsp+0x5c0],rsi
    5055:	00 
    5056:	49 8b b4 24 98 00 00 	mov    rsi,QWORD PTR [r12+0x98]
    505d:	00 
    505e:	48 8b 7b 08          	mov    rdi,QWORD PTR [rbx+0x8]
    5062:	49 89 b4 24 98 00 00 	mov    QWORD PTR [r12+0x98],rsi
    5069:	00 
    506a:	4c 89 6e e0          	mov    QWORD PTR [rsi-0x20],r13
    506e:	4c 89 76 e8          	mov    QWORD PTR [rsi-0x18],r14
    5072:	b8 01 00 00 00       	mov    eax,0x1
    5077:	48 89 46 f0          	mov    QWORD PTR [rsi-0x10],rax
    507b:	b8 01 00 00 00       	mov    eax,0x1
    5080:	48 89 46 f8          	mov    QWORD PTR [rsi-0x8],rax
    5084:	48 31 f6             	xor    rsi,rsi
    5087:	48 b8 00 00 00 00 00 	movabs rax,0x0
    508e:	00 00 00 
			5089: R_X86_64_64	do_callback
    5091:	48 89 9c 24 c8 05 00 	mov    QWORD PTR [rsp+0x5c8],rbx
    5098:	00 
    5099:	48 89 bc 24 d0 05 00 	mov    QWORD PTR [rsp+0x5d0],rdi
    50a0:	00 
    50a1:	4c 89 ac 24 d8 05 00 	mov    QWORD PTR [rsp+0x5d8],r13
    50a8:	00 
    50a9:	ff d0                	call   rax
    50ab:	48 8b 9c 24 c8 05 00 	mov    rbx,QWORD PTR [rsp+0x5c8]
    50b2:	00 
    50b3:	4c 8b ac 24 d8 05 00 	mov    r13,QWORD PTR [rsp+0x5d8]
    50ba:	00 
    50bb:	48 89 c6             	mov    rsi,rax
    50be:	48 89 b4 24 c8 05 00 	mov    QWORD PTR [rsp+0x5c8],rsi
    50c5:	00 
    50c6:	49 8b b4 24 98 00 00 	mov    rsi,QWORD PTR [r12+0x98]
    50cd:	00 
    50ce:	48 8b 7b 08          	mov    rdi,QWORD PTR [rbx+0x8]
    50d2:	49 89 b4 24 98 00 00 	mov    QWORD PTR [r12+0x98],rsi
    50d9:	00 
    50da:	4c 89 6e e0          	mov    QWORD PTR [rsi-0x20],r13
    50de:	4c 89 76 e8          	mov    QWORD PTR [rsi-0x18],r14
    50e2:	b8 01 00 00 00       	mov    eax,0x1
    50e7:	48 89 46 f0          	mov    QWORD PTR [rsi-0x10],rax
    50eb:	b8 01 00 00 00       	mov    eax,0x1
    50f0:	48 89 46 f8          	mov    QWORD PTR [rsi-0x8],rax
    50f4:	48 31 f6             	xor    rsi,rsi
    50f7:	48 b8 00 00 00 00 00 	movabs rax,0x0
    50fe:	00 00 00 
			50f9: R_X86_64_64	do_callback
    5101:	48 89 9c 24 d0 05 00 	mov    QWORD PTR [rsp+0x5d0],rbx
    5108:	00 
    5109:	48 89 bc 24 d8 05 00 	mov    QWORD PTR [rsp+0x5d8],rdi
    5110:	00 
    5111:	4c 89 ac 24 e0 05 00 	mov    QWORD PTR [rsp+0x5e0],r13
    5118:	00 
    5119:	ff d0                	call   rax
    511b:	48 8b 9c 24 d0 05 00 	mov    rbx,QWORD PTR [rsp+0x5d0]
    5122:	00 
    5123:	4c 8b ac 24 e0 05 00 	mov    r13,QWORD PTR [rsp+0x5e0]
    512a:	00 
    512b:	48 89 c6             	mov    rsi,rax
    512e:	48 89 b4 24 d0 05 00 	mov    QWORD PTR [rsp+0x5d0],rsi
    5135:	00 
    5136:	49 8b b4 24 98 00 00 	mov    rsi,QWORD PTR [r12+0x98]
    513d:	00 
    513e:	48 8b 7b 08          	mov    rdi,QWORD PTR [rbx+0x8]
    5142:	49 89 b4 24 98 00 00 	mov    QWORD PTR [r12+0x98],rsi
    5149:	00 
    514a:	4c 89 6e e0          	mov    QWORD PTR [rsi-0x20],r13
    514e:	4c 89 76 e8          	mov    QWORD PTR [rsi-0x18],r14
    5152:	b8 01 00 00 00       	mov    eax,0x1
    5157:	48 89 46 f0          	mov    QWORD PTR [rsi-0x10],rax
    515b:	b8 01 00 00 00       	mov    eax,0x1
    5160:	48 89 46 f8          	mov    QWORD PTR [rsi-0x8],rax
    5164:	48 31 f6             	xor    rsi,rsi
    5167:	48 b8 00 00 00 00 00 	movabs rax,0x0
    516e:	00 00 00 
			5169: R_X86_64_64	do_callback
    5171:	48 89 9c 24 d8 05 00 	mov    QWORD PTR [rsp+0x5d8],rbx
    5178:	00 
    5179:	48 89 bc 24 e0 05 00 	mov    QWORD PTR [rsp+0x5e0],rdi
    5180:	00 
    5181:	4c 89 ac 24 e8 05 00 	mov    QWORD PTR [rsp+0x5e8],r13
    5188:	00 
    5189:	ff d0                	call   rax
    518b:	48 8b 9c 24 d8 05 00 	mov    rbx,QWORD PTR [rsp+0x5d8]
    5192:	00 
    5193:	4c 8b ac 24 e8 05 00 	mov    r13,QWORD PTR [rsp+0x5e8]
    519a:	00 
    519b:	48 89 c6             	mov    rsi,rax
    519e:	48 89 b4 24 d8 05 00 	mov    QWORD PTR [rsp+0x5d8],rsi
    51a5:	00 
    51a6:	49 8b b4 24 98 00 00 	mov    rsi,QWORD PTR [r12+0x98]
    51ad:	00 
    51ae:	48 8b 7b 08          	mov    rdi,QWORD PTR [rbx+0x8]
    51b2:	49 89 b4 24 98 00 00 	mov    QWORD PTR [r12+0x98],rsi
    51b9:	00 
    51ba:	4c 89 6e e0          	mov    QWORD PTR [rsi-0x20],r13
    51be:	4c 89 76 e8          	mov    QWORD PTR [rsi-0x18],r14
    51c2:	b8 01 00 00 00       	mov    eax,0x1
    51c7:	48 89 46 f0          	mov    QWORD PTR [rsi-0x10],rax
    51cb:	b8 01 00 00 00       	mov    eax,0x1
    51d0:	48 89 46 f8          	mov    QWORD PTR [rsi-0x8],rax
    51d4:	48 31 f6             	xor    rsi,rsi
    51d7:	48 b8 00 00 00 00 00 	movabs rax,0x0
    51de:	00 00 00 
			51d9: R_X86_64_64	do_callback
    51e1:	48 89 9c 24 e0 05 00 	mov    QWORD PTR [rsp+0x5e0],rbx
    51e8:	00 
    51e9:	48 89 bc 24 e8 05 00 	mov    QWORD PTR [rsp+0x5e8],rdi
    51f0:	00 
    51f1:	4c 89 ac 24 f0 05 00 	mov    QWORD PTR [rsp+0x5f0],r13
    51f8:	00 
    51f9:	ff d0                	call   rax
    51fb:	48 8b 9c 24 e0 05 00 	mov    rbx,QWORD PTR [rsp+0x5e0]
    5202:	00 
    5203:	4c 8b ac 24 f0 05 00 	mov    r13,QWORD PTR [rsp+0x5f0]
    520a:	00 
    520b:	48 89 c6             	mov    rsi,rax
    520e:	48 89 b4 24 e0 05 00 	mov    QWORD PTR [rsp+0x5e0],rsi
    5215:	00 
    5216:	49 8b b4 24 98 00 00 	mov    rsi,QWORD PTR [r12+0x98]
    521d:	00 
    521e:	48 8b 7b 08          	mov    rdi,QWORD PTR [rbx+0x8]
    5222:	49 89 b4 24 98 00 00 	mov    QWORD PTR [r12+0x98],rsi
    5229:	00 
    522a:	4c 89 6e e0          	mov    QWORD PTR [rsi-0x20],r13
    522e:	4c 89 76 e8          	mov    QWORD PTR [rsi-0x18],r14
    5232:	b8 01 00 00 00       	mov    eax,0x1
    5237:	48 89 46 f0          	mov    QWORD PTR [rsi-0x10],rax
    523b:	b8 01 00 00 00       	mov    eax,0x1
    5240:	48 89 46 f8          	mov    QWORD PTR [rsi-0x8],rax
    5244:	48 31 f6             	xor    rsi,rsi
    5247:	48 b8 00 00 00 00 00 	movabs rax,0x0
    524e:	00 00 00 
			5249: R_X86_64_64	do_callback
    5251:	48 89 9c 24 e8 05 00 	mov    QWORD PTR [rsp+0x5e8],rbx
    5258:	00 
    5259:	48 89 bc 24 f0 05 00 	mov    QWORD PTR [rsp+0x5f0],rdi
    5260:	00 
    5261:	4c 89 ac 24 f8 05 00 	mov    QWORD PTR [rsp+0x5f8],r13
    5268:	00 
    5269:	ff d0                	call   rax
    526b:	48 8b 9c 24 e8 05 00 	mov    rbx,QWORD PTR [rsp+0x5e8]
    5272:	00 
    5273:	4c 8b ac 24 f8 05 00 	mov    r13,QWORD PTR [rsp+0x5f8]
    527a:	00 
    527b:	48 89 c6             	mov    rsi,rax
    527e:	48 89 b4 24 e8 05 00 	mov    QWORD PTR [rsp+0x5e8],rsi
    5285:	00 
    5286:	49 8b b4 24 98 00 00 	mov    rsi,QWORD PTR [r12+0x98]
    528d:	00 
    528e:	48 8b 7b 08          	mov    rdi,QWORD PTR [rbx+0x8]
    5292:	49 89 b4 24 98 00 00 	mov    QWORD PTR [r12+0x98],rsi
    5299:	00 
    529a:	4c 89 6e e0          	mov    QWORD PTR [rsi-0x20],r13
    529e:	4c 89 76 e8          	mov    QWORD PTR [rsi-0x18],r14
    52a2:	b8 01 00 00 00       	mov    eax,0x1
    52a7:	48 89 46 f0          	mov    QWORD PTR [rsi-0x10],rax
    52ab:	b8 01 00 00 00       	mov    eax,0x1
    52b0:	48 89 46 f8          	mov    QWORD PTR [rsi-0x8],rax
    52b4:	48 31 f6             	xor    rsi,rsi
    52b7:	48 b8 00 00 00 00 00 	movabs rax,0x0
    52be:	00 00 00 
			52b9: R_X86_64_64	do_callback
    52c1:	48 89 9c 24 f0 05 00 	mov    QWORD PTR [rsp+0x5f0],rbx
    52c8:	00 
    52c9:	48 89 bc 24 f8 05 00 	mov    QWORD PTR [rsp+0x5f8],rdi
    52d0:	00 
    52d1:	4c 89 ac 24 00 06 00 	mov    QWORD PTR [rsp+0x600],r13
    52d8:	00 
    52d9:	ff d0                	call   rax
    52db:	48 8b 9c 24 f0 05 00 	mov    rbx,QWORD PTR [rsp+0x5f0]
    52e2:	00 
    52e3:	4c 8b ac 24 00 06 00 	mov    r13,QWORD PTR [rsp+0x600]
    52ea:	00 
    52eb:	48 89 c6             	mov    rsi,rax
    52ee:	48 89 b4 24 f0 05 00 	mov    QWORD PTR [rsp+0x5f0],rsi
    52f5:	00 
    52f6:	49 8b b4 24 98 00 00 	mov    rsi,QWORD PTR [r12+0x98]
    52fd:	00 
    52fe:	48 8b 7b 08          	mov    rdi,QWORD PTR [rbx+0x8]
    5302:	49 89 b4 24 98 00 00 	mov    QWORD PTR [r12+0x98],rsi
    5309:	00 
    530a:	4c 89 6e e0          	mov    QWORD PTR [rsi-0x20],r13
    530e:	4c 89 76 e8          	mov    QWORD PTR [rsi-0x18],r14
    5312:	b8 01 00 00 00       	mov    eax,0x1
    5317:	48 89 46 f0          	mov    QWORD PTR [rsi-0x10],rax
    531b:	b8 01 00 00 00       	mov    eax,0x1
    5320:	48 89 46 f8          	mov    QWORD PTR [rsi-0x8],rax
    5324:	48 31 f6             	xor    rsi,rsi
    5327:	48 b8 00 00 00 00 00 	movabs rax,0x0
    532e:	00 00 00 
			5329: R_X86_64_64	do_callback
    5331:	48 89 9c 24 f8 05 00 	mov    QWORD PTR [rsp+0x5f8],rbx
    5338:	00 
    5339:	48 89 bc 24 00 06 00 	mov    QWORD PTR [rsp+0x600],rdi
    5340:	00 
    5341:	4c 89 ac 24 08 06 00 	mov    QWORD PTR [rsp+0x608],r13
    5348:	00 
    5349:	ff d0                	call   rax
    534b:	48 8b 9c 24 f8 05 00 	mov    rbx,QWORD PTR [rsp+0x5f8]
    5352:	00 
    5353:	4c 8b ac 24 08 06 00 	mov    r13,QWORD PTR [rsp+0x608]
    535a:	00 
    535b:	48 89 c6             	mov    rsi,rax
    535e:	48 89 b4 24 f8 05 00 	mov    QWORD PTR [rsp+0x5f8],rsi
    5365:	00 
    5366:	49 8b b4 24 98 00 00 	mov    rsi,QWORD PTR [r12+0x98]
    536d:	00 
    536e:	48 8b 7b 08          	mov    rdi,QWORD PTR [rbx+0x8]
    5372:	49 89 b4 24 98 00 00 	mov    QWORD PTR [r12+0x98],rsi
    5379:	00 
    537a:	4c 89 6e e0          	mov    QWORD PTR [rsi-0x20],r13
    537e:	4c 89 76 e8          	mov    QWORD PTR [rsi-0x18],r14
    5382:	b8 01 00 00 00       	mov    eax,0x1
    5387:	48 89 46 f0          	mov    QWORD PTR [rsi-0x10],rax
    538b:	b8 01 00 00 00       	mov    eax,0x1
    5390:	48 89 46 f8          	mov    QWORD PTR [rsi-0x8],rax
    5394:	48 31 f6             	xor    rsi,rsi
    5397:	48 b8 00 00 00 00 00 	movabs rax,0x0
    539e:	00 00 00 
			5399: R_X86_64_64	do_callback
    53a1:	48 89 9c 24 00 06 00 	mov    QWORD PTR [rsp+0x600],rbx
    53a8:	00 
    53a9:	48 89 bc 24 08 06 00 	mov    QWORD PTR [rsp+0x608],rdi
    53b0:	00 
    53b1:	4c 89 ac 24 10 06 00 	mov    QWORD PTR [rsp+0x610],r13
    53b8:	00 
    53b9:	ff d0                	call   rax
    53bb:	48 8b 9c 24 00 06 00 	mov    rbx,QWORD PTR [rsp+0x600]
    53c2:	00 
    53c3:	4c 8b ac 24 10 06 00 	mov    r13,QWORD PTR [rsp+0x610]
    53ca:	00 
    53cb:	48 89 c6             	mov    rsi,rax
    53ce:	48 89 b4 24 00 06 00 	mov    QWORD PTR [rsp+0x600],rsi
    53d5:	00 
    53d6:	49 8b b4 24 98 00 00 	mov    rsi,QWORD PTR [r12+0x98]
    53dd:	00 
    53de:	48 8b 7b 08          	mov    rdi,QWORD PTR [rbx+0x8]
    53e2:	49 89 b4 24 98 00 00 	mov    QWORD PTR [r12+0x98],rsi
    53e9:	00 
    53ea:	4c 89 6e e0          	mov    QWORD PTR [rsi-0x20],r13
    53ee:	4c 89 76 e8          	mov    QWORD PTR [rsi-0x18],r14
    53f2:	b8 01 00 00 00       	mov    eax,0x1
    53f7:	48 89 46 f0          	mov    QWORD PTR [rsi-0x10],rax
    53fb:	b8 01 00 00 00       	mov    eax,0x1
    5400:	48 89 46 f8          	mov    QWORD PTR [rsi-0x8],rax
    5404:	48 31 f6             	xor    rsi,rsi
    5407:	48 b8 00 00 00 00 00 	movabs rax,0x0
    540e:	00 00 00 
			5409: R_X86_64_64	do_callback
    5411:	48 89 9c 24 08 06 00 	mov    QWORD PTR [rsp+0x608],rbx
    5418:	00 
    5419:	48 89 bc 24 10 06 00 	mov    QWORD PTR [rsp+0x610],rdi
    5420:	00 
    5421:	4c 89 ac 24 18 06 00 	mov    QWORD PTR [rsp+0x618],r13
    5428:	00 
    5429:	ff d0                	call   rax
    542b:	48 8b 9c 24 08 06 00 	mov    rbx,QWORD PTR [rsp+0x608]
    5432:	00 
    5433:	4c 8b ac 24 18 06 00 	mov    r13,QWORD PTR [rsp+0x618]
    543a:	00 
    543b:	48 89 c6             	mov    rsi,rax
    543e:	48 89 b4 24 08 06 00 	mov    QWORD PTR [rsp+0x608],rsi
    5445:	00 
    5446:	49 8b b4 24 98 00 00 	mov    rsi,QWORD PTR [r12+0x98]
    544d:	00 
    544e:	48 8b 7b 08          	mov    rdi,QWORD PTR [rbx+0x8]
    5452:	49 89 b4 24 98 00 00 	mov    QWORD PTR [r12+0x98],rsi
    5459:	00 
    545a:	4c 89 6e e0          	mov    QWORD PTR [rsi-0x20],r13
    545e:	4c 89 76 e8          	mov    QWORD PTR [rsi-0x18],r14
    5462:	b8 01 00 00 00       	mov    eax,0x1
    5467:	48 89 46 f0          	mov    QWORD PTR [rsi-0x10],rax
    546b:	b8 01 00 00 00       	mov    eax,0x1
    5470:	48 89 46 f8          	mov    QWORD PTR [rsi-0x8],rax
    5474:	48 31 f6             	xor    rsi,rsi
    5477:	48 b8 00 00 00 00 00 	movabs rax,0x0
    547e:	00 00 00 
			5479: R_X86_64_64	do_callback
    5481:	48 89 9c 24 10 06 00 	mov    QWORD PTR [rsp+0x610],rbx
    5488:	00 
    5489:	48 89 bc 24 18 06 00 	mov    QWORD PTR [rsp+0x618],rdi
    5490:	00 
    5491:	4c 89 ac 24 20 06 00 	mov    QWORD PTR [rsp+0x620],r13
    5498:	00 
    5499:	ff d0                	call   rax
    549b:	48 8b 9c 24 10 06 00 	mov    rbx,QWORD PTR [rsp+0x610]
    54a2:	00 
    54a3:	4c 8b ac 24 20 06 00 	mov    r13,QWORD PTR [rsp+0x620]
    54aa:	00 
    54ab:	48 89 c6             	mov    rsi,rax
    54ae:	48 89 b4 24 10 06 00 	mov    QWORD PTR [rsp+0x610],rsi
    54b5:	00 
    54b6:	49 8b b4 24 98 00 00 	mov    rsi,QWORD PTR [r12+0x98]
    54bd:	00 
    54be:	48 8b 7b 08          	mov    rdi,QWORD PTR [rbx+0x8]
    54c2:	49 89 b4 24 98 00 00 	mov    QWORD PTR [r12+0x98],rsi
    54c9:	00 
    54ca:	4c 89 6e e0          	mov    QWORD PTR [rsi-0x20],r13
    54ce:	4c 89 76 e8          	mov    QWORD PTR [rsi-0x18],r14
    54d2:	b8 01 00 00 00       	mov    eax,0x1
    54d7:	48 89 46 f0          	mov    QWORD PTR [rsi-0x10],rax
    54db:	b8 01 00 00 00       	mov    eax,0x1
    54e0:	48 89 46 f8          	mov    QWORD PTR [rsi-0x8],rax
    54e4:	48 31 f6             	xor    rsi,rsi
    54e7:	48 b8 00 00 00 00 00 	movabs rax,0x0
    54ee:	00 00 00 
			54e9: R_X86_64_64	do_callback
    54f1:	48 89 9c 24 18 06 00 	mov    QWORD PTR [rsp+0x618],rbx
    54f8:	00 
    54f9:	48 89 bc 24 20 06 00 	mov    QWORD PTR [rsp+0x620],rdi
    5500:	00 
    5501:	4c 89 ac 24 28 06 00 	mov    QWORD PTR [rsp+0x628],r13
    5508:	00 
    5509:	ff d0                	call   rax
    550b:	48 8b 9c 24 18 06 00 	mov    rbx,QWORD PTR [rsp+0x618]
    5512:	00 
    5513:	4c 8b ac 24 28 06 00 	mov    r13,QWORD PTR [rsp+0x628]
    551a:	00 
    551b:	48 89 c6             	mov    rsi,rax
    551e:	48 89 b4 24 18 06 00 	mov    QWORD PTR [rsp+0x618],rsi
    5525:	00 
    5526:	49 8b b4 24 98 00 00 	mov    rsi,QWORD PTR [r12+0x98]
    552d:	00 
    552e:	48 8b 7b 08          	mov    rdi,QWORD PTR [rbx+0x8]
    5532:	49 89 b4 24 98 00 00 	mov    QWORD PTR [r12+0x98],rsi
    5539:	00 
    553a:	4c 89 6e e0          	mov    QWORD PTR [rsi-0x20],r13
    553e:	4c 89 76 e8          	mov    QWORD PTR [rsi-0x18],r14
    5542:	b8 01 00 00 00       	mov    eax,0x1
    5547:	48 89 46 f0          	mov    QWORD PTR [rsi-0x10],rax
    554b:	b8 01 00 00 00       	mov    eax,0x1
    5550:	48 89 46 f8          	mov    QWORD PTR [rsi-0x8],rax
    5554:	48 31 f6             	xor    rsi,rsi
    5557:	48 b8 00 00 00 00 00 	movabs rax,0x0
    555e:	00 00 00 
			5559: R_X86_64_64	do_callback
    5561:	48 89 9c 24 20 06 00 	mov    QWORD PTR [rsp+0x620],rbx
    5568:	00 
    5569:	48 89 bc 24 28 06 00 	mov    QWORD PTR [rsp+0x628],rdi
    5570:	00 
    5571:	4c 89 ac 24 30 06 00 	mov    QWORD PTR [rsp+0x630],r13
    5578:	00 
    5579:	ff d0                	call   rax
    557b:	48 8b 9c 24 20 06 00 	mov    rbx,QWORD PTR [rsp+0x620]
    5582:	00 
    5583:	4c 8b ac 24 30 06 00 	mov    r13,QWORD PTR [rsp+0x630]
    558a:	00 
    558b:	48 89 c6             	mov    rsi,rax
    558e:	48 89 b4 24 20 06 00 	mov    QWORD PTR [rsp+0x620],rsi
    5595:	00 
    5596:	49 8b b4 24 98 00 00 	mov    rsi,QWORD PTR [r12+0x98]
    559d:	00 
    559e:	48 8b 7b 08          	mov    rdi,QWORD PTR [rbx+0x8]
    55a2:	49 89 b4 24 98 00 00 	mov    QWORD PTR [r12+0x98],rsi
    55a9:	00 
    55aa:	4c 89 6e e0          	mov    QWORD PTR [rsi-0x20],r13
    55ae:	4c 89 76 e8          	mov    QWORD PTR [rsi-0x18],r14
    55b2:	b8 01 00 00 00       	mov    eax,0x1
    55b7:	48 89 46 f0          	mov    QWORD PTR [rsi-0x10],rax
    55bb:	b8 01 00 00 00       	mov    eax,0x1
    55c0:	48 89 46 f8          	mov    QWORD PTR [rsi-0x8],rax
    55c4:	48 31 f6             	xor    rsi,rsi
    55c7:	48 b8 00 00 00 00 00 	movabs rax,0x0
    55ce:	00 00 00 
			55c9: R_X86_64_64	do_callback
    55d1:	48 89 9c 24 28 06 00 	mov    QWORD PTR [rsp+0x628],rbx
    55d8:	00 
    55d9:	48 89 bc 24 30 06 00 	mov    QWORD PTR [rsp+0x630],rdi
    55e0:	00 
    55e1:	4c 89 ac 24 38 06 00 	mov    QWORD PTR [rsp+0x638],r13
    55e8:	00 
    55e9:	ff d0                	call   rax
    55eb:	48 8b 9c 24 28 06 00 	mov    rbx,QWORD PTR [rsp+0x628]
    55f2:	00 
    55f3:	4c 8b ac 24 38 06 00 	mov    r13,QWORD PTR [rsp+0x638]
    55fa:	00 
    55fb:	48 89 c6             	mov    rsi,rax
    55fe:	48 89 b4 24 28 06 00 	mov    QWORD PTR [rsp+0x628],rsi
    5605:	00 
    5606:	49 8b b4 24 98 00 00 	mov    rsi,QWORD PTR [r12+0x98]
    560d:	00 
    560e:	48 8b 7b 08          	mov    rdi,QWORD PTR [rbx+0x8]
    5612:	49 89 b4 24 98 00 00 	mov    QWORD PTR [r12+0x98],rsi
    5619:	00 
    561a:	4c 89 6e e0          	mov    QWORD PTR [rsi-0x20],r13
    561e:	4c 89 76 e8          	mov    QWORD PTR [rsi-0x18],r14
    5622:	b8 01 00 00 00       	mov    eax,0x1
    5627:	48 89 46 f0          	mov    QWORD PTR [rsi-0x10],rax
    562b:	b8 01 00 00 00       	mov    eax,0x1
    5630:	48 89 46 f8          	mov    QWORD PTR [rsi-0x8],rax
    5634:	48 31 f6             	xor    rsi,rsi
    5637:	48 b8 00 00 00 00 00 	movabs rax,0x0
    563e:	00 00 00 
			5639: R_X86_64_64	do_callback
    5641:	48 89 9c 24 30 06 00 	mov    QWORD PTR [rsp+0x630],rbx
    5648:	00 
    5649:	48 89 bc 24 38 06 00 	mov    QWORD PTR [rsp+0x638],rdi
    5650:	00 
    5651:	4c 89 ac 24 40 06 00 	mov    QWORD PTR [rsp+0x640],r13
    5658:	00 
    5659:	ff d0                	call   rax
    565b:	48 8b 9c 24 30 06 00 	mov    rbx,QWORD PTR [rsp+0x630]
    5662:	00 
    5663:	4c 8b ac 24 40 06 00 	mov    r13,QWORD PTR [rsp+0x640]
    566a:	00 
    566b:	48 89 c6             	mov    rsi,rax
    566e:	48 89 b4 24 30 06 00 	mov    QWORD PTR [rsp+0x630],rsi
    5675:	00 
    5676:	49 8b b4 24 98 00 00 	mov    rsi,QWORD PTR [r12+0x98]
    567d:	00 
    567e:	48 8b 7b 08          	mov    rdi,QWORD PTR [rbx+0x8]
    5682:	49 89 b4 24 98 00 00 	mov    QWORD PTR [r12+0x98],rsi
    5689:	00 
    568a:	4c 89 6e e0          	mov    QWORD PTR [rsi-0x20],r13
    568e:	4c 89 76 e8          	mov    QWORD PTR [rsi-0x18],r14
    5692:	b8 01 00 00 00       	mov    eax,0x1
    5697:	48 89 46 f0          	mov    QWORD PTR [rsi-0x10],rax
    569b:	b8 01 00 00 00       	mov    eax,0x1
    56a0:	48 89 46 f8          	mov    QWORD PTR [rsi-0x8],rax
    56a4:	48 31 f6             	xor    rsi,rsi
    56a7:	48 b8 00 00 00 00 00 	movabs rax,0x0
    56ae:	00 00 00 
			56a9: R_X86_64_64	do_callback
    56b1:	48 89 9c 24 38 06 00 	mov    QWORD PTR [rsp+0x638],rbx
    56b8:	00 
    56b9:	48 89 bc 24 40 06 00 	mov    QWORD PTR [rsp+0x640],rdi
    56c0:	00 
    56c1:	4c 89 ac 24 48 06 00 	mov    QWORD PTR [rsp+0x648],r13
    56c8:	00 
    56c9:	ff d0                	call   rax
    56cb:	48 8b 9c 24 38 06 00 	mov    rbx,QWORD PTR [rsp+0x638]
    56d2:	00 
    56d3:	4c 8b ac 24 48 06 00 	mov    r13,QWORD PTR [rsp+0x648]
    56da:	00 
    56db:	48 89 c6             	mov    rsi,rax
    56de:	48 89 b4 24 38 06 00 	mov    QWORD PTR [rsp+0x638],rsi
    56e5:	00 
    56e6:	49 8b b4 24 98 00 00 	mov    rsi,QWORD PTR [r12+0x98]
    56ed:	00 
    56ee:	48 8b 7b 08          	mov    rdi,QWORD PTR [rbx+0x8]
    56f2:	49 89 b4 24 98 00 00 	mov    QWORD PTR [r12+0x98],rsi
    56f9:	00 
    56fa:	4c 89 6e e0          	mov    QWORD PTR [rsi-0x20],r13
    56fe:	4c 89 76 e8          	mov    QWORD PTR [rsi-0x18],r14
    5702:	b8 01 00 00 00       	mov    eax,0x1
    5707:	48 89 46 f0          	mov    QWORD PTR [rsi-0x10],rax
    570b:	b8 01 00 00 00       	mov    eax,0x1
    5710:	48 89 46 f8          	mov    QWORD PTR [rsi-0x8],rax
    5714:	48 31 f6             	xor    rsi,rsi
    5717:	48 b8 00 00 00 00 00 	movabs rax,0x0
    571e:	00 00 00 
			5719: R_X86_64_64	do_callback
    5721:	48 89 9c 24 40 06 00 	mov    QWORD PTR [rsp+0x640],rbx
    5728:	00 
    5729:	48 89 bc 24 48 06 00 	mov    QWORD PTR [rsp+0x648],rdi
    5730:	00 
    5731:	4c 89 ac 24 50 06 00 	mov    QWORD PTR [rsp+0x650],r13
    5738:	00 
    5739:	ff d0                	call   rax
    573b:	48 8b 9c 24 40 06 00 	mov    rbx,QWORD PTR [rsp+0x640]
    5742:	00 
    5743:	4c 8b ac 24 50 06 00 	mov    r13,QWORD PTR [rsp+0x650]
    574a:	00 
    574b:	48 89 c6             	mov    rsi,rax
    574e:	48 89 b4 24 40 06 00 	mov    QWORD PTR [rsp+0x640],rsi
    5755:	00 
    5756:	49 8b b4 24 98 00 00 	mov    rsi,QWORD PTR [r12+0x98]
    575d:	00 
    575e:	48 8b 7b 08          	mov    rdi,QWORD PTR [rbx+0x8]
    5762:	49 89 b4 24 98 00 00 	mov    QWORD PTR [r12+0x98],rsi
    5769:	00 
    576a:	4c 89 6e e0          	mov    QWORD PTR [rsi-0x20],r13
    576e:	4c 89 76 e8          	mov    QWORD PTR [rsi-0x18],r14
    5772:	b8 01 00 00 00       	mov    eax,0x1
    5777:	48 89 46 f0          	mov    QWORD PTR [rsi-0x10],rax
    577b:	b8 01 00 00 00       	mov    eax,0x1
    5780:	48 89 46 f8          	mov    QWORD PTR [rsi-0x8],rax
    5784:	48 31 f6             	xor    rsi,rsi
    5787:	48 b8 00 00 00 00 00 	movabs rax,0x0
    578e:	00 00 00 
			5789: R_X86_64_64	do_callback
    5791:	48 89 9c 24 48 06 00 	mov    QWORD PTR [rsp+0x648],rbx
    5798:	00 
    5799:	48 89 bc 24 50 06 00 	mov    QWORD PTR [rsp+0x650],rdi
    57a0:	00 
    57a1:	4c 89 ac 24 58 06 00 	mov    QWORD PTR [rsp+0x658],r13
    57a8:	00 
    57a9:	ff d0                	call   rax
    57ab:	48 8b 9c 24 48 06 00 	mov    rbx,QWORD PTR [rsp+0x648]
    57b2:	00 
    57b3:	4c 8b ac 24 58 06 00 	mov    r13,QWORD PTR [rsp+0x658]
    57ba:	00 
    57bb:	48 89 c6             	mov    rsi,rax
    57be:	48 89 b4 24 48 06 00 	mov    QWORD PTR [rsp+0x648],rsi
    57c5:	00 
    57c6:	49 8b b4 24 98 00 00 	mov    rsi,QWORD PTR [r12+0x98]
    57cd:	00 
    57ce:	48 8b 7b 08          	mov    rdi,QWORD PTR [rbx+0x8]
    57d2:	49 89 b4 24 98 00 00 	mov    QWORD PTR [r12+0x98],rsi
    57d9:	00 
    57da:	4c 89 6e e0          	mov    QWORD PTR [rsi-0x20],r13
    57de:	4c 89 76 e8          	mov    QWORD PTR [rsi-0x18],r14
    57e2:	b8 01 00 00 00       	mov    eax,0x1
    57e7:	48 89 46 f0          	mov    QWORD PTR [rsi-0x10],rax
    57eb:	b8 01 00 00 00       	mov    eax,0x1
    57f0:	48 89 46 f8          	mov    QWORD PTR [rsi-0x8],rax
    57f4:	48 31 f6             	xor    rsi,rsi
    57f7:	48 b8 00 00 00 00 00 	movabs rax,0x0
    57fe:	00 00 00 
			57f9: R_X86_64_64	do_callback
    5801:	48 89 9c 24 50 06 00 	mov    QWORD PTR [rsp+0x650],rbx
    5808:	00 
    5809:	48 89 bc 24 58 06 00 	mov    QWORD PTR [rsp+0x658],rdi
    5810:	00 
    5811:	4c 89 ac 24 60 06 00 	mov    QWORD PTR [rsp+0x660],r13
    5818:	00 
    5819:	ff d0                	call   rax
    581b:	48 8b 9c 24 50 06 00 	mov    rbx,QWORD PTR [rsp+0x650]
    5822:	00 
    5823:	4c 8b ac 24 60 06 00 	mov    r13,QWORD PTR [rsp+0x660]
    582a:	00 
    582b:	48 89 c6             	mov    rsi,rax
    582e:	48 89 b4 24 50 06 00 	mov    QWORD PTR [rsp+0x650],rsi
    5835:	00 
    5836:	49 8b b4 24 98 00 00 	mov    rsi,QWORD PTR [r12+0x98]
    583d:	00 
    583e:	48 8b 7b 08          	mov    rdi,QWORD PTR [rbx+0x8]
    5842:	49 89 b4 24 98 00 00 	mov    QWORD PTR [r12+0x98],rsi
    5849:	00 
    584a:	4c 89 6e e0          	mov    QWORD PTR [rsi-0x20],r13
    584e:	4c 89 76 e8          	mov    QWORD PTR [rsi-0x18],r14
    5852:	b8 01 00 00 00       	mov    eax,0x1
    5857:	48 89 46 f0          	mov    QWORD PTR [rsi-0x10],rax
    585b:	b8 01 00 00 00       	mov    eax,0x1
    5860:	48 89 46 f8          	mov    QWORD PTR [rsi-0x8],rax
    5864:	48 31 f6             	xor    rsi,rsi
    5867:	48 b8 00 00 00 00 00 	movabs rax,0x0
    586e:	00 00 00 
			5869: R_X86_64_64	do_callback
    5871:	48 89 9c 24 58 06 00 	mov    QWORD PTR [rsp+0x658],rbx
    5878:	00 
    5879:	48 89 bc 24 60 06 00 	mov    QWORD PTR [rsp+0x660],rdi
    5880:	00 
    5881:	4c 89 ac 24 68 06 00 	mov    QWORD PTR [rsp+0x668],r13
    5888:	00 
    5889:	ff d0                	call   rax
    588b:	48 8b 9c 24 58 06 00 	mov    rbx,QWORD PTR [rsp+0x658]
    5892:	00 
    5893:	4c 8b ac 24 68 06 00 	mov    r13,QWORD PTR [rsp+0x668]
    589a:	00 
    589b:	48 89 c6             	mov    rsi,rax
    589e:	48 89 b4 24 58 06 00 	mov    QWORD PTR [rsp+0x658],rsi
    58a5:	00 
    58a6:	49 8b b4 24 98 00 00 	mov    rsi,QWORD PTR [r12+0x98]
    58ad:	00 
    58ae:	48 8b 7b 08          	mov    rdi,QWORD PTR [rbx+0x8]
    58b2:	49 89 b4 24 98 00 00 	mov    QWORD PTR [r12+0x98],rsi
    58b9:	00 
    58ba:	4c 89 6e e0          	mov    QWORD PTR [rsi-0x20],r13
    58be:	4c 89 76 e8          	mov    QWORD PTR [rsi-0x18],r14
    58c2:	b8 01 00 00 00       	mov    eax,0x1
    58c7:	48 89 46 f0          	mov    QWORD PTR [rsi-0x10],rax
    58cb:	b8 01 00 00 00       	mov    eax,0x1
    58d0:	48 89 46 f8          	mov    QWORD PTR [rsi-0x8],rax
    58d4:	48 31 f6             	xor    rsi,rsi
    58d7:	48 b8 00 00 00 00 00 	movabs rax,0x0
    58de:	00 00 00 
			58d9: R_X86_64_64	do_callback
    58e1:	48 89 9c 24 60 06 00 	mov    QWORD PTR [rsp+0x660],rbx
    58e8:	00 
    58e9:	48 89 bc 24 68 06 00 	mov    QWORD PTR [rsp+0x668],rdi
    58f0:	00 
    58f1:	4c 89 ac 24 70 06 00 	mov    QWORD PTR [rsp+0x670],r13
    58f8:	00 
    58f9:	ff d0                	call   rax
    58fb:	48 8b 9c 24 60 06 00 	mov    rbx,QWORD PTR [rsp+0x660]
    5902:	00 
    5903:	4c 8b ac 24 70 06 00 	mov    r13,QWORD PTR [rsp+0x670]
    590a:	00 
    590b:	48 89 c6             	mov    rsi,rax
    590e:	48 89 b4 24 60 06 00 	mov    QWORD PTR [rsp+0x660],rsi
    5915:	00 
    5916:	49 8b b4 24 98 00 00 	mov    rsi,QWORD PTR [r12+0x98]
    591d:	00 
    591e:	48 8b 7b 08          	mov    rdi,QWORD PTR [rbx+0x8]
    5922:	49 89 b4 24 98 00 00 	mov    QWORD PTR [r12+0x98],rsi
    5929:	00 
    592a:	4c 89 6e e0          	mov    QWORD PTR [rsi-0x20],r13
    592e:	4c 89 76 e8          	mov    QWORD PTR [rsi-0x18],r14
    5932:	b8 01 00 00 00       	mov    eax,0x1
    5937:	48 89 46 f0          	mov    QWORD PTR [rsi-0x10],rax
    593b:	b8 01 00 00 00       	mov    eax,0x1
    5940:	48 89 46 f8          	mov    QWORD PTR [rsi-0x8],rax
    5944:	48 31 f6             	xor    rsi,rsi
    5947:	48 b8 00 00 00 00 00 	movabs rax,0x0
    594e:	00 00 00 
			5949: R_X86_64_64	do_callback
    5951:	48 89 9c 24 68 06 00 	mov    QWORD PTR [rsp+0x668],rbx
    5958:	00 
    5959:	48 89 bc 24 70 06 00 	mov    QWORD PTR [rsp+0x670],rdi
    5960:	00 
    5961:	4c 89 ac 24 78 06 00 	mov    QWORD PTR [rsp+0x678],r13
    5968:	00 
    5969:	ff d0                	call   rax
    596b:	48 8b 9c 24 68 06 00 	mov    rbx,QWORD PTR [rsp+0x668]
    5972:	00 
    5973:	4c 8b ac 24 78 06 00 	mov    r13,QWORD PTR [rsp+0x678]
    597a:	00 
    597b:	48 89 c6             	mov    rsi,rax
    597e:	48 89 b4 24 68 06 00 	mov    QWORD PTR [rsp+0x668],rsi
    5985:	00 
    5986:	49 8b b4 24 98 00 00 	mov    rsi,QWORD PTR [r12+0x98]
    598d:	00 
    598e:	48 8b 7b 08          	mov    rdi,QWORD PTR [rbx+0x8]
    5992:	49 89 b4 24 98 00 00 	mov    QWORD PTR [r12+0x98],rsi
    5999:	00 
    599a:	4c 89 6e e0          	mov    QWORD PTR [rsi-0x20],r13
    599e:	4c 89 76 e8          	mov    QWORD PTR [rsi-0x18],r14
    59a2:	b8 01 00 00 00       	mov    eax,0x1
    59a7:	48 89 46 f0          	mov    QWORD PTR [rsi-0x10],rax
    59ab:	b8 01 00 00 00       	mov    eax,0x1
    59b0:	48 89 46 f8          	mov    QWORD PTR [rsi-0x8],rax
    59b4:	48 31 f6             	xor    rsi,rsi
    59b7:	48 b8 00 00 00 00 00 	movabs rax,0x0
    59be:	00 00 00 
			59b9: R_X86_64_64	do_callback
    59c1:	48 89 9c 24 70 06 00 	mov    QWORD PTR [rsp+0x670],rbx
    59c8:	00 
    59c9:	48 89 bc 24 78 06 00 	mov    QWORD PTR [rsp+0x678],rdi
    59d0:	00 
    59d1:	4c 89 ac 24 80 06 00 	mov    QWORD PTR [rsp+0x680],r13
    59d8:	00 
    59d9:	ff d0                	call   rax
    59db:	48 8b 9c 24 70 06 00 	mov    rbx,QWORD PTR [rsp+0x670]
    59e2:	00 
    59e3:	4c 8b ac 24 80 06 00 	mov    r13,QWORD PTR [rsp+0x680]
    59ea:	00 
    59eb:	48 89 c6             	mov    rsi,rax
    59ee:	48 89 b4 24 70 06 00 	mov    QWORD PTR [rsp+0x670],rsi
    59f5:	00 
    59f6:	49 8b b4 24 98 00 00 	mov    rsi,QWORD PTR [r12+0x98]
    59fd:	00 
    59fe:	48 8b 7b 08          	mov    rdi,QWORD PTR [rbx+0x8]
    5a02:	49 89 b4 24 98 00 00 	mov    QWORD PTR [r12+0x98],rsi
    5a09:	00 
    5a0a:	4c 89 6e e0          	mov    QWORD PTR [rsi-0x20],r13
    5a0e:	4c 89 76 e8          	mov    QWORD PTR [rsi-0x18],r14
    5a12:	b8 01 00 00 00       	mov    eax,0x1
    5a17:	48 89 46 f0          	mov    QWORD PTR [rsi-0x10],rax
    5a1b:	b8 01 00 00 00       	mov    eax,0x1
    5a20:	48 89 46 f8          	mov    QWORD PTR [rsi-0x8],rax
    5a24:	48 31 f6             	xor    rsi,rsi
    5a27:	48 b8 00 00 00 00 00 	movabs rax,0x0
    5a2e:	00 00 00 
			5a29: R_X86_64_64	do_callback
    5a31:	48 89 9c 24 78 06 00 	mov    QWORD PTR [rsp+0x678],rbx
    5a38:	00 
    5a39:	48 89 bc 24 80 06 00 	mov    QWORD PTR [rsp+0x680],rdi
    5a40:	00 
    5a41:	4c 89 ac 24 88 06 00 	mov    QWORD PTR [rsp+0x688],r13
    5a48:	00 
    5a49:	ff d0                	call   rax
    5a4b:	48 8b 9c 24 78 06 00 	mov    rbx,QWORD PTR [rsp+0x678]
    5a52:	00 
    5a53:	4c 8b ac 24 88 06 00 	mov    r13,QWORD PTR [rsp+0x688]
    5a5a:	00 
    5a5b:	48 89 c6             	mov    rsi,rax
    5a5e:	48 89 b4 24 78 06 00 	mov    QWORD PTR [rsp+0x678],rsi
    5a65:	00 
    5a66:	49 8b b4 24 98 00 00 	mov    rsi,QWORD PTR [r12+0x98]
    5a6d:	00 
    5a6e:	48 8b 7b 08          	mov    rdi,QWORD PTR [rbx+0x8]
    5a72:	49 89 b4 24 98 00 00 	mov    QWORD PTR [r12+0x98],rsi
    5a79:	00 
    5a7a:	4c 89 6e e0          	mov    QWORD PTR [rsi-0x20],r13
    5a7e:	4c 89 76 e8          	mov    QWORD PTR [rsi-0x18],r14
    5a82:	b8 01 00 00 00       	mov    eax,0x1
    5a87:	48 89 46 f0          	mov    QWORD PTR [rsi-0x10],rax
    5a8b:	b8 01 00 00 00       	mov    eax,0x1
    5a90:	48 89 46 f8          	mov    QWORD PTR [rsi-0x8],rax
    5a94:	48 31 f6             	xor    rsi,rsi
    5a97:	48 b8 00 00 00 00 00 	movabs rax,0x0
    5a9e:	00 00 00 
			5a99: R_X86_64_64	do_callback
    5aa1:	48 89 9c 24 80 06 00 	mov    QWORD PTR [rsp+0x680],rbx
    5aa8:	00 
    5aa9:	48 89 bc 24 88 06 00 	mov    QWORD PTR [rsp+0x688],rdi
    5ab0:	00 
    5ab1:	4c 89 ac 24 90 06 00 	mov    QWORD PTR [rsp+0x690],r13
    5ab8:	00 
    5ab9:	ff d0                	call   rax
    5abb:	48 8b 9c 24 80 06 00 	mov    rbx,QWORD PTR [rsp+0x680]
    5ac2:	00 
    5ac3:	4c 8b ac 24 90 06 00 	mov    r13,QWORD PTR [rsp+0x690]
    5aca:	00 
    5acb:	48 89 c6             	mov    rsi,rax
    5ace:	48 89 b4 24 80 06 00 	mov    QWORD PTR [rsp+0x680],rsi
    5ad5:	00 
    5ad6:	49 8b b4 24 98 00 00 	mov    rsi,QWORD PTR [r12+0x98]
    5add:	00 
    5ade:	48 8b 7b 08          	mov    rdi,QWORD PTR [rbx+0x8]
    5ae2:	49 89 b4 24 98 00 00 	mov    QWORD PTR [r12+0x98],rsi
    5ae9:	00 
    5aea:	4c 89 6e e0          	mov    QWORD PTR [rsi-0x20],r13
    5aee:	4c 89 76 e8          	mov    QWORD PTR [rsi-0x18],r14
    5af2:	b8 01 00 00 00       	mov    eax,0x1
    5af7:	48 89 46 f0          	mov    QWORD PTR [rsi-0x10],rax
    5afb:	b8 01 00 00 00       	mov    eax,0x1
    5b00:	48 89 46 f8          	mov    QWORD PTR [rsi-0x8],rax
    5b04:	48 31 f6             	xor    rsi,rsi
    5b07:	48 b8 00 00 00 00 00 	movabs rax,0x0
    5b0e:	00 00 00 
			5b09: R_X86_64_64	do_callback
    5b11:	48 89 9c 24 88 06 00 	mov    QWORD PTR [rsp+0x688],rbx
    5b18:	00 
    5b19:	48 89 bc 24 90 06 00 	mov    QWORD PTR [rsp+0x690],rdi
    5b20:	00 
    5b21:	4c 89 ac 24 98 06 00 	mov    QWORD PTR [rsp+0x698],r13
    5b28:	00 
    5b29:	ff d0                	call   rax
    5b2b:	48 8b 9c 24 88 06 00 	mov    rbx,QWORD PTR [rsp+0x688]
    5b32:	00 
    5b33:	4c 8b ac 24 98 06 00 	mov    r13,QWORD PTR [rsp+0x698]
    5b3a:	00 
    5b3b:	48 89 c6             	mov    rsi,rax
    5b3e:	48 89 b4 24 88 06 00 	mov    QWORD PTR [rsp+0x688],rsi
    5b45:	00 
    5b46:	49 8b b4 24 98 00 00 	mov    rsi,QWORD PTR [r12+0x98]
    5b4d:	00 
    5b4e:	48 8b 7b 08          	mov    rdi,QWORD PTR [rbx+0x8]
    5b52:	49 89 b4 24 98 00 00 	mov    QWORD PTR [r12+0x98],rsi
    5b59:	00 
    5b5a:	4c 89 6e e0          	mov    QWORD PTR [rsi-0x20],r13
    5b5e:	4c 89 76 e8          	mov    QWORD PTR [rsi-0x18],r14
    5b62:	b8 01 00 00 00       	mov    eax,0x1
    5b67:	48 89 46 f0          	mov    QWORD PTR [rsi-0x10],rax
    5b6b:	b8 01 00 00 00       	mov    eax,0x1
    5b70:	48 89 46 f8          	mov    QWORD PTR [rsi-0x8],rax
    5b74:	48 31 f6             	xor    rsi,rsi
    5b77:	48 b8 00 00 00 00 00 	movabs rax,0x0
    5b7e:	00 00 00 
			5b79: R_X86_64_64	do_callback
    5b81:	48 89 9c 24 90 06 00 	mov    QWORD PTR [rsp+0x690],rbx
    5b88:	00 
    5b89:	48 89 bc 24 98 06 00 	mov    QWORD PTR [rsp+0x698],rdi
    5b90:	00 
    5b91:	4c 89 ac 24 a0 06 00 	mov    QWORD PTR [rsp+0x6a0],r13
    5b98:	00 
    5b99:	ff d0                	call   rax
    5b9b:	48 8b 9c 24 90 06 00 	mov    rbx,QWORD PTR [rsp+0x690]
    5ba2:	00 
    5ba3:	4c 8b ac 24 a0 06 00 	mov    r13,QWORD PTR [rsp+0x6a0]
    5baa:	00 
    5bab:	48 89 c6             	mov    rsi,rax
    5bae:	48 89 b4 24 90 06 00 	mov    QWORD PTR [rsp+0x690],rsi
    5bb5:	00 
    5bb6:	49 8b b4 24 98 00 00 	mov    rsi,QWORD PTR [r12+0x98]
    5bbd:	00 
    5bbe:	48 8b 7b 08          	mov    rdi,QWORD PTR [rbx+0x8]
    5bc2:	49 89 b4 24 98 00 00 	mov    QWORD PTR [r12+0x98],rsi
    5bc9:	00 
    5bca:	4c 89 6e e0          	mov    QWORD PTR [rsi-0x20],r13
    5bce:	4c 89 76 e8          	mov    QWORD PTR [rsi-0x18],r14
    5bd2:	b8 01 00 00 00       	mov    eax,0x1
    5bd7:	48 89 46 f0          	mov    QWORD PTR [rsi-0x10],rax
    5bdb:	b8 01 00 00 00       	mov    eax,0x1
    5be0:	48 89 46 f8          	mov    QWORD PTR [rsi-0x8],rax
    5be4:	48 31 f6             	xor    rsi,rsi
    5be7:	48 b8 00 00 00 00 00 	movabs rax,0x0
    5bee:	00 00 00 
			5be9: R_X86_64_64	do_callback
    5bf1:	48 89 9c 24 98 06 00 	mov    QWORD PTR [rsp+0x698],rbx
    5bf8:	00 
    5bf9:	48 89 bc 24 a0 06 00 	mov    QWORD PTR [rsp+0x6a0],rdi
    5c00:	00 
    5c01:	4c 89 ac 24 a8 06 00 	mov    QWORD PTR [rsp+0x6a8],r13
    5c08:	00 
    5c09:	ff d0                	call   rax
    5c0b:	48 8b 9c 24 98 06 00 	mov    rbx,QWORD PTR [rsp+0x698]
    5c12:	00 
    5c13:	4c 8b ac 24 a8 06 00 	mov    r13,QWORD PTR [rsp+0x6a8]
    5c1a:	00 
    5c1b:	48 89 c6             	mov    rsi,rax
    5c1e:	48 89 b4 24 98 06 00 	mov    QWORD PTR [rsp+0x698],rsi
    5c25:	00 
    5c26:	49 8b b4 24 98 00 00 	mov    rsi,QWORD PTR [r12+0x98]
    5c2d:	00 
    5c2e:	48 8b 7b 08          	mov    rdi,QWORD PTR [rbx+0x8]
    5c32:	49 89 b4 24 98 00 00 	mov    QWORD PTR [r12+0x98],rsi
    5c39:	00 
    5c3a:	4c 89 6e e0          	mov    QWORD PTR [rsi-0x20],r13
    5c3e:	4c 89 76 e8          	mov    QWORD PTR [rsi-0x18],r14
    5c42:	b8 01 00 00 00       	mov    eax,0x1
    5c47:	48 89 46 f0          	mov    QWORD PTR [rsi-0x10],rax
    5c4b:	b8 01 00 00 00       	mov    eax,0x1
    5c50:	48 89 46 f8          	mov    QWORD PTR [rsi-0x8],rax
    5c54:	48 31 f6             	xor    rsi,rsi
    5c57:	48 b8 00 00 00 00 00 	movabs rax,0x0
    5c5e:	00 00 00 
			5c59: R_X86_64_64	do_callback
    5c61:	48 89 9c 24 a0 06 00 	mov    QWORD PTR [rsp+0x6a0],rbx
    5c68:	00 
    5c69:	48 89 bc 24 a8 06 00 	mov    QWORD PTR [rsp+0x6a8],rdi
    5c70:	00 
    5c71:	4c 89 ac 24 b0 06 00 	mov    QWORD PTR [rsp+0x6b0],r13
    5c78:	00 
    5c79:	ff d0                	call   rax
    5c7b:	48 8b 9c 24 a0 06 00 	mov    rbx,QWORD PTR [rsp+0x6a0]
    5c82:	00 
    5c83:	4c 8b ac 24 b0 06 00 	mov    r13,QWORD PTR [rsp+0x6b0]
    5c8a:	00 
    5c8b:	48 89 c6             	mov    rsi,rax
    5c8e:	48 89 b4 24 a0 06 00 	mov    QWORD PTR [rsp+0x6a0],rsi
    5c95:	00 
    5c96:	49 8b b4 24 98 00 00 	mov    rsi,QWORD PTR [r12+0x98]
    5c9d:	00 
    5c9e:	48 8b 7b 08          	mov    rdi,QWORD PTR [rbx+0x8]
    5ca2:	49 89 b4 24 98 00 00 	mov    QWORD PTR [r12+0x98],rsi
    5ca9:	00 
    5caa:	4c 89 6e e0          	mov    QWORD PTR [rsi-0x20],r13
    5cae:	4c 89 76 e8          	mov    QWORD PTR [rsi-0x18],r14
    5cb2:	b8 01 00 00 00       	mov    eax,0x1
    5cb7:	48 89 46 f0          	mov    QWORD PTR [rsi-0x10],rax
    5cbb:	b8 01 00 00 00       	mov    eax,0x1
    5cc0:	48 89 46 f8          	mov    QWORD PTR [rsi-0x8],rax
    5cc4:	48 31 f6             	xor    rsi,rsi
    5cc7:	48 b8 00 00 00 00 00 	movabs rax,0x0
    5cce:	00 00 00 
			5cc9: R_X86_64_64	do_callback
    5cd1:	48 89 9c 24 a8 06 00 	mov    QWORD PTR [rsp+0x6a8],rbx
    5cd8:	00 
    5cd9:	48 89 bc 24 b0 06 00 	mov    QWORD PTR [rsp+0x6b0],rdi
    5ce0:	00 
    5ce1:	4c 89 ac 24 b8 06 00 	mov    QWORD PTR [rsp+0x6b8],r13
    5ce8:	00 
    5ce9:	ff d0                	call   rax
    5ceb:	48 8b 9c 24 a8 06 00 	mov    rbx,QWORD PTR [rsp+0x6a8]
    5cf2:	00 
    5cf3:	4c 8b ac 24 b8 06 00 	mov    r13,QWORD PTR [rsp+0x6b8]
    5cfa:	00 
    5cfb:	48 89 c6             	mov    rsi,rax
    5cfe:	48 89 b4 24 a8 06 00 	mov    QWORD PTR [rsp+0x6a8],rsi
    5d05:	00 
    5d06:	49 8b b4 24 98 00 00 	mov    rsi,QWORD PTR [r12+0x98]
    5d0d:	00 
    5d0e:	48 8b 7b 08          	mov    rdi,QWORD PTR [rbx+0x8]
    5d12:	49 89 b4 24 98 00 00 	mov    QWORD PTR [r12+0x98],rsi
    5d19:	00 
    5d1a:	4c 89 6e e0          	mov    QWORD PTR [rsi-0x20],r13
    5d1e:	4c 89 76 e8          	mov    QWORD PTR [rsi-0x18],r14
    5d22:	b8 01 00 00 00       	mov    eax,0x1
    5d27:	48 89 46 f0          	mov    QWORD PTR [rsi-0x10],rax
    5d2b:	b8 01 00 00 00       	mov    eax,0x1
    5d30:	48 89 46 f8          	mov    QWORD PTR [rsi-0x8],rax
    5d34:	48 31 f6             	xor    rsi,rsi
    5d37:	48 b8 00 00 00 00 00 	movabs rax,0x0
    5d3e:	00 00 00 
			5d39: R_X86_64_64	do_callback
    5d41:	48 89 9c 24 b0 06 00 	mov    QWORD PTR [rsp+0x6b0],rbx
    5d48:	00 
    5d49:	48 89 bc 24 b8 06 00 	mov    QWORD PTR [rsp+0x6b8],rdi
    5d50:	00 
    5d51:	4c 89 ac 24 c0 06 00 	mov    QWORD PTR [rsp+0x6c0],r13
    5d58:	00 
    5d59:	ff d0                	call   rax
    5d5b:	48 8b 9c 24 b0 06 00 	mov    rbx,QWORD PTR [rsp+0x6b0]
    5d62:	00 
    5d63:	4c 8b ac 24 c0 06 00 	mov    r13,QWORD PTR [rsp+0x6c0]
    5d6a:	00 
    5d6b:	48 89 c6             	mov    rsi,rax
    5d6e:	48 89 b4 24 b0 06 00 	mov    QWORD PTR [rsp+0x6b0],rsi
    5d75:	00 
    5d76:	49 8b b4 24 98 00 00 	mov    rsi,QWORD PTR [r12+0x98]
    5d7d:	00 
    5d7e:	48 8b 7b 08          	mov    rdi,QWORD PTR [rbx+0x8]
    5d82:	49 89 b4 24 98 00 00 	mov    QWORD PTR [r12+0x98],rsi
    5d89:	00 
    5d8a:	4c 89 6e e0          	mov    QWORD PTR [rsi-0x20],r13
    5d8e:	4c 89 76 e8          	mov    QWORD PTR [rsi-0x18],r14
    5d92:	b8 01 00 00 00       	mov    eax,0x1
    5d97:	48 89 46 f0          	mov    QWORD PTR [rsi-0x10],rax
    5d9b:	b8 01 00 00 00       	mov    eax,0x1
    5da0:	48 89 46 f8          	mov    QWORD PTR [rsi-0x8],rax
    5da4:	48 31 f6             	xor    rsi,rsi
    5da7:	48 b8 00 00 00 00 00 	movabs rax,0x0
    5dae:	00 00 00 
			5da9: R_X86_64_64	do_callback
    5db1:	48 89 9c 24 b8 06 00 	mov    QWORD PTR [rsp+0x6b8],rbx
    5db8:	00 
    5db9:	48 89 bc 24 c0 06 00 	mov    QWORD PTR [rsp+0x6c0],rdi
    5dc0:	00 
    5dc1:	4c 89 ac 24 c8 06 00 	mov    QWORD PTR [rsp+0x6c8],r13
    5dc8:	00 
    5dc9:	ff d0                	call   rax
    5dcb:	48 8b 9c 24 b8 06 00 	mov    rbx,QWORD PTR [rsp+0x6b8]
    5dd2:	00 
    5dd3:	4c 8b ac 24 c8 06 00 	mov    r13,QWORD PTR [rsp+0x6c8]
    5dda:	00 
    5ddb:	48 89 c6             	mov    rsi,rax
    5dde:	48 89 b4 24 b8 06 00 	mov    QWORD PTR [rsp+0x6b8],rsi
    5de5:	00 
    5de6:	49 8b b4 24 98 00 00 	mov    rsi,QWORD PTR [r12+0x98]
    5ded:	00 
    5dee:	48 8b 7b 08          	mov    rdi,QWORD PTR [rbx+0x8]
    5df2:	49 89 b4 24 98 00 00 	mov    QWORD PTR [r12+0x98],rsi
    5df9:	00 
    5dfa:	4c 89 6e e0          	mov    QWORD PTR [rsi-0x20],r13
    5dfe:	4c 89 76 e8          	mov    QWORD PTR [rsi-0x18],r14
    5e02:	b8 01 00 00 00       	mov    eax,0x1
    5e07:	48 89 46 f0          	mov    QWORD PTR [rsi-0x10],rax
    5e0b:	b8 01 00 00 00       	mov    eax,0x1
    5e10:	48 89 46 f8          	mov    QWORD PTR [rsi-0x8],rax
    5e14:	48 31 f6             	xor    rsi,rsi
    5e17:	48 b8 00 00 00 00 00 	movabs rax,0x0
    5e1e:	00 00 00 
			5e19: R_X86_64_64	do_callback
    5e21:	48 89 9c 24 c0 06 00 	mov    QWORD PTR [rsp+0x6c0],rbx
    5e28:	00 
    5e29:	48 89 bc 24 c8 06 00 	mov    QWORD PTR [rsp+0x6c8],rdi
    5e30:	00 
    5e31:	4c 89 ac 24 d0 06 00 	mov    QWORD PTR [rsp+0x6d0],r13
    5e38:	00 
    5e39:	ff d0                	call   rax
    5e3b:	48 8b 9c 24 c0 06 00 	mov    rbx,QWORD PTR [rsp+0x6c0]
    5e42:	00 
    5e43:	4c 8b ac 24 d0 06 00 	mov    r13,QWORD PTR [rsp+0x6d0]
    5e4a:	00 
    5e4b:	48 89 c6             	mov    rsi,rax
    5e4e:	48 89 b4 24 c0 06 00 	mov    QWORD PTR [rsp+0x6c0],rsi
    5e55:	00 
    5e56:	49 8b b4 24 98 00 00 	mov    rsi,QWORD PTR [r12+0x98]
    5e5d:	00 
    5e5e:	48 8b 7b 08          	mov    rdi,QWORD PTR [rbx+0x8]
    5e62:	49 89 b4 24 98 00 00 	mov    QWORD PTR [r12+0x98],rsi
    5e69:	00 
    5e6a:	4c 89 6e e0          	mov    QWORD PTR [rsi-0x20],r13
    5e6e:	4c 89 76 e8          	mov    QWORD PTR [rsi-0x18],r14
    5e72:	b8 01 00 00 00       	mov    eax,0x1
    5e77:	48 89 46 f0          	mov    QWORD PTR [rsi-0x10],rax
    5e7b:	b8 01 00 00 00       	mov    eax,0x1
    5e80:	48 89 46 f8          	mov    QWORD PTR [rsi-0x8],rax
    5e84:	48 31 f6             	xor    rsi,rsi
    5e87:	48 b8 00 00 00 00 00 	movabs rax,0x0
    5e8e:	00 00 00 
			5e89: R_X86_64_64	do_callback
    5e91:	48 89 9c 24 c8 06 00 	mov    QWORD PTR [rsp+0x6c8],rbx
    5e98:	00 
    5e99:	48 89 bc 24 d0 06 00 	mov    QWORD PTR [rsp+0x6d0],rdi
    5ea0:	00 
    5ea1:	4c 89 ac 24 d8 06 00 	mov    QWORD PTR [rsp+0x6d8],r13
    5ea8:	00 
    5ea9:	ff d0                	call   rax
    5eab:	48 8b 9c 24 c8 06 00 	mov    rbx,QWORD PTR [rsp+0x6c8]
    5eb2:	00 
    5eb3:	4c 8b ac 24 d8 06 00 	mov    r13,QWORD PTR [rsp+0x6d8]
    5eba:	00 
    5ebb:	48 89 c6             	mov    rsi,rax
    5ebe:	48 89 b4 24 c8 06 00 	mov    QWORD PTR [rsp+0x6c8],rsi
    5ec5:	00 
    5ec6:	49 8b b4 24 98 00 00 	mov    rsi,QWORD PTR [r12+0x98]
    5ecd:	00 
    5ece:	48 8b 7b 08          	mov    rdi,QWORD PTR [rbx+0x8]
    5ed2:	49 89 b4 24 98 00 00 	mov    QWORD PTR [r12+0x98],rsi
    5ed9:	00 
    5eda:	4c 89 6e e0          	mov    QWORD PTR [rsi-0x20],r13
    5ede:	4c 89 76 e8          	mov    QWORD PTR [rsi-0x18],r14
    5ee2:	b8 01 00 00 00       	mov    eax,0x1
    5ee7:	48 89 46 f0          	mov    QWORD PTR [rsi-0x10],rax
    5eeb:	b8 01 00 00 00       	mov    eax,0x1
    5ef0:	48 89 46 f8          	mov    QWORD PTR [rsi-0x8],rax
    5ef4:	48 31 f6             	xor    rsi,rsi
    5ef7:	48 b8 00 00 00 00 00 	movabs rax,0x0
    5efe:	00 00 00 
			5ef9: R_X86_64_64	do_callback
    5f01:	48 89 9c 24 d0 06 00 	mov    QWORD PTR [rsp+0x6d0],rbx
    5f08:	00 
    5f09:	48 89 bc 24 d8 06 00 	mov    QWORD PTR [rsp+0x6d8],rdi
    5f10:	00 
    5f11:	4c 89 ac 24 e0 06 00 	mov    QWORD PTR [rsp+0x6e0],r13
    5f18:	00 
    5f19:	ff d0                	call   rax
    5f1b:	48 8b 9c 24 d0 06 00 	mov    rbx,QWORD PTR [rsp+0x6d0]
    5f22:	00 
    5f23:	4c 8b ac 24 e0 06 00 	mov    r13,QWORD PTR [rsp+0x6e0]
    5f2a:	00 
    5f2b:	48 89 c6             	mov    rsi,rax
    5f2e:	48 89 b4 24 d0 06 00 	mov    QWORD PTR [rsp+0x6d0],rsi
    5f35:	00 
    5f36:	49 8b b4 24 98 00 00 	mov    rsi,QWORD PTR [r12+0x98]
    5f3d:	00 
    5f3e:	48 8b 7b 08          	mov    rdi,QWORD PTR [rbx+0x8]
    5f42:	49 89 b4 24 98 00 00 	mov    QWORD PTR [r12+0x98],rsi
    5f49:	00 
    5f4a:	4c 89 6e e0          	mov    QWORD PTR [rsi-0x20],r13
    5f4e:	4c 89 76 e8          	mov    QWORD PTR [rsi-0x18],r14
    5f52:	b8 01 00 00 00       	mov    eax,0x1
    5f57:	48 89 46 f0          	mov    QWORD PTR [rsi-0x10],rax
    5f5b:	b8 01 00 00 00       	mov    eax,0x1
    5f60:	48 89 46 f8          	mov    QWORD PTR [rsi-0x8],rax
    5f64:	48 31 f6             	xor    rsi,rsi
    5f67:	48 b8 00 00 00 00 00 	movabs rax,0x0
    5f6e:	00 00 00 
			5f69: R_X86_64_64	do_callback
    5f71:	48 89 9c 24 d8 06 00 	mov    QWORD PTR [rsp+0x6d8],rbx
    5f78:	00 
    5f79:	48 89 bc 24 e0 06 00 	mov    QWORD PTR [rsp+0x6e0],rdi
    5f80:	00 
    5f81:	4c 89 ac 24 e8 06 00 	mov    QWORD PTR [rsp+0x6e8],r13
    5f88:	00 
    5f89:	ff d0                	call   rax
    5f8b:	48 8b 9c 24 d8 06 00 	mov    rbx,QWORD PTR [rsp+0x6d8]
    5f92:	00 
    5f93:	4c 8b ac 24 e8 06 00 	mov    r13,QWORD PTR [rsp+0x6e8]
    5f9a:	00 
    5f9b:	48 89 c6             	mov    rsi,rax
    5f9e:	48 89 b4 24 d8 06 00 	mov    QWORD PTR [rsp+0x6d8],rsi
    5fa5:	00 
    5fa6:	49 8b b4 24 98 00 00 	mov    rsi,QWORD PTR [r12+0x98]
    5fad:	00 
    5fae:	48 8b 7b 08          	mov    rdi,QWORD PTR [rbx+0x8]
    5fb2:	49 89 b4 24 98 00 00 	mov    QWORD PTR [r12+0x98],rsi
    5fb9:	00 
    5fba:	4c 89 6e e0          	mov    QWORD PTR [rsi-0x20],r13
    5fbe:	4c 89 76 e8          	mov    QWORD PTR [rsi-0x18],r14
    5fc2:	b8 01 00 00 00       	mov    eax,0x1
    5fc7:	48 89 46 f0          	mov    QWORD PTR [rsi-0x10],rax
    5fcb:	b8 01 00 00 00       	mov    eax,0x1
    5fd0:	48 89 46 f8          	mov    QWORD PTR [rsi-0x8],rax
    5fd4:	48 31 f6             	xor    rsi,rsi
    5fd7:	48 b8 00 00 00 00 00 	movabs rax,0x0
    5fde:	00 00 00 
			5fd9: R_X86_64_64	do_callback
    5fe1:	48 89 9c 24 e0 06 00 	mov    QWORD PTR [rsp+0x6e0],rbx
    5fe8:	00 
    5fe9:	48 89 bc 24 e8 06 00 	mov    QWORD PTR [rsp+0x6e8],rdi
    5ff0:	00 
    5ff1:	4c 89 ac 24 f0 06 00 	mov    QWORD PTR [rsp+0x6f0],r13
    5ff8:	00 
    5ff9:	ff d0                	call   rax
    5ffb:	48 8b 9c 24 e0 06 00 	mov    rbx,QWORD PTR [rsp+0x6e0]
    6002:	00 
    6003:	4c 8b ac 24 f0 06 00 	mov    r13,QWORD PTR [rsp+0x6f0]
    600a:	00 
    600b:	48 89 c6             	mov    rsi,rax
    600e:	48 89 b4 24 e0 06 00 	mov    QWORD PTR [rsp+0x6e0],rsi
    6015:	00 
    6016:	49 8b b4 24 98 00 00 	mov    rsi,QWORD PTR [r12+0x98]
    601d:	00 
    601e:	48 8b 7b 08          	mov    rdi,QWORD PTR [rbx+0x8]
    6022:	49 89 b4 24 98 00 00 	mov    QWORD PTR [r12+0x98],rsi
    6029:	00 
    602a:	4c 89 6e e0          	mov    QWORD PTR [rsi-0x20],r13
    602e:	4c 89 76 e8          	mov    QWORD PTR [rsi-0x18],r14
    6032:	b8 01 00 00 00       	mov    eax,0x1
    6037:	48 89 46 f0          	mov    QWORD PTR [rsi-0x10],rax
    603b:	b8 01 00 00 00       	mov    eax,0x1
    6040:	48 89 46 f8          	mov    QWORD PTR [rsi-0x8],rax
    6044:	48 31 f6             	xor    rsi,rsi
    6047:	48 b8 00 00 00 00 00 	movabs rax,0x0
    604e:	00 00 00 
			6049: R_X86_64_64	do_callback
    6051:	48 89 9c 24 e8 06 00 	mov    QWORD PTR [rsp+0x6e8],rbx
    6058:	00 
    6059:	48 89 bc 24 f0 06 00 	mov    QWORD PTR [rsp+0x6f0],rdi
    6060:	00 
    6061:	4c 89 ac 24 f8 06 00 	mov    QWORD PTR [rsp+0x6f8],r13
    6068:	00 
    6069:	ff d0                	call   rax
    606b:	48 8b 9c 24 e8 06 00 	mov    rbx,QWORD PTR [rsp+0x6e8]
    6072:	00 
    6073:	4c 8b ac 24 f8 06 00 	mov    r13,QWORD PTR [rsp+0x6f8]
    607a:	00 
    607b:	48 89 c6             	mov    rsi,rax
    607e:	48 89 b4 24 e8 06 00 	mov    QWORD PTR [rsp+0x6e8],rsi
    6085:	00 
    6086:	49 8b b4 24 98 00 00 	mov    rsi,QWORD PTR [r12+0x98]
    608d:	00 
    608e:	48 8b 7b 08          	mov    rdi,QWORD PTR [rbx+0x8]
    6092:	49 89 b4 24 98 00 00 	mov    QWORD PTR [r12+0x98],rsi
    6099:	00 
    609a:	4c 89 6e e0          	mov    QWORD PTR [rsi-0x20],r13
    609e:	4c 89 76 e8          	mov    QWORD PTR [rsi-0x18],r14
    60a2:	b8 01 00 00 00       	mov    eax,0x1
    60a7:	48 89 46 f0          	mov    QWORD PTR [rsi-0x10],rax
    60ab:	b8 01 00 00 00       	mov    eax,0x1
    60b0:	48 89 46 f8          	mov    QWORD PTR [rsi-0x8],rax
    60b4:	48 31 f6             	xor    rsi,rsi
    60b7:	48 b8 00 00 00 00 00 	movabs rax,0x0
    60be:	00 00 00 
			60b9: R_X86_64_64	do_callback
    60c1:	48 89 9c 24 f0 06 00 	mov    QWORD PTR [rsp+0x6f0],rbx
    60c8:	00 
    60c9:	48 89 bc 24 f8 06 00 	mov    QWORD PTR [rsp+0x6f8],rdi
    60d0:	00 
    60d1:	4c 89 ac 24 00 07 00 	mov    QWORD PTR [rsp+0x700],r13
    60d8:	00 
    60d9:	ff d0                	call   rax
    60db:	48 8b 9c 24 f0 06 00 	mov    rbx,QWORD PTR [rsp+0x6f0]
    60e2:	00 
    60e3:	4c 8b ac 24 00 07 00 	mov    r13,QWORD PTR [rsp+0x700]
    60ea:	00 
    60eb:	48 89 c6             	mov    rsi,rax
    60ee:	48 89 b4 24 f0 06 00 	mov    QWORD PTR [rsp+0x6f0],rsi
    60f5:	00 
    60f6:	49 8b b4 24 98 00 00 	mov    rsi,QWORD PTR [r12+0x98]
    60fd:	00 
    60fe:	48 8b 7b 08          	mov    rdi,QWORD PTR [rbx+0x8]
    6102:	49 89 b4 24 98 00 00 	mov    QWORD PTR [r12+0x98],rsi
    6109:	00 
    610a:	4c 89 6e e0          	mov    QWORD PTR [rsi-0x20],r13
    610e:	4c 89 76 e8          	mov    QWORD PTR [rsi-0x18],r14
    6112:	b8 01 00 00 00       	mov    eax,0x1
    6117:	48 89 46 f0          	mov    QWORD PTR [rsi-0x10],rax
    611b:	b8 01 00 00 00       	mov    eax,0x1
    6120:	48 89 46 f8          	mov    QWORD PTR [rsi-0x8],rax
    6124:	48 31 f6             	xor    rsi,rsi
    6127:	48 b8 00 00 00 00 00 	movabs rax,0x0
    612e:	00 00 00 
			6129: R_X86_64_64	do_callback
    6131:	48 89 9c 24 f8 06 00 	mov    QWORD PTR [rsp+0x6f8],rbx
    6138:	00 
    6139:	48 89 bc 24 00 07 00 	mov    QWORD PTR [rsp+0x700],rdi
    6140:	00 
    6141:	4c 89 ac 24 08 07 00 	mov    QWORD PTR [rsp+0x708],r13
    6148:	00 
    6149:	ff d0                	call   rax
    614b:	48 8b 9c 24 f8 06 00 	mov    rbx,QWORD PTR [rsp+0x6f8]
    6152:	00 
    6153:	4c 8b ac 24 08 07 00 	mov    r13,QWORD PTR [rsp+0x708]
    615a:	00 
    615b:	48 89 c6             	mov    rsi,rax
    615e:	48 89 b4 24 f8 06 00 	mov    QWORD PTR [rsp+0x6f8],rsi
    6165:	00 
    6166:	49 8b b4 24 98 00 00 	mov    rsi,QWORD PTR [r12+0x98]
    616d:	00 
    616e:	48 8b 7b 08          	mov    rdi,QWORD PTR [rbx+0x8]
    6172:	49 89 b4 24 98 00 00 	mov    QWORD PTR [r12+0x98],rsi
    6179:	00 
    617a:	4c 89 6e e0          	mov    QWORD PTR [rsi-0x20],r13
    617e:	4c 89 76 e8          	mov    QWORD PTR [rsi-0x18],r14
    6182:	b8 01 00 00 00       	mov    eax,0x1
    6187:	48 89 46 f0          	mov    QWORD PTR [rsi-0x10],rax
    618b:	b8 01 00 00 00       	mov    eax,0x1
    6190:	48 89 46 f8          	mov    QWORD PTR [rsi-0x8],rax
    6194:	48 31 f6             	xor    rsi,rsi
    6197:	48 b8 00 00 00 00 00 	movabs rax,0x0
    619e:	00 00 00 
			6199: R_X86_64_64	do_callback
    61a1:	48 89 9c 24 00 07 00 	mov    QWORD PTR [rsp+0x700],rbx
    61a8:	00 
    61a9:	48 89 bc 24 08 07 00 	mov    QWORD PTR [rsp+0x708],rdi
    61b0:	00 
    61b1:	4c 89 ac 24 10 07 00 	mov    QWORD PTR [rsp+0x710],r13
    61b8:	00 
    61b9:	ff d0                	call   rax
    61bb:	48 8b 9c 24 00 07 00 	mov    rbx,QWORD PTR [rsp+0x700]
    61c2:	00 
    61c3:	4c 8b ac 24 10 07 00 	mov    r13,QWORD PTR [rsp+0x710]
    61ca:	00 
    61cb:	48 89 c6             	mov    rsi,rax
    61ce:	48 89 b4 24 00 07 00 	mov    QWORD PTR [rsp+0x700],rsi
    61d5:	00 
    61d6:	49 8b b4 24 98 00 00 	mov    rsi,QWORD PTR [r12+0x98]
    61dd:	00 
    61de:	48 8b 7b 08          	mov    rdi,QWORD PTR [rbx+0x8]
    61e2:	49 89 b4 24 98 00 00 	mov    QWORD PTR [r12+0x98],rsi
    61e9:	00 
    61ea:	4c 89 6e e0          	mov    QWORD PTR [rsi-0x20],r13
    61ee:	4c 89 76 e8          	mov    QWORD PTR [rsi-0x18],r14
    61f2:	b8 01 00 00 00       	mov    eax,0x1
    61f7:	48 89 46 f0          	mov    QWORD PTR [rsi-0x10],rax
    61fb:	b8 01 00 00 00       	mov    eax,0x1
    6200:	48 89 46 f8          	mov    QWORD PTR [rsi-0x8],rax
    6204:	48 31 f6             	xor    rsi,rsi
    6207:	48 b8 00 00 00 00 00 	movabs rax,0x0
    620e:	00 00 00 
			6209: R_X86_64_64	do_callback
    6211:	48 89 9c 24 08 07 00 	mov    QWORD PTR [rsp+0x708],rbx
    6218:	00 
    6219:	48 89 bc 24 10 07 00 	mov    QWORD PTR [rsp+0x710],rdi
    6220:	00 
    6221:	4c 89 ac 24 18 07 00 	mov    QWORD PTR [rsp+0x718],r13
    6228:	00 
    6229:	ff d0                	call   rax
    622b:	48 8b 9c 24 08 07 00 	mov    rbx,QWORD PTR [rsp+0x708]
    6232:	00 
    6233:	4c 8b ac 24 18 07 00 	mov    r13,QWORD PTR [rsp+0x718]
    623a:	00 
    623b:	48 89 c6             	mov    rsi,rax
    623e:	48 89 b4 24 08 07 00 	mov    QWORD PTR [rsp+0x708],rsi
    6245:	00 
    6246:	49 8b b4 24 98 00 00 	mov    rsi,QWORD PTR [r12+0x98]
    624d:	00 
    624e:	48 8b 7b 08          	mov    rdi,QWORD PTR [rbx+0x8]
    6252:	49 89 b4 24 98 00 00 	mov    QWORD PTR [r12+0x98],rsi
    6259:	00 
    625a:	4c 89 6e e0          	mov    QWORD PTR [rsi-0x20],r13
    625e:	4c 89 76 e8          	mov    QWORD PTR [rsi-0x18],r14
    6262:	b8 01 00 00 00       	mov    eax,0x1
    6267:	48 89 46 f0          	mov    QWORD PTR [rsi-0x10],rax
    626b:	b8 01 00 00 00       	mov    eax,0x1
    6270:	48 89 46 f8          	mov    QWORD PTR [rsi-0x8],rax
    6274:	48 31 f6             	xor    rsi,rsi
    6277:	48 b8 00 00 00 00 00 	movabs rax,0x0
    627e:	00 00 00 
			6279: R_X86_64_64	do_callback
    6281:	48 89 9c 24 10 07 00 	mov    QWORD PTR [rsp+0x710],rbx
    6288:	00 
    6289:	48 89 bc 24 18 07 00 	mov    QWORD PTR [rsp+0x718],rdi
    6290:	00 
    6291:	4c 89 ac 24 20 07 00 	mov    QWORD PTR [rsp+0x720],r13
    6298:	00 
    6299:	ff d0                	call   rax
    629b:	48 8b 9c 24 10 07 00 	mov    rbx,QWORD PTR [rsp+0x710]
    62a2:	00 
    62a3:	4c 8b ac 24 20 07 00 	mov    r13,QWORD PTR [rsp+0x720]
    62aa:	00 
    62ab:	48 89 c6             	mov    rsi,rax
    62ae:	48 89 b4 24 10 07 00 	mov    QWORD PTR [rsp+0x710],rsi
    62b5:	00 
    62b6:	49 8b b4 24 98 00 00 	mov    rsi,QWORD PTR [r12+0x98]
    62bd:	00 
    62be:	48 8b 7b 08          	mov    rdi,QWORD PTR [rbx+0x8]
    62c2:	49 89 b4 24 98 00 00 	mov    QWORD PTR [r12+0x98],rsi
    62c9:	00 
    62ca:	4c 89 6e e0          	mov    QWORD PTR [rsi-0x20],r13
    62ce:	4c 89 76 e8          	mov    QWORD PTR [rsi-0x18],r14
    62d2:	b8 01 00 00 00       	mov    eax,0x1
    62d7:	48 89 46 f0          	mov    QWORD PTR [rsi-0x10],rax
    62db:	b8 01 00 00 00       	mov    eax,0x1
    62e0:	48 89 46 f8          	mov    QWORD PTR [rsi-0x8],rax
    62e4:	48 31 f6             	xor    rsi,rsi
    62e7:	48 b8 00 00 00 00 00 	movabs rax,0x0
    62ee:	00 00 00 
			62e9: R_X86_64_64	do_callback
    62f1:	48 89 9c 24 18 07 00 	mov    QWORD PTR [rsp+0x718],rbx
    62f8:	00 
    62f9:	48 89 bc 24 20 07 00 	mov    QWORD PTR [rsp+0x720],rdi
    6300:	00 
    6301:	4c 89 ac 24 28 07 00 	mov    QWORD PTR [rsp+0x728],r13
    6308:	00 
    6309:	ff d0                	call   rax
    630b:	48 8b 9c 24 18 07 00 	mov    rbx,QWORD PTR [rsp+0x718]
    6312:	00 
    6313:	4c 8b ac 24 28 07 00 	mov    r13,QWORD PTR [rsp+0x728]
    631a:	00 
    631b:	48 89 c6             	mov    rsi,rax
    631e:	48 89 b4 24 18 07 00 	mov    QWORD PTR [rsp+0x718],rsi
    6325:	00 
    6326:	49 8b b4 24 98 00 00 	mov    rsi,QWORD PTR [r12+0x98]
    632d:	00 
    632e:	48 8b 7b 08          	mov    rdi,QWORD PTR [rbx+0x8]
    6332:	49 89 b4 24 98 00 00 	mov    QWORD PTR [r12+0x98],rsi
    6339:	00 
    633a:	4c 89 6e e0          	mov    QWORD PTR [rsi-0x20],r13
    633e:	4c 89 76 e8          	mov    QWORD PTR [rsi-0x18],r14
    6342:	b8 01 00 00 00       	mov    eax,0x1
    6347:	48 89 46 f0          	mov    QWORD PTR [rsi-0x10],rax
    634b:	b8 01 00 00 00       	mov    eax,0x1
    6350:	48 89 46 f8          	mov    QWORD PTR [rsi-0x8],rax
    6354:	48 31 f6             	xor    rsi,rsi
    6357:	48 b8 00 00 00 00 00 	movabs rax,0x0
    635e:	00 00 00 
			6359: R_X86_64_64	do_callback
    6361:	48 89 9c 24 20 07 00 	mov    QWORD PTR [rsp+0x720],rbx
    6368:	00 
    6369:	48 89 bc 24 28 07 00 	mov    QWORD PTR [rsp+0x728],rdi
    6370:	00 
    6371:	4c 89 ac 24 30 07 00 	mov    QWORD PTR [rsp+0x730],r13
    6378:	00 
    6379:	ff d0                	call   rax
    637b:	48 8b 9c 24 20 07 00 	mov    rbx,QWORD PTR [rsp+0x720]
    6382:	00 
    6383:	4c 8b ac 24 30 07 00 	mov    r13,QWORD PTR [rsp+0x730]
    638a:	00 
    638b:	48 89 c6             	mov    rsi,rax
    638e:	48 89 b4 24 20 07 00 	mov    QWORD PTR [rsp+0x720],rsi
    6395:	00 
    6396:	49 8b b4 24 98 00 00 	mov    rsi,QWORD PTR [r12+0x98]
    639d:	00 
    639e:	48 8b 7b 08          	mov    rdi,QWORD PTR [rbx+0x8]
    63a2:	49 89 b4 24 98 00 00 	mov    QWORD PTR [r12+0x98],rsi
    63a9:	00 
    63aa:	4c 89 6e e0          	mov    QWORD PTR [rsi-0x20],r13
    63ae:	4c 89 76 e8          	mov    QWORD PTR [rsi-0x18],r14
    63b2:	b8 01 00 00 00       	mov    eax,0x1
    63b7:	48 89 46 f0          	mov    QWORD PTR [rsi-0x10],rax
    63bb:	b8 01 00 00 00       	mov    eax,0x1
    63c0:	48 89 46 f8          	mov    QWORD PTR [rsi-0x8],rax
    63c4:	48 31 f6             	xor    rsi,rsi
    63c7:	48 b8 00 00 00 00 00 	movabs rax,0x0
    63ce:	00 00 00 
			63c9: R_X86_64_64	do_callback
    63d1:	48 89 9c 24 28 07 00 	mov    QWORD PTR [rsp+0x728],rbx
    63d8:	00 
    63d9:	48 89 bc 24 30 07 00 	mov    QWORD PTR [rsp+0x730],rdi
    63e0:	00 
    63e1:	4c 89 ac 24 38 07 00 	mov    QWORD PTR [rsp+0x738],r13
    63e8:	00 
    63e9:	ff d0                	call   rax
    63eb:	48 8b 9c 24 28 07 00 	mov    rbx,QWORD PTR [rsp+0x728]
    63f2:	00 
    63f3:	4c 8b ac 24 38 07 00 	mov    r13,QWORD PTR [rsp+0x738]
    63fa:	00 
    63fb:	48 89 c6             	mov    rsi,rax
    63fe:	48 89 b4 24 28 07 00 	mov    QWORD PTR [rsp+0x728],rsi
    6405:	00 
    6406:	49 8b b4 24 98 00 00 	mov    rsi,QWORD PTR [r12+0x98]
    640d:	00 
    640e:	48 8b 7b 08          	mov    rdi,QWORD PTR [rbx+0x8]
    6412:	49 89 b4 24 98 00 00 	mov    QWORD PTR [r12+0x98],rsi
    6419:	00 
    641a:	4c 89 6e e0          	mov    QWORD PTR [rsi-0x20],r13
    641e:	4c 89 76 e8          	mov    QWORD PTR [rsi-0x18],r14
    6422:	b8 01 00 00 00       	mov    eax,0x1
    6427:	48 89 46 f0          	mov    QWORD PTR [rsi-0x10],rax
    642b:	b8 01 00 00 00       	mov    eax,0x1
    6430:	48 89 46 f8          	mov    QWORD PTR [rsi-0x8],rax
    6434:	48 31 f6             	xor    rsi,rsi
    6437:	48 b8 00 00 00 00 00 	movabs rax,0x0
    643e:	00 00 00 
			6439: R_X86_64_64	do_callback
    6441:	48 89 9c 24 30 07 00 	mov    QWORD PTR [rsp+0x730],rbx
    6448:	00 
    6449:	48 89 bc 24 38 07 00 	mov    QWORD PTR [rsp+0x738],rdi
    6450:	00 
    6451:	4c 89 ac 24 40 07 00 	mov    QWORD PTR [rsp+0x740],r13
    6458:	00 
    6459:	ff d0                	call   rax
    645b:	48 8b 9c 24 30 07 00 	mov    rbx,QWORD PTR [rsp+0x730]
    6462:	00 
    6463:	4c 8b ac 24 40 07 00 	mov    r13,QWORD PTR [rsp+0x740]
    646a:	00 
    646b:	48 89 c6             	mov    rsi,rax
    646e:	48 89 b4 24 30 07 00 	mov    QWORD PTR [rsp+0x730],rsi
    6475:	00 
    6476:	49 8b b4 24 98 00 00 	mov    rsi,QWORD PTR [r12+0x98]
    647d:	00 
    647e:	48 8b 7b 08          	mov    rdi,QWORD PTR [rbx+0x8]
    6482:	49 89 b4 24 98 00 00 	mov    QWORD PTR [r12+0x98],rsi
    6489:	00 
    648a:	4c 89 6e e0          	mov    QWORD PTR [rsi-0x20],r13
    648e:	4c 89 76 e8          	mov    QWORD PTR [rsi-0x18],r14
    6492:	b8 01 00 00 00       	mov    eax,0x1
    6497:	48 89 46 f0          	mov    QWORD PTR [rsi-0x10],rax
    649b:	b8 01 00 00 00       	mov    eax,0x1
    64a0:	48 89 46 f8          	mov    QWORD PTR [rsi-0x8],rax
    64a4:	48 31 f6             	xor    rsi,rsi
    64a7:	48 b8 00 00 00 00 00 	movabs rax,0x0
    64ae:	00 00 00 
			64a9: R_X86_64_64	do_callback
    64b1:	48 89 9c 24 38 07 00 	mov    QWORD PTR [rsp+0x738],rbx
    64b8:	00 
    64b9:	48 89 bc 24 40 07 00 	mov    QWORD PTR [rsp+0x740],rdi
    64c0:	00 
    64c1:	4c 89 ac 24 48 07 00 	mov    QWORD PTR [rsp+0x748],r13
    64c8:	00 
    64c9:	ff d0                	call   rax
    64cb:	48 8b 9c 24 38 07 00 	mov    rbx,QWORD PTR [rsp+0x738]
    64d2:	00 
    64d3:	4c 8b ac 24 48 07 00 	mov    r13,QWORD PTR [rsp+0x748]
    64da:	00 
    64db:	48 89 c6             	mov    rsi,rax
    64de:	48 89 b4 24 38 07 00 	mov    QWORD PTR [rsp+0x738],rsi
    64e5:	00 
    64e6:	49 8b b4 24 98 00 00 	mov    rsi,QWORD PTR [r12+0x98]
    64ed:	00 
    64ee:	48 8b 7b 08          	mov    rdi,QWORD PTR [rbx+0x8]
    64f2:	49 89 b4 24 98 00 00 	mov    QWORD PTR [r12+0x98],rsi
    64f9:	00 
    64fa:	4c 89 6e e0          	mov    QWORD PTR [rsi-0x20],r13
    64fe:	4c 89 76 e8          	mov    QWORD PTR [rsi-0x18],r14
    6502:	b8 01 00 00 00       	mov    eax,0x1
    6507:	48 89 46 f0          	mov    QWORD PTR [rsi-0x10],rax
    650b:	b8 01 00 00 00       	mov    eax,0x1
    6510:	48 89 46 f8          	mov    QWORD PTR [rsi-0x8],rax
    6514:	48 31 f6             	xor    rsi,rsi
    6517:	48 b8 00 00 00 00 00 	movabs rax,0x0
    651e:	00 00 00 
			6519: R_X86_64_64	do_callback
    6521:	48 89 9c 24 40 07 00 	mov    QWORD PTR [rsp+0x740],rbx
    6528:	00 
    6529:	48 89 bc 24 48 07 00 	mov    QWORD PTR [rsp+0x748],rdi
    6530:	00 
    6531:	4c 89 ac 24 50 07 00 	mov    QWORD PTR [rsp+0x750],r13
    6538:	00 
    6539:	ff d0                	call   rax
    653b:	48 8b 9c 24 40 07 00 	mov    rbx,QWORD PTR [rsp+0x740]
    6542:	00 
    6543:	4c 8b ac 24 50 07 00 	mov    r13,QWORD PTR [rsp+0x750]
    654a:	00 
    654b:	48 89 c6             	mov    rsi,rax
    654e:	48 89 b4 24 40 07 00 	mov    QWORD PTR [rsp+0x740],rsi
    6555:	00 
    6556:	49 8b b4 24 98 00 00 	mov    rsi,QWORD PTR [r12+0x98]
    655d:	00 
    655e:	48 8b 7b 08          	mov    rdi,QWORD PTR [rbx+0x8]
    6562:	49 89 b4 24 98 00 00 	mov    QWORD PTR [r12+0x98],rsi
    6569:	00 
    656a:	4c 89 6e e0          	mov    QWORD PTR [rsi-0x20],r13
    656e:	4c 89 76 e8          	mov    QWORD PTR [rsi-0x18],r14
    6572:	b8 01 00 00 00       	mov    eax,0x1
    6577:	48 89 46 f0          	mov    QWORD PTR [rsi-0x10],rax
    657b:	b8 01 00 00 00       	mov    eax,0x1
    6580:	48 89 46 f8          	mov    QWORD PTR [rsi-0x8],rax
    6584:	48 31 f6             	xor    rsi,rsi
    6587:	48 b8 00 00 00 00 00 	movabs rax,0x0
    658e:	00 00 00 
			6589: R_X86_64_64	do_callback
    6591:	48 89 9c 24 48 07 00 	mov    QWORD PTR [rsp+0x748],rbx
    6598:	00 
    6599:	48 89 bc 24 50 07 00 	mov    QWORD PTR [rsp+0x750],rdi
    65a0:	00 
    65a1:	4c 89 ac 24 58 07 00 	mov    QWORD PTR [rsp+0x758],r13
    65a8:	00 
    65a9:	ff d0                	call   rax
    65ab:	48 8b 9c 24 48 07 00 	mov    rbx,QWORD PTR [rsp+0x748]
    65b2:	00 
    65b3:	4c 8b ac 24 58 07 00 	mov    r13,QWORD PTR [rsp+0x758]
    65ba:	00 
    65bb:	48 89 c6             	mov    rsi,rax
    65be:	48 89 b4 24 48 07 00 	mov    QWORD PTR [rsp+0x748],rsi
    65c5:	00 
    65c6:	49 8b b4 24 98 00 00 	mov    rsi,QWORD PTR [r12+0x98]
    65cd:	00 
    65ce:	48 8b 7b 08          	mov    rdi,QWORD PTR [rbx+0x8]
    65d2:	49 89 b4 24 98 00 00 	mov    QWORD PTR [r12+0x98],rsi
    65d9:	00 
    65da:	4c 89 6e e0          	mov    QWORD PTR [rsi-0x20],r13
    65de:	4c 89 76 e8          	mov    QWORD PTR [rsi-0x18],r14
    65e2:	b8 01 00 00 00       	mov    eax,0x1
    65e7:	48 89 46 f0          	mov    QWORD PTR [rsi-0x10],rax
    65eb:	b8 01 00 00 00       	mov    eax,0x1
    65f0:	48 89 46 f8          	mov    QWORD PTR [rsi-0x8],rax
    65f4:	48 31 f6             	xor    rsi,rsi
    65f7:	48 b8 00 00 00 00 00 	movabs rax,0x0
    65fe:	00 00 00 
			65f9: R_X86_64_64	do_callback
    6601:	48 89 9c 24 50 07 00 	mov    QWORD PTR [rsp+0x750],rbx
    6608:	00 
    6609:	48 89 bc 24 58 07 00 	mov    QWORD PTR [rsp+0x758],rdi
    6610:	00 
    6611:	4c 89 ac 24 60 07 00 	mov    QWORD PTR [rsp+0x760],r13
    6618:	00 
    6619:	ff d0                	call   rax
    661b:	48 8b 9c 24 50 07 00 	mov    rbx,QWORD PTR [rsp+0x750]
    6622:	00 
    6623:	4c 8b ac 24 60 07 00 	mov    r13,QWORD PTR [rsp+0x760]
    662a:	00 
    662b:	48 89 c6             	mov    rsi,rax
    662e:	48 89 b4 24 50 07 00 	mov    QWORD PTR [rsp+0x750],rsi
    6635:	00 
    6636:	49 8b b4 24 98 00 00 	mov    rsi,QWORD PTR [r12+0x98]
    663d:	00 
    663e:	48 8b 7b 08          	mov    rdi,QWORD PTR [rbx+0x8]
    6642:	49 89 b4 24 98 00 00 	mov    QWORD PTR [r12+0x98],rsi
    6649:	00 
    664a:	4c 89 6e e0          	mov    QWORD PTR [rsi-0x20],r13
    664e:	4c 89 76 e8          	mov    QWORD PTR [rsi-0x18],r14
    6652:	b8 01 00 00 00       	mov    eax,0x1
    6657:	48 89 46 f0          	mov    QWORD PTR [rsi-0x10],rax
    665b:	b8 01 00 00 00       	mov    eax,0x1
    6660:	48 89 46 f8          	mov    QWORD PTR [rsi-0x8],rax
    6664:	48 31 f6             	xor    rsi,rsi
    6667:	48 b8 00 00 00 00 00 	movabs rax,0x0
    666e:	00 00 00 
			6669: R_X86_64_64	do_callback
    6671:	48 89 9c 24 58 07 00 	mov    QWORD PTR [rsp+0x758],rbx
    6678:	00 
    6679:	48 89 bc 24 60 07 00 	mov    QWORD PTR [rsp+0x760],rdi
    6680:	00 
    6681:	4c 89 ac 24 68 07 00 	mov    QWORD PTR [rsp+0x768],r13
    6688:	00 
    6689:	ff d0                	call   rax
    668b:	48 8b 9c 24 58 07 00 	mov    rbx,QWORD PTR [rsp+0x758]
    6692:	00 
    6693:	4c 8b ac 24 68 07 00 	mov    r13,QWORD PTR [rsp+0x768]
    669a:	00 
    669b:	48 89 c6             	mov    rsi,rax
    669e:	48 89 b4 24 58 07 00 	mov    QWORD PTR [rsp+0x758],rsi
    66a5:	00 
    66a6:	49 8b b4 24 98 00 00 	mov    rsi,QWORD PTR [r12+0x98]
    66ad:	00 
    66ae:	48 8b 7b 08          	mov    rdi,QWORD PTR [rbx+0x8]
    66b2:	49 89 b4 24 98 00 00 	mov    QWORD PTR [r12+0x98],rsi
    66b9:	00 
    66ba:	4c 89 6e e0          	mov    QWORD PTR [rsi-0x20],r13
    66be:	4c 89 76 e8          	mov    QWORD PTR [rsi-0x18],r14
    66c2:	b8 01 00 00 00       	mov    eax,0x1
    66c7:	48 89 46 f0          	mov    QWORD PTR [rsi-0x10],rax
    66cb:	b8 01 00 00 00       	mov    eax,0x1
    66d0:	48 89 46 f8          	mov    QWORD PTR [rsi-0x8],rax
    66d4:	48 31 f6             	xor    rsi,rsi
    66d7:	48 b8 00 00 00 00 00 	movabs rax,0x0
    66de:	00 00 00 
			66d9: R_X86_64_64	do_callback
    66e1:	48 89 9c 24 60 07 00 	mov    QWORD PTR [rsp+0x760],rbx
    66e8:	00 
    66e9:	48 89 bc 24 68 07 00 	mov    QWORD PTR [rsp+0x768],rdi
    66f0:	00 
    66f1:	4c 89 ac 24 70 07 00 	mov    QWORD PTR [rsp+0x770],r13
    66f8:	00 
    66f9:	ff d0                	call   rax
    66fb:	48 8b 9c 24 60 07 00 	mov    rbx,QWORD PTR [rsp+0x760]
    6702:	00 
    6703:	4c 8b ac 24 70 07 00 	mov    r13,QWORD PTR [rsp+0x770]
    670a:	00 
    670b:	48 89 c6             	mov    rsi,rax
    670e:	48 89 b4 24 60 07 00 	mov    QWORD PTR [rsp+0x760],rsi
    6715:	00 
    6716:	49 8b b4 24 98 00 00 	mov    rsi,QWORD PTR [r12+0x98]
    671d:	00 
    671e:	48 8b 7b 08          	mov    rdi,QWORD PTR [rbx+0x8]
    6722:	49 89 b4 24 98 00 00 	mov    QWORD PTR [r12+0x98],rsi
    6729:	00 
    672a:	4c 89 6e e0          	mov    QWORD PTR [rsi-0x20],r13
    672e:	4c 89 76 e8          	mov    QWORD PTR [rsi-0x18],r14
    6732:	b8 01 00 00 00       	mov    eax,0x1
    6737:	48 89 46 f0          	mov    QWORD PTR [rsi-0x10],rax
    673b:	b8 01 00 00 00       	mov    eax,0x1
    6740:	48 89 46 f8          	mov    QWORD PTR [rsi-0x8],rax
    6744:	48 31 f6             	xor    rsi,rsi
    6747:	48 b8 00 00 00 00 00 	movabs rax,0x0
    674e:	00 00 00 
			6749: R_X86_64_64	do_callback
    6751:	48 89 9c 24 68 07 00 	mov    QWORD PTR [rsp+0x768],rbx
    6758:	00 
    6759:	48 89 bc 24 70 07 00 	mov    QWORD PTR [rsp+0x770],rdi
    6760:	00 
    6761:	4c 89 ac 24 78 07 00 	mov    QWORD PTR [rsp+0x778],r13
    6768:	00 
    6769:	ff d0                	call   rax
    676b:	48 8b 9c 24 68 07 00 	mov    rbx,QWORD PTR [rsp+0x768]
    6772:	00 
    6773:	4c 8b ac 24 78 07 00 	mov    r13,QWORD PTR [rsp+0x778]
    677a:	00 
    677b:	48 89 c6             	mov    rsi,rax
    677e:	48 89 b4 24 68 07 00 	mov    QWORD PTR [rsp+0x768],rsi
    6785:	00 
    6786:	49 8b b4 24 98 00 00 	mov    rsi,QWORD PTR [r12+0x98]
    678d:	00 
    678e:	48 8b 7b 08          	mov    rdi,QWORD PTR [rbx+0x8]
    6792:	49 89 b4 24 98 00 00 	mov    QWORD PTR [r12+0x98],rsi
    6799:	00 
    679a:	4c 89 6e e0          	mov    QWORD PTR [rsi-0x20],r13
    679e:	4c 89 76 e8          	mov    QWORD PTR [rsi-0x18],r14
    67a2:	b8 01 00 00 00       	mov    eax,0x1
    67a7:	48 89 46 f0          	mov    QWORD PTR [rsi-0x10],rax
    67ab:	b8 01 00 00 00       	mov    eax,0x1
    67b0:	48 89 46 f8          	mov    QWORD PTR [rsi-0x8],rax
    67b4:	48 31 f6             	xor    rsi,rsi
    67b7:	48 b8 00 00 00 00 00 	movabs rax,0x0
    67be:	00 00 00 
			67b9: R_X86_64_64	do_callback
    67c1:	48 89 9c 24 70 07 00 	mov    QWORD PTR [rsp+0x770],rbx
    67c8:	00 
    67c9:	48 89 bc 24 78 07 00 	mov    QWORD PTR [rsp+0x778],rdi
    67d0:	00 
    67d1:	4c 89 ac 24 80 07 00 	mov    QWORD PTR [rsp+0x780],r13
    67d8:	00 
    67d9:	ff d0                	call   rax
    67db:	48 8b 9c 24 70 07 00 	mov    rbx,QWORD PTR [rsp+0x770]
    67e2:	00 
    67e3:	4c 8b ac 24 80 07 00 	mov    r13,QWORD PTR [rsp+0x780]
    67ea:	00 
    67eb:	48 89 c6             	mov    rsi,rax
    67ee:	48 89 b4 24 70 07 00 	mov    QWORD PTR [rsp+0x770],rsi
    67f5:	00 
    67f6:	49 8b b4 24 98 00 00 	mov    rsi,QWORD PTR [r12+0x98]
    67fd:	00 
    67fe:	48 8b 7b 08          	mov    rdi,QWORD PTR [rbx+0x8]
    6802:	49 89 b4 24 98 00 00 	mov    QWORD PTR [r12+0x98],rsi
    6809:	00 
    680a:	4c 89 6e e0          	mov    QWORD PTR [rsi-0x20],r13
    680e:	4c 89 76 e8          	mov    QWORD PTR [rsi-0x18],r14
    6812:	b8 01 00 00 00       	mov    eax,0x1
    6817:	48 89 46 f0          	mov    QWORD PTR [rsi-0x10],rax
    681b:	b8 01 00 00 00       	mov    eax,0x1
    6820:	48 89 46 f8          	mov    QWORD PTR [rsi-0x8],rax
    6824:	48 31 f6             	xor    rsi,rsi
    6827:	48 b8 00 00 00 00 00 	movabs rax,0x0
    682e:	00 00 00 
			6829: R_X86_64_64	do_callback
    6831:	48 89 9c 24 78 07 00 	mov    QWORD PTR [rsp+0x778],rbx
    6838:	00 
    6839:	48 89 bc 24 80 07 00 	mov    QWORD PTR [rsp+0x780],rdi
    6840:	00 
    6841:	4c 89 ac 24 88 07 00 	mov    QWORD PTR [rsp+0x788],r13
    6848:	00 
    6849:	ff d0                	call   rax
    684b:	48 8b 9c 24 78 07 00 	mov    rbx,QWORD PTR [rsp+0x778]
    6852:	00 
    6853:	4c 8b ac 24 88 07 00 	mov    r13,QWORD PTR [rsp+0x788]
    685a:	00 
    685b:	48 89 c6             	mov    rsi,rax
    685e:	48 89 b4 24 78 07 00 	mov    QWORD PTR [rsp+0x778],rsi
    6865:	00 
    6866:	49 8b b4 24 98 00 00 	mov    rsi,QWORD PTR [r12+0x98]
    686d:	00 
    686e:	48 8b 7b 08          	mov    rdi,QWORD PTR [rbx+0x8]
    6872:	49 89 b4 24 98 00 00 	mov    QWORD PTR [r12+0x98],rsi
    6879:	00 
    687a:	4c 89 6e e0          	mov    QWORD PTR [rsi-0x20],r13
    687e:	4c 89 76 e8          	mov    QWORD PTR [rsi-0x18],r14
    6882:	b8 01 00 00 00       	mov    eax,0x1
    6887:	48 89 46 f0          	mov    QWORD PTR [rsi-0x10],rax
    688b:	b8 01 00 00 00       	mov    eax,0x1
    6890:	48 89 46 f8          	mov    QWORD PTR [rsi-0x8],rax
    6894:	48 31 f6             	xor    rsi,rsi
    6897:	48 b8 00 00 00 00 00 	movabs rax,0x0
    689e:	00 00 00 
			6899: R_X86_64_64	do_callback
    68a1:	48 89 9c 24 80 07 00 	mov    QWORD PTR [rsp+0x780],rbx
    68a8:	00 
    68a9:	48 89 bc 24 88 07 00 	mov    QWORD PTR [rsp+0x788],rdi
    68b0:	00 
    68b1:	4c 89 ac 24 90 07 00 	mov    QWORD PTR [rsp+0x790],r13
    68b8:	00 
    68b9:	ff d0                	call   rax
    68bb:	48 8b 9c 24 80 07 00 	mov    rbx,QWORD PTR [rsp+0x780]
    68c2:	00 
    68c3:	4c 8b ac 24 90 07 00 	mov    r13,QWORD PTR [rsp+0x790]
    68ca:	00 
    68cb:	48 89 c6             	mov    rsi,rax
    68ce:	48 89 b4 24 80 07 00 	mov    QWORD PTR [rsp+0x780],rsi
    68d5:	00 
    68d6:	49 8b b4 24 98 00 00 	mov    rsi,QWORD PTR [r12+0x98]
    68dd:	00 
    68de:	48 8b 7b 08          	mov    rdi,QWORD PTR [rbx+0x8]
    68e2:	49 89 b4 24 98 00 00 	mov    QWORD PTR [r12+0x98],rsi
    68e9:	00 
    68ea:	4c 89 6e e0          	mov    QWORD PTR [rsi-0x20],r13
    68ee:	4c 89 76 e8          	mov    QWORD PTR [rsi-0x18],r14
    68f2:	b8 01 00 00 00       	mov    eax,0x1
    68f7:	48 89 46 f0          	mov    QWORD PTR [rsi-0x10],rax
    68fb:	b8 01 00 00 00       	mov    eax,0x1
    6900:	48 89 46 f8          	mov    QWORD PTR [rsi-0x8],rax
    6904:	48 31 f6             	xor    rsi,rsi
    6907:	48 b8 00 00 00 00 00 	movabs rax,0x0
    690e:	00 00 00 
			6909: R_X86_64_64	do_callback
    6911:	48 89 9c 24 88 07 00 	mov    QWORD PTR [rsp+0x788],rbx
    6918:	00 
    6919:	48 89 bc 24 90 07 00 	mov    QWORD PTR [rsp+0x790],rdi
    6920:	00 
    6921:	4c 89 ac 24 98 07 00 	mov    QWORD PTR [rsp+0x798],r13
    6928:	00 
    6929:	ff d0                	call   rax
    692b:	48 8b 9c 24 88 07 00 	mov    rbx,QWORD PTR [rsp+0x788]
    6932:	00 
    6933:	4c 8b ac 24 98 07 00 	mov    r13,QWORD PTR [rsp+0x798]
    693a:	00 
    693b:	48 89 c6             	mov    rsi,rax
    693e:	48 89 b4 24 88 07 00 	mov    QWORD PTR [rsp+0x788],rsi
    6945:	00 
    6946:	49 8b b4 24 98 00 00 	mov    rsi,QWORD PTR [r12+0x98]
    694d:	00 
    694e:	48 8b 7b 08          	mov    rdi,QWORD PTR [rbx+0x8]
    6952:	49 89 b4 24 98 00 00 	mov    QWORD PTR [r12+0x98],rsi
    6959:	00 
    695a:	4c 89 6e e0          	mov    QWORD PTR [rsi-0x20],r13
    695e:	4c 89 76 e8          	mov    QWORD PTR [rsi-0x18],r14
    6962:	b8 01 00 00 00       	mov    eax,0x1
    6967:	48 89 46 f0          	mov    QWORD PTR [rsi-0x10],rax
    696b:	b8 01 00 00 00       	mov    eax,0x1
    6970:	48 89 46 f8          	mov    QWORD PTR [rsi-0x8],rax
    6974:	48 31 f6             	xor    rsi,rsi
    6977:	48 b8 00 00 00 00 00 	movabs rax,0x0
    697e:	00 00 00 
			6979: R_X86_64_64	do_callback
    6981:	48 89 9c 24 90 07 00 	mov    QWORD PTR [rsp+0x790],rbx
    6988:	00 
    6989:	48 89 bc 24 98 07 00 	mov    QWORD PTR [rsp+0x798],rdi
    6990:	00 
    6991:	4c 89 ac 24 a0 07 00 	mov    QWORD PTR [rsp+0x7a0],r13
    6998:	00 
    6999:	ff d0                	call   rax
    699b:	48 8b 9c 24 90 07 00 	mov    rbx,QWORD PTR [rsp+0x790]
    69a2:	00 
    69a3:	4c 8b ac 24 a0 07 00 	mov    r13,QWORD PTR [rsp+0x7a0]
    69aa:	00 
    69ab:	48 89 c6             	mov    rsi,rax
    69ae:	48 89 b4 24 90 07 00 	mov    QWORD PTR [rsp+0x790],rsi
    69b5:	00 
    69b6:	49 8b b4 24 98 00 00 	mov    rsi,QWORD PTR [r12+0x98]
    69bd:	00 
    69be:	48 8b 7b 08          	mov    rdi,QWORD PTR [rbx+0x8]
    69c2:	49 89 b4 24 98 00 00 	mov    QWORD PTR [r12+0x98],rsi
    69c9:	00 
    69ca:	4c 89 6e e0          	mov    QWORD PTR [rsi-0x20],r13
    69ce:	4c 89 76 e8          	mov    QWORD PTR [rsi-0x18],r14
    69d2:	b8 01 00 00 00       	mov    eax,0x1
    69d7:	48 89 46 f0          	mov    QWORD PTR [rsi-0x10],rax
    69db:	b8 01 00 00 00       	mov    eax,0x1
    69e0:	48 89 46 f8          	mov    QWORD PTR [rsi-0x8],rax
    69e4:	48 31 f6             	xor    rsi,rsi
    69e7:	48 b8 00 00 00 00 00 	movabs rax,0x0
    69ee:	00 00 00 
			69e9: R_X86_64_64	do_callback
    69f1:	48 89 9c 24 98 07 00 	mov    QWORD PTR [rsp+0x798],rbx
    69f8:	00 
    69f9:	48 89 bc 24 a0 07 00 	mov    QWORD PTR [rsp+0x7a0],rdi
    6a00:	00 
    6a01:	4c 89 ac 24 a8 07 00 	mov    QWORD PTR [rsp+0x7a8],r13
    6a08:	00 
    6a09:	ff d0                	call   rax
    6a0b:	48 8b 9c 24 98 07 00 	mov    rbx,QWORD PTR [rsp+0x798]
    6a12:	00 
    6a13:	4c 8b ac 24 a8 07 00 	mov    r13,QWORD PTR [rsp+0x7a8]
    6a1a:	00 
    6a1b:	48 89 c6             	mov    rsi,rax
    6a1e:	48 89 b4 24 98 07 00 	mov    QWORD PTR [rsp+0x798],rsi
    6a25:	00 
    6a26:	49 8b b4 24 98 00 00 	mov    rsi,QWORD PTR [r12+0x98]
    6a2d:	00 
    6a2e:	48 8b 7b 08          	mov    rdi,QWORD PTR [rbx+0x8]
    6a32:	49 89 b4 24 98 00 00 	mov    QWORD PTR [r12+0x98],rsi
    6a39:	00 
    6a3a:	4c 89 6e e0          	mov    QWORD PTR [rsi-0x20],r13
    6a3e:	4c 89 76 e8          	mov    QWORD PTR [rsi-0x18],r14
    6a42:	b8 01 00 00 00       	mov    eax,0x1
    6a47:	48 89 46 f0          	mov    QWORD PTR [rsi-0x10],rax
    6a4b:	b8 01 00 00 00       	mov    eax,0x1
    6a50:	48 89 46 f8          	mov    QWORD PTR [rsi-0x8],rax
    6a54:	48 31 f6             	xor    rsi,rsi
    6a57:	48 b8 00 00 00 00 00 	movabs rax,0x0
    6a5e:	00 00 00 
			6a59: R_X86_64_64	do_callback
    6a61:	48 89 9c 24 a0 07 00 	mov    QWORD PTR [rsp+0x7a0],rbx
    6a68:	00 
    6a69:	48 89 bc 24 a8 07 00 	mov    QWORD PTR [rsp+0x7a8],rdi
    6a70:	00 
    6a71:	4c 89 ac 24 b0 07 00 	mov    QWORD PTR [rsp+0x7b0],r13
    6a78:	00 
    6a79:	ff d0                	call   rax
    6a7b:	48 8b 9c 24 a0 07 00 	mov    rbx,QWORD PTR [rsp+0x7a0]
    6a82:	00 
    6a83:	4c 8b ac 24 b0 07 00 	mov    r13,QWORD PTR [rsp+0x7b0]
    6a8a:	00 
    6a8b:	48 89 c6             	mov    rsi,rax
    6a8e:	48 89 b4 24 a0 07 00 	mov    QWORD PTR [rsp+0x7a0],rsi
    6a95:	00 
    6a96:	49 8b b4 24 98 00 00 	mov    rsi,QWORD PTR [r12+0x98]
    6a9d:	00 
    6a9e:	48 8b 7b 08          	mov    rdi,QWORD PTR [rbx+0x8]
    6aa2:	49 89 b4 24 98 00 00 	mov    QWORD PTR [r12+0x98],rsi
    6aa9:	00 
    6aaa:	4c 89 6e e0          	mov    QWORD PTR [rsi-0x20],r13
    6aae:	4c 89 76 e8          	mov    QWORD PTR [rsi-0x18],r14
    6ab2:	b8 01 00 00 00       	mov    eax,0x1
    6ab7:	48 89 46 f0          	mov    QWORD PTR [rsi-0x10],rax
    6abb:	b8 01 00 00 00       	mov    eax,0x1
    6ac0:	48 89 46 f8          	mov    QWORD PTR [rsi-0x8],rax
    6ac4:	48 31 f6             	xor    rsi,rsi
    6ac7:	48 b8 00 00 00 00 00 	movabs rax,0x0
    6ace:	00 00 00 
			6ac9: R_X86_64_64	do_callback
    6ad1:	48 89 9c 24 a8 07 00 	mov    QWORD PTR [rsp+0x7a8],rbx
    6ad8:	00 
    6ad9:	48 89 bc 24 b0 07 00 	mov    QWORD PTR [rsp+0x7b0],rdi
    6ae0:	00 
    6ae1:	4c 89 ac 24 b8 07 00 	mov    QWORD PTR [rsp+0x7b8],r13
    6ae8:	00 
    6ae9:	ff d0                	call   rax
    6aeb:	48 8b 9c 24 a8 07 00 	mov    rbx,QWORD PTR [rsp+0x7a8]
    6af2:	00 
    6af3:	4c 8b ac 24 b8 07 00 	mov    r13,QWORD PTR [rsp+0x7b8]
    6afa:	00 
    6afb:	48 89 c6             	mov    rsi,rax
    6afe:	48 89 b4 24 a8 07 00 	mov    QWORD PTR [rsp+0x7a8],rsi
    6b05:	00 
    6b06:	49 8b b4 24 98 00 00 	mov    rsi,QWORD PTR [r12+0x98]
    6b0d:	00 
    6b0e:	48 8b 7b 08          	mov    rdi,QWORD PTR [rbx+0x8]
    6b12:	49 89 b4 24 98 00 00 	mov    QWORD PTR [r12+0x98],rsi
    6b19:	00 
    6b1a:	4c 89 6e e0          	mov    QWORD PTR [rsi-0x20],r13
    6b1e:	4c 89 76 e8          	mov    QWORD PTR [rsi-0x18],r14
    6b22:	b8 01 00 00 00       	mov    eax,0x1
    6b27:	48 89 46 f0          	mov    QWORD PTR [rsi-0x10],rax
    6b2b:	b8 01 00 00 00       	mov    eax,0x1
    6b30:	48 89 46 f8          	mov    QWORD PTR [rsi-0x8],rax
    6b34:	48 31 f6             	xor    rsi,rsi
    6b37:	48 b8 00 00 00 00 00 	movabs rax,0x0
    6b3e:	00 00 00 
			6b39: R_X86_64_64	do_callback
    6b41:	48 89 9c 24 b0 07 00 	mov    QWORD PTR [rsp+0x7b0],rbx
    6b48:	00 
    6b49:	48 89 bc 24 b8 07 00 	mov    QWORD PTR [rsp+0x7b8],rdi
    6b50:	00 
    6b51:	4c 89 ac 24 c0 07 00 	mov    QWORD PTR [rsp+0x7c0],r13
    6b58:	00 
    6b59:	ff d0                	call   rax
    6b5b:	48 8b 9c 24 b0 07 00 	mov    rbx,QWORD PTR [rsp+0x7b0]
    6b62:	00 
    6b63:	4c 8b ac 24 c0 07 00 	mov    r13,QWORD PTR [rsp+0x7c0]
    6b6a:	00 
    6b6b:	48 89 c6             	mov    rsi,rax
    6b6e:	48 89 b4 24 b0 07 00 	mov    QWORD PTR [rsp+0x7b0],rsi
    6b75:	00 
    6b76:	49 8b b4 24 98 00 00 	mov    rsi,QWORD PTR [r12+0x98]
    6b7d:	00 
    6b7e:	48 8b 7b 08          	mov    rdi,QWORD PTR [rbx+0x8]
    6b82:	49 89 b4 24 98 00 00 	mov    QWORD PTR [r12+0x98],rsi
    6b89:	00 
    6b8a:	4c 89 6e e0          	mov    QWORD PTR [rsi-0x20],r13
    6b8e:	4c 89 76 e8          	mov    QWORD PTR [rsi-0x18],r14
    6b92:	b8 01 00 00 00       	mov    eax,0x1
    6b97:	48 89 46 f0          	mov    QWORD PTR [rsi-0x10],rax
    6b9b:	b8 01 00 00 00       	mov    eax,0x1
    6ba0:	48 89 46 f8          	mov    QWORD PTR [rsi-0x8],rax
    6ba4:	48 31 f6             	xor    rsi,rsi
    6ba7:	48 b8 00 00 00 00 00 	movabs rax,0x0
    6bae:	00 00 00 
			6ba9: R_X86_64_64	do_callback
    6bb1:	48 89 9c 24 b8 07 00 	mov    QWORD PTR [rsp+0x7b8],rbx
    6bb8:	00 
    6bb9:	48 89 bc 24 c0 07 00 	mov    QWORD PTR [rsp+0x7c0],rdi
    6bc0:	00 
    6bc1:	4c 89 ac 24 c8 07 00 	mov    QWORD PTR [rsp+0x7c8],r13
    6bc8:	00 
    6bc9:	ff d0                	call   rax
    6bcb:	48 8b 9c 24 b8 07 00 	mov    rbx,QWORD PTR [rsp+0x7b8]
    6bd2:	00 
    6bd3:	4c 8b ac 24 c8 07 00 	mov    r13,QWORD PTR [rsp+0x7c8]
    6bda:	00 
    6bdb:	48 89 c6             	mov    rsi,rax
    6bde:	48 89 b4 24 b8 07 00 	mov    QWORD PTR [rsp+0x7b8],rsi
    6be5:	00 
    6be6:	49 8b b4 24 98 00 00 	mov    rsi,QWORD PTR [r12+0x98]
    6bed:	00 
    6bee:	48 8b 7b 08          	mov    rdi,QWORD PTR [rbx+0x8]
    6bf2:	49 89 b4 24 98 00 00 	mov    QWORD PTR [r12+0x98],rsi
    6bf9:	00 
    6bfa:	4c 89 6e e0          	mov    QWORD PTR [rsi-0x20],r13
    6bfe:	4c 89 76 e8          	mov    QWORD PTR [rsi-0x18],r14
    6c02:	b8 01 00 00 00       	mov    eax,0x1
    6c07:	48 89 46 f0          	mov    QWORD PTR [rsi-0x10],rax
    6c0b:	b8 01 00 00 00       	mov    eax,0x1
    6c10:	48 89 46 f8          	mov    QWORD PTR [rsi-0x8],rax
    6c14:	48 31 f6             	xor    rsi,rsi
    6c17:	48 b8 00 00 00 00 00 	movabs rax,0x0
    6c1e:	00 00 00 
			6c19: R_X86_64_64	do_callback
    6c21:	48 89 9c 24 c0 07 00 	mov    QWORD PTR [rsp+0x7c0],rbx
    6c28:	00 
    6c29:	48 89 bc 24 c8 07 00 	mov    QWORD PTR [rsp+0x7c8],rdi
    6c30:	00 
    6c31:	4c 89 ac 24 d0 07 00 	mov    QWORD PTR [rsp+0x7d0],r13
    6c38:	00 
    6c39:	ff d0                	call   rax
    6c3b:	48 8b 9c 24 c0 07 00 	mov    rbx,QWORD PTR [rsp+0x7c0]
    6c42:	00 
    6c43:	4c 8b ac 24 d0 07 00 	mov    r13,QWORD PTR [rsp+0x7d0]
    6c4a:	00 
    6c4b:	48 89 c6             	mov    rsi,rax
    6c4e:	48 89 b4 24 c0 07 00 	mov    QWORD PTR [rsp+0x7c0],rsi
    6c55:	00 
    6c56:	49 8b b4 24 98 00 00 	mov    rsi,QWORD PTR [r12+0x98]
    6c5d:	00 
    6c5e:	48 8b 7b 08          	mov    rdi,QWORD PTR [rbx+0x8]
    6c62:	49 89 b4 24 98 00 00 	mov    QWORD PTR [r12+0x98],rsi
    6c69:	00 
    6c6a:	4c 89 6e e0          	mov    QWORD PTR [rsi-0x20],r13
    6c6e:	4c 89 76 e8          	mov    QWORD PTR [rsi-0x18],r14
    6c72:	b8 01 00 00 00       	mov    eax,0x1
    6c77:	48 89 46 f0          	mov    QWORD PTR [rsi-0x10],rax
    6c7b:	b8 01 00 00 00       	mov    eax,0x1
    6c80:	48 89 46 f8          	mov    QWORD PTR [rsi-0x8],rax
    6c84:	48 31 f6             	xor    rsi,rsi
    6c87:	48 b8 00 00 00 00 00 	movabs rax,0x0
    6c8e:	00 00 00 
			6c89: R_X86_64_64	do_callback
    6c91:	48 89 9c 24 c8 07 00 	mov    QWORD PTR [rsp+0x7c8],rbx
    6c98:	00 
    6c99:	48 89 bc 24 d0 07 00 	mov    QWORD PTR [rsp+0x7d0],rdi
    6ca0:	00 
    6ca1:	4c 89 ac 24 d8 07 00 	mov    QWORD PTR [rsp+0x7d8],r13
    6ca8:	00 
    6ca9:	ff d0                	call   rax
    6cab:	48 8b 9c 24 c8 07 00 	mov    rbx,QWORD PTR [rsp+0x7c8]
    6cb2:	00 
    6cb3:	4c 8b ac 24 d8 07 00 	mov    r13,QWORD PTR [rsp+0x7d8]
    6cba:	00 
    6cbb:	48 89 c6             	mov    rsi,rax
    6cbe:	48 89 b4 24 c8 07 00 	mov    QWORD PTR [rsp+0x7c8],rsi
    6cc5:	00 
    6cc6:	49 8b b4 24 98 00 00 	mov    rsi,QWORD PTR [r12+0x98]
    6ccd:	00 
    6cce:	48 8b 7b 08          	mov    rdi,QWORD PTR [rbx+0x8]
    6cd2:	49 89 b4 24 98 00 00 	mov    QWORD PTR [r12+0x98],rsi
    6cd9:	00 
    6cda:	4c 89 6e e0          	mov    QWORD PTR [rsi-0x20],r13
    6cde:	4c 89 76 e8          	mov    QWORD PTR [rsi-0x18],r14
    6ce2:	b8 01 00 00 00       	mov    eax,0x1
    6ce7:	48 89 46 f0          	mov    QWORD PTR [rsi-0x10],rax
    6ceb:	b8 01 00 00 00       	mov    eax,0x1
    6cf0:	48 89 46 f8          	mov    QWORD PTR [rsi-0x8],rax
    6cf4:	48 31 f6             	xor    rsi,rsi
    6cf7:	48 b8 00 00 00 00 00 	movabs rax,0x0
    6cfe:	00 00 00 
			6cf9: R_X86_64_64	do_callback
    6d01:	48 89 9c 24 d0 07 00 	mov    QWORD PTR [rsp+0x7d0],rbx
    6d08:	00 
    6d09:	48 89 bc 24 d8 07 00 	mov    QWORD PTR [rsp+0x7d8],rdi
    6d10:	00 
    6d11:	4c 89 ac 24 e0 07 00 	mov    QWORD PTR [rsp+0x7e0],r13
    6d18:	00 
    6d19:	ff d0                	call   rax
    6d1b:	48 8b 9c 24 d0 07 00 	mov    rbx,QWORD PTR [rsp+0x7d0]
    6d22:	00 
    6d23:	4c 8b ac 24 e0 07 00 	mov    r13,QWORD PTR [rsp+0x7e0]
    6d2a:	00 
    6d2b:	48 89 c6             	mov    rsi,rax
    6d2e:	48 89 b4 24 d0 07 00 	mov    QWORD PTR [rsp+0x7d0],rsi
    6d35:	00 
    6d36:	49 8b b4 24 98 00 00 	mov    rsi,QWORD PTR [r12+0x98]
    6d3d:	00 
    6d3e:	48 8b 7b 08          	mov    rdi,QWORD PTR [rbx+0x8]
    6d42:	49 89 b4 24 98 00 00 	mov    QWORD PTR [r12+0x98],rsi
    6d49:	00 
    6d4a:	4c 89 6e e0          	mov    QWORD PTR [rsi-0x20],r13
    6d4e:	4c 89 76 e8          	mov    QWORD PTR [rsi-0x18],r14
    6d52:	b8 01 00 00 00       	mov    eax,0x1
    6d57:	48 89 46 f0          	mov    QWORD PTR [rsi-0x10],rax
    6d5b:	b8 01 00 00 00       	mov    eax,0x1
    6d60:	48 89 46 f8          	mov    QWORD PTR [rsi-0x8],rax
    6d64:	48 31 f6             	xor    rsi,rsi
    6d67:	48 b8 00 00 00 00 00 	movabs rax,0x0
    6d6e:	00 00 00 
			6d69: R_X86_64_64	do_callback
    6d71:	48 89 9c 24 d8 07 00 	mov    QWORD PTR [rsp+0x7d8],rbx
    6d78:	00 
    6d79:	48 89 bc 24 e0 07 00 	mov    QWORD PTR [rsp+0x7e0],rdi
    6d80:	00 
    6d81:	4c 89 ac 24 e8 07 00 	mov    QWORD PTR [rsp+0x7e8],r13
    6d88:	00 
    6d89:	ff d0                	call   rax
    6d8b:	48 8b 9c 24 d8 07 00 	mov    rbx,QWORD PTR [rsp+0x7d8]
    6d92:	00 
    6d93:	4c 8b ac 24 e8 07 00 	mov    r13,QWORD PTR [rsp+0x7e8]
    6d9a:	00 
    6d9b:	48 89 c6             	mov    rsi,rax
    6d9e:	48 89 b4 24 d8 07 00 	mov    QWORD PTR [rsp+0x7d8],rsi
    6da5:	00 
    6da6:	49 8b b4 24 98 00 00 	mov    rsi,QWORD PTR [r12+0x98]
    6dad:	00 
    6dae:	48 8b 7b 08          	mov    rdi,QWORD PTR [rbx+0x8]
    6db2:	49 89 b4 24 98 00 00 	mov    QWORD PTR [r12+0x98],rsi
    6db9:	00 
    6dba:	4c 89 6e e0          	mov    QWORD PTR [rsi-0x20],r13
    6dbe:	4c 89 76 e8          	mov    QWORD PTR [rsi-0x18],r14
    6dc2:	b8 01 00 00 00       	mov    eax,0x1
    6dc7:	48 89 46 f0          	mov    QWORD PTR [rsi-0x10],rax
    6dcb:	b8 01 00 00 00       	mov    eax,0x1
    6dd0:	48 89 46 f8          	mov    QWORD PTR [rsi-0x8],rax
    6dd4:	48 31 f6             	xor    rsi,rsi
    6dd7:	48 b8 00 00 00 00 00 	movabs rax,0x0
    6dde:	00 00 00 
			6dd9: R_X86_64_64	do_callback
    6de1:	48 89 9c 24 e0 07 00 	mov    QWORD PTR [rsp+0x7e0],rbx
    6de8:	00 
    6de9:	48 89 bc 24 e8 07 00 	mov    QWORD PTR [rsp+0x7e8],rdi
    6df0:	00 
    6df1:	4c 89 ac 24 f0 07 00 	mov    QWORD PTR [rsp+0x7f0],r13
    6df8:	00 
    6df9:	ff d0                	call   rax
    6dfb:	48 8b 9c 24 e0 07 00 	mov    rbx,QWORD PTR [rsp+0x7e0]
    6e02:	00 
    6e03:	4c 8b ac 24 f0 07 00 	mov    r13,QWORD PTR [rsp+0x7f0]
    6e0a:	00 
    6e0b:	48 89 c6             	mov    rsi,rax
    6e0e:	48 89 b4 24 e0 07 00 	mov    QWORD PTR [rsp+0x7e0],rsi
    6e15:	00 
    6e16:	49 8b b4 24 98 00 00 	mov    rsi,QWORD PTR [r12+0x98]
    6e1d:	00 
    6e1e:	48 8b 7b 08          	mov    rdi,QWORD PTR [rbx+0x8]
    6e22:	49 89 b4 24 98 00 00 	mov    QWORD PTR [r12+0x98],rsi
    6e29:	00 
    6e2a:	4c 89 6e e0          	mov    QWORD PTR [rsi-0x20],r13
    6e2e:	4c 89 76 e8          	mov    QWORD PTR [rsi-0x18],r14
    6e32:	b8 01 00 00 00       	mov    eax,0x1
    6e37:	48 89 46 f0          	mov    QWORD PTR [rsi-0x10],rax
    6e3b:	b8 01 00 00 00       	mov    eax,0x1
    6e40:	48 89 46 f8          	mov    QWORD PTR [rsi-0x8],rax
    6e44:	48 31 f6             	xor    rsi,rsi
    6e47:	48 b8 00 00 00 00 00 	movabs rax,0x0
    6e4e:	00 00 00 
			6e49: R_X86_64_64	do_callback
    6e51:	48 89 9c 24 e8 07 00 	mov    QWORD PTR [rsp+0x7e8],rbx
    6e58:	00 
    6e59:	48 89 bc 24 f0 07 00 	mov    QWORD PTR [rsp+0x7f0],rdi
    6e60:	00 
    6e61:	4c 89 ac 24 f8 07 00 	mov    QWORD PTR [rsp+0x7f8],r13
    6e68:	00 
    6e69:	ff d0                	call   rax
    6e6b:	48 8b 9c 24 e8 07 00 	mov    rbx,QWORD PTR [rsp+0x7e8]
    6e72:	00 
    6e73:	4c 8b ac 24 f8 07 00 	mov    r13,QWORD PTR [rsp+0x7f8]
    6e7a:	00 
    6e7b:	48 89 c6             	mov    rsi,rax
    6e7e:	48 89 b4 24 e8 07 00 	mov    QWORD PTR [rsp+0x7e8],rsi
    6e85:	00 
    6e86:	49 8b b4 24 98 00 00 	mov    rsi,QWORD PTR [r12+0x98]
    6e8d:	00 
    6e8e:	48 8b 7b 08          	mov    rdi,QWORD PTR [rbx+0x8]
    6e92:	49 89 b4 24 98 00 00 	mov    QWORD PTR [r12+0x98],rsi
    6e99:	00 
    6e9a:	4c 89 6e e0          	mov    QWORD PTR [rsi-0x20],r13
    6e9e:	4c 89 76 e8          	mov    QWORD PTR [rsi-0x18],r14
    6ea2:	b8 01 00 00 00       	mov    eax,0x1
    6ea7:	48 89 46 f0          	mov    QWORD PTR [rsi-0x10],rax
    6eab:	b8 01 00 00 00       	mov    eax,0x1
    6eb0:	48 89 46 f8          	mov    QWORD PTR [rsi-0x8],rax
    6eb4:	48 31 f6             	xor    rsi,rsi
    6eb7:	48 b8 00 00 00 00 00 	movabs rax,0x0
    6ebe:	00 00 00 
			6eb9: R_X86_64_64	do_callback
    6ec1:	48 89 9c 24 f0 07 00 	mov    QWORD PTR [rsp+0x7f0],rbx
    6ec8:	00 
    6ec9:	48 89 bc 24 f8 07 00 	mov    QWORD PTR [rsp+0x7f8],rdi
    6ed0:	00 
    6ed1:	4c 89 ac 24 00 08 00 	mov    QWORD PTR [rsp+0x800],r13
    6ed8:	00 
    6ed9:	ff d0                	call   rax
    6edb:	48 8b 9c 24 f0 07 00 	mov    rbx,QWORD PTR [rsp+0x7f0]
    6ee2:	00 
    6ee3:	4c 8b ac 24 00 08 00 	mov    r13,QWORD PTR [rsp+0x800]
    6eea:	00 
    6eeb:	48 89 c6             	mov    rsi,rax
    6eee:	48 89 b4 24 f0 07 00 	mov    QWORD PTR [rsp+0x7f0],rsi
    6ef5:	00 
    6ef6:	49 8b b4 24 98 00 00 	mov    rsi,QWORD PTR [r12+0x98]
    6efd:	00 
    6efe:	48 8b 7b 08          	mov    rdi,QWORD PTR [rbx+0x8]
    6f02:	49 89 b4 24 98 00 00 	mov    QWORD PTR [r12+0x98],rsi
    6f09:	00 
    6f0a:	4c 89 6e e0          	mov    QWORD PTR [rsi-0x20],r13
    6f0e:	4c 89 76 e8          	mov    QWORD PTR [rsi-0x18],r14
    6f12:	b8 01 00 00 00       	mov    eax,0x1
    6f17:	48 89 46 f0          	mov    QWORD PTR [rsi-0x10],rax
    6f1b:	b8 01 00 00 00       	mov    eax,0x1
    6f20:	48 89 46 f8          	mov    QWORD PTR [rsi-0x8],rax
    6f24:	48 31 f6             	xor    rsi,rsi
    6f27:	48 b8 00 00 00 00 00 	movabs rax,0x0
    6f2e:	00 00 00 
			6f29: R_X86_64_64	do_callback
    6f31:	48 89 9c 24 f8 07 00 	mov    QWORD PTR [rsp+0x7f8],rbx
    6f38:	00 
    6f39:	48 89 bc 24 00 08 00 	mov    QWORD PTR [rsp+0x800],rdi
    6f40:	00 
    6f41:	4c 89 ac 24 08 08 00 	mov    QWORD PTR [rsp+0x808],r13
    6f48:	00 
    6f49:	ff d0                	call   rax
    6f4b:	48 8b 9c 24 f8 07 00 	mov    rbx,QWORD PTR [rsp+0x7f8]
    6f52:	00 
    6f53:	4c 8b ac 24 08 08 00 	mov    r13,QWORD PTR [rsp+0x808]
    6f5a:	00 
    6f5b:	49 89 c7             	mov    r15,rax
    6f5e:	49 8b b4 24 98 00 00 	mov    rsi,QWORD PTR [r12+0x98]
    6f65:	00 
    6f66:	48 8b 7b 08          	mov    rdi,QWORD PTR [rbx+0x8]
    6f6a:	49 89 b4 24 98 00 00 	mov    QWORD PTR [r12+0x98],rsi
    6f71:	00 
    6f72:	4c 89 6e e0          	mov    QWORD PTR [rsi-0x20],r13
    6f76:	4c 89 76 e8          	mov    QWORD PTR [rsi-0x18],r14
    6f7a:	b8 01 00 00 00       	mov    eax,0x1
    6f7f:	48 89 46 f0          	mov    QWORD PTR [rsi-0x10],rax
    6f83:	b8 01 00 00 00       	mov    eax,0x1
    6f88:	48 89 46 f8          	mov    QWORD PTR [rsi-0x8],rax
    6f8c:	48 31 f6             	xor    rsi,rsi
    6f8f:	48 b8 00 00 00 00 00 	movabs rax,0x0
    6f96:	00 00 00 
			6f91: R_X86_64_64	do_callback
    6f99:	48 89 bc 24 f8 07 00 	mov    QWORD PTR [rsp+0x7f8],rdi
    6fa0:	00 
    6fa1:	4c 89 bc 24 00 08 00 	mov    QWORD PTR [rsp+0x800],r15
    6fa8:	00 
    6fa9:	ff d0                	call   rax
    6fab:	4c 8b bc 24 00 08 00 	mov    r15,QWORD PTR [rsp+0x800]
    6fb2:	00 
    6fb3:	49 89 c5             	mov    r13,rax
    6fb6:	49 8b b4 24 98 00 00 	mov    rsi,QWORD PTR [r12+0x98]
    6fbd:	00 
    6fbe:	48 89 b4 24 f8 07 00 	mov    QWORD PTR [rsp+0x7f8],rsi
    6fc5:	00 
    6fc6:	bf 01 01 00 00       	mov    edi,0x101
    6fcb:	31 f6                	xor    esi,esi
    6fcd:	48 b8 00 00 00 00 00 	movabs rax,0x0
    6fd4:	00 00 00 
			6fcf: R_X86_64_64	caml_alloc_shr
    6fd7:	4c 89 bc 24 00 08 00 	mov    QWORD PTR [rsp+0x800],r15
    6fde:	00 
    6fdf:	4c 89 ac 24 08 08 00 	mov    QWORD PTR [rsp+0x808],r13
    6fe6:	00 
    6fe7:	ff d0                	call   rax
    6fe9:	4c 8b bc 24 00 08 00 	mov    r15,QWORD PTR [rsp+0x800]
    6ff0:	00 
    6ff1:	4c 8b ac 24 08 08 00 	mov    r13,QWORD PTR [rsp+0x808]
    6ff8:	00 
    6ff9:	49 89 c6             	mov    r14,rax
    6ffc:	4c 89 f3             	mov    rbx,r14
    6fff:	48 89 df             	mov    rdi,rbx
    7002:	4c 89 ee             	mov    rsi,r13
    7005:	48 b8 00 00 00 00 00 	movabs rax,0x0
    700c:	00 00 00 
			7007: R_X86_64_64	caml_initialize
    700f:	48 89 b4 24 00 08 00 	mov    QWORD PTR [rsp+0x800],rsi
    7016:	00 
    7017:	4c 89 bc 24 08 08 00 	mov    QWORD PTR [rsp+0x808],r15
    701e:	00 
    701f:	48 89 9c 24 10 08 00 	mov    QWORD PTR [rsp+0x810],rbx
    7026:	00 
    7027:	48 89 bc 24 18 08 00 	mov    QWORD PTR [rsp+0x818],rdi
    702e:	00 
    702f:	4c 89 b4 24 20 08 00 	mov    QWORD PTR [rsp+0x820],r14
    7036:	00 
    7037:	ff d0                	call   rax
    7039:	48 8b 9c 24 10 08 00 	mov    rbx,QWORD PTR [rsp+0x810]
    7040:	00 
    7041:	4c 8b bc 24 08 08 00 	mov    r15,QWORD PTR [rsp+0x808]
    7048:	00 
    7049:	4c 8b b4 24 20 08 00 	mov    r14,QWORD PTR [rsp+0x820]
    7050:	00 
    7051:	48 89 df             	mov    rdi,rbx
    7054:	48 83 c7 08          	add    rdi,0x8
    7058:	4c 89 fe             	mov    rsi,r15
    705b:	48 b8 00 00 00 00 00 	movabs rax,0x0
    7062:	00 00 00 
			705d: R_X86_64_64	caml_initialize
    7065:	48 89 b4 24 00 08 00 	mov    QWORD PTR [rsp+0x800],rsi
    706c:	00 
    706d:	48 89 9c 24 08 08 00 	mov    QWORD PTR [rsp+0x808],rbx
    7074:	00 
    7075:	48 89 bc 24 10 08 00 	mov    QWORD PTR [rsp+0x810],rdi
    707c:	00 
    707d:	4c 89 b4 24 18 08 00 	mov    QWORD PTR [rsp+0x818],r14
    7084:	00 
    7085:	ff d0                	call   rax
    7087:	48 8b 9c 24 08 08 00 	mov    rbx,QWORD PTR [rsp+0x808]
    708e:	00 
    708f:	4c 8b b4 24 18 08 00 	mov    r14,QWORD PTR [rsp+0x818]
    7096:	00 
    7097:	48 89 df             	mov    rdi,rbx
    709a:	48 83 c7 10          	add    rdi,0x10
    709e:	48 8b b4 24 f0 07 00 	mov    rsi,QWORD PTR [rsp+0x7f0]
    70a5:	00 
    70a6:	48 b8 00 00 00 00 00 	movabs rax,0x0
    70ad:	00 00 00 
			70a8: R_X86_64_64	caml_initialize
    70b0:	48 89 b4 24 f0 07 00 	mov    QWORD PTR [rsp+0x7f0],rsi
    70b7:	00 
    70b8:	48 89 9c 24 00 08 00 	mov    QWORD PTR [rsp+0x800],rbx
    70bf:	00 
    70c0:	48 89 bc 24 08 08 00 	mov    QWORD PTR [rsp+0x808],rdi
    70c7:	00 
    70c8:	4c 89 b4 24 10 08 00 	mov    QWORD PTR [rsp+0x810],r14
    70cf:	00 
    70d0:	ff d0                	call   rax
    70d2:	48 8b 9c 24 00 08 00 	mov    rbx,QWORD PTR [rsp+0x800]
    70d9:	00 
    70da:	4c 8b b4 24 10 08 00 	mov    r14,QWORD PTR [rsp+0x810]
    70e1:	00 
    70e2:	48 89 df             	mov    rdi,rbx
    70e5:	48 83 c7 18          	add    rdi,0x18
    70e9:	48 8b b4 24 e8 07 00 	mov    rsi,QWORD PTR [rsp+0x7e8]
    70f0:	00 
    70f1:	48 b8 00 00 00 00 00 	movabs rax,0x0
    70f8:	00 00 00 
			70f3: R_X86_64_64	caml_initialize
    70fb:	48 89 b4 24 e8 07 00 	mov    QWORD PTR [rsp+0x7e8],rsi
    7102:	00 
    7103:	48 89 9c 24 f0 07 00 	mov    QWORD PTR [rsp+0x7f0],rbx
    710a:	00 
    710b:	48 89 bc 24 00 08 00 	mov    QWORD PTR [rsp+0x800],rdi
    7112:	00 
    7113:	4c 89 b4 24 08 08 00 	mov    QWORD PTR [rsp+0x808],r14
    711a:	00 
    711b:	ff d0                	call   rax
    711d:	48 8b 9c 24 f0 07 00 	mov    rbx,QWORD PTR [rsp+0x7f0]
    7124:	00 
    7125:	4c 8b b4 24 08 08 00 	mov    r14,QWORD PTR [rsp+0x808]
    712c:	00 
    712d:	48 89 df             	mov    rdi,rbx
    7130:	48 83 c7 20          	add    rdi,0x20
    7134:	48 8b b4 24 e0 07 00 	mov    rsi,QWORD PTR [rsp+0x7e0]
    713b:	00 
    713c:	48 b8 00 00 00 00 00 	movabs rax,0x0
    7143:	00 00 00 
			713e: R_X86_64_64	caml_initialize
    7146:	48 89 b4 24 e0 07 00 	mov    QWORD PTR [rsp+0x7e0],rsi
    714d:	00 
    714e:	48 89 9c 24 e8 07 00 	mov    QWORD PTR [rsp+0x7e8],rbx
    7155:	00 
    7156:	48 89 bc 24 f0 07 00 	mov    QWORD PTR [rsp+0x7f0],rdi
    715d:	00 
    715e:	4c 89 b4 24 00 08 00 	mov    QWORD PTR [rsp+0x800],r14
    7165:	00 
    7166:	ff d0                	call   rax
    7168:	48 8b 9c 24 e8 07 00 	mov    rbx,QWORD PTR [rsp+0x7e8]
    716f:	00 
    7170:	4c 8b b4 24 00 08 00 	mov    r14,QWORD PTR [rsp+0x800]
    7177:	00 
    7178:	48 89 df             	mov    rdi,rbx
    717b:	48 83 c7 28          	add    rdi,0x28
    717f:	48 8b b4 24 d8 07 00 	mov    rsi,QWORD PTR [rsp+0x7d8]
    7186:	00 
    7187:	48 b8 00 00 00 00 00 	movabs rax,0x0
    718e:	00 00 00 
			7189: R_X86_64_64	caml_initialize
    7191:	48 89 b4 24 d8 07 00 	mov    QWORD PTR [rsp+0x7d8],rsi
    7198:	00 
    7199:	48 89 9c 24 e0 07 00 	mov    QWORD PTR [rsp+0x7e0],rbx
    71a0:	00 
    71a1:	48 89 bc 24 e8 07 00 	mov    QWORD PTR [rsp+0x7e8],rdi
    71a8:	00 
    71a9:	4c 89 b4 24 f0 07 00 	mov    QWORD PTR [rsp+0x7f0],r14
    71b0:	00 
    71b1:	ff d0                	call   rax
    71b3:	48 8b 9c 24 e0 07 00 	mov    rbx,QWORD PTR [rsp+0x7e0]
    71ba:	00 
    71bb:	4c 8b b4 24 f0 07 00 	mov    r14,QWORD PTR [rsp+0x7f0]
    71c2:	00 
    71c3:	48 89 df             	mov    rdi,rbx
    71c6:	48 83 c7 30          	add    rdi,0x30
    71ca:	48 8b b4 24 d0 07 00 	mov    rsi,QWORD PTR [rsp+0x7d0]
    71d1:	00 
    71d2:	48 b8 00 00 00 00 00 	movabs rax,0x0
    71d9:	00 00 00 
			71d4: R_X86_64_64	caml_initialize
    71dc:	48 89 b4 24 d0 07 00 	mov    QWORD PTR [rsp+0x7d0],rsi
    71e3:	00 
    71e4:	48 89 9c 24 d8 07 00 	mov    QWORD PTR [rsp+0x7d8],rbx
    71eb:	00 
    71ec:	48 89 bc 24 e0 07 00 	mov    QWORD PTR [rsp+0x7e0],rdi
    71f3:	00 
    71f4:	4c 89 b4 24 e8 07 00 	mov    QWORD PTR [rsp+0x7e8],r14
    71fb:	00 
    71fc:	ff d0                	call   rax
    71fe:	48 8b 9c 24 d8 07 00 	mov    rbx,QWORD PTR [rsp+0x7d8]
    7205:	00 
    7206:	4c 8b b4 24 e8 07 00 	mov    r14,QWORD PTR [rsp+0x7e8]
    720d:	00 
    720e:	48 89 df             	mov    rdi,rbx
    7211:	48 83 c7 38          	add    rdi,0x38
    7215:	48 8b b4 24 c8 07 00 	mov    rsi,QWORD PTR [rsp+0x7c8]
    721c:	00 
    721d:	48 b8 00 00 00 00 00 	movabs rax,0x0
    7224:	00 00 00 
			721f: R_X86_64_64	caml_initialize
    7227:	48 89 b4 24 c8 07 00 	mov    QWORD PTR [rsp+0x7c8],rsi
    722e:	00 
    722f:	48 89 9c 24 d0 07 00 	mov    QWORD PTR [rsp+0x7d0],rbx
    7236:	00 
    7237:	48 89 bc 24 d8 07 00 	mov    QWORD PTR [rsp+0x7d8],rdi
    723e:	00 
    723f:	4c 89 b4 24 e0 07 00 	mov    QWORD PTR [rsp+0x7e0],r14
    7246:	00 
    7247:	ff d0                	call   rax
    7249:	48 8b 9c 24 d0 07 00 	mov    rbx,QWORD PTR [rsp+0x7d0]
    7250:	00 
    7251:	4c 8b b4 24 e0 07 00 	mov    r14,QWORD PTR [rsp+0x7e0]
    7258:	00 
    7259:	48 89 df             	mov    rdi,rbx
    725c:	48 83 c7 40          	add    rdi,0x40
    7260:	48 8b b4 24 c0 07 00 	mov    rsi,QWORD PTR [rsp+0x7c0]
    7267:	00 
    7268:	48 b8 00 00 00 00 00 	movabs rax,0x0
    726f:	00 00 00 
			726a: R_X86_64_64	caml_initialize
    7272:	48 89 b4 24 c0 07 00 	mov    QWORD PTR [rsp+0x7c0],rsi
    7279:	00 
    727a:	48 89 9c 24 c8 07 00 	mov    QWORD PTR [rsp+0x7c8],rbx
    7281:	00 
    7282:	48 89 bc 24 d0 07 00 	mov    QWORD PTR [rsp+0x7d0],rdi
    7289:	00 
    728a:	4c 89 b4 24 d8 07 00 	mov    QWORD PTR [rsp+0x7d8],r14
    7291:	00 
    7292:	ff d0                	call   rax
    7294:	48 8b 9c 24 c8 07 00 	mov    rbx,QWORD PTR [rsp+0x7c8]
    729b:	00 
    729c:	4c 8b b4 24 d8 07 00 	mov    r14,QWORD PTR [rsp+0x7d8]
    72a3:	00 
    72a4:	48 89 df             	mov    rdi,rbx
    72a7:	48 83 c7 48          	add    rdi,0x48
    72ab:	48 8b b4 24 b8 07 00 	mov    rsi,QWORD PTR [rsp+0x7b8]
    72b2:	00 
    72b3:	48 b8 00 00 00 00 00 	movabs rax,0x0
    72ba:	00 00 00 
			72b5: R_X86_64_64	caml_initialize
    72bd:	48 89 b4 24 b8 07 00 	mov    QWORD PTR [rsp+0x7b8],rsi
    72c4:	00 
    72c5:	48 89 9c 24 c0 07 00 	mov    QWORD PTR [rsp+0x7c0],rbx
    72cc:	00 
    72cd:	48 89 bc 24 c8 07 00 	mov    QWORD PTR [rsp+0x7c8],rdi
    72d4:	00 
    72d5:	4c 89 b4 24 d0 07 00 	mov    QWORD PTR [rsp+0x7d0],r14
    72dc:	00 
    72dd:	ff d0                	call   rax
    72df:	48 8b 9c 24 c0 07 00 	mov    rbx,QWORD PTR [rsp+0x7c0]
    72e6:	00 
    72e7:	4c 8b b4 24 d0 07 00 	mov    r14,QWORD PTR [rsp+0x7d0]
    72ee:	00 
    72ef:	48 89 df             	mov    rdi,rbx
    72f2:	48 83 c7 50          	add    rdi,0x50
    72f6:	48 8b b4 24 b0 07 00 	mov    rsi,QWORD PTR [rsp+0x7b0]
    72fd:	00 
    72fe:	48 b8 00 00 00 00 00 	movabs rax,0x0
    7305:	00 00 00 
			7300: R_X86_64_64	caml_initialize
    7308:	48 89 b4 24 b0 07 00 	mov    QWORD PTR [rsp+0x7b0],rsi
    730f:	00 
    7310:	48 89 9c 24 b8 07 00 	mov    QWORD PTR [rsp+0x7b8],rbx
    7317:	00 
    7318:	48 89 bc 24 c0 07 00 	mov    QWORD PTR [rsp+0x7c0],rdi
    731f:	00 
    7320:	4c 89 b4 24 c8 07 00 	mov    QWORD PTR [rsp+0x7c8],r14
    7327:	00 
    7328:	ff d0                	call   rax
    732a:	48 8b 9c 24 b8 07 00 	mov    rbx,QWORD PTR [rsp+0x7b8]
    7331:	00 
    7332:	4c 8b b4 24 c8 07 00 	mov    r14,QWORD PTR [rsp+0x7c8]
    7339:	00 
    733a:	48 89 df             	mov    rdi,rbx
    733d:	48 83 c7 58          	add    rdi,0x58
    7341:	48 8b b4 24 a8 07 00 	mov    rsi,QWORD PTR [rsp+0x7a8]
    7348:	00 
    7349:	48 b8 00 00 00 00 00 	movabs rax,0x0
    7350:	00 00 00 
			734b: R_X86_64_64	caml_initialize
    7353:	48 89 b4 24 a8 07 00 	mov    QWORD PTR [rsp+0x7a8],rsi
    735a:	00 
    735b:	48 89 9c 24 b0 07 00 	mov    QWORD PTR [rsp+0x7b0],rbx
    7362:	00 
    7363:	48 89 bc 24 b8 07 00 	mov    QWORD PTR [rsp+0x7b8],rdi
    736a:	00 
    736b:	4c 89 b4 24 c0 07 00 	mov    QWORD PTR [rsp+0x7c0],r14
    7372:	00 
    7373:	ff d0                	call   rax
    7375:	48 8b 9c 24 b0 07 00 	mov    rbx,QWORD PTR [rsp+0x7b0]
    737c:	00 
    737d:	4c 8b b4 24 c0 07 00 	mov    r14,QWORD PTR [rsp+0x7c0]
    7384:	00 
    7385:	48 89 df             	mov    rdi,rbx
    7388:	48 83 c7 60          	add    rdi,0x60
    738c:	48 8b b4 24 a0 07 00 	mov    rsi,QWORD PTR [rsp+0x7a0]
    7393:	00 
    7394:	48 b8 00 00 00 00 00 	movabs rax,0x0
    739b:	00 00 00 
			7396: R_X86_64_64	caml_initialize
    739e:	48 89 b4 24 a0 07 00 	mov    QWORD PTR [rsp+0x7a0],rsi
    73a5:	00 
    73a6:	48 89 9c 24 a8 07 00 	mov    QWORD PTR [rsp+0x7a8],rbx
    73ad:	00 
    73ae:	48 89 bc 24 b0 07 00 	mov    QWORD PTR [rsp+0x7b0],rdi
    73b5:	00 
    73b6:	4c 89 b4 24 b8 07 00 	mov    QWORD PTR [rsp+0x7b8],r14
    73bd:	00 
    73be:	ff d0                	call   rax
    73c0:	48 8b 9c 24 a8 07 00 	mov    rbx,QWORD PTR [rsp+0x7a8]
    73c7:	00 
    73c8:	4c 8b b4 24 b8 07 00 	mov    r14,QWORD PTR [rsp+0x7b8]
    73cf:	00 
    73d0:	48 89 df             	mov    rdi,rbx
    73d3:	48 83 c7 68          	add    rdi,0x68
    73d7:	48 8b b4 24 98 07 00 	mov    rsi,QWORD PTR [rsp+0x798]
    73de:	00 
    73df:	48 b8 00 00 00 00 00 	movabs rax,0x0
    73e6:	00 00 00 
			73e1: R_X86_64_64	caml_initialize
    73e9:	48 89 b4 24 98 07 00 	mov    QWORD PTR [rsp+0x798],rsi
    73f0:	00 
    73f1:	48 89 9c 24 a0 07 00 	mov    QWORD PTR [rsp+0x7a0],rbx
    73f8:	00 
    73f9:	48 89 bc 24 a8 07 00 	mov    QWORD PTR [rsp+0x7a8],rdi
    7400:	00 
    7401:	4c 89 b4 24 b0 07 00 	mov    QWORD PTR [rsp+0x7b0],r14
    7408:	00 
    7409:	ff d0                	call   rax
    740b:	48 8b 9c 24 a0 07 00 	mov    rbx,QWORD PTR [rsp+0x7a0]
    7412:	00 
    7413:	4c 8b b4 24 b0 07 00 	mov    r14,QWORD PTR [rsp+0x7b0]
    741a:	00 
    741b:	48 89 df             	mov    rdi,rbx
    741e:	48 83 c7 70          	add    rdi,0x70
    7422:	48 8b b4 24 90 07 00 	mov    rsi,QWORD PTR [rsp+0x790]
    7429:	00 
    742a:	48 b8 00 00 00 00 00 	movabs rax,0x0
    7431:	00 00 00 
			742c: R_X86_64_64	caml_initialize
    7434:	48 89 b4 24 90 07 00 	mov    QWORD PTR [rsp+0x790],rsi
    743b:	00 
    743c:	48 89 9c 24 98 07 00 	mov    QWORD PTR [rsp+0x798],rbx
    7443:	00 
    7444:	48 89 bc 24 a0 07 00 	mov    QWORD PTR [rsp+0x7a0],rdi
    744b:	00 
    744c:	4c 89 b4 24 a8 07 00 	mov    QWORD PTR [rsp+0x7a8],r14
    7453:	00 
    7454:	ff d0                	call   rax
    7456:	48 8b 9c 24 98 07 00 	mov    rbx,QWORD PTR [rsp+0x798]
    745d:	00 
    745e:	4c 8b b4 24 a8 07 00 	mov    r14,QWORD PTR [rsp+0x7a8]
    7465:	00 
    7466:	48 89 df             	mov    rdi,rbx
    7469:	48 83 c7 78          	add    rdi,0x78
    746d:	48 8b b4 24 88 07 00 	mov    rsi,QWORD PTR [rsp+0x788]
    7474:	00 
    7475:	48 b8 00 00 00 00 00 	movabs rax,0x0
    747c:	00 00 00 
			7477: R_X86_64_64	caml_initialize
    747f:	48 89 b4 24 88 07 00 	mov    QWORD PTR [rsp+0x788],rsi
    7486:	00 
    7487:	48 89 9c 24 90 07 00 	mov    QWORD PTR [rsp+0x790],rbx
    748e:	00 
    748f:	48 89 bc 24 98 07 00 	mov    QWORD PTR [rsp+0x798],rdi
    7496:	00 
    7497:	4c 89 b4 24 a0 07 00 	mov    QWORD PTR [rsp+0x7a0],r14
    749e:	00 
    749f:	ff d0                	call   rax
    74a1:	48 8b 9c 24 90 07 00 	mov    rbx,QWORD PTR [rsp+0x790]
    74a8:	00 
    74a9:	4c 8b b4 24 a0 07 00 	mov    r14,QWORD PTR [rsp+0x7a0]
    74b0:	00 
    74b1:	48 89 df             	mov    rdi,rbx
    74b4:	48 81 c7 80 00 00 00 	add    rdi,0x80
    74bb:	48 8b b4 24 80 07 00 	mov    rsi,QWORD PTR [rsp+0x780]
    74c2:	00 
    74c3:	48 b8 00 00 00 00 00 	movabs rax,0x0
    74ca:	00 00 00 
			74c5: R_X86_64_64	caml_initialize
    74cd:	48 89 b4 24 80 07 00 	mov    QWORD PTR [rsp+0x780],rsi
    74d4:	00 
    74d5:	48 89 9c 24 88 07 00 	mov    QWORD PTR [rsp+0x788],rbx
    74dc:	00 
    74dd:	48 89 bc 24 90 07 00 	mov    QWORD PTR [rsp+0x790],rdi
    74e4:	00 
    74e5:	4c 89 b4 24 98 07 00 	mov    QWORD PTR [rsp+0x798],r14
    74ec:	00 
    74ed:	ff d0                	call   rax
    74ef:	48 8b 9c 24 88 07 00 	mov    rbx,QWORD PTR [rsp+0x788]
    74f6:	00 
    74f7:	4c 8b b4 24 98 07 00 	mov    r14,QWORD PTR [rsp+0x798]
    74fe:	00 
    74ff:	48 89 df             	mov    rdi,rbx
    7502:	48 81 c7 88 00 00 00 	add    rdi,0x88
    7509:	48 8b b4 24 78 07 00 	mov    rsi,QWORD PTR [rsp+0x778]
    7510:	00 
    7511:	48 b8 00 00 00 00 00 	movabs rax,0x0
    7518:	00 00 00 
			7513: R_X86_64_64	caml_initialize
    751b:	48 89 b4 24 78 07 00 	mov    QWORD PTR [rsp+0x778],rsi
    7522:	00 
    7523:	48 89 9c 24 80 07 00 	mov    QWORD PTR [rsp+0x780],rbx
    752a:	00 
    752b:	48 89 bc 24 88 07 00 	mov    QWORD PTR [rsp+0x788],rdi
    7532:	00 
    7533:	4c 89 b4 24 90 07 00 	mov    QWORD PTR [rsp+0x790],r14
    753a:	00 
    753b:	ff d0                	call   rax
    753d:	48 8b 9c 24 80 07 00 	mov    rbx,QWORD PTR [rsp+0x780]
    7544:	00 
    7545:	4c 8b b4 24 90 07 00 	mov    r14,QWORD PTR [rsp+0x790]
    754c:	00 
    754d:	48 89 df             	mov    rdi,rbx
    7550:	48 81 c7 90 00 00 00 	add    rdi,0x90
    7557:	48 8b b4 24 70 07 00 	mov    rsi,QWORD PTR [rsp+0x770]
    755e:	00 
    755f:	48 b8 00 00 00 00 00 	movabs rax,0x0
    7566:	00 00 00 
			7561: R_X86_64_64	caml_initialize
    7569:	48 89 b4 24 70 07 00 	mov    QWORD PTR [rsp+0x770],rsi
    7570:	00 
    7571:	48 89 9c 24 78 07 00 	mov    QWORD PTR [rsp+0x778],rbx
    7578:	00 
    7579:	48 89 bc 24 80 07 00 	mov    QWORD PTR [rsp+0x780],rdi
    7580:	00 
    7581:	4c 89 b4 24 88 07 00 	mov    QWORD PTR [rsp+0x788],r14
    7588:	00 
    7589:	ff d0                	call   rax
    758b:	48 8b 9c 24 78 07 00 	mov    rbx,QWORD PTR [rsp+0x778]
    7592:	00 
    7593:	4c 8b b4 24 88 07 00 	mov    r14,QWORD PTR [rsp+0x788]
    759a:	00 
    759b:	48 89 df             	mov    rdi,rbx
    759e:	48 81 c7 98 00 00 00 	add    rdi,0x98
    75a5:	48 8b b4 24 68 07 00 	mov    rsi,QWORD PTR [rsp+0x768]
    75ac:	00 
    75ad:	48 b8 00 00 00 00 00 	movabs rax,0x0
    75b4:	00 00 00 
			75af: R_X86_64_64	caml_initialize
    75b7:	48 89 b4 24 68 07 00 	mov    QWORD PTR [rsp+0x768],rsi
    75be:	00 
    75bf:	48 89 9c 24 70 07 00 	mov    QWORD PTR [rsp+0x770],rbx
    75c6:	00 
    75c7:	48 89 bc 24 78 07 00 	mov    QWORD PTR [rsp+0x778],rdi
    75ce:	00 
    75cf:	4c 89 b4 24 80 07 00 	mov    QWORD PTR [rsp+0x780],r14
    75d6:	00 
    75d7:	ff d0                	call   rax
    75d9:	48 8b 9c 24 70 07 00 	mov    rbx,QWORD PTR [rsp+0x770]
    75e0:	00 
    75e1:	4c 8b b4 24 80 07 00 	mov    r14,QWORD PTR [rsp+0x780]
    75e8:	00 
    75e9:	48 89 df             	mov    rdi,rbx
    75ec:	48 81 c7 a0 00 00 00 	add    rdi,0xa0
    75f3:	48 8b b4 24 60 07 00 	mov    rsi,QWORD PTR [rsp+0x760]
    75fa:	00 
    75fb:	48 b8 00 00 00 00 00 	movabs rax,0x0
    7602:	00 00 00 
			75fd: R_X86_64_64	caml_initialize
    7605:	48 89 b4 24 60 07 00 	mov    QWORD PTR [rsp+0x760],rsi
    760c:	00 
    760d:	48 89 9c 24 68 07 00 	mov    QWORD PTR [rsp+0x768],rbx
    7614:	00 
    7615:	48 89 bc 24 70 07 00 	mov    QWORD PTR [rsp+0x770],rdi
    761c:	00 
    761d:	4c 89 b4 24 78 07 00 	mov    QWORD PTR [rsp+0x778],r14
    7624:	00 
    7625:	ff d0                	call   rax
    7627:	48 8b 9c 24 68 07 00 	mov    rbx,QWORD PTR [rsp+0x768]
    762e:	00 
    762f:	4c 8b b4 24 78 07 00 	mov    r14,QWORD PTR [rsp+0x778]
    7636:	00 
    7637:	48 89 df             	mov    rdi,rbx
    763a:	48 81 c7 a8 00 00 00 	add    rdi,0xa8
    7641:	48 8b b4 24 58 07 00 	mov    rsi,QWORD PTR [rsp+0x758]
    7648:	00 
    7649:	48 b8 00 00 00 00 00 	movabs rax,0x0
    7650:	00 00 00 
			764b: R_X86_64_64	caml_initialize
    7653:	48 89 b4 24 58 07 00 	mov    QWORD PTR [rsp+0x758],rsi
    765a:	00 
    765b:	48 89 9c 24 60 07 00 	mov    QWORD PTR [rsp+0x760],rbx
    7662:	00 
    7663:	48 89 bc 24 68 07 00 	mov    QWORD PTR [rsp+0x768],rdi
    766a:	00 
    766b:	4c 89 b4 24 70 07 00 	mov    QWORD PTR [rsp+0x770],r14
    7672:	00 
    7673:	ff d0                	call   rax
    7675:	48 8b 9c 24 60 07 00 	mov    rbx,QWORD PTR [rsp+0x760]
    767c:	00 
    767d:	4c 8b b4 24 70 07 00 	mov    r14,QWORD PTR [rsp+0x770]
    7684:	00 
    7685:	48 89 df             	mov    rdi,rbx
    7688:	48 81 c7 b0 00 00 00 	add    rdi,0xb0
    768f:	48 8b b4 24 50 07 00 	mov    rsi,QWORD PTR [rsp+0x750]
    7696:	00 
    7697:	48 b8 00 00 00 00 00 	movabs rax,0x0
    769e:	00 00 00 
			7699: R_X86_64_64	caml_initialize
    76a1:	48 89 b4 24 50 07 00 	mov    QWORD PTR [rsp+0x750],rsi
    76a8:	00 
    76a9:	48 89 9c 24 58 07 00 	mov    QWORD PTR [rsp+0x758],rbx
    76b0:	00 
    76b1:	48 89 bc 24 60 07 00 	mov    QWORD PTR [rsp+0x760],rdi
    76b8:	00 
    76b9:	4c 89 b4 24 68 07 00 	mov    QWORD PTR [rsp+0x768],r14
    76c0:	00 
    76c1:	ff d0                	call   rax
    76c3:	48 8b 9c 24 58 07 00 	mov    rbx,QWORD PTR [rsp+0x758]
    76ca:	00 
    76cb:	4c 8b b4 24 68 07 00 	mov    r14,QWORD PTR [rsp+0x768]
    76d2:	00 
    76d3:	48 89 df             	mov    rdi,rbx
    76d6:	48 81 c7 b8 00 00 00 	add    rdi,0xb8
    76dd:	48 8b b4 24 48 07 00 	mov    rsi,QWORD PTR [rsp+0x748]
    76e4:	00 
    76e5:	48 b8 00 00 00 00 00 	movabs rax,0x0
    76ec:	00 00 00 
			76e7: R_X86_64_64	caml_initialize
    76ef:	48 89 b4 24 48 07 00 	mov    QWORD PTR [rsp+0x748],rsi
    76f6:	00 
    76f7:	48 89 9c 24 50 07 00 	mov    QWORD PTR [rsp+0x750],rbx
    76fe:	00 
    76ff:	48 89 bc 24 58 07 00 	mov    QWORD PTR [rsp+0x758],rdi
    7706:	00 
    7707:	4c 89 b4 24 60 07 00 	mov    QWORD PTR [rsp+0x760],r14
    770e:	00 
    770f:	ff d0                	call   rax
    7711:	48 8b 9c 24 50 07 00 	mov    rbx,QWORD PTR [rsp+0x750]
    7718:	00 
    7719:	4c 8b b4 24 60 07 00 	mov    r14,QWORD PTR [rsp+0x760]
    7720:	00 
    7721:	48 89 df             	mov    rdi,rbx
    7724:	48 81 c7 c0 00 00 00 	add    rdi,0xc0
    772b:	48 8b b4 24 40 07 00 	mov    rsi,QWORD PTR [rsp+0x740]
    7732:	00 
    7733:	48 b8 00 00 00 00 00 	movabs rax,0x0
    773a:	00 00 00 
			7735: R_X86_64_64	caml_initialize
    773d:	48 89 b4 24 40 07 00 	mov    QWORD PTR [rsp+0x740],rsi
    7744:	00 
    7745:	48 89 9c 24 48 07 00 	mov    QWORD PTR [rsp+0x748],rbx
    774c:	00 
    774d:	48 89 bc 24 50 07 00 	mov    QWORD PTR [rsp+0x750],rdi
    7754:	00 
    7755:	4c 89 b4 24 58 07 00 	mov    QWORD PTR [rsp+0x758],r14
    775c:	00 
    775d:	ff d0                	call   rax
    775f:	48 8b 9c 24 48 07 00 	mov    rbx,QWORD PTR [rsp+0x748]
    7766:	00 
    7767:	4c 8b b4 24 58 07 00 	mov    r14,QWORD PTR [rsp+0x758]
    776e:	00 
    776f:	48 89 df             	mov    rdi,rbx
    7772:	48 81 c7 c8 00 00 00 	add    rdi,0xc8
    7779:	48 8b b4 24 38 07 00 	mov    rsi,QWORD PTR [rsp+0x738]
    7780:	00 
    7781:	48 b8 00 00 00 00 00 	movabs rax,0x0
    7788:	00 00 00 
			7783: R_X86_64_64	caml_initialize
    778b:	48 89 b4 24 38 07 00 	mov    QWORD PTR [rsp+0x738],rsi
    7792:	00 
    7793:	48 89 9c 24 40 07 00 	mov    QWORD PTR [rsp+0x740],rbx
    779a:	00 
    779b:	48 89 bc 24 48 07 00 	mov    QWORD PTR [rsp+0x748],rdi
    77a2:	00 
    77a3:	4c 89 b4 24 50 07 00 	mov    QWORD PTR [rsp+0x750],r14
    77aa:	00 
    77ab:	ff d0                	call   rax
    77ad:	48 8b 9c 24 40 07 00 	mov    rbx,QWORD PTR [rsp+0x740]
    77b4:	00 
    77b5:	4c 8b b4 24 50 07 00 	mov    r14,QWORD PTR [rsp+0x750]
    77bc:	00 
    77bd:	48 89 df             	mov    rdi,rbx
    77c0:	48 81 c7 d0 00 00 00 	add    rdi,0xd0
    77c7:	48 8b b4 24 30 07 00 	mov    rsi,QWORD PTR [rsp+0x730]
    77ce:	00 
    77cf:	48 b8 00 00 00 00 00 	movabs rax,0x0
    77d6:	00 00 00 
			77d1: R_X86_64_64	caml_initialize
    77d9:	48 89 b4 24 30 07 00 	mov    QWORD PTR [rsp+0x730],rsi
    77e0:	00 
    77e1:	48 89 9c 24 38 07 00 	mov    QWORD PTR [rsp+0x738],rbx
    77e8:	00 
    77e9:	48 89 bc 24 40 07 00 	mov    QWORD PTR [rsp+0x740],rdi
    77f0:	00 
    77f1:	4c 89 b4 24 48 07 00 	mov    QWORD PTR [rsp+0x748],r14
    77f8:	00 
    77f9:	ff d0                	call   rax
    77fb:	48 8b 9c 24 38 07 00 	mov    rbx,QWORD PTR [rsp+0x738]
    7802:	00 
    7803:	4c 8b b4 24 48 07 00 	mov    r14,QWORD PTR [rsp+0x748]
    780a:	00 
    780b:	48 89 df             	mov    rdi,rbx
    780e:	48 81 c7 d8 00 00 00 	add    rdi,0xd8
    7815:	48 8b b4 24 28 07 00 	mov    rsi,QWORD PTR [rsp+0x728]
    781c:	00 
    781d:	48 b8 00 00 00 00 00 	movabs rax,0x0
    7824:	00 00 00 
			781f: R_X86_64_64	caml_initialize
    7827:	48 89 b4 24 28 07 00 	mov    QWORD PTR [rsp+0x728],rsi
    782e:	00 
    782f:	48 89 9c 24 30 07 00 	mov    QWORD PTR [rsp+0x730],rbx
    7836:	00 
    7837:	48 89 bc 24 38 07 00 	mov    QWORD PTR [rsp+0x738],rdi
    783e:	00 
    783f:	4c 89 b4 24 40 07 00 	mov    QWORD PTR [rsp+0x740],r14
    7846:	00 
    7847:	ff d0                	call   rax
    7849:	48 8b 9c 24 30 07 00 	mov    rbx,QWORD PTR [rsp+0x730]
    7850:	00 
    7851:	4c 8b b4 24 40 07 00 	mov    r14,QWORD PTR [rsp+0x740]
    7858:	00 
    7859:	48 89 df             	mov    rdi,rbx
    785c:	48 81 c7 e0 00 00 00 	add    rdi,0xe0
    7863:	48 8b b4 24 20 07 00 	mov    rsi,QWORD PTR [rsp+0x720]
    786a:	00 
    786b:	48 b8 00 00 00 00 00 	movabs rax,0x0
    7872:	00 00 00 
			786d: R_X86_64_64	caml_initialize
    7875:	48 89 b4 24 20 07 00 	mov    QWORD PTR [rsp+0x720],rsi
    787c:	00 
    787d:	48 89 9c 24 28 07 00 	mov    QWORD PTR [rsp+0x728],rbx
    7884:	00 
    7885:	48 89 bc 24 30 07 00 	mov    QWORD PTR [rsp+0x730],rdi
    788c:	00 
    788d:	4c 89 b4 24 38 07 00 	mov    QWORD PTR [rsp+0x738],r14
    7894:	00 
    7895:	ff d0                	call   rax
    7897:	48 8b 9c 24 28 07 00 	mov    rbx,QWORD PTR [rsp+0x728]
    789e:	00 
    789f:	4c 8b b4 24 38 07 00 	mov    r14,QWORD PTR [rsp+0x738]
    78a6:	00 
    78a7:	48 89 df             	mov    rdi,rbx
    78aa:	48 81 c7 e8 00 00 00 	add    rdi,0xe8
    78b1:	48 8b b4 24 18 07 00 	mov    rsi,QWORD PTR [rsp+0x718]
    78b8:	00 
    78b9:	48 b8 00 00 00 00 00 	movabs rax,0x0
    78c0:	00 00 00 
			78bb: R_X86_64_64	caml_initialize
    78c3:	48 89 b4 24 18 07 00 	mov    QWORD PTR [rsp+0x718],rsi
    78ca:	00 
    78cb:	48 89 9c 24 20 07 00 	mov    QWORD PTR [rsp+0x720],rbx
    78d2:	00 
    78d3:	48 89 bc 24 28 07 00 	mov    QWORD PTR [rsp+0x728],rdi
    78da:	00 
    78db:	4c 89 b4 24 30 07 00 	mov    QWORD PTR [rsp+0x730],r14
    78e2:	00 
    78e3:	ff d0                	call   rax
    78e5:	48 8b 9c 24 20 07 00 	mov    rbx,QWORD PTR [rsp+0x720]
    78ec:	00 
    78ed:	4c 8b b4 24 30 07 00 	mov    r14,QWORD PTR [rsp+0x730]
    78f4:	00 
    78f5:	48 89 df             	mov    rdi,rbx
    78f8:	48 81 c7 f0 00 00 00 	add    rdi,0xf0
    78ff:	48 8b b4 24 10 07 00 	mov    rsi,QWORD PTR [rsp+0x710]
    7906:	00 
    7907:	48 b8 00 00 00 00 00 	movabs rax,0x0
    790e:	00 00 00 
			7909: R_X86_64_64	caml_initialize
    7911:	48 89 b4 24 10 07 00 	mov    QWORD PTR [rsp+0x710],rsi
    7918:	00 
    7919:	48 89 9c 24 18 07 00 	mov    QWORD PTR [rsp+0x718],rbx
    7920:	00 
    7921:	48 89 bc 24 20 07 00 	mov    QWORD PTR [rsp+0x720],rdi
    7928:	00 
    7929:	4c 89 b4 24 28 07 00 	mov    QWORD PTR [rsp+0x728],r14
    7930:	00 
    7931:	ff d0                	call   rax
    7933:	48 8b 9c 24 18 07 00 	mov    rbx,QWORD PTR [rsp+0x718]
    793a:	00 
    793b:	4c 8b b4 24 28 07 00 	mov    r14,QWORD PTR [rsp+0x728]
    7942:	00 
    7943:	48 89 df             	mov    rdi,rbx
    7946:	48 81 c7 f8 00 00 00 	add    rdi,0xf8
    794d:	48 8b b4 24 08 07 00 	mov    rsi,QWORD PTR [rsp+0x708]
    7954:	00 
    7955:	48 b8 00 00 00 00 00 	movabs rax,0x0
    795c:	00 00 00 
			7957: R_X86_64_64	caml_initialize
    795f:	48 89 b4 24 08 07 00 	mov    QWORD PTR [rsp+0x708],rsi
    7966:	00 
    7967:	48 89 9c 24 10 07 00 	mov    QWORD PTR [rsp+0x710],rbx
    796e:	00 
    796f:	48 89 bc 24 18 07 00 	mov    QWORD PTR [rsp+0x718],rdi
    7976:	00 
    7977:	4c 89 b4 24 20 07 00 	mov    QWORD PTR [rsp+0x720],r14
    797e:	00 
    797f:	ff d0                	call   rax
    7981:	48 8b 9c 24 10 07 00 	mov    rbx,QWORD PTR [rsp+0x710]
    7988:	00 
    7989:	4c 8b b4 24 20 07 00 	mov    r14,QWORD PTR [rsp+0x720]
    7990:	00 
    7991:	48 89 df             	mov    rdi,rbx
    7994:	48 81 c7 00 01 00 00 	add    rdi,0x100
    799b:	48 8b b4 24 00 07 00 	mov    rsi,QWORD PTR [rsp+0x700]
    79a2:	00 
    79a3:	48 b8 00 00 00 00 00 	movabs rax,0x0
    79aa:	00 00 00 
			79a5: R_X86_64_64	caml_initialize
    79ad:	48 89 b4 24 00 07 00 	mov    QWORD PTR [rsp+0x700],rsi
    79b4:	00 
    79b5:	48 89 9c 24 08 07 00 	mov    QWORD PTR [rsp+0x708],rbx
    79bc:	00 
    79bd:	48 89 bc 24 10 07 00 	mov    QWORD PTR [rsp+0x710],rdi
    79c4:	00 
    79c5:	4c 89 b4 24 18 07 00 	mov    QWORD PTR [rsp+0x718],r14
    79cc:	00 
    79cd:	ff d0                	call   rax
    79cf:	48 8b 9c 24 08 07 00 	mov    rbx,QWORD PTR [rsp+0x708]
    79d6:	00 
    79d7:	4c 8b b4 24 18 07 00 	mov    r14,QWORD PTR [rsp+0x718]
    79de:	00 
    79df:	48 89 df             	mov    rdi,rbx
    79e2:	48 81 c7 08 01 00 00 	add    rdi,0x108
    79e9:	48 8b b4 24 f8 06 00 	mov    rsi,QWORD PTR [rsp+0x6f8]
    79f0:	00 
    79f1:	48 b8 00 00 00 00 00 	movabs rax,0x0
    79f8:	00 00 00 
			79f3: R_X86_64_64	caml_initialize
    79fb:	48 89 b4 24 f8 06 00 	mov    QWORD PTR [rsp+0x6f8],rsi
    7a02:	00 
    7a03:	48 89 9c 24 00 07 00 	mov    QWORD PTR [rsp+0x700],rbx
    7a0a:	00 
    7a0b:	48 89 bc 24 08 07 00 	mov    QWORD PTR [rsp+0x708],rdi
    7a12:	00 
    7a13:	4c 89 b4 24 10 07 00 	mov    QWORD PTR [rsp+0x710],r14
    7a1a:	00 
    7a1b:	ff d0                	call   rax
    7a1d:	48 8b 9c 24 00 07 00 	mov    rbx,QWORD PTR [rsp+0x700]
    7a24:	00 
    7a25:	4c 8b b4 24 10 07 00 	mov    r14,QWORD PTR [rsp+0x710]
    7a2c:	00 
    7a2d:	48 89 df             	mov    rdi,rbx
    7a30:	48 81 c7 10 01 00 00 	add    rdi,0x110
    7a37:	48 8b b4 24 f0 06 00 	mov    rsi,QWORD PTR [rsp+0x6f0]
    7a3e:	00 
    7a3f:	48 b8 00 00 00 00 00 	movabs rax,0x0
    7a46:	00 00 00 
			7a41: R_X86_64_64	caml_initialize
    7a49:	48 89 b4 24 f0 06 00 	mov    QWORD PTR [rsp+0x6f0],rsi
    7a50:	00 
    7a51:	48 89 9c 24 f8 06 00 	mov    QWORD PTR [rsp+0x6f8],rbx
    7a58:	00 
    7a59:	48 89 bc 24 00 07 00 	mov    QWORD PTR [rsp+0x700],rdi
    7a60:	00 
    7a61:	4c 89 b4 24 08 07 00 	mov    QWORD PTR [rsp+0x708],r14
    7a68:	00 
    7a69:	ff d0                	call   rax
    7a6b:	48 8b 9c 24 f8 06 00 	mov    rbx,QWORD PTR [rsp+0x6f8]
    7a72:	00 
    7a73:	4c 8b b4 24 08 07 00 	mov    r14,QWORD PTR [rsp+0x708]
    7a7a:	00 
    7a7b:	48 89 df             	mov    rdi,rbx
    7a7e:	48 81 c7 18 01 00 00 	add    rdi,0x118
    7a85:	48 8b b4 24 e8 06 00 	mov    rsi,QWORD PTR [rsp+0x6e8]
    7a8c:	00 
    7a8d:	48 b8 00 00 00 00 00 	movabs rax,0x0
    7a94:	00 00 00 
			7a8f: R_X86_64_64	caml_initialize
    7a97:	48 89 b4 24 e8 06 00 	mov    QWORD PTR [rsp+0x6e8],rsi
    7a9e:	00 
    7a9f:	48 89 9c 24 f0 06 00 	mov    QWORD PTR [rsp+0x6f0],rbx
    7aa6:	00 
    7aa7:	48 89 bc 24 f8 06 00 	mov    QWORD PTR [rsp+0x6f8],rdi
    7aae:	00 
    7aaf:	4c 89 b4 24 00 07 00 	mov    QWORD PTR [rsp+0x700],r14
    7ab6:	00 
    7ab7:	ff d0                	call   rax
    7ab9:	48 8b 9c 24 f0 06 00 	mov    rbx,QWORD PTR [rsp+0x6f0]
    7ac0:	00 
    7ac1:	4c 8b b4 24 00 07 00 	mov    r14,QWORD PTR [rsp+0x700]
    7ac8:	00 
    7ac9:	48 89 df             	mov    rdi,rbx
    7acc:	48 81 c7 20 01 00 00 	add    rdi,0x120
    7ad3:	48 8b b4 24 e0 06 00 	mov    rsi,QWORD PTR [rsp+0x6e0]
    7ada:	00 
    7adb:	48 b8 00 00 00 00 00 	movabs rax,0x0
    7ae2:	00 00 00 
			7add: R_X86_64_64	caml_initialize
    7ae5:	48 89 b4 24 e0 06 00 	mov    QWORD PTR [rsp+0x6e0],rsi
    7aec:	00 
    7aed:	48 89 9c 24 e8 06 00 	mov    QWORD PTR [rsp+0x6e8],rbx
    7af4:	00 
    7af5:	48 89 bc 24 f0 06 00 	mov    QWORD PTR [rsp+0x6f0],rdi
    7afc:	00 
    7afd:	4c 89 b4 24 f8 06 00 	mov    QWORD PTR [rsp+0x6f8],r14
    7b04:	00 
    7b05:	ff d0                	call   rax
    7b07:	48 8b 9c 24 e8 06 00 	mov    rbx,QWORD PTR [rsp+0x6e8]
    7b0e:	00 
    7b0f:	4c 8b b4 24 f8 06 00 	mov    r14,QWORD PTR [rsp+0x6f8]
    7b16:	00 
    7b17:	48 89 df             	mov    rdi,rbx
    7b1a:	48 81 c7 28 01 00 00 	add    rdi,0x128
    7b21:	48 8b b4 24 d8 06 00 	mov    rsi,QWORD PTR [rsp+0x6d8]
    7b28:	00 
    7b29:	48 b8 00 00 00 00 00 	movabs rax,0x0
    7b30:	00 00 00 
			7b2b: R_X86_64_64	caml_initialize
    7b33:	48 89 b4 24 d8 06 00 	mov    QWORD PTR [rsp+0x6d8],rsi
    7b3a:	00 
    7b3b:	48 89 9c 24 e0 06 00 	mov    QWORD PTR [rsp+0x6e0],rbx
    7b42:	00 
    7b43:	48 89 bc 24 e8 06 00 	mov    QWORD PTR [rsp+0x6e8],rdi
    7b4a:	00 
    7b4b:	4c 89 b4 24 f0 06 00 	mov    QWORD PTR [rsp+0x6f0],r14
    7b52:	00 
    7b53:	ff d0                	call   rax
    7b55:	48 8b 9c 24 e0 06 00 	mov    rbx,QWORD PTR [rsp+0x6e0]
    7b5c:	00 
    7b5d:	4c 8b b4 24 f0 06 00 	mov    r14,QWORD PTR [rsp+0x6f0]
    7b64:	00 
    7b65:	48 89 df             	mov    rdi,rbx
    7b68:	48 81 c7 30 01 00 00 	add    rdi,0x130
    7b6f:	48 8b b4 24 d0 06 00 	mov    rsi,QWORD PTR [rsp+0x6d0]
    7b76:	00 
    7b77:	48 b8 00 00 00 00 00 	movabs rax,0x0
    7b7e:	00 00 00 
			7b79: R_X86_64_64	caml_initialize
    7b81:	48 89 b4 24 d0 06 00 	mov    QWORD PTR [rsp+0x6d0],rsi
    7b88:	00 
    7b89:	48 89 9c 24 d8 06 00 	mov    QWORD PTR [rsp+0x6d8],rbx
    7b90:	00 
    7b91:	48 89 bc 24 e0 06 00 	mov    QWORD PTR [rsp+0x6e0],rdi
    7b98:	00 
    7b99:	4c 89 b4 24 e8 06 00 	mov    QWORD PTR [rsp+0x6e8],r14
    7ba0:	00 
    7ba1:	ff d0                	call   rax
    7ba3:	48 8b 9c 24 d8 06 00 	mov    rbx,QWORD PTR [rsp+0x6d8]
    7baa:	00 
    7bab:	4c 8b b4 24 e8 06 00 	mov    r14,QWORD PTR [rsp+0x6e8]
    7bb2:	00 
    7bb3:	48 89 df             	mov    rdi,rbx
    7bb6:	48 81 c7 38 01 00 00 	add    rdi,0x138
    7bbd:	48 8b b4 24 c8 06 00 	mov    rsi,QWORD PTR [rsp+0x6c8]
    7bc4:	00 
    7bc5:	48 b8 00 00 00 00 00 	movabs rax,0x0
    7bcc:	00 00 00 
			7bc7: R_X86_64_64	caml_initialize
    7bcf:	48 89 b4 24 c8 06 00 	mov    QWORD PTR [rsp+0x6c8],rsi
    7bd6:	00 
    7bd7:	48 89 9c 24 d0 06 00 	mov    QWORD PTR [rsp+0x6d0],rbx
    7bde:	00 
    7bdf:	48 89 bc 24 d8 06 00 	mov    QWORD PTR [rsp+0x6d8],rdi
    7be6:	00 
    7be7:	4c 89 b4 24 e0 06 00 	mov    QWORD PTR [rsp+0x6e0],r14
    7bee:	00 
    7bef:	ff d0                	call   rax
    7bf1:	48 8b 9c 24 d0 06 00 	mov    rbx,QWORD PTR [rsp+0x6d0]
    7bf8:	00 
    7bf9:	4c 8b b4 24 e0 06 00 	mov    r14,QWORD PTR [rsp+0x6e0]
    7c00:	00 
    7c01:	48 89 df             	mov    rdi,rbx
    7c04:	48 81 c7 40 01 00 00 	add    rdi,0x140
    7c0b:	48 8b b4 24 c0 06 00 	mov    rsi,QWORD PTR [rsp+0x6c0]
    7c12:	00 
    7c13:	48 b8 00 00 00 00 00 	movabs rax,0x0
    7c1a:	00 00 00 
			7c15: R_X86_64_64	caml_initialize
    7c1d:	48 89 b4 24 c0 06 00 	mov    QWORD PTR [rsp+0x6c0],rsi
    7c24:	00 
    7c25:	48 89 9c 24 c8 06 00 	mov    QWORD PTR [rsp+0x6c8],rbx
    7c2c:	00 
    7c2d:	48 89 bc 24 d0 06 00 	mov    QWORD PTR [rsp+0x6d0],rdi
    7c34:	00 
    7c35:	4c 89 b4 24 d8 06 00 	mov    QWORD PTR [rsp+0x6d8],r14
    7c3c:	00 
    7c3d:	ff d0                	call   rax
    7c3f:	48 8b 9c 24 c8 06 00 	mov    rbx,QWORD PTR [rsp+0x6c8]
    7c46:	00 
    7c47:	4c 8b b4 24 d8 06 00 	mov    r14,QWORD PTR [rsp+0x6d8]
    7c4e:	00 
    7c4f:	48 89 df             	mov    rdi,rbx
    7c52:	48 81 c7 48 01 00 00 	add    rdi,0x148
    7c59:	48 8b b4 24 b8 06 00 	mov    rsi,QWORD PTR [rsp+0x6b8]
    7c60:	00 
    7c61:	48 b8 00 00 00 00 00 	movabs rax,0x0
    7c68:	00 00 00 
			7c63: R_X86_64_64	caml_initialize
    7c6b:	48 89 b4 24 b8 06 00 	mov    QWORD PTR [rsp+0x6b8],rsi
    7c72:	00 
    7c73:	48 89 9c 24 c0 06 00 	mov    QWORD PTR [rsp+0x6c0],rbx
    7c7a:	00 
    7c7b:	48 89 bc 24 c8 06 00 	mov    QWORD PTR [rsp+0x6c8],rdi
    7c82:	00 
    7c83:	4c 89 b4 24 d0 06 00 	mov    QWORD PTR [rsp+0x6d0],r14
    7c8a:	00 
    7c8b:	ff d0                	call   rax
    7c8d:	48 8b 9c 24 c0 06 00 	mov    rbx,QWORD PTR [rsp+0x6c0]
    7c94:	00 
    7c95:	4c 8b b4 24 d0 06 00 	mov    r14,QWORD PTR [rsp+0x6d0]
    7c9c:	00 
    7c9d:	48 89 df             	mov    rdi,rbx
    7ca0:	48 81 c7 50 01 00 00 	add    rdi,0x150
    7ca7:	48 8b b4 24 b0 06 00 	mov    rsi,QWORD PTR [rsp+0x6b0]
    7cae:	00 
    7caf:	48 b8 00 00 00 00 00 	movabs rax,0x0
    7cb6:	00 00 00 
			7cb1: R_X86_64_64	caml_initialize
    7cb9:	48 89 b4 24 b0 06 00 	mov    QWORD PTR [rsp+0x6b0],rsi
    7cc0:	00 
    7cc1:	48 89 9c 24 b8 06 00 	mov    QWORD PTR [rsp+0x6b8],rbx
    7cc8:	00 
    7cc9:	48 89 bc 24 c0 06 00 	mov    QWORD PTR [rsp+0x6c0],rdi
    7cd0:	00 
    7cd1:	4c 89 b4 24 c8 06 00 	mov    QWORD PTR [rsp+0x6c8],r14
    7cd8:	00 
    7cd9:	ff d0                	call   rax
    7cdb:	48 8b 9c 24 b8 06 00 	mov    rbx,QWORD PTR [rsp+0x6b8]
    7ce2:	00 
    7ce3:	4c 8b b4 24 c8 06 00 	mov    r14,QWORD PTR [rsp+0x6c8]
    7cea:	00 
    7ceb:	48 89 df             	mov    rdi,rbx
    7cee:	48 81 c7 58 01 00 00 	add    rdi,0x158
    7cf5:	48 8b b4 24 a8 06 00 	mov    rsi,QWORD PTR [rsp+0x6a8]
    7cfc:	00 
    7cfd:	48 b8 00 00 00 00 00 	movabs rax,0x0
    7d04:	00 00 00 
			7cff: R_X86_64_64	caml_initialize
    7d07:	48 89 b4 24 a8 06 00 	mov    QWORD PTR [rsp+0x6a8],rsi
    7d0e:	00 
    7d0f:	48 89 9c 24 b0 06 00 	mov    QWORD PTR [rsp+0x6b0],rbx
    7d16:	00 
    7d17:	48 89 bc 24 b8 06 00 	mov    QWORD PTR [rsp+0x6b8],rdi
    7d1e:	00 
    7d1f:	4c 89 b4 24 c0 06 00 	mov    QWORD PTR [rsp+0x6c0],r14
    7d26:	00 
    7d27:	ff d0                	call   rax
    7d29:	48 8b 9c 24 b0 06 00 	mov    rbx,QWORD PTR [rsp+0x6b0]
    7d30:	00 
    7d31:	4c 8b b4 24 c0 06 00 	mov    r14,QWORD PTR [rsp+0x6c0]
    7d38:	00 
    7d39:	48 89 df             	mov    rdi,rbx
    7d3c:	48 81 c7 60 01 00 00 	add    rdi,0x160
    7d43:	48 8b b4 24 a0 06 00 	mov    rsi,QWORD PTR [rsp+0x6a0]
    7d4a:	00 
    7d4b:	48 b8 00 00 00 00 00 	movabs rax,0x0
    7d52:	00 00 00 
			7d4d: R_X86_64_64	caml_initialize
    7d55:	48 89 b4 24 a0 06 00 	mov    QWORD PTR [rsp+0x6a0],rsi
    7d5c:	00 
    7d5d:	48 89 9c 24 a8 06 00 	mov    QWORD PTR [rsp+0x6a8],rbx
    7d64:	00 
    7d65:	48 89 bc 24 b0 06 00 	mov    QWORD PTR [rsp+0x6b0],rdi
    7d6c:	00 
    7d6d:	4c 89 b4 24 b8 06 00 	mov    QWORD PTR [rsp+0x6b8],r14
    7d74:	00 
    7d75:	ff d0                	call   rax
    7d77:	48 8b 9c 24 a8 06 00 	mov    rbx,QWORD PTR [rsp+0x6a8]
    7d7e:	00 
    7d7f:	4c 8b b4 24 b8 06 00 	mov    r14,QWORD PTR [rsp+0x6b8]
    7d86:	00 
    7d87:	48 89 df             	mov    rdi,rbx
    7d8a:	48 81 c7 68 01 00 00 	add    rdi,0x168
    7d91:	48 8b b4 24 98 06 00 	mov    rsi,QWORD PTR [rsp+0x698]
    7d98:	00 
    7d99:	48 b8 00 00 00 00 00 	movabs rax,0x0
    7da0:	00 00 00 
			7d9b: R_X86_64_64	caml_initialize
    7da3:	48 89 b4 24 98 06 00 	mov    QWORD PTR [rsp+0x698],rsi
    7daa:	00 
    7dab:	48 89 9c 24 a0 06 00 	mov    QWORD PTR [rsp+0x6a0],rbx
    7db2:	00 
    7db3:	48 89 bc 24 a8 06 00 	mov    QWORD PTR [rsp+0x6a8],rdi
    7dba:	00 
    7dbb:	4c 89 b4 24 b0 06 00 	mov    QWORD PTR [rsp+0x6b0],r14
    7dc2:	00 
    7dc3:	ff d0                	call   rax
    7dc5:	48 8b 9c 24 a0 06 00 	mov    rbx,QWORD PTR [rsp+0x6a0]
    7dcc:	00 
    7dcd:	4c 8b b4 24 b0 06 00 	mov    r14,QWORD PTR [rsp+0x6b0]
    7dd4:	00 
    7dd5:	48 89 df             	mov    rdi,rbx
    7dd8:	48 81 c7 70 01 00 00 	add    rdi,0x170
    7ddf:	48 8b b4 24 90 06 00 	mov    rsi,QWORD PTR [rsp+0x690]
    7de6:	00 
    7de7:	48 b8 00 00 00 00 00 	movabs rax,0x0
    7dee:	00 00 00 
			7de9: R_X86_64_64	caml_initialize
    7df1:	48 89 b4 24 90 06 00 	mov    QWORD PTR [rsp+0x690],rsi
    7df8:	00 
    7df9:	48 89 9c 24 98 06 00 	mov    QWORD PTR [rsp+0x698],rbx
    7e00:	00 
    7e01:	48 89 bc 24 a0 06 00 	mov    QWORD PTR [rsp+0x6a0],rdi
    7e08:	00 
    7e09:	4c 89 b4 24 a8 06 00 	mov    QWORD PTR [rsp+0x6a8],r14
    7e10:	00 
    7e11:	ff d0                	call   rax
    7e13:	48 8b 9c 24 98 06 00 	mov    rbx,QWORD PTR [rsp+0x698]
    7e1a:	00 
    7e1b:	4c 8b b4 24 a8 06 00 	mov    r14,QWORD PTR [rsp+0x6a8]
    7e22:	00 
    7e23:	48 89 df             	mov    rdi,rbx
    7e26:	48 81 c7 78 01 00 00 	add    rdi,0x178
    7e2d:	48 8b b4 24 88 06 00 	mov    rsi,QWORD PTR [rsp+0x688]
    7e34:	00 
    7e35:	48 b8 00 00 00 00 00 	movabs rax,0x0
    7e3c:	00 00 00 
			7e37: R_X86_64_64	caml_initialize
    7e3f:	48 89 b4 24 88 06 00 	mov    QWORD PTR [rsp+0x688],rsi
    7e46:	00 
    7e47:	48 89 9c 24 90 06 00 	mov    QWORD PTR [rsp+0x690],rbx
    7e4e:	00 
    7e4f:	48 89 bc 24 98 06 00 	mov    QWORD PTR [rsp+0x698],rdi
    7e56:	00 
    7e57:	4c 89 b4 24 a0 06 00 	mov    QWORD PTR [rsp+0x6a0],r14
    7e5e:	00 
    7e5f:	ff d0                	call   rax
    7e61:	48 8b 9c 24 90 06 00 	mov    rbx,QWORD PTR [rsp+0x690]
    7e68:	00 
    7e69:	4c 8b b4 24 a0 06 00 	mov    r14,QWORD PTR [rsp+0x6a0]
    7e70:	00 
    7e71:	48 89 df             	mov    rdi,rbx
    7e74:	48 81 c7 80 01 00 00 	add    rdi,0x180
    7e7b:	48 8b b4 24 80 06 00 	mov    rsi,QWORD PTR [rsp+0x680]
    7e82:	00 
    7e83:	48 b8 00 00 00 00 00 	movabs rax,0x0
    7e8a:	00 00 00 
			7e85: R_X86_64_64	caml_initialize
    7e8d:	48 89 b4 24 80 06 00 	mov    QWORD PTR [rsp+0x680],rsi
    7e94:	00 
    7e95:	48 89 9c 24 88 06 00 	mov    QWORD PTR [rsp+0x688],rbx
    7e9c:	00 
    7e9d:	48 89 bc 24 90 06 00 	mov    QWORD PTR [rsp+0x690],rdi
    7ea4:	00 
    7ea5:	4c 89 b4 24 98 06 00 	mov    QWORD PTR [rsp+0x698],r14
    7eac:	00 
    7ead:	ff d0                	call   rax
    7eaf:	48 8b 9c 24 88 06 00 	mov    rbx,QWORD PTR [rsp+0x688]
    7eb6:	00 
    7eb7:	4c 8b b4 24 98 06 00 	mov    r14,QWORD PTR [rsp+0x698]
    7ebe:	00 
    7ebf:	48 89 df             	mov    rdi,rbx
    7ec2:	48 81 c7 88 01 00 00 	add    rdi,0x188
    7ec9:	48 8b b4 24 78 06 00 	mov    rsi,QWORD PTR [rsp+0x678]
    7ed0:	00 
    7ed1:	48 b8 00 00 00 00 00 	movabs rax,0x0
    7ed8:	00 00 00 
			7ed3: R_X86_64_64	caml_initialize
    7edb:	48 89 b4 24 78 06 00 	mov    QWORD PTR [rsp+0x678],rsi
    7ee2:	00 
    7ee3:	48 89 9c 24 80 06 00 	mov    QWORD PTR [rsp+0x680],rbx
    7eea:	00 
    7eeb:	48 89 bc 24 88 06 00 	mov    QWORD PTR [rsp+0x688],rdi
    7ef2:	00 
    7ef3:	4c 89 b4 24 90 06 00 	mov    QWORD PTR [rsp+0x690],r14
    7efa:	00 
    7efb:	ff d0                	call   rax
    7efd:	48 8b 9c 24 80 06 00 	mov    rbx,QWORD PTR [rsp+0x680]
    7f04:	00 
    7f05:	4c 8b b4 24 90 06 00 	mov    r14,QWORD PTR [rsp+0x690]
    7f0c:	00 
    7f0d:	48 89 df             	mov    rdi,rbx
    7f10:	48 81 c7 90 01 00 00 	add    rdi,0x190
    7f17:	48 8b b4 24 70 06 00 	mov    rsi,QWORD PTR [rsp+0x670]
    7f1e:	00 
    7f1f:	48 b8 00 00 00 00 00 	movabs rax,0x0
    7f26:	00 00 00 
			7f21: R_X86_64_64	caml_initialize
    7f29:	48 89 b4 24 70 06 00 	mov    QWORD PTR [rsp+0x670],rsi
    7f30:	00 
    7f31:	48 89 9c 24 78 06 00 	mov    QWORD PTR [rsp+0x678],rbx
    7f38:	00 
    7f39:	48 89 bc 24 80 06 00 	mov    QWORD PTR [rsp+0x680],rdi
    7f40:	00 
    7f41:	4c 89 b4 24 88 06 00 	mov    QWORD PTR [rsp+0x688],r14
    7f48:	00 
    7f49:	ff d0                	call   rax
    7f4b:	48 8b 9c 24 78 06 00 	mov    rbx,QWORD PTR [rsp+0x678]
    7f52:	00 
    7f53:	4c 8b b4 24 88 06 00 	mov    r14,QWORD PTR [rsp+0x688]
    7f5a:	00 
    7f5b:	48 89 df             	mov    rdi,rbx
    7f5e:	48 81 c7 98 01 00 00 	add    rdi,0x198
    7f65:	48 8b b4 24 68 06 00 	mov    rsi,QWORD PTR [rsp+0x668]
    7f6c:	00 
    7f6d:	48 b8 00 00 00 00 00 	movabs rax,0x0
    7f74:	00 00 00 
			7f6f: R_X86_64_64	caml_initialize
    7f77:	48 89 b4 24 68 06 00 	mov    QWORD PTR [rsp+0x668],rsi
    7f7e:	00 
    7f7f:	48 89 9c 24 70 06 00 	mov    QWORD PTR [rsp+0x670],rbx
    7f86:	00 
    7f87:	48 89 bc 24 78 06 00 	mov    QWORD PTR [rsp+0x678],rdi
    7f8e:	00 
    7f8f:	4c 89 b4 24 80 06 00 	mov    QWORD PTR [rsp+0x680],r14
    7f96:	00 
    7f97:	ff d0                	call   rax
    7f99:	48 8b 9c 24 70 06 00 	mov    rbx,QWORD PTR [rsp+0x670]
    7fa0:	00 
    7fa1:	4c 8b b4 24 80 06 00 	mov    r14,QWORD PTR [rsp+0x680]
    7fa8:	00 
    7fa9:	48 89 df             	mov    rdi,rbx
    7fac:	48 81 c7 a0 01 00 00 	add    rdi,0x1a0
    7fb3:	48 8b b4 24 60 06 00 	mov    rsi,QWORD PTR [rsp+0x660]
    7fba:	00 
    7fbb:	48 b8 00 00 00 00 00 	movabs rax,0x0
    7fc2:	00 00 00 
			7fbd: R_X86_64_64	caml_initialize
    7fc5:	48 89 b4 24 60 06 00 	mov    QWORD PTR [rsp+0x660],rsi
    7fcc:	00 
    7fcd:	48 89 9c 24 68 06 00 	mov    QWORD PTR [rsp+0x668],rbx
    7fd4:	00 
    7fd5:	48 89 bc 24 70 06 00 	mov    QWORD PTR [rsp+0x670],rdi
    7fdc:	00 
    7fdd:	4c 89 b4 24 78 06 00 	mov    QWORD PTR [rsp+0x678],r14
    7fe4:	00 
    7fe5:	ff d0                	call   rax
    7fe7:	48 8b 9c 24 68 06 00 	mov    rbx,QWORD PTR [rsp+0x668]
    7fee:	00 
    7fef:	4c 8b b4 24 78 06 00 	mov    r14,QWORD PTR [rsp+0x678]
    7ff6:	00 
    7ff7:	48 89 df             	mov    rdi,rbx
    7ffa:	48 81 c7 a8 01 00 00 	add    rdi,0x1a8
    8001:	48 8b b4 24 58 06 00 	mov    rsi,QWORD PTR [rsp+0x658]
    8008:	00 
    8009:	48 b8 00 00 00 00 00 	movabs rax,0x0
    8010:	00 00 00 
			800b: R_X86_64_64	caml_initialize
    8013:	48 89 b4 24 58 06 00 	mov    QWORD PTR [rsp+0x658],rsi
    801a:	00 
    801b:	48 89 9c 24 60 06 00 	mov    QWORD PTR [rsp+0x660],rbx
    8022:	00 
    8023:	48 89 bc 24 68 06 00 	mov    QWORD PTR [rsp+0x668],rdi
    802a:	00 
    802b:	4c 89 b4 24 70 06 00 	mov    QWORD PTR [rsp+0x670],r14
    8032:	00 
    8033:	ff d0                	call   rax
    8035:	48 8b 9c 24 60 06 00 	mov    rbx,QWORD PTR [rsp+0x660]
    803c:	00 
    803d:	4c 8b b4 24 70 06 00 	mov    r14,QWORD PTR [rsp+0x670]
    8044:	00 
    8045:	48 89 df             	mov    rdi,rbx
    8048:	48 81 c7 b0 01 00 00 	add    rdi,0x1b0
    804f:	48 8b b4 24 50 06 00 	mov    rsi,QWORD PTR [rsp+0x650]
    8056:	00 
    8057:	48 b8 00 00 00 00 00 	movabs rax,0x0
    805e:	00 00 00 
			8059: R_X86_64_64	caml_initialize
    8061:	48 89 b4 24 50 06 00 	mov    QWORD PTR [rsp+0x650],rsi
    8068:	00 
    8069:	48 89 9c 24 58 06 00 	mov    QWORD PTR [rsp+0x658],rbx
    8070:	00 
    8071:	48 89 bc 24 60 06 00 	mov    QWORD PTR [rsp+0x660],rdi
    8078:	00 
    8079:	4c 89 b4 24 68 06 00 	mov    QWORD PTR [rsp+0x668],r14
    8080:	00 
    8081:	ff d0                	call   rax
    8083:	48 8b 9c 24 58 06 00 	mov    rbx,QWORD PTR [rsp+0x658]
    808a:	00 
    808b:	4c 8b b4 24 68 06 00 	mov    r14,QWORD PTR [rsp+0x668]
    8092:	00 
    8093:	48 89 df             	mov    rdi,rbx
    8096:	48 81 c7 b8 01 00 00 	add    rdi,0x1b8
    809d:	48 8b b4 24 48 06 00 	mov    rsi,QWORD PTR [rsp+0x648]
    80a4:	00 
    80a5:	48 b8 00 00 00 00 00 	movabs rax,0x0
    80ac:	00 00 00 
			80a7: R_X86_64_64	caml_initialize
    80af:	48 89 b4 24 48 06 00 	mov    QWORD PTR [rsp+0x648],rsi
    80b6:	00 
    80b7:	48 89 9c 24 50 06 00 	mov    QWORD PTR [rsp+0x650],rbx
    80be:	00 
    80bf:	48 89 bc 24 58 06 00 	mov    QWORD PTR [rsp+0x658],rdi
    80c6:	00 
    80c7:	4c 89 b4 24 60 06 00 	mov    QWORD PTR [rsp+0x660],r14
    80ce:	00 
    80cf:	ff d0                	call   rax
    80d1:	48 8b 9c 24 50 06 00 	mov    rbx,QWORD PTR [rsp+0x650]
    80d8:	00 
    80d9:	4c 8b b4 24 60 06 00 	mov    r14,QWORD PTR [rsp+0x660]
    80e0:	00 
    80e1:	48 89 df             	mov    rdi,rbx
    80e4:	48 81 c7 c0 01 00 00 	add    rdi,0x1c0
    80eb:	48 8b b4 24 40 06 00 	mov    rsi,QWORD PTR [rsp+0x640]
    80f2:	00 
    80f3:	48 b8 00 00 00 00 00 	movabs rax,0x0
    80fa:	00 00 00 
			80f5: R_X86_64_64	caml_initialize
    80fd:	48 89 b4 24 40 06 00 	mov    QWORD PTR [rsp+0x640],rsi
    8104:	00 
    8105:	48 89 9c 24 48 06 00 	mov    QWORD PTR [rsp+0x648],rbx
    810c:	00 
    810d:	48 89 bc 24 50 06 00 	mov    QWORD PTR [rsp+0x650],rdi
    8114:	00 
    8115:	4c 89 b4 24 58 06 00 	mov    QWORD PTR [rsp+0x658],r14
    811c:	00 
    811d:	ff d0                	call   rax
    811f:	48 8b 9c 24 48 06 00 	mov    rbx,QWORD PTR [rsp+0x648]
    8126:	00 
    8127:	4c 8b b4 24 58 06 00 	mov    r14,QWORD PTR [rsp+0x658]
    812e:	00 
    812f:	48 89 df             	mov    rdi,rbx
    8132:	48 81 c7 c8 01 00 00 	add    rdi,0x1c8
    8139:	48 8b b4 24 38 06 00 	mov    rsi,QWORD PTR [rsp+0x638]
    8140:	00 
    8141:	48 b8 00 00 00 00 00 	movabs rax,0x0
    8148:	00 00 00 
			8143: R_X86_64_64	caml_initialize
    814b:	48 89 b4 24 38 06 00 	mov    QWORD PTR [rsp+0x638],rsi
    8152:	00 
    8153:	48 89 9c 24 40 06 00 	mov    QWORD PTR [rsp+0x640],rbx
    815a:	00 
    815b:	48 89 bc 24 48 06 00 	mov    QWORD PTR [rsp+0x648],rdi
    8162:	00 
    8163:	4c 89 b4 24 50 06 00 	mov    QWORD PTR [rsp+0x650],r14
    816a:	00 
    816b:	ff d0                	call   rax
    816d:	48 8b 9c 24 40 06 00 	mov    rbx,QWORD PTR [rsp+0x640]
    8174:	00 
    8175:	4c 8b b4 24 50 06 00 	mov    r14,QWORD PTR [rsp+0x650]
    817c:	00 
    817d:	48 89 df             	mov    rdi,rbx
    8180:	48 81 c7 d0 01 00 00 	add    rdi,0x1d0
    8187:	48 8b b4 24 30 06 00 	mov    rsi,QWORD PTR [rsp+0x630]
    818e:	00 
    818f:	48 b8 00 00 00 00 00 	movabs rax,0x0
    8196:	00 00 00 
			8191: R_X86_64_64	caml_initialize
    8199:	48 89 b4 24 30 06 00 	mov    QWORD PTR [rsp+0x630],rsi
    81a0:	00 
    81a1:	48 89 9c 24 38 06 00 	mov    QWORD PTR [rsp+0x638],rbx
    81a8:	00 
    81a9:	48 89 bc 24 40 06 00 	mov    QWORD PTR [rsp+0x640],rdi
    81b0:	00 
    81b1:	4c 89 b4 24 48 06 00 	mov    QWORD PTR [rsp+0x648],r14
    81b8:	00 
    81b9:	ff d0                	call   rax
    81bb:	48 8b 9c 24 38 06 00 	mov    rbx,QWORD PTR [rsp+0x638]
    81c2:	00 
    81c3:	4c 8b b4 24 48 06 00 	mov    r14,QWORD PTR [rsp+0x648]
    81ca:	00 
    81cb:	48 89 df             	mov    rdi,rbx
    81ce:	48 81 c7 d8 01 00 00 	add    rdi,0x1d8
    81d5:	48 8b b4 24 28 06 00 	mov    rsi,QWORD PTR [rsp+0x628]
    81dc:	00 
    81dd:	48 b8 00 00 00 00 00 	movabs rax,0x0
    81e4:	00 00 00 
			81df: R_X86_64_64	caml_initialize
    81e7:	48 89 b4 24 28 06 00 	mov    QWORD PTR [rsp+0x628],rsi
    81ee:	00 
    81ef:	48 89 9c 24 30 06 00 	mov    QWORD PTR [rsp+0x630],rbx
    81f6:	00 
    81f7:	48 89 bc 24 38 06 00 	mov    QWORD PTR [rsp+0x638],rdi
    81fe:	00 
    81ff:	4c 89 b4 24 40 06 00 	mov    QWORD PTR [rsp+0x640],r14
    8206:	00 
    8207:	ff d0                	call   rax
    8209:	48 8b 9c 24 30 06 00 	mov    rbx,QWORD PTR [rsp+0x630]
    8210:	00 
    8211:	4c 8b b4 24 40 06 00 	mov    r14,QWORD PTR [rsp+0x640]
    8218:	00 
    8219:	48 89 df             	mov    rdi,rbx
    821c:	48 81 c7 e0 01 00 00 	add    rdi,0x1e0
    8223:	48 8b b4 24 20 06 00 	mov    rsi,QWORD PTR [rsp+0x620]
    822a:	00 
    822b:	48 b8 00 00 00 00 00 	movabs rax,0x0
    8232:	00 00 00 
			822d: R_X86_64_64	caml_initialize
    8235:	48 89 b4 24 20 06 00 	mov    QWORD PTR [rsp+0x620],rsi
    823c:	00 
    823d:	48 89 9c 24 28 06 00 	mov    QWORD PTR [rsp+0x628],rbx
    8244:	00 
    8245:	48 89 bc 24 30 06 00 	mov    QWORD PTR [rsp+0x630],rdi
    824c:	00 
    824d:	4c 89 b4 24 38 06 00 	mov    QWORD PTR [rsp+0x638],r14
    8254:	00 
    8255:	ff d0                	call   rax
    8257:	48 8b 9c 24 28 06 00 	mov    rbx,QWORD PTR [rsp+0x628]
    825e:	00 
    825f:	4c 8b b4 24 38 06 00 	mov    r14,QWORD PTR [rsp+0x638]
    8266:	00 
    8267:	48 89 df             	mov    rdi,rbx
    826a:	48 81 c7 e8 01 00 00 	add    rdi,0x1e8
    8271:	48 8b b4 24 18 06 00 	mov    rsi,QWORD PTR [rsp+0x618]
    8278:	00 
    8279:	48 b8 00 00 00 00 00 	movabs rax,0x0
    8280:	00 00 00 
			827b: R_X86_64_64	caml_initialize
    8283:	48 89 b4 24 18 06 00 	mov    QWORD PTR [rsp+0x618],rsi
    828a:	00 
    828b:	48 89 9c 24 20 06 00 	mov    QWORD PTR [rsp+0x620],rbx
    8292:	00 
    8293:	48 89 bc 24 28 06 00 	mov    QWORD PTR [rsp+0x628],rdi
    829a:	00 
    829b:	4c 89 b4 24 30 06 00 	mov    QWORD PTR [rsp+0x630],r14
    82a2:	00 
    82a3:	ff d0                	call   rax
    82a5:	48 8b 9c 24 20 06 00 	mov    rbx,QWORD PTR [rsp+0x620]
    82ac:	00 
    82ad:	4c 8b b4 24 30 06 00 	mov    r14,QWORD PTR [rsp+0x630]
    82b4:	00 
    82b5:	48 89 df             	mov    rdi,rbx
    82b8:	48 81 c7 f0 01 00 00 	add    rdi,0x1f0
    82bf:	48 8b b4 24 10 06 00 	mov    rsi,QWORD PTR [rsp+0x610]
    82c6:	00 
    82c7:	48 b8 00 00 00 00 00 	movabs rax,0x0
    82ce:	00 00 00 
			82c9: R_X86_64_64	caml_initialize
    82d1:	48 89 b4 24 10 06 00 	mov    QWORD PTR [rsp+0x610],rsi
    82d8:	00 
    82d9:	48 89 9c 24 18 06 00 	mov    QWORD PTR [rsp+0x618],rbx
    82e0:	00 
    82e1:	48 89 bc 24 20 06 00 	mov    QWORD PTR [rsp+0x620],rdi
    82e8:	00 
    82e9:	4c 89 b4 24 28 06 00 	mov    QWORD PTR [rsp+0x628],r14
    82f0:	00 
    82f1:	ff d0                	call   rax
    82f3:	48 8b 9c 24 18 06 00 	mov    rbx,QWORD PTR [rsp+0x618]
    82fa:	00 
    82fb:	4c 8b b4 24 28 06 00 	mov    r14,QWORD PTR [rsp+0x628]
    8302:	00 
    8303:	48 89 df             	mov    rdi,rbx
    8306:	48 81 c7 f8 01 00 00 	add    rdi,0x1f8
    830d:	48 8b b4 24 08 06 00 	mov    rsi,QWORD PTR [rsp+0x608]
    8314:	00 
    8315:	48 b8 00 00 00 00 00 	movabs rax,0x0
    831c:	00 00 00 
			8317: R_X86_64_64	caml_initialize
    831f:	48 89 b4 24 08 06 00 	mov    QWORD PTR [rsp+0x608],rsi
    8326:	00 
    8327:	48 89 9c 24 10 06 00 	mov    QWORD PTR [rsp+0x610],rbx
    832e:	00 
    832f:	48 89 bc 24 18 06 00 	mov    QWORD PTR [rsp+0x618],rdi
    8336:	00 
    8337:	4c 89 b4 24 20 06 00 	mov    QWORD PTR [rsp+0x620],r14
    833e:	00 
    833f:	ff d0                	call   rax
    8341:	48 8b 9c 24 10 06 00 	mov    rbx,QWORD PTR [rsp+0x610]
    8348:	00 
    8349:	4c 8b b4 24 20 06 00 	mov    r14,QWORD PTR [rsp+0x620]
    8350:	00 
    8351:	48 89 df             	mov    rdi,rbx
    8354:	48 81 c7 00 02 00 00 	add    rdi,0x200
    835b:	48 8b b4 24 00 06 00 	mov    rsi,QWORD PTR [rsp+0x600]
    8362:	00 
    8363:	48 b8 00 00 00 00 00 	movabs rax,0x0
    836a:	00 00 00 
			8365: R_X86_64_64	caml_initialize
    836d:	48 89 b4 24 00 06 00 	mov    QWORD PTR [rsp+0x600],rsi
    8374:	00 
    8375:	48 89 9c 24 08 06 00 	mov    QWORD PTR [rsp+0x608],rbx
    837c:	00 
    837d:	48 89 bc 24 10 06 00 	mov    QWORD PTR [rsp+0x610],rdi
    8384:	00 
    8385:	4c 89 b4 24 18 06 00 	mov    QWORD PTR [rsp+0x618],r14
    838c:	00 
    838d:	ff d0                	call   rax
    838f:	48 8b 9c 24 08 06 00 	mov    rbx,QWORD PTR [rsp+0x608]
    8396:	00 
    8397:	4c 8b b4 24 18 06 00 	mov    r14,QWORD PTR [rsp+0x618]
    839e:	00 
    839f:	48 89 df             	mov    rdi,rbx
    83a2:	48 81 c7 08 02 00 00 	add    rdi,0x208
    83a9:	48 8b b4 24 f8 05 00 	mov    rsi,QWORD PTR [rsp+0x5f8]
    83b0:	00 
    83b1:	48 b8 00 00 00 00 00 	movabs rax,0x0
    83b8:	00 00 00 
			83b3: R_X86_64_64	caml_initialize
    83bb:	48 89 b4 24 f8 05 00 	mov    QWORD PTR [rsp+0x5f8],rsi
    83c2:	00 
    83c3:	48 89 9c 24 00 06 00 	mov    QWORD PTR [rsp+0x600],rbx
    83ca:	00 
    83cb:	48 89 bc 24 08 06 00 	mov    QWORD PTR [rsp+0x608],rdi
    83d2:	00 
    83d3:	4c 89 b4 24 10 06 00 	mov    QWORD PTR [rsp+0x610],r14
    83da:	00 
    83db:	ff d0                	call   rax
    83dd:	48 8b 9c 24 00 06 00 	mov    rbx,QWORD PTR [rsp+0x600]
    83e4:	00 
    83e5:	4c 8b b4 24 10 06 00 	mov    r14,QWORD PTR [rsp+0x610]
    83ec:	00 
    83ed:	48 89 df             	mov    rdi,rbx
    83f0:	48 81 c7 10 02 00 00 	add    rdi,0x210
    83f7:	48 8b b4 24 f0 05 00 	mov    rsi,QWORD PTR [rsp+0x5f0]
    83fe:	00 
    83ff:	48 b8 00 00 00 00 00 	movabs rax,0x0
    8406:	00 00 00 
			8401: R_X86_64_64	caml_initialize
    8409:	48 89 b4 24 f0 05 00 	mov    QWORD PTR [rsp+0x5f0],rsi
    8410:	00 
    8411:	48 89 9c 24 f8 05 00 	mov    QWORD PTR [rsp+0x5f8],rbx
    8418:	00 
    8419:	48 89 bc 24 00 06 00 	mov    QWORD PTR [rsp+0x600],rdi
    8420:	00 
    8421:	4c 89 b4 24 08 06 00 	mov    QWORD PTR [rsp+0x608],r14
    8428:	00 
    8429:	ff d0                	call   rax
    842b:	48 8b 9c 24 f8 05 00 	mov    rbx,QWORD PTR [rsp+0x5f8]
    8432:	00 
    8433:	4c 8b b4 24 08 06 00 	mov    r14,QWORD PTR [rsp+0x608]
    843a:	00 
    843b:	48 89 df             	mov    rdi,rbx
    843e:	48 81 c7 18 02 00 00 	add    rdi,0x218
    8445:	48 8b b4 24 e8 05 00 	mov    rsi,QWORD PTR [rsp+0x5e8]
    844c:	00 
    844d:	48 b8 00 00 00 00 00 	movabs rax,0x0
    8454:	00 00 00 
			844f: R_X86_64_64	caml_initialize
    8457:	48 89 b4 24 e8 05 00 	mov    QWORD PTR [rsp+0x5e8],rsi
    845e:	00 
    845f:	48 89 9c 24 f0 05 00 	mov    QWORD PTR [rsp+0x5f0],rbx
    8466:	00 
    8467:	48 89 bc 24 f8 05 00 	mov    QWORD PTR [rsp+0x5f8],rdi
    846e:	00 
    846f:	4c 89 b4 24 00 06 00 	mov    QWORD PTR [rsp+0x600],r14
    8476:	00 
    8477:	ff d0                	call   rax
    8479:	48 8b 9c 24 f0 05 00 	mov    rbx,QWORD PTR [rsp+0x5f0]
    8480:	00 
    8481:	4c 8b b4 24 00 06 00 	mov    r14,QWORD PTR [rsp+0x600]
    8488:	00 
    8489:	48 89 df             	mov    rdi,rbx
    848c:	48 81 c7 20 02 00 00 	add    rdi,0x220
    8493:	48 8b b4 24 e0 05 00 	mov    rsi,QWORD PTR [rsp+0x5e0]
    849a:	00 
    849b:	48 b8 00 00 00 00 00 	movabs rax,0x0
    84a2:	00 00 00 
			849d: R_X86_64_64	caml_initialize
    84a5:	48 89 b4 24 e0 05 00 	mov    QWORD PTR [rsp+0x5e0],rsi
    84ac:	00 
    84ad:	48 89 9c 24 e8 05 00 	mov    QWORD PTR [rsp+0x5e8],rbx
    84b4:	00 
    84b5:	48 89 bc 24 f0 05 00 	mov    QWORD PTR [rsp+0x5f0],rdi
    84bc:	00 
    84bd:	4c 89 b4 24 f8 05 00 	mov    QWORD PTR [rsp+0x5f8],r14
    84c4:	00 
    84c5:	ff d0                	call   rax
    84c7:	48 8b 9c 24 e8 05 00 	mov    rbx,QWORD PTR [rsp+0x5e8]
    84ce:	00 
    84cf:	4c 8b b4 24 f8 05 00 	mov    r14,QWORD PTR [rsp+0x5f8]
    84d6:	00 
    84d7:	48 89 df             	mov    rdi,rbx
    84da:	48 81 c7 28 02 00 00 	add    rdi,0x228
    84e1:	48 8b b4 24 d8 05 00 	mov    rsi,QWORD PTR [rsp+0x5d8]
    84e8:	00 
    84e9:	48 b8 00 00 00 00 00 	movabs rax,0x0
    84f0:	00 00 00 
			84eb: R_X86_64_64	caml_initialize
    84f3:	48 89 b4 24 d8 05 00 	mov    QWORD PTR [rsp+0x5d8],rsi
    84fa:	00 
    84fb:	48 89 9c 24 e0 05 00 	mov    QWORD PTR [rsp+0x5e0],rbx
    8502:	00 
    8503:	48 89 bc 24 e8 05 00 	mov    QWORD PTR [rsp+0x5e8],rdi
    850a:	00 
    850b:	4c 89 b4 24 f0 05 00 	mov    QWORD PTR [rsp+0x5f0],r14
    8512:	00 
    8513:	ff d0                	call   rax
    8515:	48 8b 9c 24 e0 05 00 	mov    rbx,QWORD PTR [rsp+0x5e0]
    851c:	00 
    851d:	4c 8b b4 24 f0 05 00 	mov    r14,QWORD PTR [rsp+0x5f0]
    8524:	00 
    8525:	48 89 df             	mov    rdi,rbx
    8528:	48 81 c7 30 02 00 00 	add    rdi,0x230
    852f:	48 8b b4 24 d0 05 00 	mov    rsi,QWORD PTR [rsp+0x5d0]
    8536:	00 
    8537:	48 b8 00 00 00 00 00 	movabs rax,0x0
    853e:	00 00 00 
			8539: R_X86_64_64	caml_initialize
    8541:	48 89 b4 24 d0 05 00 	mov    QWORD PTR [rsp+0x5d0],rsi
    8548:	00 
    8549:	48 89 9c 24 d8 05 00 	mov    QWORD PTR [rsp+0x5d8],rbx
    8550:	00 
    8551:	48 89 bc 24 e0 05 00 	mov    QWORD PTR [rsp+0x5e0],rdi
    8558:	00 
    8559:	4c 89 b4 24 e8 05 00 	mov    QWORD PTR [rsp+0x5e8],r14
    8560:	00 
    8561:	ff d0                	call   rax
    8563:	48 8b 9c 24 d8 05 00 	mov    rbx,QWORD PTR [rsp+0x5d8]
    856a:	00 
    856b:	4c 8b b4 24 e8 05 00 	mov    r14,QWORD PTR [rsp+0x5e8]
    8572:	00 
    8573:	48 89 df             	mov    rdi,rbx
    8576:	48 81 c7 38 02 00 00 	add    rdi,0x238
    857d:	48 8b b4 24 c8 05 00 	mov    rsi,QWORD PTR [rsp+0x5c8]
    8584:	00 
    8585:	48 b8 00 00 00 00 00 	movabs rax,0x0
    858c:	00 00 00 
			8587: R_X86_64_64	caml_initialize
    858f:	48 89 b4 24 c8 05 00 	mov    QWORD PTR [rsp+0x5c8],rsi
    8596:	00 
    8597:	48 89 9c 24 d0 05 00 	mov    QWORD PTR [rsp+0x5d0],rbx
    859e:	00 
    859f:	48 89 bc 24 d8 05 00 	mov    QWORD PTR [rsp+0x5d8],rdi
    85a6:	00 
    85a7:	4c 89 b4 24 e0 05 00 	mov    QWORD PTR [rsp+0x5e0],r14
    85ae:	00 
    85af:	ff d0                	call   rax
    85b1:	48 8b 9c 24 d0 05 00 	mov    rbx,QWORD PTR [rsp+0x5d0]
    85b8:	00 
    85b9:	4c 8b b4 24 e0 05 00 	mov    r14,QWORD PTR [rsp+0x5e0]
    85c0:	00 
    85c1:	48 89 df             	mov    rdi,rbx
    85c4:	48 81 c7 40 02 00 00 	add    rdi,0x240
    85cb:	48 8b b4 24 c0 05 00 	mov    rsi,QWORD PTR [rsp+0x5c0]
    85d2:	00 
    85d3:	48 b8 00 00 00 00 00 	movabs rax,0x0
    85da:	00 00 00 
			85d5: R_X86_64_64	caml_initialize
    85dd:	48 89 b4 24 c0 05 00 	mov    QWORD PTR [rsp+0x5c0],rsi
    85e4:	00 
    85e5:	48 89 9c 24 c8 05 00 	mov    QWORD PTR [rsp+0x5c8],rbx
    85ec:	00 
    85ed:	48 89 bc 24 d0 05 00 	mov    QWORD PTR [rsp+0x5d0],rdi
    85f4:	00 
    85f5:	4c 89 b4 24 d8 05 00 	mov    QWORD PTR [rsp+0x5d8],r14
    85fc:	00 
    85fd:	ff d0                	call   rax
    85ff:	48 8b 9c 24 c8 05 00 	mov    rbx,QWORD PTR [rsp+0x5c8]
    8606:	00 
    8607:	4c 8b b4 24 d8 05 00 	mov    r14,QWORD PTR [rsp+0x5d8]
    860e:	00 
    860f:	48 89 df             	mov    rdi,rbx
    8612:	48 81 c7 48 02 00 00 	add    rdi,0x248
    8619:	48 8b b4 24 b8 05 00 	mov    rsi,QWORD PTR [rsp+0x5b8]
    8620:	00 
    8621:	48 b8 00 00 00 00 00 	movabs rax,0x0
    8628:	00 00 00 
			8623: R_X86_64_64	caml_initialize
    862b:	48 89 b4 24 b8 05 00 	mov    QWORD PTR [rsp+0x5b8],rsi
    8632:	00 
    8633:	48 89 9c 24 c0 05 00 	mov    QWORD PTR [rsp+0x5c0],rbx
    863a:	00 
    863b:	48 89 bc 24 c8 05 00 	mov    QWORD PTR [rsp+0x5c8],rdi
    8642:	00 
    8643:	4c 89 b4 24 d0 05 00 	mov    QWORD PTR [rsp+0x5d0],r14
    864a:	00 
    864b:	ff d0                	call   rax
    864d:	48 8b 9c 24 c0 05 00 	mov    rbx,QWORD PTR [rsp+0x5c0]
    8654:	00 
    8655:	4c 8b b4 24 d0 05 00 	mov    r14,QWORD PTR [rsp+0x5d0]
    865c:	00 
    865d:	48 89 df             	mov    rdi,rbx
    8660:	48 81 c7 50 02 00 00 	add    rdi,0x250
    8667:	48 8b b4 24 b0 05 00 	mov    rsi,QWORD PTR [rsp+0x5b0]
    866e:	00 
    866f:	48 b8 00 00 00 00 00 	movabs rax,0x0
    8676:	00 00 00 
			8671: R_X86_64_64	caml_initialize
    8679:	48 89 b4 24 b0 05 00 	mov    QWORD PTR [rsp+0x5b0],rsi
    8680:	00 
    8681:	48 89 9c 24 b8 05 00 	mov    QWORD PTR [rsp+0x5b8],rbx
    8688:	00 
    8689:	48 89 bc 24 c0 05 00 	mov    QWORD PTR [rsp+0x5c0],rdi
    8690:	00 
    8691:	4c 89 b4 24 c8 05 00 	mov    QWORD PTR [rsp+0x5c8],r14
    8698:	00 
    8699:	ff d0                	call   rax
    869b:	48 8b 9c 24 b8 05 00 	mov    rbx,QWORD PTR [rsp+0x5b8]
    86a2:	00 
    86a3:	4c 8b b4 24 c8 05 00 	mov    r14,QWORD PTR [rsp+0x5c8]
    86aa:	00 
    86ab:	48 89 df             	mov    rdi,rbx
    86ae:	48 81 c7 58 02 00 00 	add    rdi,0x258
    86b5:	48 8b b4 24 a8 05 00 	mov    rsi,QWORD PTR [rsp+0x5a8]
    86bc:	00 
    86bd:	48 b8 00 00 00 00 00 	movabs rax,0x0
    86c4:	00 00 00 
			86bf: R_X86_64_64	caml_initialize
    86c7:	48 89 b4 24 a8 05 00 	mov    QWORD PTR [rsp+0x5a8],rsi
    86ce:	00 
    86cf:	48 89 9c 24 b0 05 00 	mov    QWORD PTR [rsp+0x5b0],rbx
    86d6:	00 
    86d7:	48 89 bc 24 b8 05 00 	mov    QWORD PTR [rsp+0x5b8],rdi
    86de:	00 
    86df:	4c 89 b4 24 c0 05 00 	mov    QWORD PTR [rsp+0x5c0],r14
    86e6:	00 
    86e7:	ff d0                	call   rax
    86e9:	48 8b 9c 24 b0 05 00 	mov    rbx,QWORD PTR [rsp+0x5b0]
    86f0:	00 
    86f1:	4c 8b b4 24 c0 05 00 	mov    r14,QWORD PTR [rsp+0x5c0]
    86f8:	00 
    86f9:	48 89 df             	mov    rdi,rbx
    86fc:	48 81 c7 60 02 00 00 	add    rdi,0x260
    8703:	48 8b b4 24 a0 05 00 	mov    rsi,QWORD PTR [rsp+0x5a0]
    870a:	00 
    870b:	48 b8 00 00 00 00 00 	movabs rax,0x0
    8712:	00 00 00 
			870d: R_X86_64_64	caml_initialize
    8715:	48 89 b4 24 a0 05 00 	mov    QWORD PTR [rsp+0x5a0],rsi
    871c:	00 
    871d:	48 89 9c 24 a8 05 00 	mov    QWORD PTR [rsp+0x5a8],rbx
    8724:	00 
    8725:	48 89 bc 24 b0 05 00 	mov    QWORD PTR [rsp+0x5b0],rdi
    872c:	00 
    872d:	4c 89 b4 24 b8 05 00 	mov    QWORD PTR [rsp+0x5b8],r14
    8734:	00 
    8735:	ff d0                	call   rax
    8737:	48 8b 9c 24 a8 05 00 	mov    rbx,QWORD PTR [rsp+0x5a8]
    873e:	00 
    873f:	4c 8b b4 24 b8 05 00 	mov    r14,QWORD PTR [rsp+0x5b8]
    8746:	00 
    8747:	48 89 df             	mov    rdi,rbx
    874a:	48 81 c7 68 02 00 00 	add    rdi,0x268
    8751:	48 8b b4 24 98 05 00 	mov    rsi,QWORD PTR [rsp+0x598]
    8758:	00 
    8759:	48 b8 00 00 00 00 00 	movabs rax,0x0
    8760:	00 00 00 
			875b: R_X86_64_64	caml_initialize
    8763:	48 89 b4 24 98 05 00 	mov    QWORD PTR [rsp+0x598],rsi
    876a:	00 
    876b:	48 89 9c 24 a0 05 00 	mov    QWORD PTR [rsp+0x5a0],rbx
    8772:	00 
    8773:	48 89 bc 24 a8 05 00 	mov    QWORD PTR [rsp+0x5a8],rdi
    877a:	00 
    877b:	4c 89 b4 24 b0 05 00 	mov    QWORD PTR [rsp+0x5b0],r14
    8782:	00 
    8783:	ff d0                	call   rax
    8785:	48 8b 9c 24 a0 05 00 	mov    rbx,QWORD PTR [rsp+0x5a0]
    878c:	00 
    878d:	4c 8b b4 24 b0 05 00 	mov    r14,QWORD PTR [rsp+0x5b0]
    8794:	00 
    8795:	48 89 df             	mov    rdi,rbx
    8798:	48 81 c7 70 02 00 00 	add    rdi,0x270
    879f:	48 8b b4 24 90 05 00 	mov    rsi,QWORD PTR [rsp+0x590]
    87a6:	00 
    87a7:	48 b8 00 00 00 00 00 	movabs rax,0x0
    87ae:	00 00 00 
			87a9: R_X86_64_64	caml_initialize
    87b1:	48 89 b4 24 90 05 00 	mov    QWORD PTR [rsp+0x590],rsi
    87b8:	00 
    87b9:	48 89 9c 24 98 05 00 	mov    QWORD PTR [rsp+0x598],rbx
    87c0:	00 
    87c1:	48 89 bc 24 a0 05 00 	mov    QWORD PTR [rsp+0x5a0],rdi
    87c8:	00 
    87c9:	4c 89 b4 24 a8 05 00 	mov    QWORD PTR [rsp+0x5a8],r14
    87d0:	00 
    87d1:	ff d0                	call   rax
    87d3:	48 8b 9c 24 98 05 00 	mov    rbx,QWORD PTR [rsp+0x598]
    87da:	00 
    87db:	4c 8b b4 24 a8 05 00 	mov    r14,QWORD PTR [rsp+0x5a8]
    87e2:	00 
    87e3:	48 89 df             	mov    rdi,rbx
    87e6:	48 81 c7 78 02 00 00 	add    rdi,0x278
    87ed:	48 8b b4 24 88 05 00 	mov    rsi,QWORD PTR [rsp+0x588]
    87f4:	00 
    87f5:	48 b8 00 00 00 00 00 	movabs rax,0x0
    87fc:	00 00 00 
			87f7: R_X86_64_64	caml_initialize
    87ff:	48 89 b4 24 88 05 00 	mov    QWORD PTR [rsp+0x588],rsi
    8806:	00 
    8807:	48 89 9c 24 90 05 00 	mov    QWORD PTR [rsp+0x590],rbx
    880e:	00 
    880f:	48 89 bc 24 98 05 00 	mov    QWORD PTR [rsp+0x598],rdi
    8816:	00 
    8817:	4c 89 b4 24 a0 05 00 	mov    QWORD PTR [rsp+0x5a0],r14
    881e:	00 
    881f:	ff d0                	call   rax
    8821:	48 8b 9c 24 90 05 00 	mov    rbx,QWORD PTR [rsp+0x590]
    8828:	00 
    8829:	4c 8b b4 24 a0 05 00 	mov    r14,QWORD PTR [rsp+0x5a0]
    8830:	00 
    8831:	48 89 df             	mov    rdi,rbx
    8834:	48 81 c7 80 02 00 00 	add    rdi,0x280
    883b:	48 8b b4 24 80 05 00 	mov    rsi,QWORD PTR [rsp+0x580]
    8842:	00 
    8843:	48 b8 00 00 00 00 00 	movabs rax,0x0
    884a:	00 00 00 
			8845: R_X86_64_64	caml_initialize
    884d:	48 89 b4 24 80 05 00 	mov    QWORD PTR [rsp+0x580],rsi
    8854:	00 
    8855:	48 89 9c 24 88 05 00 	mov    QWORD PTR [rsp+0x588],rbx
    885c:	00 
    885d:	48 89 bc 24 90 05 00 	mov    QWORD PTR [rsp+0x590],rdi
    8864:	00 
    8865:	4c 89 b4 24 98 05 00 	mov    QWORD PTR [rsp+0x598],r14
    886c:	00 
    886d:	ff d0                	call   rax
    886f:	48 8b 9c 24 88 05 00 	mov    rbx,QWORD PTR [rsp+0x588]
    8876:	00 
    8877:	4c 8b b4 24 98 05 00 	mov    r14,QWORD PTR [rsp+0x598]
    887e:	00 
    887f:	48 89 df             	mov    rdi,rbx
    8882:	48 81 c7 88 02 00 00 	add    rdi,0x288
    8889:	48 8b b4 24 78 05 00 	mov    rsi,QWORD PTR [rsp+0x578]
    8890:	00 
    8891:	48 b8 00 00 00 00 00 	movabs rax,0x0
    8898:	00 00 00 
			8893: R_X86_64_64	caml_initialize
    889b:	48 89 b4 24 78 05 00 	mov    QWORD PTR [rsp+0x578],rsi
    88a2:	00 
    88a3:	48 89 9c 24 80 05 00 	mov    QWORD PTR [rsp+0x580],rbx
    88aa:	00 
    88ab:	48 89 bc 24 88 05 00 	mov    QWORD PTR [rsp+0x588],rdi
    88b2:	00 
    88b3:	4c 89 b4 24 90 05 00 	mov    QWORD PTR [rsp+0x590],r14
    88ba:	00 
    88bb:	ff d0                	call   rax
    88bd:	48 8b 9c 24 80 05 00 	mov    rbx,QWORD PTR [rsp+0x580]
    88c4:	00 
    88c5:	4c 8b b4 24 90 05 00 	mov    r14,QWORD PTR [rsp+0x590]
    88cc:	00 
    88cd:	48 89 df             	mov    rdi,rbx
    88d0:	48 81 c7 90 02 00 00 	add    rdi,0x290
    88d7:	48 8b b4 24 70 05 00 	mov    rsi,QWORD PTR [rsp+0x570]
    88de:	00 
    88df:	48 b8 00 00 00 00 00 	movabs rax,0x0
    88e6:	00 00 00 
			88e1: R_X86_64_64	caml_initialize
    88e9:	48 89 b4 24 70 05 00 	mov    QWORD PTR [rsp+0x570],rsi
    88f0:	00 
    88f1:	48 89 9c 24 78 05 00 	mov    QWORD PTR [rsp+0x578],rbx
    88f8:	00 
    88f9:	48 89 bc 24 80 05 00 	mov    QWORD PTR [rsp+0x580],rdi
    8900:	00 
    8901:	4c 89 b4 24 88 05 00 	mov    QWORD PTR [rsp+0x588],r14
    8908:	00 
    8909:	ff d0                	call   rax
    890b:	48 8b 9c 24 78 05 00 	mov    rbx,QWORD PTR [rsp+0x578]
    8912:	00 
    8913:	4c 8b b4 24 88 05 00 	mov    r14,QWORD PTR [rsp+0x588]
    891a:	00 
    891b:	48 89 df             	mov    rdi,rbx
    891e:	48 81 c7 98 02 00 00 	add    rdi,0x298
    8925:	48 8b b4 24 68 05 00 	mov    rsi,QWORD PTR [rsp+0x568]
    892c:	00 
    892d:	48 b8 00 00 00 00 00 	movabs rax,0x0
    8934:	00 00 00 
			892f: R_X86_64_64	caml_initialize
    8937:	48 89 b4 24 68 05 00 	mov    QWORD PTR [rsp+0x568],rsi
    893e:	00 
    893f:	48 89 9c 24 70 05 00 	mov    QWORD PTR [rsp+0x570],rbx
    8946:	00 
    8947:	48 89 bc 24 78 05 00 	mov    QWORD PTR [rsp+0x578],rdi
    894e:	00 
    894f:	4c 89 b4 24 80 05 00 	mov    QWORD PTR [rsp+0x580],r14
    8956:	00 
    8957:	ff d0                	call   rax
    8959:	48 8b 9c 24 70 05 00 	mov    rbx,QWORD PTR [rsp+0x570]
    8960:	00 
    8961:	4c 8b b4 24 80 05 00 	mov    r14,QWORD PTR [rsp+0x580]
    8968:	00 
    8969:	48 89 df             	mov    rdi,rbx
    896c:	48 81 c7 a0 02 00 00 	add    rdi,0x2a0
    8973:	48 8b b4 24 60 05 00 	mov    rsi,QWORD PTR [rsp+0x560]
    897a:	00 
    897b:	48 b8 00 00 00 00 00 	movabs rax,0x0
    8982:	00 00 00 
			897d: R_X86_64_64	caml_initialize
    8985:	48 89 b4 24 60 05 00 	mov    QWORD PTR [rsp+0x560],rsi
    898c:	00 
    898d:	48 89 9c 24 68 05 00 	mov    QWORD PTR [rsp+0x568],rbx
    8994:	00 
    8995:	48 89 bc 24 70 05 00 	mov    QWORD PTR [rsp+0x570],rdi
    899c:	00 
    899d:	4c 89 b4 24 78 05 00 	mov    QWORD PTR [rsp+0x578],r14
    89a4:	00 
    89a5:	ff d0                	call   rax
    89a7:	48 8b 9c 24 68 05 00 	mov    rbx,QWORD PTR [rsp+0x568]
    89ae:	00 
    89af:	4c 8b b4 24 78 05 00 	mov    r14,QWORD PTR [rsp+0x578]
    89b6:	00 
    89b7:	48 89 df             	mov    rdi,rbx
    89ba:	48 81 c7 a8 02 00 00 	add    rdi,0x2a8
    89c1:	48 8b b4 24 58 05 00 	mov    rsi,QWORD PTR [rsp+0x558]
    89c8:	00 
    89c9:	48 b8 00 00 00 00 00 	movabs rax,0x0
    89d0:	00 00 00 
			89cb: R_X86_64_64	caml_initialize
    89d3:	48 89 b4 24 58 05 00 	mov    QWORD PTR [rsp+0x558],rsi
    89da:	00 
    89db:	48 89 9c 24 60 05 00 	mov    QWORD PTR [rsp+0x560],rbx
    89e2:	00 
    89e3:	48 89 bc 24 68 05 00 	mov    QWORD PTR [rsp+0x568],rdi
    89ea:	00 
    89eb:	4c 89 b4 24 70 05 00 	mov    QWORD PTR [rsp+0x570],r14
    89f2:	00 
    89f3:	ff d0                	call   rax
    89f5:	48 8b 9c 24 60 05 00 	mov    rbx,QWORD PTR [rsp+0x560]
    89fc:	00 
    89fd:	4c 8b b4 24 70 05 00 	mov    r14,QWORD PTR [rsp+0x570]
    8a04:	00 
    8a05:	48 89 df             	mov    rdi,rbx
    8a08:	48 81 c7 b0 02 00 00 	add    rdi,0x2b0
    8a0f:	48 8b b4 24 50 05 00 	mov    rsi,QWORD PTR [rsp+0x550]
    8a16:	00 
    8a17:	48 b8 00 00 00 00 00 	movabs rax,0x0
    8a1e:	00 00 00 
			8a19: R_X86_64_64	caml_initialize
    8a21:	48 89 b4 24 50 05 00 	mov    QWORD PTR [rsp+0x550],rsi
    8a28:	00 
    8a29:	48 89 9c 24 58 05 00 	mov    QWORD PTR [rsp+0x558],rbx
    8a30:	00 
    8a31:	48 89 bc 24 60 05 00 	mov    QWORD PTR [rsp+0x560],rdi
    8a38:	00 
    8a39:	4c 89 b4 24 68 05 00 	mov    QWORD PTR [rsp+0x568],r14
    8a40:	00 
    8a41:	ff d0                	call   rax
    8a43:	48 8b 9c 24 58 05 00 	mov    rbx,QWORD PTR [rsp+0x558]
    8a4a:	00 
    8a4b:	4c 8b b4 24 68 05 00 	mov    r14,QWORD PTR [rsp+0x568]
    8a52:	00 
    8a53:	48 89 df             	mov    rdi,rbx
    8a56:	48 81 c7 b8 02 00 00 	add    rdi,0x2b8
    8a5d:	48 8b b4 24 48 05 00 	mov    rsi,QWORD PTR [rsp+0x548]
    8a64:	00 
    8a65:	48 b8 00 00 00 00 00 	movabs rax,0x0
    8a6c:	00 00 00 
			8a67: R_X86_64_64	caml_initialize
    8a6f:	48 89 b4 24 48 05 00 	mov    QWORD PTR [rsp+0x548],rsi
    8a76:	00 
    8a77:	48 89 9c 24 50 05 00 	mov    QWORD PTR [rsp+0x550],rbx
    8a7e:	00 
    8a7f:	48 89 bc 24 58 05 00 	mov    QWORD PTR [rsp+0x558],rdi
    8a86:	00 
    8a87:	4c 89 b4 24 60 05 00 	mov    QWORD PTR [rsp+0x560],r14
    8a8e:	00 
    8a8f:	ff d0                	call   rax
    8a91:	48 8b 9c 24 50 05 00 	mov    rbx,QWORD PTR [rsp+0x550]
    8a98:	00 
    8a99:	4c 8b b4 24 60 05 00 	mov    r14,QWORD PTR [rsp+0x560]
    8aa0:	00 
    8aa1:	48 89 df             	mov    rdi,rbx
    8aa4:	48 81 c7 c0 02 00 00 	add    rdi,0x2c0
    8aab:	48 8b b4 24 40 05 00 	mov    rsi,QWORD PTR [rsp+0x540]
    8ab2:	00 
    8ab3:	48 b8 00 00 00 00 00 	movabs rax,0x0
    8aba:	00 00 00 
			8ab5: R_X86_64_64	caml_initialize
    8abd:	48 89 b4 24 40 05 00 	mov    QWORD PTR [rsp+0x540],rsi
    8ac4:	00 
    8ac5:	48 89 9c 24 48 05 00 	mov    QWORD PTR [rsp+0x548],rbx
    8acc:	00 
    8acd:	48 89 bc 24 50 05 00 	mov    QWORD PTR [rsp+0x550],rdi
    8ad4:	00 
    8ad5:	4c 89 b4 24 58 05 00 	mov    QWORD PTR [rsp+0x558],r14
    8adc:	00 
    8add:	ff d0                	call   rax
    8adf:	48 8b 9c 24 48 05 00 	mov    rbx,QWORD PTR [rsp+0x548]
    8ae6:	00 
    8ae7:	4c 8b b4 24 58 05 00 	mov    r14,QWORD PTR [rsp+0x558]
    8aee:	00 
    8aef:	48 89 df             	mov    rdi,rbx
    8af2:	48 81 c7 c8 02 00 00 	add    rdi,0x2c8
    8af9:	48 8b b4 24 38 05 00 	mov    rsi,QWORD PTR [rsp+0x538]
    8b00:	00 
    8b01:	48 b8 00 00 00 00 00 	movabs rax,0x0
    8b08:	00 00 00 
			8b03: R_X86_64_64	caml_initialize
    8b0b:	48 89 b4 24 38 05 00 	mov    QWORD PTR [rsp+0x538],rsi
    8b12:	00 
    8b13:	48 89 9c 24 40 05 00 	mov    QWORD PTR [rsp+0x540],rbx
    8b1a:	00 
    8b1b:	48 89 bc 24 48 05 00 	mov    QWORD PTR [rsp+0x548],rdi
    8b22:	00 
    8b23:	4c 89 b4 24 50 05 00 	mov    QWORD PTR [rsp+0x550],r14
    8b2a:	00 
    8b2b:	ff d0                	call   rax
    8b2d:	48 8b 9c 24 40 05 00 	mov    rbx,QWORD PTR [rsp+0x540]
    8b34:	00 
    8b35:	4c 8b b4 24 50 05 00 	mov    r14,QWORD PTR [rsp+0x550]
    8b3c:	00 
    8b3d:	48 89 df             	mov    rdi,rbx
    8b40:	48 81 c7 d0 02 00 00 	add    rdi,0x2d0
    8b47:	48 8b b4 24 30 05 00 	mov    rsi,QWORD PTR [rsp+0x530]
    8b4e:	00 
    8b4f:	48 b8 00 00 00 00 00 	movabs rax,0x0
    8b56:	00 00 00 
			8b51: R_X86_64_64	caml_initialize
    8b59:	48 89 b4 24 30 05 00 	mov    QWORD PTR [rsp+0x530],rsi
    8b60:	00 
    8b61:	48 89 9c 24 38 05 00 	mov    QWORD PTR [rsp+0x538],rbx
    8b68:	00 
    8b69:	48 89 bc 24 40 05 00 	mov    QWORD PTR [rsp+0x540],rdi
    8b70:	00 
    8b71:	4c 89 b4 24 48 05 00 	mov    QWORD PTR [rsp+0x548],r14
    8b78:	00 
    8b79:	ff d0                	call   rax
    8b7b:	48 8b 9c 24 38 05 00 	mov    rbx,QWORD PTR [rsp+0x538]
    8b82:	00 
    8b83:	4c 8b b4 24 48 05 00 	mov    r14,QWORD PTR [rsp+0x548]
    8b8a:	00 
    8b8b:	48 89 df             	mov    rdi,rbx
    8b8e:	48 81 c7 d8 02 00 00 	add    rdi,0x2d8
    8b95:	48 8b b4 24 28 05 00 	mov    rsi,QWORD PTR [rsp+0x528]
    8b9c:	00 
    8b9d:	48 b8 00 00 00 00 00 	movabs rax,0x0
    8ba4:	00 00 00 
			8b9f: R_X86_64_64	caml_initialize
    8ba7:	48 89 b4 24 28 05 00 	mov    QWORD PTR [rsp+0x528],rsi
    8bae:	00 
    8baf:	48 89 9c 24 30 05 00 	mov    QWORD PTR [rsp+0x530],rbx
    8bb6:	00 
    8bb7:	48 89 bc 24 38 05 00 	mov    QWORD PTR [rsp+0x538],rdi
    8bbe:	00 
    8bbf:	4c 89 b4 24 40 05 00 	mov    QWORD PTR [rsp+0x540],r14
    8bc6:	00 
    8bc7:	ff d0                	call   rax
    8bc9:	48 8b 9c 24 30 05 00 	mov    rbx,QWORD PTR [rsp+0x530]
    8bd0:	00 
    8bd1:	4c 8b b4 24 40 05 00 	mov    r14,QWORD PTR [rsp+0x540]
    8bd8:	00 
    8bd9:	48 89 df             	mov    rdi,rbx
    8bdc:	48 81 c7 e0 02 00 00 	add    rdi,0x2e0
    8be3:	48 8b b4 24 20 05 00 	mov    rsi,QWORD PTR [rsp+0x520]
    8bea:	00 
    8beb:	48 b8 00 00 00 00 00 	movabs rax,0x0
    8bf2:	00 00 00 
			8bed: R_X86_64_64	caml_initialize
    8bf5:	48 89 b4 24 20 05 00 	mov    QWORD PTR [rsp+0x520],rsi
    8bfc:	00 
    8bfd:	48 89 9c 24 28 05 00 	mov    QWORD PTR [rsp+0x528],rbx
    8c04:	00 
    8c05:	48 89 bc 24 30 05 00 	mov    QWORD PTR [rsp+0x530],rdi
    8c0c:	00 
    8c0d:	4c 89 b4 24 38 05 00 	mov    QWORD PTR [rsp+0x538],r14
    8c14:	00 
    8c15:	ff d0                	call   rax
    8c17:	48 8b 9c 24 28 05 00 	mov    rbx,QWORD PTR [rsp+0x528]
    8c1e:	00 
    8c1f:	4c 8b b4 24 38 05 00 	mov    r14,QWORD PTR [rsp+0x538]
    8c26:	00 
    8c27:	48 89 df             	mov    rdi,rbx
    8c2a:	48 81 c7 e8 02 00 00 	add    rdi,0x2e8
    8c31:	48 8b b4 24 18 05 00 	mov    rsi,QWORD PTR [rsp+0x518]
    8c38:	00 
    8c39:	48 b8 00 00 00 00 00 	movabs rax,0x0
    8c40:	00 00 00 
			8c3b: R_X86_64_64	caml_initialize
    8c43:	48 89 b4 24 18 05 00 	mov    QWORD PTR [rsp+0x518],rsi
    8c4a:	00 
    8c4b:	48 89 9c 24 20 05 00 	mov    QWORD PTR [rsp+0x520],rbx
    8c52:	00 
    8c53:	48 89 bc 24 28 05 00 	mov    QWORD PTR [rsp+0x528],rdi
    8c5a:	00 
    8c5b:	4c 89 b4 24 30 05 00 	mov    QWORD PTR [rsp+0x530],r14
    8c62:	00 
    8c63:	ff d0                	call   rax
    8c65:	48 8b 9c 24 20 05 00 	mov    rbx,QWORD PTR [rsp+0x520]
    8c6c:	00 
    8c6d:	4c 8b b4 24 30 05 00 	mov    r14,QWORD PTR [rsp+0x530]
    8c74:	00 
    8c75:	48 89 df             	mov    rdi,rbx
    8c78:	48 81 c7 f0 02 00 00 	add    rdi,0x2f0
    8c7f:	48 8b b4 24 10 05 00 	mov    rsi,QWORD PTR [rsp+0x510]
    8c86:	00 
    8c87:	48 b8 00 00 00 00 00 	movabs rax,0x0
    8c8e:	00 00 00 
			8c89: R_X86_64_64	caml_initialize
    8c91:	48 89 b4 24 10 05 00 	mov    QWORD PTR [rsp+0x510],rsi
    8c98:	00 
    8c99:	48 89 9c 24 18 05 00 	mov    QWORD PTR [rsp+0x518],rbx
    8ca0:	00 
    8ca1:	48 89 bc 24 20 05 00 	mov    QWORD PTR [rsp+0x520],rdi
    8ca8:	00 
    8ca9:	4c 89 b4 24 28 05 00 	mov    QWORD PTR [rsp+0x528],r14
    8cb0:	00 
    8cb1:	ff d0                	call   rax
    8cb3:	48 8b 9c 24 18 05 00 	mov    rbx,QWORD PTR [rsp+0x518]
    8cba:	00 
    8cbb:	4c 8b b4 24 28 05 00 	mov    r14,QWORD PTR [rsp+0x528]
    8cc2:	00 
    8cc3:	48 89 df             	mov    rdi,rbx
    8cc6:	48 81 c7 f8 02 00 00 	add    rdi,0x2f8
    8ccd:	48 8b b4 24 08 05 00 	mov    rsi,QWORD PTR [rsp+0x508]
    8cd4:	00 
    8cd5:	48 b8 00 00 00 00 00 	movabs rax,0x0
    8cdc:	00 00 00 
			8cd7: R_X86_64_64	caml_initialize
    8cdf:	48 89 b4 24 08 05 00 	mov    QWORD PTR [rsp+0x508],rsi
    8ce6:	00 
    8ce7:	48 89 9c 24 10 05 00 	mov    QWORD PTR [rsp+0x510],rbx
    8cee:	00 
    8cef:	48 89 bc 24 18 05 00 	mov    QWORD PTR [rsp+0x518],rdi
    8cf6:	00 
    8cf7:	4c 89 b4 24 20 05 00 	mov    QWORD PTR [rsp+0x520],r14
    8cfe:	00 
    8cff:	ff d0                	call   rax
    8d01:	48 8b 9c 24 10 05 00 	mov    rbx,QWORD PTR [rsp+0x510]
    8d08:	00 
    8d09:	4c 8b b4 24 20 05 00 	mov    r14,QWORD PTR [rsp+0x520]
    8d10:	00 
    8d11:	48 89 df             	mov    rdi,rbx
    8d14:	48 81 c7 00 03 00 00 	add    rdi,0x300
    8d1b:	48 8b b4 24 00 05 00 	mov    rsi,QWORD PTR [rsp+0x500]
    8d22:	00 
    8d23:	48 b8 00 00 00 00 00 	movabs rax,0x0
    8d2a:	00 00 00 
			8d25: R_X86_64_64	caml_initialize
    8d2d:	48 89 b4 24 00 05 00 	mov    QWORD PTR [rsp+0x500],rsi
    8d34:	00 
    8d35:	48 89 9c 24 08 05 00 	mov    QWORD PTR [rsp+0x508],rbx
    8d3c:	00 
    8d3d:	48 89 bc 24 10 05 00 	mov    QWORD PTR [rsp+0x510],rdi
    8d44:	00 
    8d45:	4c 89 b4 24 18 05 00 	mov    QWORD PTR [rsp+0x518],r14
    8d4c:	00 
    8d4d:	ff d0                	call   rax
    8d4f:	48 8b 9c 24 08 05 00 	mov    rbx,QWORD PTR [rsp+0x508]
    8d56:	00 
    8d57:	4c 8b b4 24 18 05 00 	mov    r14,QWORD PTR [rsp+0x518]
    8d5e:	00 
    8d5f:	48 89 df             	mov    rdi,rbx
    8d62:	48 81 c7 08 03 00 00 	add    rdi,0x308
    8d69:	48 8b b4 24 f8 04 00 	mov    rsi,QWORD PTR [rsp+0x4f8]
    8d70:	00 
    8d71:	48 b8 00 00 00 00 00 	movabs rax,0x0
    8d78:	00 00 00 
			8d73: R_X86_64_64	caml_initialize
    8d7b:	48 89 b4 24 f8 04 00 	mov    QWORD PTR [rsp+0x4f8],rsi
    8d82:	00 
    8d83:	48 89 9c 24 00 05 00 	mov    QWORD PTR [rsp+0x500],rbx
    8d8a:	00 
    8d8b:	48 89 bc 24 08 05 00 	mov    QWORD PTR [rsp+0x508],rdi
    8d92:	00 
    8d93:	4c 89 b4 24 10 05 00 	mov    QWORD PTR [rsp+0x510],r14
    8d9a:	00 
    8d9b:	ff d0                	call   rax
    8d9d:	48 8b 9c 24 00 05 00 	mov    rbx,QWORD PTR [rsp+0x500]
    8da4:	00 
    8da5:	4c 8b b4 24 10 05 00 	mov    r14,QWORD PTR [rsp+0x510]
    8dac:	00 
    8dad:	48 89 df             	mov    rdi,rbx
    8db0:	48 81 c7 10 03 00 00 	add    rdi,0x310
    8db7:	48 8b b4 24 f0 04 00 	mov    rsi,QWORD PTR [rsp+0x4f0]
    8dbe:	00 
    8dbf:	48 b8 00 00 00 00 00 	movabs rax,0x0
    8dc6:	00 00 00 
			8dc1: R_X86_64_64	caml_initialize
    8dc9:	48 89 b4 24 f0 04 00 	mov    QWORD PTR [rsp+0x4f0],rsi
    8dd0:	00 
    8dd1:	48 89 9c 24 f8 04 00 	mov    QWORD PTR [rsp+0x4f8],rbx
    8dd8:	00 
    8dd9:	48 89 bc 24 00 05 00 	mov    QWORD PTR [rsp+0x500],rdi
    8de0:	00 
    8de1:	4c 89 b4 24 08 05 00 	mov    QWORD PTR [rsp+0x508],r14
    8de8:	00 
    8de9:	ff d0                	call   rax
    8deb:	48 8b 9c 24 f8 04 00 	mov    rbx,QWORD PTR [rsp+0x4f8]
    8df2:	00 
    8df3:	4c 8b b4 24 08 05 00 	mov    r14,QWORD PTR [rsp+0x508]
    8dfa:	00 
    8dfb:	48 89 df             	mov    rdi,rbx
    8dfe:	48 81 c7 18 03 00 00 	add    rdi,0x318
    8e05:	48 8b b4 24 e8 04 00 	mov    rsi,QWORD PTR [rsp+0x4e8]
    8e0c:	00 
    8e0d:	48 b8 00 00 00 00 00 	movabs rax,0x0
    8e14:	00 00 00 
			8e0f: R_X86_64_64	caml_initialize
    8e17:	48 89 b4 24 e8 04 00 	mov    QWORD PTR [rsp+0x4e8],rsi
    8e1e:	00 
    8e1f:	48 89 9c 24 f0 04 00 	mov    QWORD PTR [rsp+0x4f0],rbx
    8e26:	00 
    8e27:	48 89 bc 24 f8 04 00 	mov    QWORD PTR [rsp+0x4f8],rdi
    8e2e:	00 
    8e2f:	4c 89 b4 24 00 05 00 	mov    QWORD PTR [rsp+0x500],r14
    8e36:	00 
    8e37:	ff d0                	call   rax
    8e39:	48 8b 9c 24 f0 04 00 	mov    rbx,QWORD PTR [rsp+0x4f0]
    8e40:	00 
    8e41:	4c 8b b4 24 00 05 00 	mov    r14,QWORD PTR [rsp+0x500]
    8e48:	00 
    8e49:	48 89 df             	mov    rdi,rbx
    8e4c:	48 81 c7 20 03 00 00 	add    rdi,0x320
    8e53:	48 8b b4 24 e0 04 00 	mov    rsi,QWORD PTR [rsp+0x4e0]
    8e5a:	00 
    8e5b:	48 b8 00 00 00 00 00 	movabs rax,0x0
    8e62:	00 00 00 
			8e5d: R_X86_64_64	caml_initialize
    8e65:	48 89 b4 24 e0 04 00 	mov    QWORD PTR [rsp+0x4e0],rsi
    8e6c:	00 
    8e6d:	48 89 9c 24 e8 04 00 	mov    QWORD PTR [rsp+0x4e8],rbx
    8e74:	00 
    8e75:	48 89 bc 24 f0 04 00 	mov    QWORD PTR [rsp+0x4f0],rdi
    8e7c:	00 
    8e7d:	4c 89 b4 24 f8 04 00 	mov    QWORD PTR [rsp+0x4f8],r14
    8e84:	00 
    8e85:	ff d0                	call   rax
    8e87:	48 8b 9c 24 e8 04 00 	mov    rbx,QWORD PTR [rsp+0x4e8]
    8e8e:	00 
    8e8f:	4c 8b b4 24 f8 04 00 	mov    r14,QWORD PTR [rsp+0x4f8]
    8e96:	00 
    8e97:	48 89 df             	mov    rdi,rbx
    8e9a:	48 81 c7 28 03 00 00 	add    rdi,0x328
    8ea1:	48 8b b4 24 d8 04 00 	mov    rsi,QWORD PTR [rsp+0x4d8]
    8ea8:	00 
    8ea9:	48 b8 00 00 00 00 00 	movabs rax,0x0
    8eb0:	00 00 00 
			8eab: R_X86_64_64	caml_initialize
    8eb3:	48 89 b4 24 d8 04 00 	mov    QWORD PTR [rsp+0x4d8],rsi
    8eba:	00 
    8ebb:	48 89 9c 24 e0 04 00 	mov    QWORD PTR [rsp+0x4e0],rbx
    8ec2:	00 
    8ec3:	48 89 bc 24 e8 04 00 	mov    QWORD PTR [rsp+0x4e8],rdi
    8eca:	00 
    8ecb:	4c 89 b4 24 f0 04 00 	mov    QWORD PTR [rsp+0x4f0],r14
    8ed2:	00 
    8ed3:	ff d0                	call   rax
    8ed5:	48 8b 9c 24 e0 04 00 	mov    rbx,QWORD PTR [rsp+0x4e0]
    8edc:	00 
    8edd:	4c 8b b4 24 f0 04 00 	mov    r14,QWORD PTR [rsp+0x4f0]
    8ee4:	00 
    8ee5:	48 89 df             	mov    rdi,rbx
    8ee8:	48 81 c7 30 03 00 00 	add    rdi,0x330
    8eef:	48 8b b4 24 d0 04 00 	mov    rsi,QWORD PTR [rsp+0x4d0]
    8ef6:	00 
    8ef7:	48 b8 00 00 00 00 00 	movabs rax,0x0
    8efe:	00 00 00 
			8ef9: R_X86_64_64	caml_initialize
    8f01:	48 89 b4 24 d0 04 00 	mov    QWORD PTR [rsp+0x4d0],rsi
    8f08:	00 
    8f09:	48 89 9c 24 d8 04 00 	mov    QWORD PTR [rsp+0x4d8],rbx
    8f10:	00 
    8f11:	48 89 bc 24 e0 04 00 	mov    QWORD PTR [rsp+0x4e0],rdi
    8f18:	00 
    8f19:	4c 89 b4 24 e8 04 00 	mov    QWORD PTR [rsp+0x4e8],r14
    8f20:	00 
    8f21:	ff d0                	call   rax
    8f23:	48 8b 9c 24 d8 04 00 	mov    rbx,QWORD PTR [rsp+0x4d8]
    8f2a:	00 
    8f2b:	4c 8b b4 24 e8 04 00 	mov    r14,QWORD PTR [rsp+0x4e8]
    8f32:	00 
    8f33:	48 89 df             	mov    rdi,rbx
    8f36:	48 81 c7 38 03 00 00 	add    rdi,0x338
    8f3d:	48 8b b4 24 c8 04 00 	mov    rsi,QWORD PTR [rsp+0x4c8]
    8f44:	00 
    8f45:	48 b8 00 00 00 00 00 	movabs rax,0x0
    8f4c:	00 00 00 
			8f47: R_X86_64_64	caml_initialize
    8f4f:	48 89 b4 24 c8 04 00 	mov    QWORD PTR [rsp+0x4c8],rsi
    8f56:	00 
    8f57:	48 89 9c 24 d0 04 00 	mov    QWORD PTR [rsp+0x4d0],rbx
    8f5e:	00 
    8f5f:	48 89 bc 24 d8 04 00 	mov    QWORD PTR [rsp+0x4d8],rdi
    8f66:	00 
    8f67:	4c 89 b4 24 e0 04 00 	mov    QWORD PTR [rsp+0x4e0],r14
    8f6e:	00 
    8f6f:	ff d0                	call   rax
    8f71:	48 8b 9c 24 d0 04 00 	mov    rbx,QWORD PTR [rsp+0x4d0]
    8f78:	00 
    8f79:	4c 8b b4 24 e0 04 00 	mov    r14,QWORD PTR [rsp+0x4e0]
    8f80:	00 
    8f81:	48 89 df             	mov    rdi,rbx
    8f84:	48 81 c7 40 03 00 00 	add    rdi,0x340
    8f8b:	48 8b b4 24 c0 04 00 	mov    rsi,QWORD PTR [rsp+0x4c0]
    8f92:	00 
    8f93:	48 b8 00 00 00 00 00 	movabs rax,0x0
    8f9a:	00 00 00 
			8f95: R_X86_64_64	caml_initialize
    8f9d:	48 89 b4 24 c0 04 00 	mov    QWORD PTR [rsp+0x4c0],rsi
    8fa4:	00 
    8fa5:	48 89 9c 24 c8 04 00 	mov    QWORD PTR [rsp+0x4c8],rbx
    8fac:	00 
    8fad:	48 89 bc 24 d0 04 00 	mov    QWORD PTR [rsp+0x4d0],rdi
    8fb4:	00 
    8fb5:	4c 89 b4 24 d8 04 00 	mov    QWORD PTR [rsp+0x4d8],r14
    8fbc:	00 
    8fbd:	ff d0                	call   rax
    8fbf:	48 8b 9c 24 c8 04 00 	mov    rbx,QWORD PTR [rsp+0x4c8]
    8fc6:	00 
    8fc7:	4c 8b b4 24 d8 04 00 	mov    r14,QWORD PTR [rsp+0x4d8]
    8fce:	00 
    8fcf:	48 89 df             	mov    rdi,rbx
    8fd2:	48 81 c7 48 03 00 00 	add    rdi,0x348
    8fd9:	48 8b b4 24 b8 04 00 	mov    rsi,QWORD PTR [rsp+0x4b8]
    8fe0:	00 
    8fe1:	48 b8 00 00 00 00 00 	movabs rax,0x0
    8fe8:	00 00 00 
			8fe3: R_X86_64_64	caml_initialize
    8feb:	48 89 b4 24 b8 04 00 	mov    QWORD PTR [rsp+0x4b8],rsi
    8ff2:	00 
    8ff3:	48 89 9c 24 c0 04 00 	mov    QWORD PTR [rsp+0x4c0],rbx
    8ffa:	00 
    8ffb:	48 89 bc 24 c8 04 00 	mov    QWORD PTR [rsp+0x4c8],rdi
    9002:	00 
    9003:	4c 89 b4 24 d0 04 00 	mov    QWORD PTR [rsp+0x4d0],r14
    900a:	00 
    900b:	ff d0                	call   rax
    900d:	48 8b 9c 24 c0 04 00 	mov    rbx,QWORD PTR [rsp+0x4c0]
    9014:	00 
    9015:	4c 8b b4 24 d0 04 00 	mov    r14,QWORD PTR [rsp+0x4d0]
    901c:	00 
    901d:	48 89 df             	mov    rdi,rbx
    9020:	48 81 c7 50 03 00 00 	add    rdi,0x350
    9027:	48 8b b4 24 b0 04 00 	mov    rsi,QWORD PTR [rsp+0x4b0]
    902e:	00 
    902f:	48 b8 00 00 00 00 00 	movabs rax,0x0
    9036:	00 00 00 
			9031: R_X86_64_64	caml_initialize
    9039:	48 89 b4 24 b0 04 00 	mov    QWORD PTR [rsp+0x4b0],rsi
    9040:	00 
    9041:	48 89 9c 24 b8 04 00 	mov    QWORD PTR [rsp+0x4b8],rbx
    9048:	00 
    9049:	48 89 bc 24 c0 04 00 	mov    QWORD PTR [rsp+0x4c0],rdi
    9050:	00 
    9051:	4c 89 b4 24 c8 04 00 	mov    QWORD PTR [rsp+0x4c8],r14
    9058:	00 
    9059:	ff d0                	call   rax
    905b:	48 8b 9c 24 b8 04 00 	mov    rbx,QWORD PTR [rsp+0x4b8]
    9062:	00 
    9063:	4c 8b b4 24 c8 04 00 	mov    r14,QWORD PTR [rsp+0x4c8]
    906a:	00 
    906b:	48 89 df             	mov    rdi,rbx
    906e:	48 81 c7 58 03 00 00 	add    rdi,0x358
    9075:	48 8b b4 24 a8 04 00 	mov    rsi,QWORD PTR [rsp+0x4a8]
    907c:	00 
    907d:	48 b8 00 00 00 00 00 	movabs rax,0x0
    9084:	00 00 00 
			907f: R_X86_64_64	caml_initialize
    9087:	48 89 b4 24 a8 04 00 	mov    QWORD PTR [rsp+0x4a8],rsi
    908e:	00 
    908f:	48 89 9c 24 b0 04 00 	mov    QWORD PTR [rsp+0x4b0],rbx
    9096:	00 
    9097:	48 89 bc 24 b8 04 00 	mov    QWORD PTR [rsp+0x4b8],rdi
    909e:	00 
    909f:	4c 89 b4 24 c0 04 00 	mov    QWORD PTR [rsp+0x4c0],r14
    90a6:	00 
    90a7:	ff d0                	call   rax
    90a9:	48 8b 9c 24 b0 04 00 	mov    rbx,QWORD PTR [rsp+0x4b0]
    90b0:	00 
    90b1:	4c 8b b4 24 c0 04 00 	mov    r14,QWORD PTR [rsp+0x4c0]
    90b8:	00 
    90b9:	48 89 df             	mov    rdi,rbx
    90bc:	48 81 c7 60 03 00 00 	add    rdi,0x360
    90c3:	48 8b b4 24 a0 04 00 	mov    rsi,QWORD PTR [rsp+0x4a0]
    90ca:	00 
    90cb:	48 b8 00 00 00 00 00 	movabs rax,0x0
    90d2:	00 00 00 
			90cd: R_X86_64_64	caml_initialize
    90d5:	48 89 b4 24 a0 04 00 	mov    QWORD PTR [rsp+0x4a0],rsi
    90dc:	00 
    90dd:	48 89 9c 24 a8 04 00 	mov    QWORD PTR [rsp+0x4a8],rbx
    90e4:	00 
    90e5:	48 89 bc 24 b0 04 00 	mov    QWORD PTR [rsp+0x4b0],rdi
    90ec:	00 
    90ed:	4c 89 b4 24 b8 04 00 	mov    QWORD PTR [rsp+0x4b8],r14
    90f4:	00 
    90f5:	ff d0                	call   rax
    90f7:	48 8b 9c 24 a8 04 00 	mov    rbx,QWORD PTR [rsp+0x4a8]
    90fe:	00 
    90ff:	4c 8b b4 24 b8 04 00 	mov    r14,QWORD PTR [rsp+0x4b8]
    9106:	00 
    9107:	48 89 df             	mov    rdi,rbx
    910a:	48 81 c7 68 03 00 00 	add    rdi,0x368
    9111:	48 8b b4 24 98 04 00 	mov    rsi,QWORD PTR [rsp+0x498]
    9118:	00 
    9119:	48 b8 00 00 00 00 00 	movabs rax,0x0
    9120:	00 00 00 
			911b: R_X86_64_64	caml_initialize
    9123:	48 89 b4 24 98 04 00 	mov    QWORD PTR [rsp+0x498],rsi
    912a:	00 
    912b:	48 89 9c 24 a0 04 00 	mov    QWORD PTR [rsp+0x4a0],rbx
    9132:	00 
    9133:	48 89 bc 24 a8 04 00 	mov    QWORD PTR [rsp+0x4a8],rdi
    913a:	00 
    913b:	4c 89 b4 24 b0 04 00 	mov    QWORD PTR [rsp+0x4b0],r14
    9142:	00 
    9143:	ff d0                	call   rax
    9145:	48 8b 9c 24 a0 04 00 	mov    rbx,QWORD PTR [rsp+0x4a0]
    914c:	00 
    914d:	4c 8b b4 24 b0 04 00 	mov    r14,QWORD PTR [rsp+0x4b0]
    9154:	00 
    9155:	48 89 df             	mov    rdi,rbx
    9158:	48 81 c7 70 03 00 00 	add    rdi,0x370
    915f:	48 8b b4 24 90 04 00 	mov    rsi,QWORD PTR [rsp+0x490]
    9166:	00 
    9167:	48 b8 00 00 00 00 00 	movabs rax,0x0
    916e:	00 00 00 
			9169: R_X86_64_64	caml_initialize
    9171:	48 89 b4 24 90 04 00 	mov    QWORD PTR [rsp+0x490],rsi
    9178:	00 
    9179:	48 89 9c 24 98 04 00 	mov    QWORD PTR [rsp+0x498],rbx
    9180:	00 
    9181:	48 89 bc 24 a0 04 00 	mov    QWORD PTR [rsp+0x4a0],rdi
    9188:	00 
    9189:	4c 89 b4 24 a8 04 00 	mov    QWORD PTR [rsp+0x4a8],r14
    9190:	00 
    9191:	ff d0                	call   rax
    9193:	48 8b 9c 24 98 04 00 	mov    rbx,QWORD PTR [rsp+0x498]
    919a:	00 
    919b:	4c 8b b4 24 a8 04 00 	mov    r14,QWORD PTR [rsp+0x4a8]
    91a2:	00 
    91a3:	48 89 df             	mov    rdi,rbx
    91a6:	48 81 c7 78 03 00 00 	add    rdi,0x378
    91ad:	48 8b b4 24 88 04 00 	mov    rsi,QWORD PTR [rsp+0x488]
    91b4:	00 
    91b5:	48 b8 00 00 00 00 00 	movabs rax,0x0
    91bc:	00 00 00 
			91b7: R_X86_64_64	caml_initialize
    91bf:	48 89 b4 24 88 04 00 	mov    QWORD PTR [rsp+0x488],rsi
    91c6:	00 
    91c7:	48 89 9c 24 90 04 00 	mov    QWORD PTR [rsp+0x490],rbx
    91ce:	00 
    91cf:	48 89 bc 24 98 04 00 	mov    QWORD PTR [rsp+0x498],rdi
    91d6:	00 
    91d7:	4c 89 b4 24 a0 04 00 	mov    QWORD PTR [rsp+0x4a0],r14
    91de:	00 
    91df:	ff d0                	call   rax
    91e1:	48 8b 9c 24 90 04 00 	mov    rbx,QWORD PTR [rsp+0x490]
    91e8:	00 
    91e9:	4c 8b b4 24 a0 04 00 	mov    r14,QWORD PTR [rsp+0x4a0]
    91f0:	00 
    91f1:	48 89 df             	mov    rdi,rbx
    91f4:	48 81 c7 80 03 00 00 	add    rdi,0x380
    91fb:	48 8b b4 24 80 04 00 	mov    rsi,QWORD PTR [rsp+0x480]
    9202:	00 
    9203:	48 b8 00 00 00 00 00 	movabs rax,0x0
    920a:	00 00 00 
			9205: R_X86_64_64	caml_initialize
    920d:	48 89 b4 24 80 04 00 	mov    QWORD PTR [rsp+0x480],rsi
    9214:	00 
    9215:	48 89 9c 24 88 04 00 	mov    QWORD PTR [rsp+0x488],rbx
    921c:	00 
    921d:	48 89 bc 24 90 04 00 	mov    QWORD PTR [rsp+0x490],rdi
    9224:	00 
    9225:	4c 89 b4 24 98 04 00 	mov    QWORD PTR [rsp+0x498],r14
    922c:	00 
    922d:	ff d0                	call   rax
    922f:	48 8b 9c 24 88 04 00 	mov    rbx,QWORD PTR [rsp+0x488]
    9236:	00 
    9237:	4c 8b b4 24 98 04 00 	mov    r14,QWORD PTR [rsp+0x498]
    923e:	00 
    923f:	48 89 df             	mov    rdi,rbx
    9242:	48 81 c7 88 03 00 00 	add    rdi,0x388
    9249:	48 8b b4 24 78 04 00 	mov    rsi,QWORD PTR [rsp+0x478]
    9250:	00 
    9251:	48 b8 00 00 00 00 00 	movabs rax,0x0
    9258:	00 00 00 
			9253: R_X86_64_64	caml_initialize
    925b:	48 89 b4 24 78 04 00 	mov    QWORD PTR [rsp+0x478],rsi
    9262:	00 
    9263:	48 89 9c 24 80 04 00 	mov    QWORD PTR [rsp+0x480],rbx
    926a:	00 
    926b:	48 89 bc 24 88 04 00 	mov    QWORD PTR [rsp+0x488],rdi
    9272:	00 
    9273:	4c 89 b4 24 90 04 00 	mov    QWORD PTR [rsp+0x490],r14
    927a:	00 
    927b:	ff d0                	call   rax
    927d:	48 8b 9c 24 80 04 00 	mov    rbx,QWORD PTR [rsp+0x480]
    9284:	00 
    9285:	4c 8b b4 24 90 04 00 	mov    r14,QWORD PTR [rsp+0x490]
    928c:	00 
    928d:	48 89 df             	mov    rdi,rbx
    9290:	48 81 c7 90 03 00 00 	add    rdi,0x390
    9297:	48 8b b4 24 70 04 00 	mov    rsi,QWORD PTR [rsp+0x470]
    929e:	00 
    929f:	48 b8 00 00 00 00 00 	movabs rax,0x0
    92a6:	00 00 00 
			92a1: R_X86_64_64	caml_initialize
    92a9:	48 89 b4 24 70 04 00 	mov    QWORD PTR [rsp+0x470],rsi
    92b0:	00 
    92b1:	48 89 9c 24 78 04 00 	mov    QWORD PTR [rsp+0x478],rbx
    92b8:	00 
    92b9:	48 89 bc 24 80 04 00 	mov    QWORD PTR [rsp+0x480],rdi
    92c0:	00 
    92c1:	4c 89 b4 24 88 04 00 	mov    QWORD PTR [rsp+0x488],r14
    92c8:	00 
    92c9:	ff d0                	call   rax
    92cb:	48 8b 9c 24 78 04 00 	mov    rbx,QWORD PTR [rsp+0x478]
    92d2:	00 
    92d3:	4c 8b b4 24 88 04 00 	mov    r14,QWORD PTR [rsp+0x488]
    92da:	00 
    92db:	48 89 df             	mov    rdi,rbx
    92de:	48 81 c7 98 03 00 00 	add    rdi,0x398
    92e5:	48 8b b4 24 68 04 00 	mov    rsi,QWORD PTR [rsp+0x468]
    92ec:	00 
    92ed:	48 b8 00 00 00 00 00 	movabs rax,0x0
    92f4:	00 00 00 
			92ef: R_X86_64_64	caml_initialize
    92f7:	48 89 b4 24 68 04 00 	mov    QWORD PTR [rsp+0x468],rsi
    92fe:	00 
    92ff:	48 89 9c 24 70 04 00 	mov    QWORD PTR [rsp+0x470],rbx
    9306:	00 
    9307:	48 89 bc 24 78 04 00 	mov    QWORD PTR [rsp+0x478],rdi
    930e:	00 
    930f:	4c 89 b4 24 80 04 00 	mov    QWORD PTR [rsp+0x480],r14
    9316:	00 
    9317:	ff d0                	call   rax
    9319:	48 8b 9c 24 70 04 00 	mov    rbx,QWORD PTR [rsp+0x470]
    9320:	00 
    9321:	4c 8b b4 24 80 04 00 	mov    r14,QWORD PTR [rsp+0x480]
    9328:	00 
    9329:	48 89 df             	mov    rdi,rbx
    932c:	48 81 c7 a0 03 00 00 	add    rdi,0x3a0
    9333:	48 8b b4 24 60 04 00 	mov    rsi,QWORD PTR [rsp+0x460]
    933a:	00 
    933b:	48 b8 00 00 00 00 00 	movabs rax,0x0
    9342:	00 00 00 
			933d: R_X86_64_64	caml_initialize
    9345:	48 89 b4 24 60 04 00 	mov    QWORD PTR [rsp+0x460],rsi
    934c:	00 
    934d:	48 89 9c 24 68 04 00 	mov    QWORD PTR [rsp+0x468],rbx
    9354:	00 
    9355:	48 89 bc 24 70 04 00 	mov    QWORD PTR [rsp+0x470],rdi
    935c:	00 
    935d:	4c 89 b4 24 78 04 00 	mov    QWORD PTR [rsp+0x478],r14
    9364:	00 
    9365:	ff d0                	call   rax
    9367:	48 8b 9c 24 68 04 00 	mov    rbx,QWORD PTR [rsp+0x468]
    936e:	00 
    936f:	4c 8b b4 24 78 04 00 	mov    r14,QWORD PTR [rsp+0x478]
    9376:	00 
    9377:	48 89 df             	mov    rdi,rbx
    937a:	48 81 c7 a8 03 00 00 	add    rdi,0x3a8
    9381:	48 8b b4 24 58 04 00 	mov    rsi,QWORD PTR [rsp+0x458]
    9388:	00 
    9389:	48 b8 00 00 00 00 00 	movabs rax,0x0
    9390:	00 00 00 
			938b: R_X86_64_64	caml_initialize
    9393:	48 89 b4 24 58 04 00 	mov    QWORD PTR [rsp+0x458],rsi
    939a:	00 
    939b:	48 89 9c 24 60 04 00 	mov    QWORD PTR [rsp+0x460],rbx
    93a2:	00 
    93a3:	48 89 bc 24 68 04 00 	mov    QWORD PTR [rsp+0x468],rdi
    93aa:	00 
    93ab:	4c 89 b4 24 70 04 00 	mov    QWORD PTR [rsp+0x470],r14
    93b2:	00 
    93b3:	ff d0                	call   rax
    93b5:	48 8b 9c 24 60 04 00 	mov    rbx,QWORD PTR [rsp+0x460]
    93bc:	00 
    93bd:	4c 8b b4 24 70 04 00 	mov    r14,QWORD PTR [rsp+0x470]
    93c4:	00 
    93c5:	48 89 df             	mov    rdi,rbx
    93c8:	48 81 c7 b0 03 00 00 	add    rdi,0x3b0
    93cf:	48 8b b4 24 50 04 00 	mov    rsi,QWORD PTR [rsp+0x450]
    93d6:	00 
    93d7:	48 b8 00 00 00 00 00 	movabs rax,0x0
    93de:	00 00 00 
			93d9: R_X86_64_64	caml_initialize
    93e1:	48 89 b4 24 50 04 00 	mov    QWORD PTR [rsp+0x450],rsi
    93e8:	00 
    93e9:	48 89 9c 24 58 04 00 	mov    QWORD PTR [rsp+0x458],rbx
    93f0:	00 
    93f1:	48 89 bc 24 60 04 00 	mov    QWORD PTR [rsp+0x460],rdi
    93f8:	00 
    93f9:	4c 89 b4 24 68 04 00 	mov    QWORD PTR [rsp+0x468],r14
    9400:	00 
    9401:	ff d0                	call   rax
    9403:	48 8b 9c 24 58 04 00 	mov    rbx,QWORD PTR [rsp+0x458]
    940a:	00 
    940b:	4c 8b b4 24 68 04 00 	mov    r14,QWORD PTR [rsp+0x468]
    9412:	00 
    9413:	48 89 df             	mov    rdi,rbx
    9416:	48 81 c7 b8 03 00 00 	add    rdi,0x3b8
    941d:	48 8b b4 24 48 04 00 	mov    rsi,QWORD PTR [rsp+0x448]
    9424:	00 
    9425:	48 b8 00 00 00 00 00 	movabs rax,0x0
    942c:	00 00 00 
			9427: R_X86_64_64	caml_initialize
    942f:	48 89 b4 24 48 04 00 	mov    QWORD PTR [rsp+0x448],rsi
    9436:	00 
    9437:	48 89 9c 24 50 04 00 	mov    QWORD PTR [rsp+0x450],rbx
    943e:	00 
    943f:	48 89 bc 24 58 04 00 	mov    QWORD PTR [rsp+0x458],rdi
    9446:	00 
    9447:	4c 89 b4 24 60 04 00 	mov    QWORD PTR [rsp+0x460],r14
    944e:	00 
    944f:	ff d0                	call   rax
    9451:	48 8b 9c 24 50 04 00 	mov    rbx,QWORD PTR [rsp+0x450]
    9458:	00 
    9459:	4c 8b b4 24 60 04 00 	mov    r14,QWORD PTR [rsp+0x460]
    9460:	00 
    9461:	48 89 df             	mov    rdi,rbx
    9464:	48 81 c7 c0 03 00 00 	add    rdi,0x3c0
    946b:	48 8b b4 24 40 04 00 	mov    rsi,QWORD PTR [rsp+0x440]
    9472:	00 
    9473:	48 b8 00 00 00 00 00 	movabs rax,0x0
    947a:	00 00 00 
			9475: R_X86_64_64	caml_initialize
    947d:	48 89 b4 24 40 04 00 	mov    QWORD PTR [rsp+0x440],rsi
    9484:	00 
    9485:	48 89 9c 24 48 04 00 	mov    QWORD PTR [rsp+0x448],rbx
    948c:	00 
    948d:	48 89 bc 24 50 04 00 	mov    QWORD PTR [rsp+0x450],rdi
    9494:	00 
    9495:	4c 89 b4 24 58 04 00 	mov    QWORD PTR [rsp+0x458],r14
    949c:	00 
    949d:	ff d0                	call   rax
    949f:	48 8b 9c 24 48 04 00 	mov    rbx,QWORD PTR [rsp+0x448]
    94a6:	00 
    94a7:	4c 8b b4 24 58 04 00 	mov    r14,QWORD PTR [rsp+0x458]
    94ae:	00 
    94af:	48 89 df             	mov    rdi,rbx
    94b2:	48 81 c7 c8 03 00 00 	add    rdi,0x3c8
    94b9:	48 8b b4 24 38 04 00 	mov    rsi,QWORD PTR [rsp+0x438]
    94c0:	00 
    94c1:	48 b8 00 00 00 00 00 	movabs rax,0x0
    94c8:	00 00 00 
			94c3: R_X86_64_64	caml_initialize
    94cb:	48 89 b4 24 38 04 00 	mov    QWORD PTR [rsp+0x438],rsi
    94d2:	00 
    94d3:	48 89 9c 24 40 04 00 	mov    QWORD PTR [rsp+0x440],rbx
    94da:	00 
    94db:	48 89 bc 24 48 04 00 	mov    QWORD PTR [rsp+0x448],rdi
    94e2:	00 
    94e3:	4c 89 b4 24 50 04 00 	mov    QWORD PTR [rsp+0x450],r14
    94ea:	00 
    94eb:	ff d0                	call   rax
    94ed:	48 8b 9c 24 40 04 00 	mov    rbx,QWORD PTR [rsp+0x440]
    94f4:	00 
    94f5:	4c 8b b4 24 50 04 00 	mov    r14,QWORD PTR [rsp+0x450]
    94fc:	00 
    94fd:	48 89 df             	mov    rdi,rbx
    9500:	48 81 c7 d0 03 00 00 	add    rdi,0x3d0
    9507:	48 8b b4 24 30 04 00 	mov    rsi,QWORD PTR [rsp+0x430]
    950e:	00 
    950f:	48 b8 00 00 00 00 00 	movabs rax,0x0
    9516:	00 00 00 
			9511: R_X86_64_64	caml_initialize
    9519:	48 89 b4 24 30 04 00 	mov    QWORD PTR [rsp+0x430],rsi
    9520:	00 
    9521:	48 89 9c 24 38 04 00 	mov    QWORD PTR [rsp+0x438],rbx
    9528:	00 
    9529:	48 89 bc 24 40 04 00 	mov    QWORD PTR [rsp+0x440],rdi
    9530:	00 
    9531:	4c 89 b4 24 48 04 00 	mov    QWORD PTR [rsp+0x448],r14
    9538:	00 
    9539:	ff d0                	call   rax
    953b:	48 8b 9c 24 38 04 00 	mov    rbx,QWORD PTR [rsp+0x438]
    9542:	00 
    9543:	4c 8b b4 24 48 04 00 	mov    r14,QWORD PTR [rsp+0x448]
    954a:	00 
    954b:	48 89 df             	mov    rdi,rbx
    954e:	48 81 c7 d8 03 00 00 	add    rdi,0x3d8
    9555:	48 8b b4 24 28 04 00 	mov    rsi,QWORD PTR [rsp+0x428]
    955c:	00 
    955d:	48 b8 00 00 00 00 00 	movabs rax,0x0
    9564:	00 00 00 
			955f: R_X86_64_64	caml_initialize
    9567:	48 89 b4 24 28 04 00 	mov    QWORD PTR [rsp+0x428],rsi
    956e:	00 
    956f:	48 89 9c 24 30 04 00 	mov    QWORD PTR [rsp+0x430],rbx
    9576:	00 
    9577:	48 89 bc 24 38 04 00 	mov    QWORD PTR [rsp+0x438],rdi
    957e:	00 
    957f:	4c 89 b4 24 40 04 00 	mov    QWORD PTR [rsp+0x440],r14
    9586:	00 
    9587:	ff d0                	call   rax
    9589:	48 8b 9c 24 30 04 00 	mov    rbx,QWORD PTR [rsp+0x430]
    9590:	00 
    9591:	4c 8b b4 24 40 04 00 	mov    r14,QWORD PTR [rsp+0x440]
    9598:	00 
    9599:	48 89 df             	mov    rdi,rbx
    959c:	48 81 c7 e0 03 00 00 	add    rdi,0x3e0
    95a3:	48 8b b4 24 20 04 00 	mov    rsi,QWORD PTR [rsp+0x420]
    95aa:	00 
    95ab:	48 b8 00 00 00 00 00 	movabs rax,0x0
    95b2:	00 00 00 
			95ad: R_X86_64_64	caml_initialize
    95b5:	48 89 b4 24 20 04 00 	mov    QWORD PTR [rsp+0x420],rsi
    95bc:	00 
    95bd:	48 89 9c 24 28 04 00 	mov    QWORD PTR [rsp+0x428],rbx
    95c4:	00 
    95c5:	48 89 bc 24 30 04 00 	mov    QWORD PTR [rsp+0x430],rdi
    95cc:	00 
    95cd:	4c 89 b4 24 38 04 00 	mov    QWORD PTR [rsp+0x438],r14
    95d4:	00 
    95d5:	ff d0                	call   rax
    95d7:	48 8b 9c 24 28 04 00 	mov    rbx,QWORD PTR [rsp+0x428]
    95de:	00 
    95df:	4c 8b b4 24 38 04 00 	mov    r14,QWORD PTR [rsp+0x438]
    95e6:	00 
    95e7:	48 89 df             	mov    rdi,rbx
    95ea:	48 81 c7 e8 03 00 00 	add    rdi,0x3e8
    95f1:	48 8b b4 24 18 04 00 	mov    rsi,QWORD PTR [rsp+0x418]
    95f8:	00 
    95f9:	48 b8 00 00 00 00 00 	movabs rax,0x0
    9600:	00 00 00 
			95fb: R_X86_64_64	caml_initialize
    9603:	48 89 b4 24 18 04 00 	mov    QWORD PTR [rsp+0x418],rsi
    960a:	00 
    960b:	48 89 9c 24 20 04 00 	mov    QWORD PTR [rsp+0x420],rbx
    9612:	00 
    9613:	48 89 bc 24 28 04 00 	mov    QWORD PTR [rsp+0x428],rdi
    961a:	00 
    961b:	4c 89 b4 24 30 04 00 	mov    QWORD PTR [rsp+0x430],r14
    9622:	00 
    9623:	ff d0                	call   rax
    9625:	48 8b 9c 24 20 04 00 	mov    rbx,QWORD PTR [rsp+0x420]
    962c:	00 
    962d:	4c 8b b4 24 30 04 00 	mov    r14,QWORD PTR [rsp+0x430]
    9634:	00 
    9635:	48 89 df             	mov    rdi,rbx
    9638:	48 81 c7 f0 03 00 00 	add    rdi,0x3f0
    963f:	48 8b b4 24 10 04 00 	mov    rsi,QWORD PTR [rsp+0x410]
    9646:	00 
    9647:	48 b8 00 00 00 00 00 	movabs rax,0x0
    964e:	00 00 00 
			9649: R_X86_64_64	caml_initialize
    9651:	48 89 b4 24 10 04 00 	mov    QWORD PTR [rsp+0x410],rsi
    9658:	00 
    9659:	48 89 9c 24 18 04 00 	mov    QWORD PTR [rsp+0x418],rbx
    9660:	00 
    9661:	48 89 bc 24 20 04 00 	mov    QWORD PTR [rsp+0x420],rdi
    9668:	00 
    9669:	4c 89 b4 24 28 04 00 	mov    QWORD PTR [rsp+0x428],r14
    9670:	00 
    9671:	ff d0                	call   rax
    9673:	48 8b 9c 24 18 04 00 	mov    rbx,QWORD PTR [rsp+0x418]
    967a:	00 
    967b:	4c 8b b4 24 28 04 00 	mov    r14,QWORD PTR [rsp+0x428]
    9682:	00 
    9683:	48 89 df             	mov    rdi,rbx
    9686:	48 81 c7 f8 03 00 00 	add    rdi,0x3f8
    968d:	48 8b b4 24 08 04 00 	mov    rsi,QWORD PTR [rsp+0x408]
    9694:	00 
    9695:	48 b8 00 00 00 00 00 	movabs rax,0x0
    969c:	00 00 00 
			9697: R_X86_64_64	caml_initialize
    969f:	48 89 b4 24 08 04 00 	mov    QWORD PTR [rsp+0x408],rsi
    96a6:	00 
    96a7:	48 89 9c 24 10 04 00 	mov    QWORD PTR [rsp+0x410],rbx
    96ae:	00 
    96af:	48 89 bc 24 18 04 00 	mov    QWORD PTR [rsp+0x418],rdi
    96b6:	00 
    96b7:	4c 89 b4 24 20 04 00 	mov    QWORD PTR [rsp+0x420],r14
    96be:	00 
    96bf:	ff d0                	call   rax
    96c1:	48 8b 9c 24 10 04 00 	mov    rbx,QWORD PTR [rsp+0x410]
    96c8:	00 
    96c9:	4c 8b b4 24 20 04 00 	mov    r14,QWORD PTR [rsp+0x420]
    96d0:	00 
    96d1:	48 89 df             	mov    rdi,rbx
    96d4:	48 81 c7 00 04 00 00 	add    rdi,0x400
    96db:	48 8b b4 24 00 04 00 	mov    rsi,QWORD PTR [rsp+0x400]
    96e2:	00 
    96e3:	48 b8 00 00 00 00 00 	movabs rax,0x0
    96ea:	00 00 00 
			96e5: R_X86_64_64	caml_initialize
    96ed:	48 89 b4 24 00 04 00 	mov    QWORD PTR [rsp+0x400],rsi
    96f4:	00 
    96f5:	48 89 9c 24 08 04 00 	mov    QWORD PTR [rsp+0x408],rbx
    96fc:	00 
    96fd:	48 89 bc 24 10 04 00 	mov    QWORD PTR [rsp+0x410],rdi
    9704:	00 
    9705:	4c 89 b4 24 18 04 00 	mov    QWORD PTR [rsp+0x418],r14
    970c:	00 
    970d:	ff d0                	call   rax
    970f:	48 8b 9c 24 08 04 00 	mov    rbx,QWORD PTR [rsp+0x408]
    9716:	00 
    9717:	4c 8b b4 24 18 04 00 	mov    r14,QWORD PTR [rsp+0x418]
    971e:	00 
    971f:	48 89 df             	mov    rdi,rbx
    9722:	48 81 c7 08 04 00 00 	add    rdi,0x408
    9729:	48 8b b4 24 f8 03 00 	mov    rsi,QWORD PTR [rsp+0x3f8]
    9730:	00 
    9731:	48 b8 00 00 00 00 00 	movabs rax,0x0
    9738:	00 00 00 
			9733: R_X86_64_64	caml_initialize
    973b:	48 89 b4 24 f8 03 00 	mov    QWORD PTR [rsp+0x3f8],rsi
    9742:	00 
    9743:	48 89 9c 24 00 04 00 	mov    QWORD PTR [rsp+0x400],rbx
    974a:	00 
    974b:	48 89 bc 24 08 04 00 	mov    QWORD PTR [rsp+0x408],rdi
    9752:	00 
    9753:	4c 89 b4 24 10 04 00 	mov    QWORD PTR [rsp+0x410],r14
    975a:	00 
    975b:	ff d0                	call   rax
    975d:	48 8b 9c 24 00 04 00 	mov    rbx,QWORD PTR [rsp+0x400]
    9764:	00 
    9765:	4c 8b b4 24 10 04 00 	mov    r14,QWORD PTR [rsp+0x410]
    976c:	00 
    976d:	48 89 df             	mov    rdi,rbx
    9770:	48 81 c7 10 04 00 00 	add    rdi,0x410
    9777:	48 8b b4 24 f0 03 00 	mov    rsi,QWORD PTR [rsp+0x3f0]
    977e:	00 
    977f:	48 b8 00 00 00 00 00 	movabs rax,0x0
    9786:	00 00 00 
			9781: R_X86_64_64	caml_initialize
    9789:	48 89 b4 24 f0 03 00 	mov    QWORD PTR [rsp+0x3f0],rsi
    9790:	00 
    9791:	48 89 9c 24 f8 03 00 	mov    QWORD PTR [rsp+0x3f8],rbx
    9798:	00 
    9799:	48 89 bc 24 00 04 00 	mov    QWORD PTR [rsp+0x400],rdi
    97a0:	00 
    97a1:	4c 89 b4 24 08 04 00 	mov    QWORD PTR [rsp+0x408],r14
    97a8:	00 
    97a9:	ff d0                	call   rax
    97ab:	48 8b 9c 24 f8 03 00 	mov    rbx,QWORD PTR [rsp+0x3f8]
    97b2:	00 
    97b3:	4c 8b b4 24 08 04 00 	mov    r14,QWORD PTR [rsp+0x408]
    97ba:	00 
    97bb:	48 89 df             	mov    rdi,rbx
    97be:	48 81 c7 18 04 00 00 	add    rdi,0x418
    97c5:	48 8b b4 24 e8 03 00 	mov    rsi,QWORD PTR [rsp+0x3e8]
    97cc:	00 
    97cd:	48 b8 00 00 00 00 00 	movabs rax,0x0
    97d4:	00 00 00 
			97cf: R_X86_64_64	caml_initialize
    97d7:	48 89 b4 24 e8 03 00 	mov    QWORD PTR [rsp+0x3e8],rsi
    97de:	00 
    97df:	48 89 9c 24 f0 03 00 	mov    QWORD PTR [rsp+0x3f0],rbx
    97e6:	00 
    97e7:	48 89 bc 24 f8 03 00 	mov    QWORD PTR [rsp+0x3f8],rdi
    97ee:	00 
    97ef:	4c 89 b4 24 00 04 00 	mov    QWORD PTR [rsp+0x400],r14
    97f6:	00 
    97f7:	ff d0                	call   rax
    97f9:	48 8b 9c 24 f0 03 00 	mov    rbx,QWORD PTR [rsp+0x3f0]
    9800:	00 
    9801:	4c 8b b4 24 00 04 00 	mov    r14,QWORD PTR [rsp+0x400]
    9808:	00 
    9809:	48 89 df             	mov    rdi,rbx
    980c:	48 81 c7 20 04 00 00 	add    rdi,0x420
    9813:	48 8b b4 24 e0 03 00 	mov    rsi,QWORD PTR [rsp+0x3e0]
    981a:	00 
    981b:	48 b8 00 00 00 00 00 	movabs rax,0x0
    9822:	00 00 00 
			981d: R_X86_64_64	caml_initialize
    9825:	48 89 b4 24 e0 03 00 	mov    QWORD PTR [rsp+0x3e0],rsi
    982c:	00 
    982d:	48 89 9c 24 e8 03 00 	mov    QWORD PTR [rsp+0x3e8],rbx
    9834:	00 
    9835:	48 89 bc 24 f0 03 00 	mov    QWORD PTR [rsp+0x3f0],rdi
    983c:	00 
    983d:	4c 89 b4 24 f8 03 00 	mov    QWORD PTR [rsp+0x3f8],r14
    9844:	00 
    9845:	ff d0                	call   rax
    9847:	48 8b 9c 24 e8 03 00 	mov    rbx,QWORD PTR [rsp+0x3e8]
    984e:	00 
    984f:	4c 8b b4 24 f8 03 00 	mov    r14,QWORD PTR [rsp+0x3f8]
    9856:	00 
    9857:	48 89 df             	mov    rdi,rbx
    985a:	48 81 c7 28 04 00 00 	add    rdi,0x428
    9861:	48 8b b4 24 d8 03 00 	mov    rsi,QWORD PTR [rsp+0x3d8]
    9868:	00 
    9869:	48 b8 00 00 00 00 00 	movabs rax,0x0
    9870:	00 00 00 
			986b: R_X86_64_64	caml_initialize
    9873:	48 89 b4 24 d8 03 00 	mov    QWORD PTR [rsp+0x3d8],rsi
    987a:	00 
    987b:	48 89 9c 24 e0 03 00 	mov    QWORD PTR [rsp+0x3e0],rbx
    9882:	00 
    9883:	48 89 bc 24 e8 03 00 	mov    QWORD PTR [rsp+0x3e8],rdi
    988a:	00 
    988b:	4c 89 b4 24 f0 03 00 	mov    QWORD PTR [rsp+0x3f0],r14
    9892:	00 
    9893:	ff d0                	call   rax
    9895:	48 8b 9c 24 e0 03 00 	mov    rbx,QWORD PTR [rsp+0x3e0]
    989c:	00 
    989d:	4c 8b b4 24 f0 03 00 	mov    r14,QWORD PTR [rsp+0x3f0]
    98a4:	00 
    98a5:	48 89 df             	mov    rdi,rbx
    98a8:	48 81 c7 30 04 00 00 	add    rdi,0x430
    98af:	48 8b b4 24 d0 03 00 	mov    rsi,QWORD PTR [rsp+0x3d0]
    98b6:	00 
    98b7:	48 b8 00 00 00 00 00 	movabs rax,0x0
    98be:	00 00 00 
			98b9: R_X86_64_64	caml_initialize
    98c1:	48 89 b4 24 d0 03 00 	mov    QWORD PTR [rsp+0x3d0],rsi
    98c8:	00 
    98c9:	48 89 9c 24 d8 03 00 	mov    QWORD PTR [rsp+0x3d8],rbx
    98d0:	00 
    98d1:	48 89 bc 24 e0 03 00 	mov    QWORD PTR [rsp+0x3e0],rdi
    98d8:	00 
    98d9:	4c 89 b4 24 e8 03 00 	mov    QWORD PTR [rsp+0x3e8],r14
    98e0:	00 
    98e1:	ff d0                	call   rax
    98e3:	48 8b 9c 24 d8 03 00 	mov    rbx,QWORD PTR [rsp+0x3d8]
    98ea:	00 
    98eb:	4c 8b b4 24 e8 03 00 	mov    r14,QWORD PTR [rsp+0x3e8]
    98f2:	00 
    98f3:	48 89 df             	mov    rdi,rbx
    98f6:	48 81 c7 38 04 00 00 	add    rdi,0x438
    98fd:	48 8b b4 24 c8 03 00 	mov    rsi,QWORD PTR [rsp+0x3c8]
    9904:	00 
    9905:	48 b8 00 00 00 00 00 	movabs rax,0x0
    990c:	00 00 00 
			9907: R_X86_64_64	caml_initialize
    990f:	48 89 b4 24 c8 03 00 	mov    QWORD PTR [rsp+0x3c8],rsi
    9916:	00 
    9917:	48 89 9c 24 d0 03 00 	mov    QWORD PTR [rsp+0x3d0],rbx
    991e:	00 
    991f:	48 89 bc 24 d8 03 00 	mov    QWORD PTR [rsp+0x3d8],rdi
    9926:	00 
    9927:	4c 89 b4 24 e0 03 00 	mov    QWORD PTR [rsp+0x3e0],r14
    992e:	00 
    992f:	ff d0                	call   rax
    9931:	48 8b 9c 24 d0 03 00 	mov    rbx,QWORD PTR [rsp+0x3d0]
    9938:	00 
    9939:	4c 8b b4 24 e0 03 00 	mov    r14,QWORD PTR [rsp+0x3e0]
    9940:	00 
    9941:	48 89 df             	mov    rdi,rbx
    9944:	48 81 c7 40 04 00 00 	add    rdi,0x440
    994b:	48 8b b4 24 c0 03 00 	mov    rsi,QWORD PTR [rsp+0x3c0]
    9952:	00 
    9953:	48 b8 00 00 00 00 00 	movabs rax,0x0
    995a:	00 00 00 
			9955: R_X86_64_64	caml_initialize
    995d:	48 89 b4 24 c0 03 00 	mov    QWORD PTR [rsp+0x3c0],rsi
    9964:	00 
    9965:	48 89 9c 24 c8 03 00 	mov    QWORD PTR [rsp+0x3c8],rbx
    996c:	00 
    996d:	48 89 bc 24 d0 03 00 	mov    QWORD PTR [rsp+0x3d0],rdi
    9974:	00 
    9975:	4c 89 b4 24 d8 03 00 	mov    QWORD PTR [rsp+0x3d8],r14
    997c:	00 
    997d:	ff d0                	call   rax
    997f:	48 8b 9c 24 c8 03 00 	mov    rbx,QWORD PTR [rsp+0x3c8]
    9986:	00 
    9987:	4c 8b b4 24 d8 03 00 	mov    r14,QWORD PTR [rsp+0x3d8]
    998e:	00 
    998f:	48 89 df             	mov    rdi,rbx
    9992:	48 81 c7 48 04 00 00 	add    rdi,0x448
    9999:	48 8b b4 24 b8 03 00 	mov    rsi,QWORD PTR [rsp+0x3b8]
    99a0:	00 
    99a1:	48 b8 00 00 00 00 00 	movabs rax,0x0
    99a8:	00 00 00 
			99a3: R_X86_64_64	caml_initialize
    99ab:	48 89 b4 24 b8 03 00 	mov    QWORD PTR [rsp+0x3b8],rsi
    99b2:	00 
    99b3:	48 89 9c 24 c0 03 00 	mov    QWORD PTR [rsp+0x3c0],rbx
    99ba:	00 
    99bb:	48 89 bc 24 c8 03 00 	mov    QWORD PTR [rsp+0x3c8],rdi
    99c2:	00 
    99c3:	4c 89 b4 24 d0 03 00 	mov    QWORD PTR [rsp+0x3d0],r14
    99ca:	00 
    99cb:	ff d0                	call   rax
    99cd:	48 8b 9c 24 c0 03 00 	mov    rbx,QWORD PTR [rsp+0x3c0]
    99d4:	00 
    99d5:	4c 8b b4 24 d0 03 00 	mov    r14,QWORD PTR [rsp+0x3d0]
    99dc:	00 
    99dd:	48 89 df             	mov    rdi,rbx
    99e0:	48 81 c7 50 04 00 00 	add    rdi,0x450
    99e7:	48 8b b4 24 b0 03 00 	mov    rsi,QWORD PTR [rsp+0x3b0]
    99ee:	00 
    99ef:	48 b8 00 00 00 00 00 	movabs rax,0x0
    99f6:	00 00 00 
			99f1: R_X86_64_64	caml_initialize
    99f9:	48 89 b4 24 b0 03 00 	mov    QWORD PTR [rsp+0x3b0],rsi
    9a00:	00 
    9a01:	48 89 9c 24 b8 03 00 	mov    QWORD PTR [rsp+0x3b8],rbx
    9a08:	00 
    9a09:	48 89 bc 24 c0 03 00 	mov    QWORD PTR [rsp+0x3c0],rdi
    9a10:	00 
    9a11:	4c 89 b4 24 c8 03 00 	mov    QWORD PTR [rsp+0x3c8],r14
    9a18:	00 
    9a19:	ff d0                	call   rax
    9a1b:	48 8b 9c 24 b8 03 00 	mov    rbx,QWORD PTR [rsp+0x3b8]
    9a22:	00 
    9a23:	4c 8b b4 24 c8 03 00 	mov    r14,QWORD PTR [rsp+0x3c8]
    9a2a:	00 
    9a2b:	48 89 df             	mov    rdi,rbx
    9a2e:	48 81 c7 58 04 00 00 	add    rdi,0x458
    9a35:	48 8b b4 24 a8 03 00 	mov    rsi,QWORD PTR [rsp+0x3a8]
    9a3c:	00 
    9a3d:	48 b8 00 00 00 00 00 	movabs rax,0x0
    9a44:	00 00 00 
			9a3f: R_X86_64_64	caml_initialize
    9a47:	48 89 b4 24 a8 03 00 	mov    QWORD PTR [rsp+0x3a8],rsi
    9a4e:	00 
    9a4f:	48 89 9c 24 b0 03 00 	mov    QWORD PTR [rsp+0x3b0],rbx
    9a56:	00 
    9a57:	48 89 bc 24 b8 03 00 	mov    QWORD PTR [rsp+0x3b8],rdi
    9a5e:	00 
    9a5f:	4c 89 b4 24 c0 03 00 	mov    QWORD PTR [rsp+0x3c0],r14
    9a66:	00 
    9a67:	ff d0                	call   rax
    9a69:	48 8b 9c 24 b0 03 00 	mov    rbx,QWORD PTR [rsp+0x3b0]
    9a70:	00 
    9a71:	4c 8b b4 24 c0 03 00 	mov    r14,QWORD PTR [rsp+0x3c0]
    9a78:	00 
    9a79:	48 89 df             	mov    rdi,rbx
    9a7c:	48 81 c7 60 04 00 00 	add    rdi,0x460
    9a83:	48 8b b4 24 a0 03 00 	mov    rsi,QWORD PTR [rsp+0x3a0]
    9a8a:	00 
    9a8b:	48 b8 00 00 00 00 00 	movabs rax,0x0
    9a92:	00 00 00 
			9a8d: R_X86_64_64	caml_initialize
    9a95:	48 89 b4 24 a0 03 00 	mov    QWORD PTR [rsp+0x3a0],rsi
    9a9c:	00 
    9a9d:	48 89 9c 24 a8 03 00 	mov    QWORD PTR [rsp+0x3a8],rbx
    9aa4:	00 
    9aa5:	48 89 bc 24 b0 03 00 	mov    QWORD PTR [rsp+0x3b0],rdi
    9aac:	00 
    9aad:	4c 89 b4 24 b8 03 00 	mov    QWORD PTR [rsp+0x3b8],r14
    9ab4:	00 
    9ab5:	ff d0                	call   rax
    9ab7:	48 8b 9c 24 a8 03 00 	mov    rbx,QWORD PTR [rsp+0x3a8]
    9abe:	00 
    9abf:	4c 8b b4 24 b8 03 00 	mov    r14,QWORD PTR [rsp+0x3b8]
    9ac6:	00 
    9ac7:	48 89 df             	mov    rdi,rbx
    9aca:	48 81 c7 68 04 00 00 	add    rdi,0x468
    9ad1:	48 8b b4 24 98 03 00 	mov    rsi,QWORD PTR [rsp+0x398]
    9ad8:	00 
    9ad9:	48 b8 00 00 00 00 00 	movabs rax,0x0
    9ae0:	00 00 00 
			9adb: R_X86_64_64	caml_initialize
    9ae3:	48 89 b4 24 98 03 00 	mov    QWORD PTR [rsp+0x398],rsi
    9aea:	00 
    9aeb:	48 89 9c 24 a0 03 00 	mov    QWORD PTR [rsp+0x3a0],rbx
    9af2:	00 
    9af3:	48 89 bc 24 a8 03 00 	mov    QWORD PTR [rsp+0x3a8],rdi
    9afa:	00 
    9afb:	4c 89 b4 24 b0 03 00 	mov    QWORD PTR [rsp+0x3b0],r14
    9b02:	00 
    9b03:	ff d0                	call   rax
    9b05:	48 8b 9c 24 a0 03 00 	mov    rbx,QWORD PTR [rsp+0x3a0]
    9b0c:	00 
    9b0d:	4c 8b b4 24 b0 03 00 	mov    r14,QWORD PTR [rsp+0x3b0]
    9b14:	00 
    9b15:	48 89 df             	mov    rdi,rbx
    9b18:	48 81 c7 70 04 00 00 	add    rdi,0x470
    9b1f:	48 8b b4 24 90 03 00 	mov    rsi,QWORD PTR [rsp+0x390]
    9b26:	00 
    9b27:	48 b8 00 00 00 00 00 	movabs rax,0x0
    9b2e:	00 00 00 
			9b29: R_X86_64_64	caml_initialize
    9b31:	48 89 b4 24 90 03 00 	mov    QWORD PTR [rsp+0x390],rsi
    9b38:	00 
    9b39:	48 89 9c 24 98 03 00 	mov    QWORD PTR [rsp+0x398],rbx
    9b40:	00 
    9b41:	48 89 bc 24 a0 03 00 	mov    QWORD PTR [rsp+0x3a0],rdi
    9b48:	00 
    9b49:	4c 89 b4 24 a8 03 00 	mov    QWORD PTR [rsp+0x3a8],r14
    9b50:	00 
    9b51:	ff d0                	call   rax
    9b53:	48 8b 9c 24 98 03 00 	mov    rbx,QWORD PTR [rsp+0x398]
    9b5a:	00 
    9b5b:	4c 8b b4 24 a8 03 00 	mov    r14,QWORD PTR [rsp+0x3a8]
    9b62:	00 
    9b63:	48 89 df             	mov    rdi,rbx
    9b66:	48 81 c7 78 04 00 00 	add    rdi,0x478
    9b6d:	48 8b b4 24 88 03 00 	mov    rsi,QWORD PTR [rsp+0x388]
    9b74:	00 
    9b75:	48 b8 00 00 00 00 00 	movabs rax,0x0
    9b7c:	00 00 00 
			9b77: R_X86_64_64	caml_initialize
    9b7f:	48 89 b4 24 88 03 00 	mov    QWORD PTR [rsp+0x388],rsi
    9b86:	00 
    9b87:	48 89 9c 24 90 03 00 	mov    QWORD PTR [rsp+0x390],rbx
    9b8e:	00 
    9b8f:	48 89 bc 24 98 03 00 	mov    QWORD PTR [rsp+0x398],rdi
    9b96:	00 
    9b97:	4c 89 b4 24 a0 03 00 	mov    QWORD PTR [rsp+0x3a0],r14
    9b9e:	00 
    9b9f:	ff d0                	call   rax
    9ba1:	48 8b 9c 24 90 03 00 	mov    rbx,QWORD PTR [rsp+0x390]
    9ba8:	00 
    9ba9:	4c 8b b4 24 a0 03 00 	mov    r14,QWORD PTR [rsp+0x3a0]
    9bb0:	00 
    9bb1:	48 89 df             	mov    rdi,rbx
    9bb4:	48 81 c7 80 04 00 00 	add    rdi,0x480
    9bbb:	48 8b b4 24 80 03 00 	mov    rsi,QWORD PTR [rsp+0x380]
    9bc2:	00 
    9bc3:	48 b8 00 00 00 00 00 	movabs rax,0x0
    9bca:	00 00 00 
			9bc5: R_X86_64_64	caml_initialize
    9bcd:	48 89 b4 24 80 03 00 	mov    QWORD PTR [rsp+0x380],rsi
    9bd4:	00 
    9bd5:	48 89 9c 24 88 03 00 	mov    QWORD PTR [rsp+0x388],rbx
    9bdc:	00 
    9bdd:	48 89 bc 24 90 03 00 	mov    QWORD PTR [rsp+0x390],rdi
    9be4:	00 
    9be5:	4c 89 b4 24 98 03 00 	mov    QWORD PTR [rsp+0x398],r14
    9bec:	00 
    9bed:	ff d0                	call   rax
    9bef:	48 8b 9c 24 88 03 00 	mov    rbx,QWORD PTR [rsp+0x388]
    9bf6:	00 
    9bf7:	4c 8b b4 24 98 03 00 	mov    r14,QWORD PTR [rsp+0x398]
    9bfe:	00 
    9bff:	48 89 df             	mov    rdi,rbx
    9c02:	48 81 c7 88 04 00 00 	add    rdi,0x488
    9c09:	48 8b b4 24 78 03 00 	mov    rsi,QWORD PTR [rsp+0x378]
    9c10:	00 
    9c11:	48 b8 00 00 00 00 00 	movabs rax,0x0
    9c18:	00 00 00 
			9c13: R_X86_64_64	caml_initialize
    9c1b:	48 89 b4 24 78 03 00 	mov    QWORD PTR [rsp+0x378],rsi
    9c22:	00 
    9c23:	48 89 9c 24 80 03 00 	mov    QWORD PTR [rsp+0x380],rbx
    9c2a:	00 
    9c2b:	48 89 bc 24 88 03 00 	mov    QWORD PTR [rsp+0x388],rdi
    9c32:	00 
    9c33:	4c 89 b4 24 90 03 00 	mov    QWORD PTR [rsp+0x390],r14
    9c3a:	00 
    9c3b:	ff d0                	call   rax
    9c3d:	48 8b 9c 24 80 03 00 	mov    rbx,QWORD PTR [rsp+0x380]
    9c44:	00 
    9c45:	4c 8b b4 24 90 03 00 	mov    r14,QWORD PTR [rsp+0x390]
    9c4c:	00 
    9c4d:	48 89 df             	mov    rdi,rbx
    9c50:	48 81 c7 90 04 00 00 	add    rdi,0x490
    9c57:	48 8b b4 24 70 03 00 	mov    rsi,QWORD PTR [rsp+0x370]
    9c5e:	00 
    9c5f:	48 b8 00 00 00 00 00 	movabs rax,0x0
    9c66:	00 00 00 
			9c61: R_X86_64_64	caml_initialize
    9c69:	48 89 b4 24 70 03 00 	mov    QWORD PTR [rsp+0x370],rsi
    9c70:	00 
    9c71:	48 89 9c 24 78 03 00 	mov    QWORD PTR [rsp+0x378],rbx
    9c78:	00 
    9c79:	48 89 bc 24 80 03 00 	mov    QWORD PTR [rsp+0x380],rdi
    9c80:	00 
    9c81:	4c 89 b4 24 88 03 00 	mov    QWORD PTR [rsp+0x388],r14
    9c88:	00 
    9c89:	ff d0                	call   rax
    9c8b:	48 8b 9c 24 78 03 00 	mov    rbx,QWORD PTR [rsp+0x378]
    9c92:	00 
    9c93:	4c 8b b4 24 88 03 00 	mov    r14,QWORD PTR [rsp+0x388]
    9c9a:	00 
    9c9b:	48 89 df             	mov    rdi,rbx
    9c9e:	48 81 c7 98 04 00 00 	add    rdi,0x498
    9ca5:	48 8b b4 24 68 03 00 	mov    rsi,QWORD PTR [rsp+0x368]
    9cac:	00 
    9cad:	48 b8 00 00 00 00 00 	movabs rax,0x0
    9cb4:	00 00 00 
			9caf: R_X86_64_64	caml_initialize
    9cb7:	48 89 b4 24 68 03 00 	mov    QWORD PTR [rsp+0x368],rsi
    9cbe:	00 
    9cbf:	48 89 9c 24 70 03 00 	mov    QWORD PTR [rsp+0x370],rbx
    9cc6:	00 
    9cc7:	48 89 bc 24 78 03 00 	mov    QWORD PTR [rsp+0x378],rdi
    9cce:	00 
    9ccf:	4c 89 b4 24 80 03 00 	mov    QWORD PTR [rsp+0x380],r14
    9cd6:	00 
    9cd7:	ff d0                	call   rax
    9cd9:	48 8b 9c 24 70 03 00 	mov    rbx,QWORD PTR [rsp+0x370]
    9ce0:	00 
    9ce1:	4c 8b b4 24 80 03 00 	mov    r14,QWORD PTR [rsp+0x380]
    9ce8:	00 
    9ce9:	48 89 df             	mov    rdi,rbx
    9cec:	48 81 c7 a0 04 00 00 	add    rdi,0x4a0
    9cf3:	48 8b b4 24 60 03 00 	mov    rsi,QWORD PTR [rsp+0x360]
    9cfa:	00 
    9cfb:	48 b8 00 00 00 00 00 	movabs rax,0x0
    9d02:	00 00 00 
			9cfd: R_X86_64_64	caml_initialize
    9d05:	48 89 b4 24 60 03 00 	mov    QWORD PTR [rsp+0x360],rsi
    9d0c:	00 
    9d0d:	48 89 9c 24 68 03 00 	mov    QWORD PTR [rsp+0x368],rbx
    9d14:	00 
    9d15:	48 89 bc 24 70 03 00 	mov    QWORD PTR [rsp+0x370],rdi
    9d1c:	00 
    9d1d:	4c 89 b4 24 78 03 00 	mov    QWORD PTR [rsp+0x378],r14
    9d24:	00 
    9d25:	ff d0                	call   rax
    9d27:	48 8b 9c 24 68 03 00 	mov    rbx,QWORD PTR [rsp+0x368]
    9d2e:	00 
    9d2f:	4c 8b b4 24 78 03 00 	mov    r14,QWORD PTR [rsp+0x378]
    9d36:	00 
    9d37:	48 89 df             	mov    rdi,rbx
    9d3a:	48 81 c7 a8 04 00 00 	add    rdi,0x4a8
    9d41:	48 8b b4 24 58 03 00 	mov    rsi,QWORD PTR [rsp+0x358]
    9d48:	00 
    9d49:	48 b8 00 00 00 00 00 	movabs rax,0x0
    9d50:	00 00 00 
			9d4b: R_X86_64_64	caml_initialize
    9d53:	48 89 b4 24 58 03 00 	mov    QWORD PTR [rsp+0x358],rsi
    9d5a:	00 
    9d5b:	48 89 9c 24 60 03 00 	mov    QWORD PTR [rsp+0x360],rbx
    9d62:	00 
    9d63:	48 89 bc 24 68 03 00 	mov    QWORD PTR [rsp+0x368],rdi
    9d6a:	00 
    9d6b:	4c 89 b4 24 70 03 00 	mov    QWORD PTR [rsp+0x370],r14
    9d72:	00 
    9d73:	ff d0                	call   rax
    9d75:	48 8b 9c 24 60 03 00 	mov    rbx,QWORD PTR [rsp+0x360]
    9d7c:	00 
    9d7d:	4c 8b b4 24 70 03 00 	mov    r14,QWORD PTR [rsp+0x370]
    9d84:	00 
    9d85:	48 89 df             	mov    rdi,rbx
    9d88:	48 81 c7 b0 04 00 00 	add    rdi,0x4b0
    9d8f:	48 8b b4 24 50 03 00 	mov    rsi,QWORD PTR [rsp+0x350]
    9d96:	00 
    9d97:	48 b8 00 00 00 00 00 	movabs rax,0x0
    9d9e:	00 00 00 
			9d99: R_X86_64_64	caml_initialize
    9da1:	48 89 b4 24 50 03 00 	mov    QWORD PTR [rsp+0x350],rsi
    9da8:	00 
    9da9:	48 89 9c 24 58 03 00 	mov    QWORD PTR [rsp+0x358],rbx
    9db0:	00 
    9db1:	48 89 bc 24 60 03 00 	mov    QWORD PTR [rsp+0x360],rdi
    9db8:	00 
    9db9:	4c 89 b4 24 68 03 00 	mov    QWORD PTR [rsp+0x368],r14
    9dc0:	00 
    9dc1:	ff d0                	call   rax
    9dc3:	48 8b 9c 24 58 03 00 	mov    rbx,QWORD PTR [rsp+0x358]
    9dca:	00 
    9dcb:	4c 8b b4 24 68 03 00 	mov    r14,QWORD PTR [rsp+0x368]
    9dd2:	00 
    9dd3:	48 89 df             	mov    rdi,rbx
    9dd6:	48 81 c7 b8 04 00 00 	add    rdi,0x4b8
    9ddd:	48 8b b4 24 48 03 00 	mov    rsi,QWORD PTR [rsp+0x348]
    9de4:	00 
    9de5:	48 b8 00 00 00 00 00 	movabs rax,0x0
    9dec:	00 00 00 
			9de7: R_X86_64_64	caml_initialize
    9def:	48 89 b4 24 48 03 00 	mov    QWORD PTR [rsp+0x348],rsi
    9df6:	00 
    9df7:	48 89 9c 24 50 03 00 	mov    QWORD PTR [rsp+0x350],rbx
    9dfe:	00 
    9dff:	48 89 bc 24 58 03 00 	mov    QWORD PTR [rsp+0x358],rdi
    9e06:	00 
    9e07:	4c 89 b4 24 60 03 00 	mov    QWORD PTR [rsp+0x360],r14
    9e0e:	00 
    9e0f:	ff d0                	call   rax
    9e11:	48 8b 9c 24 50 03 00 	mov    rbx,QWORD PTR [rsp+0x350]
    9e18:	00 
    9e19:	4c 8b b4 24 60 03 00 	mov    r14,QWORD PTR [rsp+0x360]
    9e20:	00 
    9e21:	48 89 df             	mov    rdi,rbx
    9e24:	48 81 c7 c0 04 00 00 	add    rdi,0x4c0
    9e2b:	48 8b b4 24 40 03 00 	mov    rsi,QWORD PTR [rsp+0x340]
    9e32:	00 
    9e33:	48 b8 00 00 00 00 00 	movabs rax,0x0
    9e3a:	00 00 00 
			9e35: R_X86_64_64	caml_initialize
    9e3d:	48 89 b4 24 40 03 00 	mov    QWORD PTR [rsp+0x340],rsi
    9e44:	00 
    9e45:	48 89 9c 24 48 03 00 	mov    QWORD PTR [rsp+0x348],rbx
    9e4c:	00 
    9e4d:	48 89 bc 24 50 03 00 	mov    QWORD PTR [rsp+0x350],rdi
    9e54:	00 
    9e55:	4c 89 b4 24 58 03 00 	mov    QWORD PTR [rsp+0x358],r14
    9e5c:	00 
    9e5d:	ff d0                	call   rax
    9e5f:	48 8b 9c 24 48 03 00 	mov    rbx,QWORD PTR [rsp+0x348]
    9e66:	00 
    9e67:	4c 8b b4 24 58 03 00 	mov    r14,QWORD PTR [rsp+0x358]
    9e6e:	00 
    9e6f:	48 89 df             	mov    rdi,rbx
    9e72:	48 81 c7 c8 04 00 00 	add    rdi,0x4c8
    9e79:	48 8b b4 24 38 03 00 	mov    rsi,QWORD PTR [rsp+0x338]
    9e80:	00 
    9e81:	48 b8 00 00 00 00 00 	movabs rax,0x0
    9e88:	00 00 00 
			9e83: R_X86_64_64	caml_initialize
    9e8b:	48 89 b4 24 38 03 00 	mov    QWORD PTR [rsp+0x338],rsi
    9e92:	00 
    9e93:	48 89 9c 24 40 03 00 	mov    QWORD PTR [rsp+0x340],rbx
    9e9a:	00 
    9e9b:	48 89 bc 24 48 03 00 	mov    QWORD PTR [rsp+0x348],rdi
    9ea2:	00 
    9ea3:	4c 89 b4 24 50 03 00 	mov    QWORD PTR [rsp+0x350],r14
    9eaa:	00 
    9eab:	ff d0                	call   rax
    9ead:	48 8b 9c 24 40 03 00 	mov    rbx,QWORD PTR [rsp+0x340]
    9eb4:	00 
    9eb5:	4c 8b b4 24 50 03 00 	mov    r14,QWORD PTR [rsp+0x350]
    9ebc:	00 
    9ebd:	48 89 df             	mov    rdi,rbx
    9ec0:	48 81 c7 d0 04 00 00 	add    rdi,0x4d0
    9ec7:	48 8b b4 24 30 03 00 	mov    rsi,QWORD PTR [rsp+0x330]
    9ece:	00 
    9ecf:	48 b8 00 00 00 00 00 	movabs rax,0x0
    9ed6:	00 00 00 
			9ed1: R_X86_64_64	caml_initialize
    9ed9:	48 89 b4 24 30 03 00 	mov    QWORD PTR [rsp+0x330],rsi
    9ee0:	00 
    9ee1:	48 89 9c 24 38 03 00 	mov    QWORD PTR [rsp+0x338],rbx
    9ee8:	00 
    9ee9:	48 89 bc 24 40 03 00 	mov    QWORD PTR [rsp+0x340],rdi
    9ef0:	00 
    9ef1:	4c 89 b4 24 48 03 00 	mov    QWORD PTR [rsp+0x348],r14
    9ef8:	00 
    9ef9:	ff d0                	call   rax
    9efb:	48 8b 9c 24 38 03 00 	mov    rbx,QWORD PTR [rsp+0x338]
    9f02:	00 
    9f03:	4c 8b b4 24 48 03 00 	mov    r14,QWORD PTR [rsp+0x348]
    9f0a:	00 
    9f0b:	48 89 df             	mov    rdi,rbx
    9f0e:	48 81 c7 d8 04 00 00 	add    rdi,0x4d8
    9f15:	48 8b b4 24 28 03 00 	mov    rsi,QWORD PTR [rsp+0x328]
    9f1c:	00 
    9f1d:	48 b8 00 00 00 00 00 	movabs rax,0x0
    9f24:	00 00 00 
			9f1f: R_X86_64_64	caml_initialize
    9f27:	48 89 b4 24 28 03 00 	mov    QWORD PTR [rsp+0x328],rsi
    9f2e:	00 
    9f2f:	48 89 9c 24 30 03 00 	mov    QWORD PTR [rsp+0x330],rbx
    9f36:	00 
    9f37:	48 89 bc 24 38 03 00 	mov    QWORD PTR [rsp+0x338],rdi
    9f3e:	00 
    9f3f:	4c 89 b4 24 40 03 00 	mov    QWORD PTR [rsp+0x340],r14
    9f46:	00 
    9f47:	ff d0                	call   rax
    9f49:	48 8b 9c 24 30 03 00 	mov    rbx,QWORD PTR [rsp+0x330]
    9f50:	00 
    9f51:	4c 8b b4 24 40 03 00 	mov    r14,QWORD PTR [rsp+0x340]
    9f58:	00 
    9f59:	48 89 df             	mov    rdi,rbx
    9f5c:	48 81 c7 e0 04 00 00 	add    rdi,0x4e0
    9f63:	48 8b b4 24 20 03 00 	mov    rsi,QWORD PTR [rsp+0x320]
    9f6a:	00 
    9f6b:	48 b8 00 00 00 00 00 	movabs rax,0x0
    9f72:	00 00 00 
			9f6d: R_X86_64_64	caml_initialize
    9f75:	48 89 b4 24 20 03 00 	mov    QWORD PTR [rsp+0x320],rsi
    9f7c:	00 
    9f7d:	48 89 9c 24 28 03 00 	mov    QWORD PTR [rsp+0x328],rbx
    9f84:	00 
    9f85:	48 89 bc 24 30 03 00 	mov    QWORD PTR [rsp+0x330],rdi
    9f8c:	00 
    9f8d:	4c 89 b4 24 38 03 00 	mov    QWORD PTR [rsp+0x338],r14
    9f94:	00 
    9f95:	ff d0                	call   rax
    9f97:	48 8b 9c 24 28 03 00 	mov    rbx,QWORD PTR [rsp+0x328]
    9f9e:	00 
    9f9f:	4c 8b b4 24 38 03 00 	mov    r14,QWORD PTR [rsp+0x338]
    9fa6:	00 
    9fa7:	48 89 df             	mov    rdi,rbx
    9faa:	48 81 c7 e8 04 00 00 	add    rdi,0x4e8
    9fb1:	48 8b b4 24 18 03 00 	mov    rsi,QWORD PTR [rsp+0x318]
    9fb8:	00 
    9fb9:	48 b8 00 00 00 00 00 	movabs rax,0x0
    9fc0:	00 00 00 
			9fbb: R_X86_64_64	caml_initialize
    9fc3:	48 89 b4 24 18 03 00 	mov    QWORD PTR [rsp+0x318],rsi
    9fca:	00 
    9fcb:	48 89 9c 24 20 03 00 	mov    QWORD PTR [rsp+0x320],rbx
    9fd2:	00 
    9fd3:	48 89 bc 24 28 03 00 	mov    QWORD PTR [rsp+0x328],rdi
    9fda:	00 
    9fdb:	4c 89 b4 24 30 03 00 	mov    QWORD PTR [rsp+0x330],r14
    9fe2:	00 
    9fe3:	ff d0                	call   rax
    9fe5:	48 8b 9c 24 20 03 00 	mov    rbx,QWORD PTR [rsp+0x320]
    9fec:	00 
    9fed:	4c 8b b4 24 30 03 00 	mov    r14,QWORD PTR [rsp+0x330]
    9ff4:	00 
    9ff5:	48 89 df             	mov    rdi,rbx
    9ff8:	48 81 c7 f0 04 00 00 	add    rdi,0x4f0
    9fff:	48 8b b4 24 10 03 00 	mov    rsi,QWORD PTR [rsp+0x310]
    a006:	00 
    a007:	48 b8 00 00 00 00 00 	movabs rax,0x0
    a00e:	00 00 00 
			a009: R_X86_64_64	caml_initialize
    a011:	48 89 b4 24 10 03 00 	mov    QWORD PTR [rsp+0x310],rsi
    a018:	00 
    a019:	48 89 9c 24 18 03 00 	mov    QWORD PTR [rsp+0x318],rbx
    a020:	00 
    a021:	48 89 bc 24 20 03 00 	mov    QWORD PTR [rsp+0x320],rdi
    a028:	00 
    a029:	4c 89 b4 24 28 03 00 	mov    QWORD PTR [rsp+0x328],r14
    a030:	00 
    a031:	ff d0                	call   rax
    a033:	48 8b 9c 24 18 03 00 	mov    rbx,QWORD PTR [rsp+0x318]
    a03a:	00 
    a03b:	4c 8b b4 24 28 03 00 	mov    r14,QWORD PTR [rsp+0x328]
    a042:	00 
    a043:	48 89 df             	mov    rdi,rbx
    a046:	48 81 c7 f8 04 00 00 	add    rdi,0x4f8
    a04d:	48 8b b4 24 08 03 00 	mov    rsi,QWORD PTR [rsp+0x308]
    a054:	00 
    a055:	48 b8 00 00 00 00 00 	movabs rax,0x0
    a05c:	00 00 00 
			a057: R_X86_64_64	caml_initialize
    a05f:	48 89 b4 24 08 03 00 	mov    QWORD PTR [rsp+0x308],rsi
    a066:	00 
    a067:	48 89 9c 24 10 03 00 	mov    QWORD PTR [rsp+0x310],rbx
    a06e:	00 
    a06f:	48 89 bc 24 18 03 00 	mov    QWORD PTR [rsp+0x318],rdi
    a076:	00 
    a077:	4c 89 b4 24 20 03 00 	mov    QWORD PTR [rsp+0x320],r14
    a07e:	00 
    a07f:	ff d0                	call   rax
    a081:	48 8b 9c 24 10 03 00 	mov    rbx,QWORD PTR [rsp+0x310]
    a088:	00 
    a089:	4c 8b b4 24 20 03 00 	mov    r14,QWORD PTR [rsp+0x320]
    a090:	00 
    a091:	48 89 df             	mov    rdi,rbx
    a094:	48 81 c7 00 05 00 00 	add    rdi,0x500
    a09b:	48 8b b4 24 00 03 00 	mov    rsi,QWORD PTR [rsp+0x300]
    a0a2:	00 
    a0a3:	48 b8 00 00 00 00 00 	movabs rax,0x0
    a0aa:	00 00 00 
			a0a5: R_X86_64_64	caml_initialize
    a0ad:	48 89 b4 24 00 03 00 	mov    QWORD PTR [rsp+0x300],rsi
    a0b4:	00 
    a0b5:	48 89 9c 24 08 03 00 	mov    QWORD PTR [rsp+0x308],rbx
    a0bc:	00 
    a0bd:	48 89 bc 24 10 03 00 	mov    QWORD PTR [rsp+0x310],rdi
    a0c4:	00 
    a0c5:	4c 89 b4 24 18 03 00 	mov    QWORD PTR [rsp+0x318],r14
    a0cc:	00 
    a0cd:	ff d0                	call   rax
    a0cf:	48 8b 9c 24 08 03 00 	mov    rbx,QWORD PTR [rsp+0x308]
    a0d6:	00 
    a0d7:	4c 8b b4 24 18 03 00 	mov    r14,QWORD PTR [rsp+0x318]
    a0de:	00 
    a0df:	48 89 df             	mov    rdi,rbx
    a0e2:	48 81 c7 08 05 00 00 	add    rdi,0x508
    a0e9:	48 8b b4 24 f8 02 00 	mov    rsi,QWORD PTR [rsp+0x2f8]
    a0f0:	00 
    a0f1:	48 b8 00 00 00 00 00 	movabs rax,0x0
    a0f8:	00 00 00 
			a0f3: R_X86_64_64	caml_initialize
    a0fb:	48 89 b4 24 f8 02 00 	mov    QWORD PTR [rsp+0x2f8],rsi
    a102:	00 
    a103:	48 89 9c 24 00 03 00 	mov    QWORD PTR [rsp+0x300],rbx
    a10a:	00 
    a10b:	48 89 bc 24 08 03 00 	mov    QWORD PTR [rsp+0x308],rdi
    a112:	00 
    a113:	4c 89 b4 24 10 03 00 	mov    QWORD PTR [rsp+0x310],r14
    a11a:	00 
    a11b:	ff d0                	call   rax
    a11d:	48 8b 9c 24 00 03 00 	mov    rbx,QWORD PTR [rsp+0x300]
    a124:	00 
    a125:	4c 8b b4 24 10 03 00 	mov    r14,QWORD PTR [rsp+0x310]
    a12c:	00 
    a12d:	48 89 df             	mov    rdi,rbx
    a130:	48 81 c7 10 05 00 00 	add    rdi,0x510
    a137:	48 8b b4 24 f0 02 00 	mov    rsi,QWORD PTR [rsp+0x2f0]
    a13e:	00 
    a13f:	48 b8 00 00 00 00 00 	movabs rax,0x0
    a146:	00 00 00 
			a141: R_X86_64_64	caml_initialize
    a149:	48 89 b4 24 f0 02 00 	mov    QWORD PTR [rsp+0x2f0],rsi
    a150:	00 
    a151:	48 89 9c 24 f8 02 00 	mov    QWORD PTR [rsp+0x2f8],rbx
    a158:	00 
    a159:	48 89 bc 24 00 03 00 	mov    QWORD PTR [rsp+0x300],rdi
    a160:	00 
    a161:	4c 89 b4 24 08 03 00 	mov    QWORD PTR [rsp+0x308],r14
    a168:	00 
    a169:	ff d0                	call   rax
    a16b:	48 8b 9c 24 f8 02 00 	mov    rbx,QWORD PTR [rsp+0x2f8]
    a172:	00 
    a173:	4c 8b b4 24 08 03 00 	mov    r14,QWORD PTR [rsp+0x308]
    a17a:	00 
    a17b:	48 89 df             	mov    rdi,rbx
    a17e:	48 81 c7 18 05 00 00 	add    rdi,0x518
    a185:	48 8b b4 24 e8 02 00 	mov    rsi,QWORD PTR [rsp+0x2e8]
    a18c:	00 
    a18d:	48 b8 00 00 00 00 00 	movabs rax,0x0
    a194:	00 00 00 
			a18f: R_X86_64_64	caml_initialize
    a197:	48 89 b4 24 e8 02 00 	mov    QWORD PTR [rsp+0x2e8],rsi
    a19e:	00 
    a19f:	48 89 9c 24 f0 02 00 	mov    QWORD PTR [rsp+0x2f0],rbx
    a1a6:	00 
    a1a7:	48 89 bc 24 f8 02 00 	mov    QWORD PTR [rsp+0x2f8],rdi
    a1ae:	00 
    a1af:	4c 89 b4 24 00 03 00 	mov    QWORD PTR [rsp+0x300],r14
    a1b6:	00 
    a1b7:	ff d0                	call   rax
    a1b9:	48 8b 9c 24 f0 02 00 	mov    rbx,QWORD PTR [rsp+0x2f0]
    a1c0:	00 
    a1c1:	4c 8b b4 24 00 03 00 	mov    r14,QWORD PTR [rsp+0x300]
    a1c8:	00 
    a1c9:	48 89 df             	mov    rdi,rbx
    a1cc:	48 81 c7 20 05 00 00 	add    rdi,0x520
    a1d3:	48 8b b4 24 e0 02 00 	mov    rsi,QWORD PTR [rsp+0x2e0]
    a1da:	00 
    a1db:	48 b8 00 00 00 00 00 	movabs rax,0x0
    a1e2:	00 00 00 
			a1dd: R_X86_64_64	caml_initialize
    a1e5:	48 89 b4 24 e0 02 00 	mov    QWORD PTR [rsp+0x2e0],rsi
    a1ec:	00 
    a1ed:	48 89 9c 24 e8 02 00 	mov    QWORD PTR [rsp+0x2e8],rbx
    a1f4:	00 
    a1f5:	48 89 bc 24 f0 02 00 	mov    QWORD PTR [rsp+0x2f0],rdi
    a1fc:	00 
    a1fd:	4c 89 b4 24 f8 02 00 	mov    QWORD PTR [rsp+0x2f8],r14
    a204:	00 
    a205:	ff d0                	call   rax
    a207:	48 8b 9c 24 e8 02 00 	mov    rbx,QWORD PTR [rsp+0x2e8]
    a20e:	00 
    a20f:	4c 8b b4 24 f8 02 00 	mov    r14,QWORD PTR [rsp+0x2f8]
    a216:	00 
    a217:	48 89 df             	mov    rdi,rbx
    a21a:	48 81 c7 28 05 00 00 	add    rdi,0x528
    a221:	48 8b b4 24 d8 02 00 	mov    rsi,QWORD PTR [rsp+0x2d8]
    a228:	00 
    a229:	48 b8 00 00 00 00 00 	movabs rax,0x0
    a230:	00 00 00 
			a22b: R_X86_64_64	caml_initialize
    a233:	48 89 b4 24 d8 02 00 	mov    QWORD PTR [rsp+0x2d8],rsi
    a23a:	00 
    a23b:	48 89 9c 24 e0 02 00 	mov    QWORD PTR [rsp+0x2e0],rbx
    a242:	00 
    a243:	48 89 bc 24 e8 02 00 	mov    QWORD PTR [rsp+0x2e8],rdi
    a24a:	00 
    a24b:	4c 89 b4 24 f0 02 00 	mov    QWORD PTR [rsp+0x2f0],r14
    a252:	00 
    a253:	ff d0                	call   rax
    a255:	48 8b 9c 24 e0 02 00 	mov    rbx,QWORD PTR [rsp+0x2e0]
    a25c:	00 
    a25d:	4c 8b b4 24 f0 02 00 	mov    r14,QWORD PTR [rsp+0x2f0]
    a264:	00 
    a265:	48 89 df             	mov    rdi,rbx
    a268:	48 81 c7 30 05 00 00 	add    rdi,0x530
    a26f:	48 8b b4 24 d0 02 00 	mov    rsi,QWORD PTR [rsp+0x2d0]
    a276:	00 
    a277:	48 b8 00 00 00 00 00 	movabs rax,0x0
    a27e:	00 00 00 
			a279: R_X86_64_64	caml_initialize
    a281:	48 89 b4 24 d0 02 00 	mov    QWORD PTR [rsp+0x2d0],rsi
    a288:	00 
    a289:	48 89 9c 24 d8 02 00 	mov    QWORD PTR [rsp+0x2d8],rbx
    a290:	00 
    a291:	48 89 bc 24 e0 02 00 	mov    QWORD PTR [rsp+0x2e0],rdi
    a298:	00 
    a299:	4c 89 b4 24 e8 02 00 	mov    QWORD PTR [rsp+0x2e8],r14
    a2a0:	00 
    a2a1:	ff d0                	call   rax
    a2a3:	48 8b 9c 24 d8 02 00 	mov    rbx,QWORD PTR [rsp+0x2d8]
    a2aa:	00 
    a2ab:	4c 8b b4 24 e8 02 00 	mov    r14,QWORD PTR [rsp+0x2e8]
    a2b2:	00 
    a2b3:	48 89 df             	mov    rdi,rbx
    a2b6:	48 81 c7 38 05 00 00 	add    rdi,0x538
    a2bd:	48 8b b4 24 c8 02 00 	mov    rsi,QWORD PTR [rsp+0x2c8]
    a2c4:	00 
    a2c5:	48 b8 00 00 00 00 00 	movabs rax,0x0
    a2cc:	00 00 00 
			a2c7: R_X86_64_64	caml_initialize
    a2cf:	48 89 b4 24 c8 02 00 	mov    QWORD PTR [rsp+0x2c8],rsi
    a2d6:	00 
    a2d7:	48 89 9c 24 d0 02 00 	mov    QWORD PTR [rsp+0x2d0],rbx
    a2de:	00 
    a2df:	48 89 bc 24 d8 02 00 	mov    QWORD PTR [rsp+0x2d8],rdi
    a2e6:	00 
    a2e7:	4c 89 b4 24 e0 02 00 	mov    QWORD PTR [rsp+0x2e0],r14
    a2ee:	00 
    a2ef:	ff d0                	call   rax
    a2f1:	48 8b 9c 24 d0 02 00 	mov    rbx,QWORD PTR [rsp+0x2d0]
    a2f8:	00 
    a2f9:	4c 8b b4 24 e0 02 00 	mov    r14,QWORD PTR [rsp+0x2e0]
    a300:	00 
    a301:	48 89 df             	mov    rdi,rbx
    a304:	48 81 c7 40 05 00 00 	add    rdi,0x540
    a30b:	48 8b b4 24 c0 02 00 	mov    rsi,QWORD PTR [rsp+0x2c0]
    a312:	00 
    a313:	48 b8 00 00 00 00 00 	movabs rax,0x0
    a31a:	00 00 00 
			a315: R_X86_64_64	caml_initialize
    a31d:	48 89 b4 24 c0 02 00 	mov    QWORD PTR [rsp+0x2c0],rsi
    a324:	00 
    a325:	48 89 9c 24 c8 02 00 	mov    QWORD PTR [rsp+0x2c8],rbx
    a32c:	00 
    a32d:	48 89 bc 24 d0 02 00 	mov    QWORD PTR [rsp+0x2d0],rdi
    a334:	00 
    a335:	4c 89 b4 24 d8 02 00 	mov    QWORD PTR [rsp+0x2d8],r14
    a33c:	00 
    a33d:	ff d0                	call   rax
    a33f:	48 8b 9c 24 c8 02 00 	mov    rbx,QWORD PTR [rsp+0x2c8]
    a346:	00 
    a347:	4c 8b b4 24 d8 02 00 	mov    r14,QWORD PTR [rsp+0x2d8]
    a34e:	00 
    a34f:	48 89 df             	mov    rdi,rbx
    a352:	48 81 c7 48 05 00 00 	add    rdi,0x548
    a359:	48 8b b4 24 b8 02 00 	mov    rsi,QWORD PTR [rsp+0x2b8]
    a360:	00 
    a361:	48 b8 00 00 00 00 00 	movabs rax,0x0
    a368:	00 00 00 
			a363: R_X86_64_64	caml_initialize
    a36b:	48 89 b4 24 b8 02 00 	mov    QWORD PTR [rsp+0x2b8],rsi
    a372:	00 
    a373:	48 89 9c 24 c0 02 00 	mov    QWORD PTR [rsp+0x2c0],rbx
    a37a:	00 
    a37b:	48 89 bc 24 c8 02 00 	mov    QWORD PTR [rsp+0x2c8],rdi
    a382:	00 
    a383:	4c 89 b4 24 d0 02 00 	mov    QWORD PTR [rsp+0x2d0],r14
    a38a:	00 
    a38b:	ff d0                	call   rax
    a38d:	48 8b 9c 24 c0 02 00 	mov    rbx,QWORD PTR [rsp+0x2c0]
    a394:	00 
    a395:	4c 8b b4 24 d0 02 00 	mov    r14,QWORD PTR [rsp+0x2d0]
    a39c:	00 
    a39d:	48 89 df             	mov    rdi,rbx
    a3a0:	48 81 c7 50 05 00 00 	add    rdi,0x550
    a3a7:	48 8b b4 24 b0 02 00 	mov    rsi,QWORD PTR [rsp+0x2b0]
    a3ae:	00 
    a3af:	48 b8 00 00 00 00 00 	movabs rax,0x0
    a3b6:	00 00 00 
			a3b1: R_X86_64_64	caml_initialize
    a3b9:	48 89 b4 24 b0 02 00 	mov    QWORD PTR [rsp+0x2b0],rsi
    a3c0:	00 
    a3c1:	48 89 9c 24 b8 02 00 	mov    QWORD PTR [rsp+0x2b8],rbx
    a3c8:	00 
    a3c9:	48 89 bc 24 c0 02 00 	mov    QWORD PTR [rsp+0x2c0],rdi
    a3d0:	00 
    a3d1:	4c 89 b4 24 c8 02 00 	mov    QWORD PTR [rsp+0x2c8],r14
    a3d8:	00 
    a3d9:	ff d0                	call   rax
    a3db:	48 8b 9c 24 b8 02 00 	mov    rbx,QWORD PTR [rsp+0x2b8]
    a3e2:	00 
    a3e3:	4c 8b b4 24 c8 02 00 	mov    r14,QWORD PTR [rsp+0x2c8]
    a3ea:	00 
    a3eb:	48 89 df             	mov    rdi,rbx
    a3ee:	48 81 c7 58 05 00 00 	add    rdi,0x558
    a3f5:	48 8b b4 24 a8 02 00 	mov    rsi,QWORD PTR [rsp+0x2a8]
    a3fc:	00 
    a3fd:	48 b8 00 00 00 00 00 	movabs rax,0x0
    a404:	00 00 00 
			a3ff: R_X86_64_64	caml_initialize
    a407:	48 89 b4 24 a8 02 00 	mov    QWORD PTR [rsp+0x2a8],rsi
    a40e:	00 
    a40f:	48 89 9c 24 b0 02 00 	mov    QWORD PTR [rsp+0x2b0],rbx
    a416:	00 
    a417:	48 89 bc 24 b8 02 00 	mov    QWORD PTR [rsp+0x2b8],rdi
    a41e:	00 
    a41f:	4c 89 b4 24 c0 02 00 	mov    QWORD PTR [rsp+0x2c0],r14
    a426:	00 
    a427:	ff d0                	call   rax
    a429:	48 8b 9c 24 b0 02 00 	mov    rbx,QWORD PTR [rsp+0x2b0]
    a430:	00 
    a431:	4c 8b b4 24 c0 02 00 	mov    r14,QWORD PTR [rsp+0x2c0]
    a438:	00 
    a439:	48 89 df             	mov    rdi,rbx
    a43c:	48 81 c7 60 05 00 00 	add    rdi,0x560
    a443:	48 8b b4 24 a0 02 00 	mov    rsi,QWORD PTR [rsp+0x2a0]
    a44a:	00 
    a44b:	48 b8 00 00 00 00 00 	movabs rax,0x0
    a452:	00 00 00 
			a44d: R_X86_64_64	caml_initialize
    a455:	48 89 b4 24 a0 02 00 	mov    QWORD PTR [rsp+0x2a0],rsi
    a45c:	00 
    a45d:	48 89 9c 24 a8 02 00 	mov    QWORD PTR [rsp+0x2a8],rbx
    a464:	00 
    a465:	48 89 bc 24 b0 02 00 	mov    QWORD PTR [rsp+0x2b0],rdi
    a46c:	00 
    a46d:	4c 89 b4 24 b8 02 00 	mov    QWORD PTR [rsp+0x2b8],r14
    a474:	00 
    a475:	ff d0                	call   rax
    a477:	48 8b 9c 24 a8 02 00 	mov    rbx,QWORD PTR [rsp+0x2a8]
    a47e:	00 
    a47f:	4c 8b b4 24 b8 02 00 	mov    r14,QWORD PTR [rsp+0x2b8]
    a486:	00 
    a487:	48 89 df             	mov    rdi,rbx
    a48a:	48 81 c7 68 05 00 00 	add    rdi,0x568
    a491:	48 8b b4 24 98 02 00 	mov    rsi,QWORD PTR [rsp+0x298]
    a498:	00 
    a499:	48 b8 00 00 00 00 00 	movabs rax,0x0
    a4a0:	00 00 00 
			a49b: R_X86_64_64	caml_initialize
    a4a3:	48 89 b4 24 98 02 00 	mov    QWORD PTR [rsp+0x298],rsi
    a4aa:	00 
    a4ab:	48 89 9c 24 a0 02 00 	mov    QWORD PTR [rsp+0x2a0],rbx
    a4b2:	00 
    a4b3:	48 89 bc 24 a8 02 00 	mov    QWORD PTR [rsp+0x2a8],rdi
    a4ba:	00 
    a4bb:	4c 89 b4 24 b0 02 00 	mov    QWORD PTR [rsp+0x2b0],r14
    a4c2:	00 
    a4c3:	ff d0                	call   rax
    a4c5:	48 8b 9c 24 a0 02 00 	mov    rbx,QWORD PTR [rsp+0x2a0]
    a4cc:	00 
    a4cd:	4c 8b b4 24 b0 02 00 	mov    r14,QWORD PTR [rsp+0x2b0]
    a4d4:	00 
    a4d5:	48 89 df             	mov    rdi,rbx
    a4d8:	48 81 c7 70 05 00 00 	add    rdi,0x570
    a4df:	48 8b b4 24 90 02 00 	mov    rsi,QWORD PTR [rsp+0x290]
    a4e6:	00 
    a4e7:	48 b8 00 00 00 00 00 	movabs rax,0x0
    a4ee:	00 00 00 
			a4e9: R_X86_64_64	caml_initialize
    a4f1:	48 89 b4 24 90 02 00 	mov    QWORD PTR [rsp+0x290],rsi
    a4f8:	00 
    a4f9:	48 89 9c 24 98 02 00 	mov    QWORD PTR [rsp+0x298],rbx
    a500:	00 
    a501:	48 89 bc 24 a0 02 00 	mov    QWORD PTR [rsp+0x2a0],rdi
    a508:	00 
    a509:	4c 89 b4 24 a8 02 00 	mov    QWORD PTR [rsp+0x2a8],r14
    a510:	00 
    a511:	ff d0                	call   rax
    a513:	48 8b 9c 24 98 02 00 	mov    rbx,QWORD PTR [rsp+0x298]
    a51a:	00 
    a51b:	4c 8b b4 24 a8 02 00 	mov    r14,QWORD PTR [rsp+0x2a8]
    a522:	00 
    a523:	48 89 df             	mov    rdi,rbx
    a526:	48 81 c7 78 05 00 00 	add    rdi,0x578
    a52d:	48 8b b4 24 88 02 00 	mov    rsi,QWORD PTR [rsp+0x288]
    a534:	00 
    a535:	48 b8 00 00 00 00 00 	movabs rax,0x0
    a53c:	00 00 00 
			a537: R_X86_64_64	caml_initialize
    a53f:	48 89 b4 24 88 02 00 	mov    QWORD PTR [rsp+0x288],rsi
    a546:	00 
    a547:	48 89 9c 24 90 02 00 	mov    QWORD PTR [rsp+0x290],rbx
    a54e:	00 
    a54f:	48 89 bc 24 98 02 00 	mov    QWORD PTR [rsp+0x298],rdi
    a556:	00 
    a557:	4c 89 b4 24 a0 02 00 	mov    QWORD PTR [rsp+0x2a0],r14
    a55e:	00 
    a55f:	ff d0                	call   rax
    a561:	48 8b 9c 24 90 02 00 	mov    rbx,QWORD PTR [rsp+0x290]
    a568:	00 
    a569:	4c 8b b4 24 a0 02 00 	mov    r14,QWORD PTR [rsp+0x2a0]
    a570:	00 
    a571:	48 89 df             	mov    rdi,rbx
    a574:	48 81 c7 80 05 00 00 	add    rdi,0x580
    a57b:	48 8b b4 24 80 02 00 	mov    rsi,QWORD PTR [rsp+0x280]
    a582:	00 
    a583:	48 b8 00 00 00 00 00 	movabs rax,0x0
    a58a:	00 00 00 
			a585: R_X86_64_64	caml_initialize
    a58d:	48 89 b4 24 80 02 00 	mov    QWORD PTR [rsp+0x280],rsi
    a594:	00 
    a595:	48 89 9c 24 88 02 00 	mov    QWORD PTR [rsp+0x288],rbx
    a59c:	00 
    a59d:	48 89 bc 24 90 02 00 	mov    QWORD PTR [rsp+0x290],rdi
    a5a4:	00 
    a5a5:	4c 89 b4 24 98 02 00 	mov    QWORD PTR [rsp+0x298],r14
    a5ac:	00 
    a5ad:	ff d0                	call   rax
    a5af:	48 8b 9c 24 88 02 00 	mov    rbx,QWORD PTR [rsp+0x288]
    a5b6:	00 
    a5b7:	4c 8b b4 24 98 02 00 	mov    r14,QWORD PTR [rsp+0x298]
    a5be:	00 
    a5bf:	48 89 df             	mov    rdi,rbx
    a5c2:	48 81 c7 88 05 00 00 	add    rdi,0x588
    a5c9:	48 8b b4 24 78 02 00 	mov    rsi,QWORD PTR [rsp+0x278]
    a5d0:	00 
    a5d1:	48 b8 00 00 00 00 00 	movabs rax,0x0
    a5d8:	00 00 00 
			a5d3: R_X86_64_64	caml_initialize
    a5db:	48 89 b4 24 78 02 00 	mov    QWORD PTR [rsp+0x278],rsi
    a5e2:	00 
    a5e3:	48 89 9c 24 80 02 00 	mov    QWORD PTR [rsp+0x280],rbx
    a5ea:	00 
    a5eb:	48 89 bc 24 88 02 00 	mov    QWORD PTR [rsp+0x288],rdi
    a5f2:	00 
    a5f3:	4c 89 b4 24 90 02 00 	mov    QWORD PTR [rsp+0x290],r14
    a5fa:	00 
    a5fb:	ff d0                	call   rax
    a5fd:	48 8b 9c 24 80 02 00 	mov    rbx,QWORD PTR [rsp+0x280]
    a604:	00 
    a605:	4c 8b b4 24 90 02 00 	mov    r14,QWORD PTR [rsp+0x290]
    a60c:	00 
    a60d:	48 89 df             	mov    rdi,rbx
    a610:	48 81 c7 90 05 00 00 	add    rdi,0x590
    a617:	48 8b b4 24 70 02 00 	mov    rsi,QWORD PTR [rsp+0x270]
    a61e:	00 
    a61f:	48 b8 00 00 00 00 00 	movabs rax,0x0
    a626:	00 00 00 
			a621: R_X86_64_64	caml_initialize
    a629:	48 89 b4 24 70 02 00 	mov    QWORD PTR [rsp+0x270],rsi
    a630:	00 
    a631:	48 89 9c 24 78 02 00 	mov    QWORD PTR [rsp+0x278],rbx
    a638:	00 
    a639:	48 89 bc 24 80 02 00 	mov    QWORD PTR [rsp+0x280],rdi
    a640:	00 
    a641:	4c 89 b4 24 88 02 00 	mov    QWORD PTR [rsp+0x288],r14
    a648:	00 
    a649:	ff d0                	call   rax
    a64b:	48 8b 9c 24 78 02 00 	mov    rbx,QWORD PTR [rsp+0x278]
    a652:	00 
    a653:	4c 8b b4 24 88 02 00 	mov    r14,QWORD PTR [rsp+0x288]
    a65a:	00 
    a65b:	48 89 df             	mov    rdi,rbx
    a65e:	48 81 c7 98 05 00 00 	add    rdi,0x598
    a665:	48 8b b4 24 68 02 00 	mov    rsi,QWORD PTR [rsp+0x268]
    a66c:	00 
    a66d:	48 b8 00 00 00 00 00 	movabs rax,0x0
    a674:	00 00 00 
			a66f: R_X86_64_64	caml_initialize
    a677:	48 89 b4 24 68 02 00 	mov    QWORD PTR [rsp+0x268],rsi
    a67e:	00 
    a67f:	48 89 9c 24 70 02 00 	mov    QWORD PTR [rsp+0x270],rbx
    a686:	00 
    a687:	48 89 bc 24 78 02 00 	mov    QWORD PTR [rsp+0x278],rdi
    a68e:	00 
    a68f:	4c 89 b4 24 80 02 00 	mov    QWORD PTR [rsp+0x280],r14
    a696:	00 
    a697:	ff d0                	call   rax
    a699:	48 8b 9c 24 70 02 00 	mov    rbx,QWORD PTR [rsp+0x270]
    a6a0:	00 
    a6a1:	4c 8b b4 24 80 02 00 	mov    r14,QWORD PTR [rsp+0x280]
    a6a8:	00 
    a6a9:	48 89 df             	mov    rdi,rbx
    a6ac:	48 81 c7 a0 05 00 00 	add    rdi,0x5a0
    a6b3:	48 8b b4 24 60 02 00 	mov    rsi,QWORD PTR [rsp+0x260]
    a6ba:	00 
    a6bb:	48 b8 00 00 00 00 00 	movabs rax,0x0
    a6c2:	00 00 00 
			a6bd: R_X86_64_64	caml_initialize
    a6c5:	48 89 b4 24 60 02 00 	mov    QWORD PTR [rsp+0x260],rsi
    a6cc:	00 
    a6cd:	48 89 9c 24 68 02 00 	mov    QWORD PTR [rsp+0x268],rbx
    a6d4:	00 
    a6d5:	48 89 bc 24 70 02 00 	mov    QWORD PTR [rsp+0x270],rdi
    a6dc:	00 
    a6dd:	4c 89 b4 24 78 02 00 	mov    QWORD PTR [rsp+0x278],r14
    a6e4:	00 
    a6e5:	ff d0                	call   rax
    a6e7:	48 8b 9c 24 68 02 00 	mov    rbx,QWORD PTR [rsp+0x268]
    a6ee:	00 
    a6ef:	4c 8b b4 24 78 02 00 	mov    r14,QWORD PTR [rsp+0x278]
    a6f6:	00 
    a6f7:	48 89 df             	mov    rdi,rbx
    a6fa:	48 81 c7 a8 05 00 00 	add    rdi,0x5a8
    a701:	48 8b b4 24 58 02 00 	mov    rsi,QWORD PTR [rsp+0x258]
    a708:	00 
    a709:	48 b8 00 00 00 00 00 	movabs rax,0x0
    a710:	00 00 00 
			a70b: R_X86_64_64	caml_initialize
    a713:	48 89 b4 24 58 02 00 	mov    QWORD PTR [rsp+0x258],rsi
    a71a:	00 
    a71b:	48 89 9c 24 60 02 00 	mov    QWORD PTR [rsp+0x260],rbx
    a722:	00 
    a723:	48 89 bc 24 68 02 00 	mov    QWORD PTR [rsp+0x268],rdi
    a72a:	00 
    a72b:	4c 89 b4 24 70 02 00 	mov    QWORD PTR [rsp+0x270],r14
    a732:	00 
    a733:	ff d0                	call   rax
    a735:	48 8b 9c 24 60 02 00 	mov    rbx,QWORD PTR [rsp+0x260]
    a73c:	00 
    a73d:	4c 8b b4 24 70 02 00 	mov    r14,QWORD PTR [rsp+0x270]
    a744:	00 
    a745:	48 89 df             	mov    rdi,rbx
    a748:	48 81 c7 b0 05 00 00 	add    rdi,0x5b0
    a74f:	48 8b b4 24 50 02 00 	mov    rsi,QWORD PTR [rsp+0x250]
    a756:	00 
    a757:	48 b8 00 00 00 00 00 	movabs rax,0x0
    a75e:	00 00 00 
			a759: R_X86_64_64	caml_initialize
    a761:	48 89 b4 24 50 02 00 	mov    QWORD PTR [rsp+0x250],rsi
    a768:	00 
    a769:	48 89 9c 24 58 02 00 	mov    QWORD PTR [rsp+0x258],rbx
    a770:	00 
    a771:	48 89 bc 24 60 02 00 	mov    QWORD PTR [rsp+0x260],rdi
    a778:	00 
    a779:	4c 89 b4 24 68 02 00 	mov    QWORD PTR [rsp+0x268],r14
    a780:	00 
    a781:	ff d0                	call   rax
    a783:	48 8b 9c 24 58 02 00 	mov    rbx,QWORD PTR [rsp+0x258]
    a78a:	00 
    a78b:	4c 8b b4 24 68 02 00 	mov    r14,QWORD PTR [rsp+0x268]
    a792:	00 
    a793:	48 89 df             	mov    rdi,rbx
    a796:	48 81 c7 b8 05 00 00 	add    rdi,0x5b8
    a79d:	48 8b b4 24 48 02 00 	mov    rsi,QWORD PTR [rsp+0x248]
    a7a4:	00 
    a7a5:	48 b8 00 00 00 00 00 	movabs rax,0x0
    a7ac:	00 00 00 
			a7a7: R_X86_64_64	caml_initialize
    a7af:	48 89 b4 24 48 02 00 	mov    QWORD PTR [rsp+0x248],rsi
    a7b6:	00 
    a7b7:	48 89 9c 24 50 02 00 	mov    QWORD PTR [rsp+0x250],rbx
    a7be:	00 
    a7bf:	48 89 bc 24 58 02 00 	mov    QWORD PTR [rsp+0x258],rdi
    a7c6:	00 
    a7c7:	4c 89 b4 24 60 02 00 	mov    QWORD PTR [rsp+0x260],r14
    a7ce:	00 
    a7cf:	ff d0                	call   rax
    a7d1:	48 8b 9c 24 50 02 00 	mov    rbx,QWORD PTR [rsp+0x250]
    a7d8:	00 
    a7d9:	4c 8b b4 24 60 02 00 	mov    r14,QWORD PTR [rsp+0x260]
    a7e0:	00 
    a7e1:	48 89 df             	mov    rdi,rbx
    a7e4:	48 81 c7 c0 05 00 00 	add    rdi,0x5c0
    a7eb:	48 8b b4 24 40 02 00 	mov    rsi,QWORD PTR [rsp+0x240]
    a7f2:	00 
    a7f3:	48 b8 00 00 00 00 00 	movabs rax,0x0
    a7fa:	00 00 00 
			a7f5: R_X86_64_64	caml_initialize
    a7fd:	48 89 b4 24 40 02 00 	mov    QWORD PTR [rsp+0x240],rsi
    a804:	00 
    a805:	48 89 9c 24 48 02 00 	mov    QWORD PTR [rsp+0x248],rbx
    a80c:	00 
    a80d:	48 89 bc 24 50 02 00 	mov    QWORD PTR [rsp+0x250],rdi
    a814:	00 
    a815:	4c 89 b4 24 58 02 00 	mov    QWORD PTR [rsp+0x258],r14
    a81c:	00 
    a81d:	ff d0                	call   rax
    a81f:	48 8b 9c 24 48 02 00 	mov    rbx,QWORD PTR [rsp+0x248]
    a826:	00 
    a827:	4c 8b b4 24 58 02 00 	mov    r14,QWORD PTR [rsp+0x258]
    a82e:	00 
    a82f:	48 89 df             	mov    rdi,rbx
    a832:	48 81 c7 c8 05 00 00 	add    rdi,0x5c8
    a839:	48 8b b4 24 38 02 00 	mov    rsi,QWORD PTR [rsp+0x238]
    a840:	00 
    a841:	48 b8 00 00 00 00 00 	movabs rax,0x0
    a848:	00 00 00 
			a843: R_X86_64_64	caml_initialize
    a84b:	48 89 b4 24 38 02 00 	mov    QWORD PTR [rsp+0x238],rsi
    a852:	00 
    a853:	48 89 9c 24 40 02 00 	mov    QWORD PTR [rsp+0x240],rbx
    a85a:	00 
    a85b:	48 89 bc 24 48 02 00 	mov    QWORD PTR [rsp+0x248],rdi
    a862:	00 
    a863:	4c 89 b4 24 50 02 00 	mov    QWORD PTR [rsp+0x250],r14
    a86a:	00 
    a86b:	ff d0                	call   rax
    a86d:	48 8b 9c 24 40 02 00 	mov    rbx,QWORD PTR [rsp+0x240]
    a874:	00 
    a875:	4c 8b b4 24 50 02 00 	mov    r14,QWORD PTR [rsp+0x250]
    a87c:	00 
    a87d:	48 89 df             	mov    rdi,rbx
    a880:	48 81 c7 d0 05 00 00 	add    rdi,0x5d0
    a887:	48 8b b4 24 30 02 00 	mov    rsi,QWORD PTR [rsp+0x230]
    a88e:	00 
    a88f:	48 b8 00 00 00 00 00 	movabs rax,0x0
    a896:	00 00 00 
			a891: R_X86_64_64	caml_initialize
    a899:	48 89 b4 24 30 02 00 	mov    QWORD PTR [rsp+0x230],rsi
    a8a0:	00 
    a8a1:	48 89 9c 24 38 02 00 	mov    QWORD PTR [rsp+0x238],rbx
    a8a8:	00 
    a8a9:	48 89 bc 24 40 02 00 	mov    QWORD PTR [rsp+0x240],rdi
    a8b0:	00 
    a8b1:	4c 89 b4 24 48 02 00 	mov    QWORD PTR [rsp+0x248],r14
    a8b8:	00 
    a8b9:	ff d0                	call   rax
    a8bb:	48 8b 9c 24 38 02 00 	mov    rbx,QWORD PTR [rsp+0x238]
    a8c2:	00 
    a8c3:	4c 8b b4 24 48 02 00 	mov    r14,QWORD PTR [rsp+0x248]
    a8ca:	00 
    a8cb:	48 89 df             	mov    rdi,rbx
    a8ce:	48 81 c7 d8 05 00 00 	add    rdi,0x5d8
    a8d5:	48 8b b4 24 28 02 00 	mov    rsi,QWORD PTR [rsp+0x228]
    a8dc:	00 
    a8dd:	48 b8 00 00 00 00 00 	movabs rax,0x0
    a8e4:	00 00 00 
			a8df: R_X86_64_64	caml_initialize
    a8e7:	48 89 b4 24 28 02 00 	mov    QWORD PTR [rsp+0x228],rsi
    a8ee:	00 
    a8ef:	48 89 9c 24 30 02 00 	mov    QWORD PTR [rsp+0x230],rbx
    a8f6:	00 
    a8f7:	48 89 bc 24 38 02 00 	mov    QWORD PTR [rsp+0x238],rdi
    a8fe:	00 
    a8ff:	4c 89 b4 24 40 02 00 	mov    QWORD PTR [rsp+0x240],r14
    a906:	00 
    a907:	ff d0                	call   rax
    a909:	48 8b 9c 24 30 02 00 	mov    rbx,QWORD PTR [rsp+0x230]
    a910:	00 
    a911:	4c 8b b4 24 40 02 00 	mov    r14,QWORD PTR [rsp+0x240]
    a918:	00 
    a919:	48 89 df             	mov    rdi,rbx
    a91c:	48 81 c7 e0 05 00 00 	add    rdi,0x5e0
    a923:	48 8b b4 24 20 02 00 	mov    rsi,QWORD PTR [rsp+0x220]
    a92a:	00 
    a92b:	48 b8 00 00 00 00 00 	movabs rax,0x0
    a932:	00 00 00 
			a92d: R_X86_64_64	caml_initialize
    a935:	48 89 b4 24 20 02 00 	mov    QWORD PTR [rsp+0x220],rsi
    a93c:	00 
    a93d:	48 89 9c 24 28 02 00 	mov    QWORD PTR [rsp+0x228],rbx
    a944:	00 
    a945:	48 89 bc 24 30 02 00 	mov    QWORD PTR [rsp+0x230],rdi
    a94c:	00 
    a94d:	4c 89 b4 24 38 02 00 	mov    QWORD PTR [rsp+0x238],r14
    a954:	00 
    a955:	ff d0                	call   rax
    a957:	48 8b 9c 24 28 02 00 	mov    rbx,QWORD PTR [rsp+0x228]
    a95e:	00 
    a95f:	4c 8b b4 24 38 02 00 	mov    r14,QWORD PTR [rsp+0x238]
    a966:	00 
    a967:	48 89 df             	mov    rdi,rbx
    a96a:	48 81 c7 e8 05 00 00 	add    rdi,0x5e8
    a971:	48 8b b4 24 18 02 00 	mov    rsi,QWORD PTR [rsp+0x218]
    a978:	00 
    a979:	48 b8 00 00 00 00 00 	movabs rax,0x0
    a980:	00 00 00 
			a97b: R_X86_64_64	caml_initialize
    a983:	48 89 b4 24 18 02 00 	mov    QWORD PTR [rsp+0x218],rsi
    a98a:	00 
    a98b:	48 89 9c 24 20 02 00 	mov    QWORD PTR [rsp+0x220],rbx
    a992:	00 
    a993:	48 89 bc 24 28 02 00 	mov    QWORD PTR [rsp+0x228],rdi
    a99a:	00 
    a99b:	4c 89 b4 24 30 02 00 	mov    QWORD PTR [rsp+0x230],r14
    a9a2:	00 
    a9a3:	ff d0                	call   rax
    a9a5:	48 8b 9c 24 20 02 00 	mov    rbx,QWORD PTR [rsp+0x220]
    a9ac:	00 
    a9ad:	4c 8b b4 24 30 02 00 	mov    r14,QWORD PTR [rsp+0x230]
    a9b4:	00 
    a9b5:	48 89 df             	mov    rdi,rbx
    a9b8:	48 81 c7 f0 05 00 00 	add    rdi,0x5f0
    a9bf:	48 8b b4 24 10 02 00 	mov    rsi,QWORD PTR [rsp+0x210]
    a9c6:	00 
    a9c7:	48 b8 00 00 00 00 00 	movabs rax,0x0
    a9ce:	00 00 00 
			a9c9: R_X86_64_64	caml_initialize
    a9d1:	48 89 b4 24 10 02 00 	mov    QWORD PTR [rsp+0x210],rsi
    a9d8:	00 
    a9d9:	48 89 9c 24 18 02 00 	mov    QWORD PTR [rsp+0x218],rbx
    a9e0:	00 
    a9e1:	48 89 bc 24 20 02 00 	mov    QWORD PTR [rsp+0x220],rdi
    a9e8:	00 
    a9e9:	4c 89 b4 24 28 02 00 	mov    QWORD PTR [rsp+0x228],r14
    a9f0:	00 
    a9f1:	ff d0                	call   rax
    a9f3:	48 8b 9c 24 18 02 00 	mov    rbx,QWORD PTR [rsp+0x218]
    a9fa:	00 
    a9fb:	4c 8b b4 24 28 02 00 	mov    r14,QWORD PTR [rsp+0x228]
    aa02:	00 
    aa03:	48 89 df             	mov    rdi,rbx
    aa06:	48 81 c7 f8 05 00 00 	add    rdi,0x5f8
    aa0d:	48 8b b4 24 08 02 00 	mov    rsi,QWORD PTR [rsp+0x208]
    aa14:	00 
    aa15:	48 b8 00 00 00 00 00 	movabs rax,0x0
    aa1c:	00 00 00 
			aa17: R_X86_64_64	caml_initialize
    aa1f:	48 89 b4 24 08 02 00 	mov    QWORD PTR [rsp+0x208],rsi
    aa26:	00 
    aa27:	48 89 9c 24 10 02 00 	mov    QWORD PTR [rsp+0x210],rbx
    aa2e:	00 
    aa2f:	48 89 bc 24 18 02 00 	mov    QWORD PTR [rsp+0x218],rdi
    aa36:	00 
    aa37:	4c 89 b4 24 20 02 00 	mov    QWORD PTR [rsp+0x220],r14
    aa3e:	00 
    aa3f:	ff d0                	call   rax
    aa41:	48 8b 9c 24 10 02 00 	mov    rbx,QWORD PTR [rsp+0x210]
    aa48:	00 
    aa49:	4c 8b b4 24 20 02 00 	mov    r14,QWORD PTR [rsp+0x220]
    aa50:	00 
    aa51:	48 89 df             	mov    rdi,rbx
    aa54:	48 81 c7 00 06 00 00 	add    rdi,0x600
    aa5b:	48 8b b4 24 00 02 00 	mov    rsi,QWORD PTR [rsp+0x200]
    aa62:	00 
    aa63:	48 b8 00 00 00 00 00 	movabs rax,0x0
    aa6a:	00 00 00 
			aa65: R_X86_64_64	caml_initialize
    aa6d:	48 89 b4 24 00 02 00 	mov    QWORD PTR [rsp+0x200],rsi
    aa74:	00 
    aa75:	48 89 9c 24 08 02 00 	mov    QWORD PTR [rsp+0x208],rbx
    aa7c:	00 
    aa7d:	48 89 bc 24 10 02 00 	mov    QWORD PTR [rsp+0x210],rdi
    aa84:	00 
    aa85:	4c 89 b4 24 18 02 00 	mov    QWORD PTR [rsp+0x218],r14
    aa8c:	00 
    aa8d:	ff d0                	call   rax
    aa8f:	48 8b 9c 24 08 02 00 	mov    rbx,QWORD PTR [rsp+0x208]
    aa96:	00 
    aa97:	4c 8b b4 24 18 02 00 	mov    r14,QWORD PTR [rsp+0x218]
    aa9e:	00 
    aa9f:	48 89 df             	mov    rdi,rbx
    aaa2:	48 81 c7 08 06 00 00 	add    rdi,0x608
    aaa9:	48 8b b4 24 f8 01 00 	mov    rsi,QWORD PTR [rsp+0x1f8]
    aab0:	00 
    aab1:	48 b8 00 00 00 00 00 	movabs rax,0x0
    aab8:	00 00 00 
			aab3: R_X86_64_64	caml_initialize
    aabb:	48 89 b4 24 f8 01 00 	mov    QWORD PTR [rsp+0x1f8],rsi
    aac2:	00 
    aac3:	48 89 9c 24 00 02 00 	mov    QWORD PTR [rsp+0x200],rbx
    aaca:	00 
    aacb:	48 89 bc 24 08 02 00 	mov    QWORD PTR [rsp+0x208],rdi
    aad2:	00 
    aad3:	4c 89 b4 24 10 02 00 	mov    QWORD PTR [rsp+0x210],r14
    aada:	00 
    aadb:	ff d0                	call   rax
    aadd:	48 8b 9c 24 00 02 00 	mov    rbx,QWORD PTR [rsp+0x200]
    aae4:	00 
    aae5:	4c 8b b4 24 10 02 00 	mov    r14,QWORD PTR [rsp+0x210]
    aaec:	00 
    aaed:	48 89 df             	mov    rdi,rbx
    aaf0:	48 81 c7 10 06 00 00 	add    rdi,0x610
    aaf7:	48 8b b4 24 f0 01 00 	mov    rsi,QWORD PTR [rsp+0x1f0]
    aafe:	00 
    aaff:	48 b8 00 00 00 00 00 	movabs rax,0x0
    ab06:	00 00 00 
			ab01: R_X86_64_64	caml_initialize
    ab09:	48 89 b4 24 f0 01 00 	mov    QWORD PTR [rsp+0x1f0],rsi
    ab10:	00 
    ab11:	48 89 9c 24 f8 01 00 	mov    QWORD PTR [rsp+0x1f8],rbx
    ab18:	00 
    ab19:	48 89 bc 24 00 02 00 	mov    QWORD PTR [rsp+0x200],rdi
    ab20:	00 
    ab21:	4c 89 b4 24 08 02 00 	mov    QWORD PTR [rsp+0x208],r14
    ab28:	00 
    ab29:	ff d0                	call   rax
    ab2b:	48 8b 9c 24 f8 01 00 	mov    rbx,QWORD PTR [rsp+0x1f8]
    ab32:	00 
    ab33:	4c 8b b4 24 08 02 00 	mov    r14,QWORD PTR [rsp+0x208]
    ab3a:	00 
    ab3b:	48 89 df             	mov    rdi,rbx
    ab3e:	48 81 c7 18 06 00 00 	add    rdi,0x618
    ab45:	48 8b b4 24 e8 01 00 	mov    rsi,QWORD PTR [rsp+0x1e8]
    ab4c:	00 
    ab4d:	48 b8 00 00 00 00 00 	movabs rax,0x0
    ab54:	00 00 00 
			ab4f: R_X86_64_64	caml_initialize
    ab57:	48 89 b4 24 e8 01 00 	mov    QWORD PTR [rsp+0x1e8],rsi
    ab5e:	00 
    ab5f:	48 89 9c 24 f0 01 00 	mov    QWORD PTR [rsp+0x1f0],rbx
    ab66:	00 
    ab67:	48 89 bc 24 f8 01 00 	mov    QWORD PTR [rsp+0x1f8],rdi
    ab6e:	00 
    ab6f:	4c 89 b4 24 00 02 00 	mov    QWORD PTR [rsp+0x200],r14
    ab76:	00 
    ab77:	ff d0                	call   rax
    ab79:	48 8b 9c 24 f0 01 00 	mov    rbx,QWORD PTR [rsp+0x1f0]
    ab80:	00 
    ab81:	4c 8b b4 24 00 02 00 	mov    r14,QWORD PTR [rsp+0x200]
    ab88:	00 
    ab89:	48 89 df             	mov    rdi,rbx
    ab8c:	48 81 c7 20 06 00 00 	add    rdi,0x620
    ab93:	48 8b b4 24 e0 01 00 	mov    rsi,QWORD PTR [rsp+0x1e0]
    ab9a:	00 
    ab9b:	48 b8 00 00 00 00 00 	movabs rax,0x0
    aba2:	00 00 00 
			ab9d: R_X86_64_64	caml_initialize
    aba5:	48 89 b4 24 e0 01 00 	mov    QWORD PTR [rsp+0x1e0],rsi
    abac:	00 
    abad:	48 89 9c 24 e8 01 00 	mov    QWORD PTR [rsp+0x1e8],rbx
    abb4:	00 
    abb5:	48 89 bc 24 f0 01 00 	mov    QWORD PTR [rsp+0x1f0],rdi
    abbc:	00 
    abbd:	4c 89 b4 24 f8 01 00 	mov    QWORD PTR [rsp+0x1f8],r14
    abc4:	00 
    abc5:	ff d0                	call   rax
    abc7:	48 8b 9c 24 e8 01 00 	mov    rbx,QWORD PTR [rsp+0x1e8]
    abce:	00 
    abcf:	4c 8b b4 24 f8 01 00 	mov    r14,QWORD PTR [rsp+0x1f8]
    abd6:	00 
    abd7:	48 89 df             	mov    rdi,rbx
    abda:	48 81 c7 28 06 00 00 	add    rdi,0x628
    abe1:	48 8b b4 24 d8 01 00 	mov    rsi,QWORD PTR [rsp+0x1d8]
    abe8:	00 
    abe9:	48 b8 00 00 00 00 00 	movabs rax,0x0
    abf0:	00 00 00 
			abeb: R_X86_64_64	caml_initialize
    abf3:	48 89 b4 24 d8 01 00 	mov    QWORD PTR [rsp+0x1d8],rsi
    abfa:	00 
    abfb:	48 89 9c 24 e0 01 00 	mov    QWORD PTR [rsp+0x1e0],rbx
    ac02:	00 
    ac03:	48 89 bc 24 e8 01 00 	mov    QWORD PTR [rsp+0x1e8],rdi
    ac0a:	00 
    ac0b:	4c 89 b4 24 f0 01 00 	mov    QWORD PTR [rsp+0x1f0],r14
    ac12:	00 
    ac13:	ff d0                	call   rax
    ac15:	48 8b 9c 24 e0 01 00 	mov    rbx,QWORD PTR [rsp+0x1e0]
    ac1c:	00 
    ac1d:	4c 8b b4 24 f0 01 00 	mov    r14,QWORD PTR [rsp+0x1f0]
    ac24:	00 
    ac25:	48 89 df             	mov    rdi,rbx
    ac28:	48 81 c7 30 06 00 00 	add    rdi,0x630
    ac2f:	48 8b b4 24 d0 01 00 	mov    rsi,QWORD PTR [rsp+0x1d0]
    ac36:	00 
    ac37:	48 b8 00 00 00 00 00 	movabs rax,0x0
    ac3e:	00 00 00 
			ac39: R_X86_64_64	caml_initialize
    ac41:	48 89 b4 24 d0 01 00 	mov    QWORD PTR [rsp+0x1d0],rsi
    ac48:	00 
    ac49:	48 89 9c 24 d8 01 00 	mov    QWORD PTR [rsp+0x1d8],rbx
    ac50:	00 
    ac51:	48 89 bc 24 e0 01 00 	mov    QWORD PTR [rsp+0x1e0],rdi
    ac58:	00 
    ac59:	4c 89 b4 24 e8 01 00 	mov    QWORD PTR [rsp+0x1e8],r14
    ac60:	00 
    ac61:	ff d0                	call   rax
    ac63:	48 8b 9c 24 d8 01 00 	mov    rbx,QWORD PTR [rsp+0x1d8]
    ac6a:	00 
    ac6b:	4c 8b b4 24 e8 01 00 	mov    r14,QWORD PTR [rsp+0x1e8]
    ac72:	00 
    ac73:	48 89 df             	mov    rdi,rbx
    ac76:	48 81 c7 38 06 00 00 	add    rdi,0x638
    ac7d:	48 8b b4 24 c8 01 00 	mov    rsi,QWORD PTR [rsp+0x1c8]
    ac84:	00 
    ac85:	48 b8 00 00 00 00 00 	movabs rax,0x0
    ac8c:	00 00 00 
			ac87: R_X86_64_64	caml_initialize
    ac8f:	48 89 b4 24 c8 01 00 	mov    QWORD PTR [rsp+0x1c8],rsi
    ac96:	00 
    ac97:	48 89 9c 24 d0 01 00 	mov    QWORD PTR [rsp+0x1d0],rbx
    ac9e:	00 
    ac9f:	48 89 bc 24 d8 01 00 	mov    QWORD PTR [rsp+0x1d8],rdi
    aca6:	00 
    aca7:	4c 89 b4 24 e0 01 00 	mov    QWORD PTR [rsp+0x1e0],r14
    acae:	00 
    acaf:	ff d0                	call   rax
    acb1:	48 8b 9c 24 d0 01 00 	mov    rbx,QWORD PTR [rsp+0x1d0]
    acb8:	00 
    acb9:	4c 8b b4 24 e0 01 00 	mov    r14,QWORD PTR [rsp+0x1e0]
    acc0:	00 
    acc1:	48 89 df             	mov    rdi,rbx
    acc4:	48 81 c7 40 06 00 00 	add    rdi,0x640
    accb:	48 8b b4 24 c0 01 00 	mov    rsi,QWORD PTR [rsp+0x1c0]
    acd2:	00 
    acd3:	48 b8 00 00 00 00 00 	movabs rax,0x0
    acda:	00 00 00 
			acd5: R_X86_64_64	caml_initialize
    acdd:	48 89 b4 24 c0 01 00 	mov    QWORD PTR [rsp+0x1c0],rsi
    ace4:	00 
    ace5:	48 89 9c 24 c8 01 00 	mov    QWORD PTR [rsp+0x1c8],rbx
    acec:	00 
    aced:	48 89 bc 24 d0 01 00 	mov    QWORD PTR [rsp+0x1d0],rdi
    acf4:	00 
    acf5:	4c 89 b4 24 d8 01 00 	mov    QWORD PTR [rsp+0x1d8],r14
    acfc:	00 
    acfd:	ff d0                	call   rax
    acff:	48 8b 9c 24 c8 01 00 	mov    rbx,QWORD PTR [rsp+0x1c8]
    ad06:	00 
    ad07:	4c 8b b4 24 d8 01 00 	mov    r14,QWORD PTR [rsp+0x1d8]
    ad0e:	00 
    ad0f:	48 89 df             	mov    rdi,rbx
    ad12:	48 81 c7 48 06 00 00 	add    rdi,0x648
    ad19:	48 8b b4 24 b8 01 00 	mov    rsi,QWORD PTR [rsp+0x1b8]
    ad20:	00 
    ad21:	48 b8 00 00 00 00 00 	movabs rax,0x0
    ad28:	00 00 00 
			ad23: R_X86_64_64	caml_initialize
    ad2b:	48 89 b4 24 b8 01 00 	mov    QWORD PTR [rsp+0x1b8],rsi
    ad32:	00 
    ad33:	48 89 9c 24 c0 01 00 	mov    QWORD PTR [rsp+0x1c0],rbx
    ad3a:	00 
    ad3b:	48 89 bc 24 c8 01 00 	mov    QWORD PTR [rsp+0x1c8],rdi
    ad42:	00 
    ad43:	4c 89 b4 24 d0 01 00 	mov    QWORD PTR [rsp+0x1d0],r14
    ad4a:	00 
    ad4b:	ff d0                	call   rax
    ad4d:	48 8b 9c 24 c0 01 00 	mov    rbx,QWORD PTR [rsp+0x1c0]
    ad54:	00 
    ad55:	4c 8b b4 24 d0 01 00 	mov    r14,QWORD PTR [rsp+0x1d0]
    ad5c:	00 
    ad5d:	48 89 df             	mov    rdi,rbx
    ad60:	48 81 c7 50 06 00 00 	add    rdi,0x650
    ad67:	48 8b b4 24 b0 01 00 	mov    rsi,QWORD PTR [rsp+0x1b0]
    ad6e:	00 
    ad6f:	48 b8 00 00 00 00 00 	movabs rax,0x0
    ad76:	00 00 00 
			ad71: R_X86_64_64	caml_initialize
    ad79:	48 89 b4 24 b0 01 00 	mov    QWORD PTR [rsp+0x1b0],rsi
    ad80:	00 
    ad81:	48 89 9c 24 b8 01 00 	mov    QWORD PTR [rsp+0x1b8],rbx
    ad88:	00 
    ad89:	48 89 bc 24 c0 01 00 	mov    QWORD PTR [rsp+0x1c0],rdi
    ad90:	00 
    ad91:	4c 89 b4 24 c8 01 00 	mov    QWORD PTR [rsp+0x1c8],r14
    ad98:	00 
    ad99:	ff d0                	call   rax
    ad9b:	48 8b 9c 24 b8 01 00 	mov    rbx,QWORD PTR [rsp+0x1b8]
    ada2:	00 
    ada3:	4c 8b b4 24 c8 01 00 	mov    r14,QWORD PTR [rsp+0x1c8]
    adaa:	00 
    adab:	48 89 df             	mov    rdi,rbx
    adae:	48 81 c7 58 06 00 00 	add    rdi,0x658
    adb5:	48 8b b4 24 a8 01 00 	mov    rsi,QWORD PTR [rsp+0x1a8]
    adbc:	00 
    adbd:	48 b8 00 00 00 00 00 	movabs rax,0x0
    adc4:	00 00 00 
			adbf: R_X86_64_64	caml_initialize
    adc7:	48 89 b4 24 a8 01 00 	mov    QWORD PTR [rsp+0x1a8],rsi
    adce:	00 
    adcf:	48 89 9c 24 b0 01 00 	mov    QWORD PTR [rsp+0x1b0],rbx
    add6:	00 
    add7:	48 89 bc 24 b8 01 00 	mov    QWORD PTR [rsp+0x1b8],rdi
    adde:	00 
    addf:	4c 89 b4 24 c0 01 00 	mov    QWORD PTR [rsp+0x1c0],r14
    ade6:	00 
    ade7:	ff d0                	call   rax
    ade9:	48 8b 9c 24 b0 01 00 	mov    rbx,QWORD PTR [rsp+0x1b0]
    adf0:	00 
    adf1:	4c 8b b4 24 c0 01 00 	mov    r14,QWORD PTR [rsp+0x1c0]
    adf8:	00 
    adf9:	48 89 df             	mov    rdi,rbx
    adfc:	48 81 c7 60 06 00 00 	add    rdi,0x660
    ae03:	48 8b b4 24 a0 01 00 	mov    rsi,QWORD PTR [rsp+0x1a0]
    ae0a:	00 
    ae0b:	48 b8 00 00 00 00 00 	movabs rax,0x0
    ae12:	00 00 00 
			ae0d: R_X86_64_64	caml_initialize
    ae15:	48 89 b4 24 a0 01 00 	mov    QWORD PTR [rsp+0x1a0],rsi
    ae1c:	00 
    ae1d:	48 89 9c 24 a8 01 00 	mov    QWORD PTR [rsp+0x1a8],rbx
    ae24:	00 
    ae25:	48 89 bc 24 b0 01 00 	mov    QWORD PTR [rsp+0x1b0],rdi
    ae2c:	00 
    ae2d:	4c 89 b4 24 b8 01 00 	mov    QWORD PTR [rsp+0x1b8],r14
    ae34:	00 
    ae35:	ff d0                	call   rax
    ae37:	48 8b 9c 24 a8 01 00 	mov    rbx,QWORD PTR [rsp+0x1a8]
    ae3e:	00 
    ae3f:	4c 8b b4 24 b8 01 00 	mov    r14,QWORD PTR [rsp+0x1b8]
    ae46:	00 
    ae47:	48 89 df             	mov    rdi,rbx
    ae4a:	48 81 c7 68 06 00 00 	add    rdi,0x668
    ae51:	48 8b b4 24 98 01 00 	mov    rsi,QWORD PTR [rsp+0x198]
    ae58:	00 
    ae59:	48 b8 00 00 00 00 00 	movabs rax,0x0
    ae60:	00 00 00 
			ae5b: R_X86_64_64	caml_initialize
    ae63:	48 89 b4 24 98 01 00 	mov    QWORD PTR [rsp+0x198],rsi
    ae6a:	00 
    ae6b:	48 89 9c 24 a0 01 00 	mov    QWORD PTR [rsp+0x1a0],rbx
    ae72:	00 
    ae73:	48 89 bc 24 a8 01 00 	mov    QWORD PTR [rsp+0x1a8],rdi
    ae7a:	00 
    ae7b:	4c 89 b4 24 b0 01 00 	mov    QWORD PTR [rsp+0x1b0],r14
    ae82:	00 
    ae83:	ff d0                	call   rax
    ae85:	48 8b 9c 24 a0 01 00 	mov    rbx,QWORD PTR [rsp+0x1a0]
    ae8c:	00 
    ae8d:	4c 8b b4 24 b0 01 00 	mov    r14,QWORD PTR [rsp+0x1b0]
    ae94:	00 
    ae95:	48 89 df             	mov    rdi,rbx
    ae98:	48 81 c7 70 06 00 00 	add    rdi,0x670
    ae9f:	48 8b b4 24 90 01 00 	mov    rsi,QWORD PTR [rsp+0x190]
    aea6:	00 
    aea7:	48 b8 00 00 00 00 00 	movabs rax,0x0
    aeae:	00 00 00 
			aea9: R_X86_64_64	caml_initialize
    aeb1:	48 89 b4 24 90 01 00 	mov    QWORD PTR [rsp+0x190],rsi
    aeb8:	00 
    aeb9:	48 89 9c 24 98 01 00 	mov    QWORD PTR [rsp+0x198],rbx
    aec0:	00 
    aec1:	48 89 bc 24 a0 01 00 	mov    QWORD PTR [rsp+0x1a0],rdi
    aec8:	00 
    aec9:	4c 89 b4 24 a8 01 00 	mov    QWORD PTR [rsp+0x1a8],r14
    aed0:	00 
    aed1:	ff d0                	call   rax
    aed3:	48 8b 9c 24 98 01 00 	mov    rbx,QWORD PTR [rsp+0x198]
    aeda:	00 
    aedb:	4c 8b b4 24 a8 01 00 	mov    r14,QWORD PTR [rsp+0x1a8]
    aee2:	00 
    aee3:	48 89 df             	mov    rdi,rbx
    aee6:	48 81 c7 78 06 00 00 	add    rdi,0x678
    aeed:	48 8b b4 24 88 01 00 	mov    rsi,QWORD PTR [rsp+0x188]
    aef4:	00 
    aef5:	48 b8 00 00 00 00 00 	movabs rax,0x0
    aefc:	00 00 00 
			aef7: R_X86_64_64	caml_initialize
    aeff:	48 89 b4 24 88 01 00 	mov    QWORD PTR [rsp+0x188],rsi
    af06:	00 
    af07:	48 89 9c 24 90 01 00 	mov    QWORD PTR [rsp+0x190],rbx
    af0e:	00 
    af0f:	48 89 bc 24 98 01 00 	mov    QWORD PTR [rsp+0x198],rdi
    af16:	00 
    af17:	4c 89 b4 24 a0 01 00 	mov    QWORD PTR [rsp+0x1a0],r14
    af1e:	00 
    af1f:	ff d0                	call   rax
    af21:	48 8b 9c 24 90 01 00 	mov    rbx,QWORD PTR [rsp+0x190]
    af28:	00 
    af29:	4c 8b b4 24 a0 01 00 	mov    r14,QWORD PTR [rsp+0x1a0]
    af30:	00 
    af31:	48 89 df             	mov    rdi,rbx
    af34:	48 81 c7 80 06 00 00 	add    rdi,0x680
    af3b:	48 8b b4 24 80 01 00 	mov    rsi,QWORD PTR [rsp+0x180]
    af42:	00 
    af43:	48 b8 00 00 00 00 00 	movabs rax,0x0
    af4a:	00 00 00 
			af45: R_X86_64_64	caml_initialize
    af4d:	48 89 b4 24 80 01 00 	mov    QWORD PTR [rsp+0x180],rsi
    af54:	00 
    af55:	48 89 9c 24 88 01 00 	mov    QWORD PTR [rsp+0x188],rbx
    af5c:	00 
    af5d:	48 89 bc 24 90 01 00 	mov    QWORD PTR [rsp+0x190],rdi
    af64:	00 
    af65:	4c 89 b4 24 98 01 00 	mov    QWORD PTR [rsp+0x198],r14
    af6c:	00 
    af6d:	ff d0                	call   rax
    af6f:	48 8b 9c 24 88 01 00 	mov    rbx,QWORD PTR [rsp+0x188]
    af76:	00 
    af77:	4c 8b b4 24 98 01 00 	mov    r14,QWORD PTR [rsp+0x198]
    af7e:	00 
    af7f:	48 89 df             	mov    rdi,rbx
    af82:	48 81 c7 88 06 00 00 	add    rdi,0x688
    af89:	48 8b b4 24 78 01 00 	mov    rsi,QWORD PTR [rsp+0x178]
    af90:	00 
    af91:	48 b8 00 00 00 00 00 	movabs rax,0x0
    af98:	00 00 00 
			af93: R_X86_64_64	caml_initialize
    af9b:	48 89 b4 24 78 01 00 	mov    QWORD PTR [rsp+0x178],rsi
    afa2:	00 
    afa3:	48 89 9c 24 80 01 00 	mov    QWORD PTR [rsp+0x180],rbx
    afaa:	00 
    afab:	48 89 bc 24 88 01 00 	mov    QWORD PTR [rsp+0x188],rdi
    afb2:	00 
    afb3:	4c 89 b4 24 90 01 00 	mov    QWORD PTR [rsp+0x190],r14
    afba:	00 
    afbb:	ff d0                	call   rax
    afbd:	48 8b 9c 24 80 01 00 	mov    rbx,QWORD PTR [rsp+0x180]
    afc4:	00 
    afc5:	4c 8b b4 24 90 01 00 	mov    r14,QWORD PTR [rsp+0x190]
    afcc:	00 
    afcd:	48 89 df             	mov    rdi,rbx
    afd0:	48 81 c7 90 06 00 00 	add    rdi,0x690
    afd7:	48 8b b4 24 70 01 00 	mov    rsi,QWORD PTR [rsp+0x170]
    afde:	00 
    afdf:	48 b8 00 00 00 00 00 	movabs rax,0x0
    afe6:	00 00 00 
			afe1: R_X86_64_64	caml_initialize
    afe9:	48 89 b4 24 70 01 00 	mov    QWORD PTR [rsp+0x170],rsi
    aff0:	00 
    aff1:	48 89 9c 24 78 01 00 	mov    QWORD PTR [rsp+0x178],rbx
    aff8:	00 
    aff9:	48 89 bc 24 80 01 00 	mov    QWORD PTR [rsp+0x180],rdi
    b000:	00 
    b001:	4c 89 b4 24 88 01 00 	mov    QWORD PTR [rsp+0x188],r14
    b008:	00 
    b009:	ff d0                	call   rax
    b00b:	48 8b 9c 24 78 01 00 	mov    rbx,QWORD PTR [rsp+0x178]
    b012:	00 
    b013:	4c 8b b4 24 88 01 00 	mov    r14,QWORD PTR [rsp+0x188]
    b01a:	00 
    b01b:	48 89 df             	mov    rdi,rbx
    b01e:	48 81 c7 98 06 00 00 	add    rdi,0x698
    b025:	48 8b b4 24 68 01 00 	mov    rsi,QWORD PTR [rsp+0x168]
    b02c:	00 
    b02d:	48 b8 00 00 00 00 00 	movabs rax,0x0
    b034:	00 00 00 
			b02f: R_X86_64_64	caml_initialize
    b037:	48 89 b4 24 68 01 00 	mov    QWORD PTR [rsp+0x168],rsi
    b03e:	00 
    b03f:	48 89 9c 24 70 01 00 	mov    QWORD PTR [rsp+0x170],rbx
    b046:	00 
    b047:	48 89 bc 24 78 01 00 	mov    QWORD PTR [rsp+0x178],rdi
    b04e:	00 
    b04f:	4c 89 b4 24 80 01 00 	mov    QWORD PTR [rsp+0x180],r14
    b056:	00 
    b057:	ff d0                	call   rax
    b059:	48 8b 9c 24 70 01 00 	mov    rbx,QWORD PTR [rsp+0x170]
    b060:	00 
    b061:	4c 8b b4 24 80 01 00 	mov    r14,QWORD PTR [rsp+0x180]
    b068:	00 
    b069:	48 89 df             	mov    rdi,rbx
    b06c:	48 81 c7 a0 06 00 00 	add    rdi,0x6a0
    b073:	48 8b b4 24 60 01 00 	mov    rsi,QWORD PTR [rsp+0x160]
    b07a:	00 
    b07b:	48 b8 00 00 00 00 00 	movabs rax,0x0
    b082:	00 00 00 
			b07d: R_X86_64_64	caml_initialize
    b085:	48 89 b4 24 60 01 00 	mov    QWORD PTR [rsp+0x160],rsi
    b08c:	00 
    b08d:	48 89 9c 24 68 01 00 	mov    QWORD PTR [rsp+0x168],rbx
    b094:	00 
    b095:	48 89 bc 24 70 01 00 	mov    QWORD PTR [rsp+0x170],rdi
    b09c:	00 
    b09d:	4c 89 b4 24 78 01 00 	mov    QWORD PTR [rsp+0x178],r14
    b0a4:	00 
    b0a5:	ff d0                	call   rax
    b0a7:	48 8b 9c 24 68 01 00 	mov    rbx,QWORD PTR [rsp+0x168]
    b0ae:	00 
    b0af:	4c 8b b4 24 78 01 00 	mov    r14,QWORD PTR [rsp+0x178]
    b0b6:	00 
    b0b7:	48 89 df             	mov    rdi,rbx
    b0ba:	48 81 c7 a8 06 00 00 	add    rdi,0x6a8
    b0c1:	48 8b b4 24 58 01 00 	mov    rsi,QWORD PTR [rsp+0x158]
    b0c8:	00 
    b0c9:	48 b8 00 00 00 00 00 	movabs rax,0x0
    b0d0:	00 00 00 
			b0cb: R_X86_64_64	caml_initialize
    b0d3:	48 89 b4 24 58 01 00 	mov    QWORD PTR [rsp+0x158],rsi
    b0da:	00 
    b0db:	48 89 9c 24 60 01 00 	mov    QWORD PTR [rsp+0x160],rbx
    b0e2:	00 
    b0e3:	48 89 bc 24 68 01 00 	mov    QWORD PTR [rsp+0x168],rdi
    b0ea:	00 
    b0eb:	4c 89 b4 24 70 01 00 	mov    QWORD PTR [rsp+0x170],r14
    b0f2:	00 
    b0f3:	ff d0                	call   rax
    b0f5:	48 8b 9c 24 60 01 00 	mov    rbx,QWORD PTR [rsp+0x160]
    b0fc:	00 
    b0fd:	4c 8b b4 24 70 01 00 	mov    r14,QWORD PTR [rsp+0x170]
    b104:	00 
    b105:	48 89 df             	mov    rdi,rbx
    b108:	48 81 c7 b0 06 00 00 	add    rdi,0x6b0
    b10f:	48 8b b4 24 50 01 00 	mov    rsi,QWORD PTR [rsp+0x150]
    b116:	00 
    b117:	48 b8 00 00 00 00 00 	movabs rax,0x0
    b11e:	00 00 00 
			b119: R_X86_64_64	caml_initialize
    b121:	48 89 b4 24 50 01 00 	mov    QWORD PTR [rsp+0x150],rsi
    b128:	00 
    b129:	48 89 9c 24 58 01 00 	mov    QWORD PTR [rsp+0x158],rbx
    b130:	00 
    b131:	48 89 bc 24 60 01 00 	mov    QWORD PTR [rsp+0x160],rdi
    b138:	00 
    b139:	4c 89 b4 24 68 01 00 	mov    QWORD PTR [rsp+0x168],r14
    b140:	00 
    b141:	ff d0                	call   rax
    b143:	48 8b 9c 24 58 01 00 	mov    rbx,QWORD PTR [rsp+0x158]
    b14a:	00 
    b14b:	4c 8b b4 24 68 01 00 	mov    r14,QWORD PTR [rsp+0x168]
    b152:	00 
    b153:	48 89 df             	mov    rdi,rbx
    b156:	48 81 c7 b8 06 00 00 	add    rdi,0x6b8
    b15d:	48 8b b4 24 48 01 00 	mov    rsi,QWORD PTR [rsp+0x148]
    b164:	00 
    b165:	48 b8 00 00 00 00 00 	movabs rax,0x0
    b16c:	00 00 00 
			b167: R_X86_64_64	caml_initialize
    b16f:	48 89 b4 24 48 01 00 	mov    QWORD PTR [rsp+0x148],rsi
    b176:	00 
    b177:	48 89 9c 24 50 01 00 	mov    QWORD PTR [rsp+0x150],rbx
    b17e:	00 
    b17f:	48 89 bc 24 58 01 00 	mov    QWORD PTR [rsp+0x158],rdi
    b186:	00 
    b187:	4c 89 b4 24 60 01 00 	mov    QWORD PTR [rsp+0x160],r14
    b18e:	00 
    b18f:	ff d0                	call   rax
    b191:	48 8b 9c 24 50 01 00 	mov    rbx,QWORD PTR [rsp+0x150]
    b198:	00 
    b199:	4c 8b b4 24 60 01 00 	mov    r14,QWORD PTR [rsp+0x160]
    b1a0:	00 
    b1a1:	48 89 df             	mov    rdi,rbx
    b1a4:	48 81 c7 c0 06 00 00 	add    rdi,0x6c0
    b1ab:	48 8b b4 24 40 01 00 	mov    rsi,QWORD PTR [rsp+0x140]
    b1b2:	00 
    b1b3:	48 b8 00 00 00 00 00 	movabs rax,0x0
    b1ba:	00 00 00 
			b1b5: R_X86_64_64	caml_initialize
    b1bd:	48 89 b4 24 40 01 00 	mov    QWORD PTR [rsp+0x140],rsi
    b1c4:	00 
    b1c5:	48 89 9c 24 48 01 00 	mov    QWORD PTR [rsp+0x148],rbx
    b1cc:	00 
    b1cd:	48 89 bc 24 50 01 00 	mov    QWORD PTR [rsp+0x150],rdi
    b1d4:	00 
    b1d5:	4c 89 b4 24 58 01 00 	mov    QWORD PTR [rsp+0x158],r14
    b1dc:	00 
    b1dd:	ff d0                	call   rax
    b1df:	48 8b 9c 24 48 01 00 	mov    rbx,QWORD PTR [rsp+0x148]
    b1e6:	00 
    b1e7:	4c 8b b4 24 58 01 00 	mov    r14,QWORD PTR [rsp+0x158]
    b1ee:	00 
    b1ef:	48 89 df             	mov    rdi,rbx
    b1f2:	48 81 c7 c8 06 00 00 	add    rdi,0x6c8
    b1f9:	48 8b b4 24 38 01 00 	mov    rsi,QWORD PTR [rsp+0x138]
    b200:	00 
    b201:	48 b8 00 00 00 00 00 	movabs rax,0x0
    b208:	00 00 00 
			b203: R_X86_64_64	caml_initialize
    b20b:	48 89 b4 24 38 01 00 	mov    QWORD PTR [rsp+0x138],rsi
    b212:	00 
    b213:	48 89 9c 24 40 01 00 	mov    QWORD PTR [rsp+0x140],rbx
    b21a:	00 
    b21b:	48 89 bc 24 48 01 00 	mov    QWORD PTR [rsp+0x148],rdi
    b222:	00 
    b223:	4c 89 b4 24 50 01 00 	mov    QWORD PTR [rsp+0x150],r14
    b22a:	00 
    b22b:	ff d0                	call   rax
    b22d:	48 8b 9c 24 40 01 00 	mov    rbx,QWORD PTR [rsp+0x140]
    b234:	00 
    b235:	4c 8b b4 24 50 01 00 	mov    r14,QWORD PTR [rsp+0x150]
    b23c:	00 
    b23d:	48 89 df             	mov    rdi,rbx
    b240:	48 81 c7 d0 06 00 00 	add    rdi,0x6d0
    b247:	48 8b b4 24 30 01 00 	mov    rsi,QWORD PTR [rsp+0x130]
    b24e:	00 
    b24f:	48 b8 00 00 00 00 00 	movabs rax,0x0
    b256:	00 00 00 
			b251: R_X86_64_64	caml_initialize
    b259:	48 89 b4 24 30 01 00 	mov    QWORD PTR [rsp+0x130],rsi
    b260:	00 
    b261:	48 89 9c 24 38 01 00 	mov    QWORD PTR [rsp+0x138],rbx
    b268:	00 
    b269:	48 89 bc 24 40 01 00 	mov    QWORD PTR [rsp+0x140],rdi
    b270:	00 
    b271:	4c 89 b4 24 48 01 00 	mov    QWORD PTR [rsp+0x148],r14
    b278:	00 
    b279:	ff d0                	call   rax
    b27b:	48 8b 9c 24 38 01 00 	mov    rbx,QWORD PTR [rsp+0x138]
    b282:	00 
    b283:	4c 8b b4 24 48 01 00 	mov    r14,QWORD PTR [rsp+0x148]
    b28a:	00 
    b28b:	48 89 df             	mov    rdi,rbx
    b28e:	48 81 c7 d8 06 00 00 	add    rdi,0x6d8
    b295:	48 8b b4 24 28 01 00 	mov    rsi,QWORD PTR [rsp+0x128]
    b29c:	00 
    b29d:	48 b8 00 00 00 00 00 	movabs rax,0x0
    b2a4:	00 00 00 
			b29f: R_X86_64_64	caml_initialize
    b2a7:	48 89 b4 24 28 01 00 	mov    QWORD PTR [rsp+0x128],rsi
    b2ae:	00 
    b2af:	48 89 9c 24 30 01 00 	mov    QWORD PTR [rsp+0x130],rbx
    b2b6:	00 
    b2b7:	48 89 bc 24 38 01 00 	mov    QWORD PTR [rsp+0x138],rdi
    b2be:	00 
    b2bf:	4c 89 b4 24 40 01 00 	mov    QWORD PTR [rsp+0x140],r14
    b2c6:	00 
    b2c7:	ff d0                	call   rax
    b2c9:	48 8b 9c 24 30 01 00 	mov    rbx,QWORD PTR [rsp+0x130]
    b2d0:	00 
    b2d1:	4c 8b b4 24 40 01 00 	mov    r14,QWORD PTR [rsp+0x140]
    b2d8:	00 
    b2d9:	48 89 df             	mov    rdi,rbx
    b2dc:	48 81 c7 e0 06 00 00 	add    rdi,0x6e0
    b2e3:	48 8b b4 24 20 01 00 	mov    rsi,QWORD PTR [rsp+0x120]
    b2ea:	00 
    b2eb:	48 b8 00 00 00 00 00 	movabs rax,0x0
    b2f2:	00 00 00 
			b2ed: R_X86_64_64	caml_initialize
    b2f5:	48 89 b4 24 20 01 00 	mov    QWORD PTR [rsp+0x120],rsi
    b2fc:	00 
    b2fd:	48 89 9c 24 28 01 00 	mov    QWORD PTR [rsp+0x128],rbx
    b304:	00 
    b305:	48 89 bc 24 30 01 00 	mov    QWORD PTR [rsp+0x130],rdi
    b30c:	00 
    b30d:	4c 89 b4 24 38 01 00 	mov    QWORD PTR [rsp+0x138],r14
    b314:	00 
    b315:	ff d0                	call   rax
    b317:	48 8b 9c 24 28 01 00 	mov    rbx,QWORD PTR [rsp+0x128]
    b31e:	00 
    b31f:	4c 8b b4 24 38 01 00 	mov    r14,QWORD PTR [rsp+0x138]
    b326:	00 
    b327:	48 89 df             	mov    rdi,rbx
    b32a:	48 81 c7 e8 06 00 00 	add    rdi,0x6e8
    b331:	48 8b b4 24 18 01 00 	mov    rsi,QWORD PTR [rsp+0x118]
    b338:	00 
    b339:	48 b8 00 00 00 00 00 	movabs rax,0x0
    b340:	00 00 00 
			b33b: R_X86_64_64	caml_initialize
    b343:	48 89 b4 24 18 01 00 	mov    QWORD PTR [rsp+0x118],rsi
    b34a:	00 
    b34b:	48 89 9c 24 20 01 00 	mov    QWORD PTR [rsp+0x120],rbx
    b352:	00 
    b353:	48 89 bc 24 28 01 00 	mov    QWORD PTR [rsp+0x128],rdi
    b35a:	00 
    b35b:	4c 89 b4 24 30 01 00 	mov    QWORD PTR [rsp+0x130],r14
    b362:	00 
    b363:	ff d0                	call   rax
    b365:	48 8b 9c 24 20 01 00 	mov    rbx,QWORD PTR [rsp+0x120]
    b36c:	00 
    b36d:	4c 8b b4 24 30 01 00 	mov    r14,QWORD PTR [rsp+0x130]
    b374:	00 
    b375:	48 89 df             	mov    rdi,rbx
    b378:	48 81 c7 f0 06 00 00 	add    rdi,0x6f0
    b37f:	48 8b b4 24 10 01 00 	mov    rsi,QWORD PTR [rsp+0x110]
    b386:	00 
    b387:	48 b8 00 00 00 00 00 	movabs rax,0x0
    b38e:	00 00 00 
			b389: R_X86_64_64	caml_initialize
    b391:	48 89 b4 24 10 01 00 	mov    QWORD PTR [rsp+0x110],rsi
    b398:	00 
    b399:	48 89 9c 24 18 01 00 	mov    QWORD PTR [rsp+0x118],rbx
    b3a0:	00 
    b3a1:	48 89 bc 24 20 01 00 	mov    QWORD PTR [rsp+0x120],rdi
    b3a8:	00 
    b3a9:	4c 89 b4 24 28 01 00 	mov    QWORD PTR [rsp+0x128],r14
    b3b0:	00 
    b3b1:	ff d0                	call   rax
    b3b3:	48 8b 9c 24 18 01 00 	mov    rbx,QWORD PTR [rsp+0x118]
    b3ba:	00 
    b3bb:	4c 8b b4 24 28 01 00 	mov    r14,QWORD PTR [rsp+0x128]
    b3c2:	00 
    b3c3:	48 89 df             	mov    rdi,rbx
    b3c6:	48 81 c7 f8 06 00 00 	add    rdi,0x6f8
    b3cd:	48 8b b4 24 08 01 00 	mov    rsi,QWORD PTR [rsp+0x108]
    b3d4:	00 
    b3d5:	48 b8 00 00 00 00 00 	movabs rax,0x0
    b3dc:	00 00 00 
			b3d7: R_X86_64_64	caml_initialize
    b3df:	48 89 b4 24 08 01 00 	mov    QWORD PTR [rsp+0x108],rsi
    b3e6:	00 
    b3e7:	48 89 9c 24 10 01 00 	mov    QWORD PTR [rsp+0x110],rbx
    b3ee:	00 
    b3ef:	48 89 bc 24 18 01 00 	mov    QWORD PTR [rsp+0x118],rdi
    b3f6:	00 
    b3f7:	4c 89 b4 24 20 01 00 	mov    QWORD PTR [rsp+0x120],r14
    b3fe:	00 
    b3ff:	ff d0                	call   rax
    b401:	48 8b 9c 24 10 01 00 	mov    rbx,QWORD PTR [rsp+0x110]
    b408:	00 
    b409:	4c 8b b4 24 20 01 00 	mov    r14,QWORD PTR [rsp+0x120]
    b410:	00 
    b411:	48 89 df             	mov    rdi,rbx
    b414:	48 81 c7 00 07 00 00 	add    rdi,0x700
    b41b:	48 8b b4 24 00 01 00 	mov    rsi,QWORD PTR [rsp+0x100]
    b422:	00 
    b423:	48 b8 00 00 00 00 00 	movabs rax,0x0
    b42a:	00 00 00 
			b425: R_X86_64_64	caml_initialize
    b42d:	48 89 b4 24 00 01 00 	mov    QWORD PTR [rsp+0x100],rsi
    b434:	00 
    b435:	48 89 9c 24 08 01 00 	mov    QWORD PTR [rsp+0x108],rbx
    b43c:	00 
    b43d:	48 89 bc 24 10 01 00 	mov    QWORD PTR [rsp+0x110],rdi
    b444:	00 
    b445:	4c 89 b4 24 18 01 00 	mov    QWORD PTR [rsp+0x118],r14
    b44c:	00 
    b44d:	ff d0                	call   rax
    b44f:	48 8b 9c 24 08 01 00 	mov    rbx,QWORD PTR [rsp+0x108]
    b456:	00 
    b457:	4c 8b b4 24 18 01 00 	mov    r14,QWORD PTR [rsp+0x118]
    b45e:	00 
    b45f:	48 89 df             	mov    rdi,rbx
    b462:	48 81 c7 08 07 00 00 	add    rdi,0x708
    b469:	48 8b b4 24 f8 00 00 	mov    rsi,QWORD PTR [rsp+0xf8]
    b470:	00 
    b471:	48 b8 00 00 00 00 00 	movabs rax,0x0
    b478:	00 00 00 
			b473: R_X86_64_64	caml_initialize
    b47b:	48 89 b4 24 f8 00 00 	mov    QWORD PTR [rsp+0xf8],rsi
    b482:	00 
    b483:	48 89 9c 24 00 01 00 	mov    QWORD PTR [rsp+0x100],rbx
    b48a:	00 
    b48b:	48 89 bc 24 08 01 00 	mov    QWORD PTR [rsp+0x108],rdi
    b492:	00 
    b493:	4c 89 b4 24 10 01 00 	mov    QWORD PTR [rsp+0x110],r14
    b49a:	00 
    b49b:	ff d0                	call   rax
    b49d:	48 8b 9c 24 00 01 00 	mov    rbx,QWORD PTR [rsp+0x100]
    b4a4:	00 
    b4a5:	4c 8b b4 24 10 01 00 	mov    r14,QWORD PTR [rsp+0x110]
    b4ac:	00 
    b4ad:	48 89 df             	mov    rdi,rbx
    b4b0:	48 81 c7 10 07 00 00 	add    rdi,0x710
    b4b7:	48 8b b4 24 f0 00 00 	mov    rsi,QWORD PTR [rsp+0xf0]
    b4be:	00 
    b4bf:	48 b8 00 00 00 00 00 	movabs rax,0x0
    b4c6:	00 00 00 
			b4c1: R_X86_64_64	caml_initialize
    b4c9:	48 89 b4 24 f0 00 00 	mov    QWORD PTR [rsp+0xf0],rsi
    b4d0:	00 
    b4d1:	48 89 9c 24 f8 00 00 	mov    QWORD PTR [rsp+0xf8],rbx
    b4d8:	00 
    b4d9:	48 89 bc 24 00 01 00 	mov    QWORD PTR [rsp+0x100],rdi
    b4e0:	00 
    b4e1:	4c 89 b4 24 08 01 00 	mov    QWORD PTR [rsp+0x108],r14
    b4e8:	00 
    b4e9:	ff d0                	call   rax
    b4eb:	48 8b 9c 24 f8 00 00 	mov    rbx,QWORD PTR [rsp+0xf8]
    b4f2:	00 
    b4f3:	4c 8b b4 24 08 01 00 	mov    r14,QWORD PTR [rsp+0x108]
    b4fa:	00 
    b4fb:	48 89 df             	mov    rdi,rbx
    b4fe:	48 81 c7 18 07 00 00 	add    rdi,0x718
    b505:	48 8b b4 24 e8 00 00 	mov    rsi,QWORD PTR [rsp+0xe8]
    b50c:	00 
    b50d:	48 b8 00 00 00 00 00 	movabs rax,0x0
    b514:	00 00 00 
			b50f: R_X86_64_64	caml_initialize
    b517:	48 89 b4 24 e8 00 00 	mov    QWORD PTR [rsp+0xe8],rsi
    b51e:	00 
    b51f:	48 89 9c 24 f0 00 00 	mov    QWORD PTR [rsp+0xf0],rbx
    b526:	00 
    b527:	48 89 bc 24 f8 00 00 	mov    QWORD PTR [rsp+0xf8],rdi
    b52e:	00 
    b52f:	4c 89 b4 24 00 01 00 	mov    QWORD PTR [rsp+0x100],r14
    b536:	00 
    b537:	ff d0                	call   rax
    b539:	48 8b 9c 24 f0 00 00 	mov    rbx,QWORD PTR [rsp+0xf0]
    b540:	00 
    b541:	4c 8b b4 24 00 01 00 	mov    r14,QWORD PTR [rsp+0x100]
    b548:	00 
    b549:	48 89 df             	mov    rdi,rbx
    b54c:	48 81 c7 20 07 00 00 	add    rdi,0x720
    b553:	48 8b b4 24 e0 00 00 	mov    rsi,QWORD PTR [rsp+0xe0]
    b55a:	00 
    b55b:	48 b8 00 00 00 00 00 	movabs rax,0x0
    b562:	00 00 00 
			b55d: R_X86_64_64	caml_initialize
    b565:	48 89 b4 24 e0 00 00 	mov    QWORD PTR [rsp+0xe0],rsi
    b56c:	00 
    b56d:	48 89 9c 24 e8 00 00 	mov    QWORD PTR [rsp+0xe8],rbx
    b574:	00 
    b575:	48 89 bc 24 f0 00 00 	mov    QWORD PTR [rsp+0xf0],rdi
    b57c:	00 
    b57d:	4c 89 b4 24 f8 00 00 	mov    QWORD PTR [rsp+0xf8],r14
    b584:	00 
    b585:	ff d0                	call   rax
    b587:	48 8b 9c 24 e8 00 00 	mov    rbx,QWORD PTR [rsp+0xe8]
    b58e:	00 
    b58f:	4c 8b b4 24 f8 00 00 	mov    r14,QWORD PTR [rsp+0xf8]
    b596:	00 
    b597:	48 89 df             	mov    rdi,rbx
    b59a:	48 81 c7 28 07 00 00 	add    rdi,0x728
    b5a1:	48 8b b4 24 d8 00 00 	mov    rsi,QWORD PTR [rsp+0xd8]
    b5a8:	00 
    b5a9:	48 b8 00 00 00 00 00 	movabs rax,0x0
    b5b0:	00 00 00 
			b5ab: R_X86_64_64	caml_initialize
    b5b3:	48 89 b4 24 d8 00 00 	mov    QWORD PTR [rsp+0xd8],rsi
    b5ba:	00 
    b5bb:	48 89 9c 24 e0 00 00 	mov    QWORD PTR [rsp+0xe0],rbx
    b5c2:	00 
    b5c3:	48 89 bc 24 e8 00 00 	mov    QWORD PTR [rsp+0xe8],rdi
    b5ca:	00 
    b5cb:	4c 89 b4 24 f0 00 00 	mov    QWORD PTR [rsp+0xf0],r14
    b5d2:	00 
    b5d3:	ff d0                	call   rax
    b5d5:	48 8b 9c 24 e0 00 00 	mov    rbx,QWORD PTR [rsp+0xe0]
    b5dc:	00 
    b5dd:	4c 8b b4 24 f0 00 00 	mov    r14,QWORD PTR [rsp+0xf0]
    b5e4:	00 
    b5e5:	48 89 df             	mov    rdi,rbx
    b5e8:	48 81 c7 30 07 00 00 	add    rdi,0x730
    b5ef:	48 8b b4 24 d0 00 00 	mov    rsi,QWORD PTR [rsp+0xd0]
    b5f6:	00 
    b5f7:	48 b8 00 00 00 00 00 	movabs rax,0x0
    b5fe:	00 00 00 
			b5f9: R_X86_64_64	caml_initialize
    b601:	48 89 b4 24 d0 00 00 	mov    QWORD PTR [rsp+0xd0],rsi
    b608:	00 
    b609:	48 89 9c 24 d8 00 00 	mov    QWORD PTR [rsp+0xd8],rbx
    b610:	00 
    b611:	48 89 bc 24 e0 00 00 	mov    QWORD PTR [rsp+0xe0],rdi
    b618:	00 
    b619:	4c 89 b4 24 e8 00 00 	mov    QWORD PTR [rsp+0xe8],r14
    b620:	00 
    b621:	ff d0                	call   rax
    b623:	48 8b 9c 24 d8 00 00 	mov    rbx,QWORD PTR [rsp+0xd8]
    b62a:	00 
    b62b:	4c 8b b4 24 e8 00 00 	mov    r14,QWORD PTR [rsp+0xe8]
    b632:	00 
    b633:	48 89 df             	mov    rdi,rbx
    b636:	48 81 c7 38 07 00 00 	add    rdi,0x738
    b63d:	48 8b b4 24 c8 00 00 	mov    rsi,QWORD PTR [rsp+0xc8]
    b644:	00 
    b645:	48 b8 00 00 00 00 00 	movabs rax,0x0
    b64c:	00 00 00 
			b647: R_X86_64_64	caml_initialize
    b64f:	48 89 b4 24 c8 00 00 	mov    QWORD PTR [rsp+0xc8],rsi
    b656:	00 
    b657:	48 89 9c 24 d0 00 00 	mov    QWORD PTR [rsp+0xd0],rbx
    b65e:	00 
    b65f:	48 89 bc 24 d8 00 00 	mov    QWORD PTR [rsp+0xd8],rdi
    b666:	00 
    b667:	4c 89 b4 24 e0 00 00 	mov    QWORD PTR [rsp+0xe0],r14
    b66e:	00 
    b66f:	ff d0                	call   rax
    b671:	48 8b 9c 24 d0 00 00 	mov    rbx,QWORD PTR [rsp+0xd0]
    b678:	00 
    b679:	4c 8b b4 24 e0 00 00 	mov    r14,QWORD PTR [rsp+0xe0]
    b680:	00 
    b681:	48 89 df             	mov    rdi,rbx
    b684:	48 81 c7 40 07 00 00 	add    rdi,0x740
    b68b:	48 8b b4 24 c0 00 00 	mov    rsi,QWORD PTR [rsp+0xc0]
    b692:	00 
    b693:	48 b8 00 00 00 00 00 	movabs rax,0x0
    b69a:	00 00 00 
			b695: R_X86_64_64	caml_initialize
    b69d:	48 89 b4 24 c0 00 00 	mov    QWORD PTR [rsp+0xc0],rsi
    b6a4:	00 
    b6a5:	48 89 9c 24 c8 00 00 	mov    QWORD PTR [rsp+0xc8],rbx
    b6ac:	00 
    b6ad:	48 89 bc 24 d0 00 00 	mov    QWORD PTR [rsp+0xd0],rdi
    b6b4:	00 
    b6b5:	4c 89 b4 24 d8 00 00 	mov    QWORD PTR [rsp+0xd8],r14
    b6bc:	00 
    b6bd:	ff d0                	call   rax
    b6bf:	48 8b 9c 24 c8 00 00 	mov    rbx,QWORD PTR [rsp+0xc8]
    b6c6:	00 
    b6c7:	4c 8b b4 24 d8 00 00 	mov    r14,QWORD PTR [rsp+0xd8]
    b6ce:	00 
    b6cf:	48 89 df             	mov    rdi,rbx
    b6d2:	48 81 c7 48 07 00 00 	add    rdi,0x748
    b6d9:	48 8b b4 24 b8 00 00 	mov    rsi,QWORD PTR [rsp+0xb8]
    b6e0:	00 
    b6e1:	48 b8 00 00 00 00 00 	movabs rax,0x0
    b6e8:	00 00 00 
			b6e3: R_X86_64_64	caml_initialize
    b6eb:	48 89 b4 24 b8 00 00 	mov    QWORD PTR [rsp+0xb8],rsi
    b6f2:	00 
    b6f3:	48 89 9c 24 c0 00 00 	mov    QWORD PTR [rsp+0xc0],rbx
    b6fa:	00 
    b6fb:	48 89 bc 24 c8 00 00 	mov    QWORD PTR [rsp+0xc8],rdi
    b702:	00 
    b703:	4c 89 b4 24 d0 00 00 	mov    QWORD PTR [rsp+0xd0],r14
    b70a:	00 
    b70b:	ff d0                	call   rax
    b70d:	48 8b 9c 24 c0 00 00 	mov    rbx,QWORD PTR [rsp+0xc0]
    b714:	00 
    b715:	4c 8b b4 24 d0 00 00 	mov    r14,QWORD PTR [rsp+0xd0]
    b71c:	00 
    b71d:	48 89 df             	mov    rdi,rbx
    b720:	48 81 c7 50 07 00 00 	add    rdi,0x750
    b727:	48 8b b4 24 b0 00 00 	mov    rsi,QWORD PTR [rsp+0xb0]
    b72e:	00 
    b72f:	48 b8 00 00 00 00 00 	movabs rax,0x0
    b736:	00 00 00 
			b731: R_X86_64_64	caml_initialize
    b739:	48 89 b4 24 b0 00 00 	mov    QWORD PTR [rsp+0xb0],rsi
    b740:	00 
    b741:	48 89 9c 24 b8 00 00 	mov    QWORD PTR [rsp+0xb8],rbx
    b748:	00 
    b749:	48 89 bc 24 c0 00 00 	mov    QWORD PTR [rsp+0xc0],rdi
    b750:	00 
    b751:	4c 89 b4 24 c8 00 00 	mov    QWORD PTR [rsp+0xc8],r14
    b758:	00 
    b759:	ff d0                	call   rax
    b75b:	48 8b 9c 24 b8 00 00 	mov    rbx,QWORD PTR [rsp+0xb8]
    b762:	00 
    b763:	4c 8b b4 24 c8 00 00 	mov    r14,QWORD PTR [rsp+0xc8]
    b76a:	00 
    b76b:	48 89 df             	mov    rdi,rbx
    b76e:	48 81 c7 58 07 00 00 	add    rdi,0x758
    b775:	48 8b b4 24 a8 00 00 	mov    rsi,QWORD PTR [rsp+0xa8]
    b77c:	00 
    b77d:	48 b8 00 00 00 00 00 	movabs rax,0x0
    b784:	00 00 00 
			b77f: R_X86_64_64	caml_initialize
    b787:	48 89 b4 24 a8 00 00 	mov    QWORD PTR [rsp+0xa8],rsi
    b78e:	00 
    b78f:	48 89 9c 24 b0 00 00 	mov    QWORD PTR [rsp+0xb0],rbx
    b796:	00 
    b797:	48 89 bc 24 b8 00 00 	mov    QWORD PTR [rsp+0xb8],rdi
    b79e:	00 
    b79f:	4c 89 b4 24 c0 00 00 	mov    QWORD PTR [rsp+0xc0],r14
    b7a6:	00 
    b7a7:	ff d0                	call   rax
    b7a9:	48 8b 9c 24 b0 00 00 	mov    rbx,QWORD PTR [rsp+0xb0]
    b7b0:	00 
    b7b1:	4c 8b b4 24 c0 00 00 	mov    r14,QWORD PTR [rsp+0xc0]
    b7b8:	00 
    b7b9:	48 89 df             	mov    rdi,rbx
    b7bc:	48 81 c7 60 07 00 00 	add    rdi,0x760
    b7c3:	48 8b b4 24 a0 00 00 	mov    rsi,QWORD PTR [rsp+0xa0]
    b7ca:	00 
    b7cb:	48 b8 00 00 00 00 00 	movabs rax,0x0
    b7d2:	00 00 00 
			b7cd: R_X86_64_64	caml_initialize
    b7d5:	48 89 b4 24 a0 00 00 	mov    QWORD PTR [rsp+0xa0],rsi
    b7dc:	00 
    b7dd:	48 89 9c 24 a8 00 00 	mov    QWORD PTR [rsp+0xa8],rbx
    b7e4:	00 
    b7e5:	48 89 bc 24 b0 00 00 	mov    QWORD PTR [rsp+0xb0],rdi
    b7ec:	00 
    b7ed:	4c 89 b4 24 b8 00 00 	mov    QWORD PTR [rsp+0xb8],r14
    b7f4:	00 
    b7f5:	ff d0                	call   rax
    b7f7:	48 8b 9c 24 a8 00 00 	mov    rbx,QWORD PTR [rsp+0xa8]
    b7fe:	00 
    b7ff:	4c 8b b4 24 b8 00 00 	mov    r14,QWORD PTR [rsp+0xb8]
    b806:	00 
    b807:	48 89 df             	mov    rdi,rbx
    b80a:	48 81 c7 68 07 00 00 	add    rdi,0x768
    b811:	48 8b b4 24 98 00 00 	mov    rsi,QWORD PTR [rsp+0x98]
    b818:	00 
    b819:	48 b8 00 00 00 00 00 	movabs rax,0x0
    b820:	00 00 00 
			b81b: R_X86_64_64	caml_initialize
    b823:	48 89 b4 24 98 00 00 	mov    QWORD PTR [rsp+0x98],rsi
    b82a:	00 
    b82b:	48 89 9c 24 a0 00 00 	mov    QWORD PTR [rsp+0xa0],rbx
    b832:	00 
    b833:	48 89 bc 24 a8 00 00 	mov    QWORD PTR [rsp+0xa8],rdi
    b83a:	00 
    b83b:	4c 89 b4 24 b0 00 00 	mov    QWORD PTR [rsp+0xb0],r14
    b842:	00 
    b843:	ff d0                	call   rax
    b845:	48 8b 9c 24 a0 00 00 	mov    rbx,QWORD PTR [rsp+0xa0]
    b84c:	00 
    b84d:	4c 8b b4 24 b0 00 00 	mov    r14,QWORD PTR [rsp+0xb0]
    b854:	00 
    b855:	48 89 df             	mov    rdi,rbx
    b858:	48 81 c7 70 07 00 00 	add    rdi,0x770
    b85f:	48 8b b4 24 90 00 00 	mov    rsi,QWORD PTR [rsp+0x90]
    b866:	00 
    b867:	48 b8 00 00 00 00 00 	movabs rax,0x0
    b86e:	00 00 00 
			b869: R_X86_64_64	caml_initialize
    b871:	48 89 b4 24 90 00 00 	mov    QWORD PTR [rsp+0x90],rsi
    b878:	00 
    b879:	48 89 9c 24 98 00 00 	mov    QWORD PTR [rsp+0x98],rbx
    b880:	00 
    b881:	48 89 bc 24 a0 00 00 	mov    QWORD PTR [rsp+0xa0],rdi
    b888:	00 
    b889:	4c 89 b4 24 a8 00 00 	mov    QWORD PTR [rsp+0xa8],r14
    b890:	00 
    b891:	ff d0                	call   rax
    b893:	48 8b 9c 24 98 00 00 	mov    rbx,QWORD PTR [rsp+0x98]
    b89a:	00 
    b89b:	4c 8b b4 24 a8 00 00 	mov    r14,QWORD PTR [rsp+0xa8]
    b8a2:	00 
    b8a3:	48 89 df             	mov    rdi,rbx
    b8a6:	48 81 c7 78 07 00 00 	add    rdi,0x778
    b8ad:	48 8b b4 24 88 00 00 	mov    rsi,QWORD PTR [rsp+0x88]
    b8b4:	00 
    b8b5:	48 b8 00 00 00 00 00 	movabs rax,0x0
    b8bc:	00 00 00 
			b8b7: R_X86_64_64	caml_initialize
    b8bf:	48 89 b4 24 88 00 00 	mov    QWORD PTR [rsp+0x88],rsi
    b8c6:	00 
    b8c7:	48 89 9c 24 90 00 00 	mov    QWORD PTR [rsp+0x90],rbx
    b8ce:	00 
    b8cf:	48 89 bc 24 98 00 00 	mov    QWORD PTR [rsp+0x98],rdi
    b8d6:	00 
    b8d7:	4c 89 b4 24 a0 00 00 	mov    QWORD PTR [rsp+0xa0],r14
    b8de:	00 
    b8df:	ff d0                	call   rax
    b8e1:	48 8b 9c 24 90 00 00 	mov    rbx,QWORD PTR [rsp+0x90]
    b8e8:	00 
    b8e9:	4c 8b b4 24 a0 00 00 	mov    r14,QWORD PTR [rsp+0xa0]
    b8f0:	00 
    b8f1:	48 89 df             	mov    rdi,rbx
    b8f4:	48 81 c7 80 07 00 00 	add    rdi,0x780
    b8fb:	48 8b b4 24 80 00 00 	mov    rsi,QWORD PTR [rsp+0x80]
    b902:	00 
    b903:	48 b8 00 00 00 00 00 	movabs rax,0x0
    b90a:	00 00 00 
			b905: R_X86_64_64	caml_initialize
    b90d:	48 89 b4 24 80 00 00 	mov    QWORD PTR [rsp+0x80],rsi
    b914:	00 
    b915:	48 89 9c 24 88 00 00 	mov    QWORD PTR [rsp+0x88],rbx
    b91c:	00 
    b91d:	48 89 bc 24 90 00 00 	mov    QWORD PTR [rsp+0x90],rdi
    b924:	00 
    b925:	4c 89 b4 24 98 00 00 	mov    QWORD PTR [rsp+0x98],r14
    b92c:	00 
    b92d:	ff d0                	call   rax
    b92f:	48 8b 9c 24 88 00 00 	mov    rbx,QWORD PTR [rsp+0x88]
    b936:	00 
    b937:	4c 8b b4 24 98 00 00 	mov    r14,QWORD PTR [rsp+0x98]
    b93e:	00 
    b93f:	48 89 df             	mov    rdi,rbx
    b942:	48 81 c7 88 07 00 00 	add    rdi,0x788
    b949:	48 8b 74 24 78       	mov    rsi,QWORD PTR [rsp+0x78]
    b94e:	48 b8 00 00 00 00 00 	movabs rax,0x0
    b955:	00 00 00 
			b950: R_X86_64_64	caml_initialize
    b958:	48 89 74 24 78       	mov    QWORD PTR [rsp+0x78],rsi
    b95d:	48 89 9c 24 80 00 00 	mov    QWORD PTR [rsp+0x80],rbx
    b964:	00 
    b965:	48 89 bc 24 88 00 00 	mov    QWORD PTR [rsp+0x88],rdi
    b96c:	00 
    b96d:	4c 89 b4 24 90 00 00 	mov    QWORD PTR [rsp+0x90],r14
    b974:	00 
    b975:	ff d0                	call   rax
    b977:	48 8b 9c 24 80 00 00 	mov    rbx,QWORD PTR [rsp+0x80]
    b97e:	00 
    b97f:	4c 8b b4 24 90 00 00 	mov    r14,QWORD PTR [rsp+0x90]
    b986:	00 
    b987:	48 89 df             	mov    rdi,rbx
    b98a:	48 81 c7 90 07 00 00 	add    rdi,0x790
    b991:	48 8b 74 24 70       	mov    rsi,QWORD PTR [rsp+0x70]
    b996:	48 b8 00 00 00 00 00 	movabs rax,0x0
    b99d:	00 00 00 
			b998: R_X86_64_64	caml_initialize
    b9a0:	48 89 74 24 70       	mov    QWORD PTR [rsp+0x70],rsi
    b9a5:	48 89 5c 24 78       	mov    QWORD PTR [rsp+0x78],rbx
    b9aa:	48 89 bc 24 80 00 00 	mov    QWORD PTR [rsp+0x80],rdi
    b9b1:	00 
    b9b2:	4c 89 b4 24 88 00 00 	mov    QWORD PTR [rsp+0x88],r14
    b9b9:	00 
    b9ba:	ff d0                	call   rax
    b9bc:	48 8b 5c 24 78       	mov    rbx,QWORD PTR [rsp+0x78]
    b9c1:	4c 8b b4 24 88 00 00 	mov    r14,QWORD PTR [rsp+0x88]
    b9c8:	00 
    b9c9:	48 89 df             	mov    rdi,rbx
    b9cc:	48 81 c7 98 07 00 00 	add    rdi,0x798
    b9d3:	48 8b 74 24 68       	mov    rsi,QWORD PTR [rsp+0x68]
    b9d8:	48 b8 00 00 00 00 00 	movabs rax,0x0
    b9df:	00 00 00 
			b9da: R_X86_64_64	caml_initialize
    b9e2:	48 89 74 24 68       	mov    QWORD PTR [rsp+0x68],rsi
    b9e7:	48 89 5c 24 70       	mov    QWORD PTR [rsp+0x70],rbx
    b9ec:	48 89 7c 24 78       	mov    QWORD PTR [rsp+0x78],rdi
    b9f1:	4c 89 b4 24 80 00 00 	mov    QWORD PTR [rsp+0x80],r14
    b9f8:	00 
    b9f9:	ff d0                	call   rax
    b9fb:	48 8b 5c 24 70       	mov    rbx,QWORD PTR [rsp+0x70]
    ba00:	4c 8b b4 24 80 00 00 	mov    r14,QWORD PTR [rsp+0x80]
    ba07:	00 
    ba08:	48 89 df             	mov    rdi,rbx
    ba0b:	48 81 c7 a0 07 00 00 	add    rdi,0x7a0
    ba12:	48 8b 74 24 60       	mov    rsi,QWORD PTR [rsp+0x60]
    ba17:	48 b8 00 00 00 00 00 	movabs rax,0x0
    ba1e:	00 00 00 
			ba19: R_X86_64_64	caml_initialize
    ba21:	48 89 74 24 60       	mov    QWORD PTR [rsp+0x60],rsi
    ba26:	48 89 5c 24 68       	mov    QWORD PTR [rsp+0x68],rbx
    ba2b:	48 89 7c 24 70       	mov    QWORD PTR [rsp+0x70],rdi
    ba30:	4c 89 74 24 78       	mov    QWORD PTR [rsp+0x78],r14
    ba35:	ff d0                	call   rax
    ba37:	48 8b 5c 24 68       	mov    rbx,QWORD PTR [rsp+0x68]
    ba3c:	4c 8b 74 24 78       	mov    r14,QWORD PTR [rsp+0x78]
    ba41:	48 89 df             	mov    rdi,rbx
    ba44:	48 81 c7 a8 07 00 00 	add    rdi,0x7a8
    ba4b:	48 8b 74 24 58       	mov    rsi,QWORD PTR [rsp+0x58]
    ba50:	48 b8 00 00 00 00 00 	movabs rax,0x0
    ba57:	00 00 00 
			ba52: R_X86_64_64	caml_initialize
    ba5a:	48 89 74 24 58       	mov    QWORD PTR [rsp+0x58],rsi
    ba5f:	48 89 5c 24 60       	mov    QWORD PTR [rsp+0x60],rbx
    ba64:	48 89 7c 24 68       	mov    QWORD PTR [rsp+0x68],rdi
    ba69:	4c 89 74 24 70       	mov    QWORD PTR [rsp+0x70],r14
    ba6e:	ff d0                	call   rax
    ba70:	48 8b 5c 24 60       	mov    rbx,QWORD PTR [rsp+0x60]
    ba75:	4c 8b 74 24 70       	mov    r14,QWORD PTR [rsp+0x70]
    ba7a:	48 89 df             	mov    rdi,rbx
    ba7d:	48 81 c7 b0 07 00 00 	add    rdi,0x7b0
    ba84:	48 8b 74 24 50       	mov    rsi,QWORD PTR [rsp+0x50]
    ba89:	48 b8 00 00 00 00 00 	movabs rax,0x0
    ba90:	00 00 00 
			ba8b: R_X86_64_64	caml_initialize
    ba93:	48 89 74 24 50       	mov    QWORD PTR [rsp+0x50],rsi
    ba98:	48 89 5c 24 58       	mov    QWORD PTR [rsp+0x58],rbx
    ba9d:	48 89 7c 24 60       	mov    QWORD PTR [rsp+0x60],rdi
    baa2:	4c 89 74 24 68       	mov    QWORD PTR [rsp+0x68],r14
    baa7:	ff d0                	call   rax
    baa9:	48 8b 5c 24 58       	mov    rbx,QWORD PTR [rsp+0x58]
    baae:	4c 8b 74 24 68       	mov    r14,QWORD PTR [rsp+0x68]
    bab3:	48 89 df             	mov    rdi,rbx
    bab6:	48 81 c7 b8 07 00 00 	add    rdi,0x7b8
    babd:	48 8b 74 24 48       	mov    rsi,QWORD PTR [rsp+0x48]
    bac2:	48 b8 00 00 00 00 00 	movabs rax,0x0
    bac9:	00 00 00 
			bac4: R_X86_64_64	caml_initialize
    bacc:	48 89 74 24 48       	mov    QWORD PTR [rsp+0x48],rsi
    bad1:	48 89 5c 24 50       	mov    QWORD PTR [rsp+0x50],rbx
    bad6:	48 89 7c 24 58       	mov    QWORD PTR [rsp+0x58],rdi
    badb:	4c 89 74 24 60       	mov    QWORD PTR [rsp+0x60],r14
    bae0:	ff d0                	call   rax
    bae2:	48 8b 5c 24 50       	mov    rbx,QWORD PTR [rsp+0x50]
    bae7:	4c 8b 74 24 60       	mov    r14,QWORD PTR [rsp+0x60]
    baec:	48 89 df             	mov    rdi,rbx
    baef:	48 81 c7 c0 07 00 00 	add    rdi,0x7c0
    baf6:	48 8b 74 24 40       	mov    rsi,QWORD PTR [rsp+0x40]
    bafb:	48 b8 00 00 00 00 00 	movabs rax,0x0
    bb02:	00 00 00 
			bafd: R_X86_64_64	caml_initialize
    bb05:	48 89 74 24 40       	mov    QWORD PTR [rsp+0x40],rsi
    bb0a:	48 89 5c 24 48       	mov    QWORD PTR [rsp+0x48],rbx
    bb0f:	48 89 7c 24 50       	mov    QWORD PTR [rsp+0x50],rdi
    bb14:	4c 89 74 24 58       	mov    QWORD PTR [rsp+0x58],r14
    bb19:	ff d0                	call   rax
    bb1b:	48 8b 5c 24 48       	mov    rbx,QWORD PTR [rsp+0x48]
    bb20:	4c 8b 74 24 58       	mov    r14,QWORD PTR [rsp+0x58]
    bb25:	48 89 df             	mov    rdi,rbx
    bb28:	48 81 c7 c8 07 00 00 	add    rdi,0x7c8
    bb2f:	48 8b 74 24 38       	mov    rsi,QWORD PTR [rsp+0x38]
    bb34:	48 b8 00 00 00 00 00 	movabs rax,0x0
    bb3b:	00 00 00 
			bb36: R_X86_64_64	caml_initialize
    bb3e:	48 89 74 24 38       	mov    QWORD PTR [rsp+0x38],rsi
    bb43:	48 89 5c 24 40       	mov    QWORD PTR [rsp+0x40],rbx
    bb48:	48 89 7c 24 48       	mov    QWORD PTR [rsp+0x48],rdi
    bb4d:	4c 89 74 24 50       	mov    QWORD PTR [rsp+0x50],r14
    bb52:	ff d0                	call   rax
    bb54:	48 8b 5c 24 40       	mov    rbx,QWORD PTR [rsp+0x40]
    bb59:	4c 8b 74 24 50       	mov    r14,QWORD PTR [rsp+0x50]
    bb5e:	48 89 df             	mov    rdi,rbx
    bb61:	48 81 c7 d0 07 00 00 	add    rdi,0x7d0
    bb68:	48 8b 74 24 30       	mov    rsi,QWORD PTR [rsp+0x30]
    bb6d:	48 b8 00 00 00 00 00 	movabs rax,0x0
    bb74:	00 00 00 
			bb6f: R_X86_64_64	caml_initialize
    bb77:	48 89 74 24 30       	mov    QWORD PTR [rsp+0x30],rsi
    bb7c:	48 89 5c 24 38       	mov    QWORD PTR [rsp+0x38],rbx
    bb81:	48 89 7c 24 40       	mov    QWORD PTR [rsp+0x40],rdi
    bb86:	4c 89 74 24 48       	mov    QWORD PTR [rsp+0x48],r14
    bb8b:	ff d0                	call   rax
    bb8d:	48 8b 5c 24 38       	mov    rbx,QWORD PTR [rsp+0x38]
    bb92:	4c 8b 74 24 48       	mov    r14,QWORD PTR [rsp+0x48]
    bb97:	48 89 df             	mov    rdi,rbx
    bb9a:	48 81 c7 d8 07 00 00 	add    rdi,0x7d8
    bba1:	48 8b 74 24 28       	mov    rsi,QWORD PTR [rsp+0x28]
    bba6:	48 b8 00 00 00 00 00 	movabs rax,0x0
    bbad:	00 00 00 
			bba8: R_X86_64_64	caml_initialize
    bbb0:	48 89 74 24 28       	mov    QWORD PTR [rsp+0x28],rsi
    bbb5:	48 89 5c 24 30       	mov    QWORD PTR [rsp+0x30],rbx
    bbba:	48 89 7c 24 38       	mov    QWORD PTR [rsp+0x38],rdi
    bbbf:	4c 89 74 24 40       	mov    QWORD PTR [rsp+0x40],r14
    bbc4:	ff d0                	call   rax
    bbc6:	48 8b 5c 24 30       	mov    rbx,QWORD PTR [rsp+0x30]
    bbcb:	4c 8b 74 24 40       	mov    r14,QWORD PTR [rsp+0x40]
    bbd0:	48 89 df             	mov    rdi,rbx
    bbd3:	48 81 c7 e0 07 00 00 	add    rdi,0x7e0
    bbda:	48 8b 74 24 20       	mov    rsi,QWORD PTR [rsp+0x20]
    bbdf:	48 b8 00 00 00 00 00 	movabs rax,0x0
    bbe6:	00 00 00 
			bbe1: R_X86_64_64	caml_initialize
    bbe9:	48 89 74 24 20       	mov    QWORD PTR [rsp+0x20],rsi
    bbee:	48 89 5c 24 28       	mov    QWORD PTR [rsp+0x28],rbx
    bbf3:	48 89 7c 24 30       	mov    QWORD PTR [rsp+0x30],rdi
    bbf8:	4c 89 74 24 38       	mov    QWORD PTR [rsp+0x38],r14
    bbfd:	ff d0                	call   rax
    bbff:	48 8b 5c 24 28       	mov    rbx,QWORD PTR [rsp+0x28]
    bc04:	4c 8b 74 24 38       	mov    r14,QWORD PTR [rsp+0x38]
    bc09:	48 89 df             	mov    rdi,rbx
    bc0c:	48 81 c7 e8 07 00 00 	add    rdi,0x7e8
    bc13:	48 8b 74 24 18       	mov    rsi,QWORD PTR [rsp+0x18]
    bc18:	48 b8 00 00 00 00 00 	movabs rax,0x0
    bc1f:	00 00 00 
			bc1a: R_X86_64_64	caml_initialize
    bc22:	48 89 74 24 18       	mov    QWORD PTR [rsp+0x18],rsi
    bc27:	48 89 5c 24 20       	mov    QWORD PTR [rsp+0x20],rbx
    bc2c:	48 89 7c 24 28       	mov    QWORD PTR [rsp+0x28],rdi
    bc31:	4c 89 74 24 30       	mov    QWORD PTR [rsp+0x30],r14
    bc36:	ff d0                	call   rax
    bc38:	48 8b 5c 24 20       	mov    rbx,QWORD PTR [rsp+0x20]
    bc3d:	4c 8b 74 24 30       	mov    r14,QWORD PTR [rsp+0x30]
    bc42:	48 89 df             	mov    rdi,rbx
    bc45:	48 81 c7 f0 07 00 00 	add    rdi,0x7f0
    bc4c:	48 8b 74 24 10       	mov    rsi,QWORD PTR [rsp+0x10]
    bc51:	48 b8 00 00 00 00 00 	movabs rax,0x0
    bc58:	00 00 00 
			bc53: R_X86_64_64	caml_initialize
    bc5b:	48 89 74 24 10       	mov    QWORD PTR [rsp+0x10],rsi
    bc60:	48 89 5c 24 18       	mov    QWORD PTR [rsp+0x18],rbx
    bc65:	48 89 7c 24 20       	mov    QWORD PTR [rsp+0x20],rdi
    bc6a:	4c 89 74 24 28       	mov    QWORD PTR [rsp+0x28],r14
    bc6f:	ff d0                	call   rax
    bc71:	48 8b 5c 24 18       	mov    rbx,QWORD PTR [rsp+0x18]
    bc76:	4c 8b 74 24 28       	mov    r14,QWORD PTR [rsp+0x28]
    bc7b:	48 89 df             	mov    rdi,rbx
    bc7e:	48 81 c7 f8 07 00 00 	add    rdi,0x7f8
    bc85:	48 8b 74 24 08       	mov    rsi,QWORD PTR [rsp+0x8]
    bc8a:	48 b8 00 00 00 00 00 	movabs rax,0x0
    bc91:	00 00 00 
			bc8c: R_X86_64_64	caml_initialize
    bc94:	48 89 74 24 08       	mov    QWORD PTR [rsp+0x8],rsi
    bc99:	48 89 5c 24 10       	mov    QWORD PTR [rsp+0x10],rbx
    bc9e:	48 89 7c 24 18       	mov    QWORD PTR [rsp+0x18],rdi
    bca3:	4c 89 74 24 20       	mov    QWORD PTR [rsp+0x20],r14
    bca8:	ff d0                	call   rax
    bcaa:	48 8b 5c 24 10       	mov    rbx,QWORD PTR [rsp+0x10]
    bcaf:	4c 8b 74 24 20       	mov    r14,QWORD PTR [rsp+0x20]
    bcb4:	48 81 c3 00 08 00 00 	add    rbx,0x800
    bcbb:	48 89 df             	mov    rdi,rbx
    bcbe:	48 8b 34 24          	mov    rsi,QWORD PTR [rsp]
    bcc2:	48 b8 00 00 00 00 00 	movabs rax,0x0
    bcc9:	00 00 00 
			bcc4: R_X86_64_64	caml_initialize
    bccc:	48 89 34 24          	mov    QWORD PTR [rsp],rsi
    bcd0:	48 89 7c 24 08       	mov    QWORD PTR [rsp+0x8],rdi
    bcd5:	4c 89 74 24 10       	mov    QWORD PTR [rsp+0x10],r14
    bcda:	ff d0                	call   rax
    bcdc:	4c 8b 74 24 10       	mov    r14,QWORD PTR [rsp+0x10]
    bce1:	48 8b b4 24 f8 07 00 	mov    rsi,QWORD PTR [rsp+0x7f8]
    bce8:	00 
    bce9:	49 89 b4 24 98 00 00 	mov    QWORD PTR [r12+0x98],rsi
    bcf0:	00 
    bcf1:	48 31 d2             	xor    rdx,rdx
    bcf4:	4c 89 f0             	mov    rax,r14
    bcf7:	4c 8b a4 24 30 08 00 	mov    r12,QWORD PTR [rsp+0x830]
    bcfe:	00 
    bcff:	4c 8b ac 24 38 08 00 	mov    r13,QWORD PTR [rsp+0x838]
    bd06:	00 
    bd07:	4c 8b b4 24 40 08 00 	mov    r14,QWORD PTR [rsp+0x840]
    bd0e:	00 
    bd0f:	48 8b 9c 24 48 08 00 	mov    rbx,QWORD PTR [rsp+0x848]
    bd16:	00 
    bd17:	4c 8b bc 24 50 08 00 	mov    r15,QWORD PTR [rsp+0x850]
    bd1e:	00 
    bd1f:	48 81 c4 60 08 00 00 	add    rsp,0x860
    bd26:	48 89 ec             	mov    rsp,rbp
    bd29:	5d                   	pop    rbp
    bd2a:	c3                   	ret    
