
<input>:     file format elf64-x86-64


Disassembly of section .text:

0000000000000000 <big_makeblock>:
       0:	55                   	push   rbp
       1:	48 89 e5             	mov    rbp,rsp
       4:	48 81 ec 60 08 00 00 	sub    rsp,0x860
       b:	4c 89 a4 24 30 08 00 	mov    QWORD PTR [rsp+0x830],r12
      12:	00 
      13:	4c 89 ac 24 38 08 00 	mov    QWORD PTR [rsp+0x838],r13
      1a:	00 
      1b:	4c 89 b4 24 40 08 00 	mov    QWORD PTR [rsp+0x840],r14
      22:	00 
      23:	48 89 9c 24 48 08 00 	mov    QWORD PTR [rsp+0x848],rbx
      2a:	00 
      2b:	4c 89 bc 24 50 08 00 	mov    QWORD PTR [rsp+0x850],r15
      32:	00 
      33:	48 89 fb             	mov    rbx,rdi
      36:	49 bc 00 00 00 00 00 	movabs r12,0x0
      3d:	00 00 00 
			38: R_X86_64_64	caml_state_addr
      40:	48 83 c6 08          	add    rsi,0x8
      44:	bf 7d 02 00 00       	mov    edi,0x27d
      49:	49 89 b4 24 98 00 00 	mov    QWORD PTR [r12+0x98],rsi
      50:	00 
      51:	48 be 00 00 00 00 00 	movabs rsi,0x0
      58:	00 00 00 
			53: R_X86_64_64	oc_prim92
      5b:	48 89 1c 24          	mov    QWORD PTR [rsp],rbx
      5f:	48 89 7c 24 08       	mov    QWORD PTR [rsp+0x8],rdi
      64:	ff d6                	call   rsi
      66:	48 8b 1c 24          	mov    rbx,QWORD PTR [rsp]
      6a:	49 8b b4 24 98 00 00 	mov    rsi,QWORD PTR [r12+0x98]
      71:	00 
      72:	41 bd 01 00 00 00    	mov    r13d,0x1
      78:	48 8b 7b 08          	mov    rdi,QWORD PTR [rbx+0x8]
      7c:	49 be 00 00 00 00 00 	movabs r14,0x0
      83:	00 00 00 
			7e: R_X86_64_64	callback_return_addr
      86:	49 89 b4 24 98 00 00 	mov    QWORD PTR [r12+0x98],rsi
      8d:	00 
      8e:	4c 89 6e e0          	mov    QWORD PTR [rsi-0x20],r13
      92:	4c 89 76 e8          	mov    QWORD PTR [rsi-0x18],r14
      96:	b8 01 00 00 00       	mov    eax,0x1
      9b:	48 89 46 f0          	mov    QWORD PTR [rsi-0x10],rax
      9f:	b8 01 00 00 00       	mov    eax,0x1
      a4:	48 89 46 f8          	mov    QWORD PTR [rsi-0x8],rax
      a8:	48 31 f6             	xor    rsi,rsi
      ab:	48 b8 00 00 00 00 00 	movabs rax,0x0
      b2:	00 00 00 
			ad: R_X86_64_64	do_callback
      b5:	48 89 1c 24          	mov    QWORD PTR [rsp],rbx
      b9:	48 89 7c 24 08       	mov    QWORD PTR [rsp+0x8],rdi
      be:	4c 89 6c 24 10       	mov    QWORD PTR [rsp+0x10],r13
      c3:	ff d0                	call   rax
      c5:	48 8b 1c 24          	mov    rbx,QWORD PTR [rsp]
      c9:	4c 8b 6c 24 10       	mov    r13,QWORD PTR [rsp+0x10]
      ce:	48 89 c6             	mov    rsi,rax
      d1:	48 89 34 24          	mov    QWORD PTR [rsp],rsi
      d5:	49 8b b4 24 98 00 00 	mov    rsi,QWORD PTR [r12+0x98]
      dc:	00 
      dd:	48 8b 7b 08          	mov    rdi,QWORD PTR [rbx+0x8]
      e1:	49 89 b4 24 98 00 00 	mov    QWORD PTR [r12+0x98],rsi
      e8:	00 
      e9:	4c 89 6e e0          	mov    QWORD PTR [rsi-0x20],r13
      ed:	4c 89 76 e8          	mov    QWORD PTR [rsi-0x18],r14
      f1:	b8 01 00 00 00       	mov    eax,0x1
      f6:	48 89 46 f0          	mov    QWORD PTR [rsi-0x10],rax
      fa:	b8 01 00 00 00       	mov    eax,0x1
      ff:	48 89 46 f8          	mov    QWORD PTR [rsi-0x8],rax
     103:	48 31 f6             	xor    rsi,rsi
     106:	48 b8 00 00 00 00 00 	movabs rax,0x0
     10d:	00 00 00 
			108: R_X86_64_64	do_callback
     110:	48 89 5c 24 08       	mov    QWORD PTR [rsp+0x8],rbx
     115:	48 89 7c 24 10       	mov    QWORD PTR [rsp+0x10],rdi
     11a:	4c 89 6c 24 18       	mov    QWORD PTR [rsp+0x18],r13
     11f:	ff d0                	call   rax
     121:	48 8b 5c 24 08       	mov    rbx,QWORD PTR [rsp+0x8]
     126:	4c 8b 6c 24 18       	mov    r13,QWORD PTR [rsp+0x18]
     12b:	48 89 c6             	mov    rsi,rax
     12e:	48 89 74 24 08       	mov    QWORD PTR [rsp+0x8],rsi
     133:	49 8b b4 24 98 00 00 	mov    rsi,QWORD PTR [r12+0x98]
     13a:	00 
     13b:	48 8b 7b 08          	mov    rdi,QWORD PTR [rbx+0x8]
     13f:	49 89 b4 24 98 00 00 	mov    QWORD PTR [r12+0x98],rsi
     146:	00 
     147:	4c 89 6e e0          	mov    QWORD PTR [rsi-0x20],r13
     14b:	4c 89 76 e8          	mov    QWORD PTR [rsi-0x18],r14
     14f:	b8 01 00 00 00       	mov    eax,0x1
     154:	48 89 46 f0          	mov    QWORD PTR [rsi-0x10],rax
     158:	b8 01 00 00 00       	mov    eax,0x1
     15d:	48 89 46 f8          	mov    QWORD PTR [rsi-0x8],rax
     161:	48 31 f6             	xor    rsi,rsi
     164:	48 b8 00 00 00 00 00 	movabs rax,0x0
     16b:	00 00 00 
			166: R_X86_64_64	do_callback
     16e:	48 89 5c 24 10       	mov    QWORD PTR [rsp+0x10],rbx
     173:	48 89 7c 24 18       	mov    QWORD PTR [rsp+0x18],rdi
     178:	4c 89 6c 24 20       	mov    QWORD PTR [rsp+0x20],r13
     17d:	ff d0                	call   rax
     17f:	48 8b 5c 24 10       	mov    rbx,QWORD PTR [rsp+0x10]
     184:	4c 8b 6c 24 20       	mov    r13,QWORD PTR [rsp+0x20]
     189:	48 89 c6             	mov    rsi,rax
     18c:	48 89 74 24 10       	mov    QWORD PTR [rsp+0x10],rsi
     191:	49 8b b4 24 98 00 00 	mov    rsi,QWORD PTR [r12+0x98]
     198:	00 
     199:	48 8b 7b 08          	mov    rdi,QWORD PTR [rbx+0x8]
     19d:	49 89 b4 24 98 00 00 	mov    QWORD PTR [r12+0x98],rsi
     1a4:	00 
     1a5:	4c 89 6e e0          	mov    QWORD PTR [rsi-0x20],r13
     1a9:	4c 89 76 e8          	mov    QWORD PTR [rsi-0x18],r14
     1ad:	b8 01 00 00 00       	mov    eax,0x1
     1b2:	48 89 46 f0          	mov    QWORD PTR [rsi-0x10],rax
     1b6:	b8 01 00 00 00       	mov    eax,0x1
     1bb:	48 89 46 f8          	mov    QWORD PTR [rsi-0x8],rax
     1bf:	48 31 f6             	xor    rsi,rsi
     1c2:	48 b8 00 00 00 00 00 	movabs rax,0x0
     1c9:	00 00 00 
			1c4: R_X86_64_64	do_callback
     1cc:	48 89 5c 24 18       	mov    QWORD PTR [rsp+0x18],rbx
     1d1:	48 89 7c 24 20       	mov    QWORD PTR [rsp+0x20],rdi
     1d6:	4c 89 6c 24 28       	mov    QWORD PTR [rsp+0x28],r13
     1db:	ff d0                	call   rax
     1dd:	48 8b 5c 24 18       	mov    rbx,QWORD PTR [rsp+0x18]
     1e2:	4c 8b 6c 24 28       	mov    r13,QWORD PTR [rsp+0x28]
     1e7:	48 89 c6             	mov    rsi,rax
     1ea:	48 89 74 24 18       	mov    QWORD PTR [rsp+0x18],rsi
     1ef:	49 8b b4 24 98 00 00 	mov    rsi,QWORD PTR [r12+0x98]
     1f6:	00 
     1f7:	48 8b 7b 08          	mov    rdi,QWORD PTR [rbx+0x8]
     1fb:	49 89 b4 24 98 00 00 	mov    QWORD PTR [r12+0x98],rsi
     202:	00 
     203:	4c 89 6e e0          	mov    QWORD PTR [rsi-0x20],r13
     207:	4c 89 76 e8          	mov    QWORD PTR [rsi-0x18],r14
     20b:	b8 01 00 00 00       	mov    eax,0x1
     210:	48 89 46 f0          	mov    QWORD PTR [rsi-0x10],rax
     214:	b8 01 00 00 00       	mov    eax,0x1
     219:	48 89 46 f8          	mov    QWORD PTR [rsi-0x8],rax
     21d:	48 31 f6             	xor    rsi,rsi
     220:	48 b8 00 00 00 00 00 	movabs rax,0x0
     227:	00 00 00 
			222: R_X86_64_64	do_callback
     22a:	48 89 5c 24 20       	mov    QWORD PTR [rsp+0x20],rbx
     22f:	48 89 7c 24 28       	mov    QWORD PTR [rsp+0x28],rdi
     234:	4c 89 6c 24 30       	mov    QWORD PTR [rsp+0x30],r13
     239:	ff d0                	call   rax
     23b:	48 8b 5c 24 20       	mov    rbx,QWORD PTR [rsp+0x20]
     240:	4c 8b 6c 24 30       	mov    r13,QWORD PTR [rsp+0x30]
     245:	48 89 c6             	mov    rsi,rax
     248:	48 89 74 24 20       	mov    QWORD PTR [rsp+0x20],rsi
     24d:	49 8b b4 24 98 00 00 	mov    rsi,QWORD PTR [r12+0x98]
     254:	00 
     255:	48 8b 7b 08          	mov    rdi,QWORD PTR [rbx+0x8]
     259:	49 89 b4 24 98 00 00 	mov    QWORD PTR [r12+0x98],rsi
     260:	00 
     261:	4c 89 6e e0          	mov    QWORD PTR [rsi-0x20],r13
     265:	4c 89 76 e8          	mov    QWORD PTR [rsi-0x18],r14
     269:	b8 01 00 00 00       	mov    eax,0x1
     26e:	48 89 46 f0          	mov    QWORD PTR [rsi-0x10],rax
     272:	b8 01 00 00 00       	mov    eax,0x1
     277:	48 89 46 f8          	mov    QWORD PTR [rsi-0x8],rax
     27b:	48 31 f6             	xor    rsi,rsi
     27e:	48 b8 00 00 00 00 00 	movabs rax,0x0
     285:	00 00 00 
			280: R_X86_64_64	do_callback
     288:	48 89 5c 24 28       	mov    QWORD PTR [rsp+0x28],rbx
     28d:	48 89 7c 24 30       	mov    QWORD PTR [rsp+0x30],rdi
     292:	4c 89 6c 24 38       	mov    QWORD PTR [rsp+0x38],r13
     297:	ff d0                	call   rax
     299:	48 8b 5c 24 28       	mov    rbx,QWORD PTR [rsp+0x28]
     29e:	4c 8b 6c 24 38       	mov    r13,QWORD PTR [rsp+0x38]
     2a3:	48 89 c6             	mov    rsi,rax
     2a6:	48 89 74 24 28       	mov    QWORD PTR [rsp+0x28],rsi
     2ab:	49 8b b4 24 98 00 00 	mov    rsi,QWORD PTR [r12+0x98]
     2b2:	00 
     2b3:	48 8b 7b 08          	mov    rdi,QWORD PTR [rbx+0x8]
     2b7:	49 89 b4 24 98 00 00 	mov    QWORD PTR [r12+0x98],rsi
     2be:	00 
     2bf:	4c 89 6e e0          	mov    QWORD PTR [rsi-0x20],r13
     2c3:	4c 89 76 e8          	mov    QWORD PTR [rsi-0x18],r14
     2c7:	b8 01 00 00 00       	mov    eax,0x1
     2cc:	48 89 46 f0          	mov    QWORD PTR [rsi-0x10],rax
     2d0:	b8 01 00 00 00       	mov    eax,0x1
     2d5:	48 89 46 f8          	mov    QWORD PTR [rsi-0x8],rax
     2d9:	48 31 f6             	xor    rsi,rsi
     2dc:	48 b8 00 00 00 00 00 	movabs rax,0x0
     2e3:	00 00 00 
			2de: R_X86_64_64	do_callback
     2e6:	48 89 5c 24 30       	mov    QWORD PTR [rsp+0x30],rbx
     2eb:	48 89 7c 24 38       	mov    QWORD PTR [rsp+0x38],rdi
     2f0:	4c 89 6c 24 40       	mov    QWORD PTR [rsp+0x40],r13
     2f5:	ff d0                	call   rax
     2f7:	48 8b 5c 24 30       	mov    rbx,QWORD PTR [rsp+0x30]
     2fc:	4c 8b 6c 24 40       	mov    r13,QWORD PTR [rsp+0x40]
     301:	48 89 c6             	mov    rsi,rax
     304:	48 89 74 24 30       	mov    QWORD PTR [rsp+0x30],rsi
     309:	49 8b b4 24 98 00 00 	mov    rsi,QWORD PTR [r12+0x98]
     310:	00 
     311:	48 8b 7b 08          	mov    rdi,QWORD PTR [rbx+0x8]
     315:	49 89 b4 24 98 00 00 	mov    QWORD PTR [r12+0x98],rsi
     31c:	00 
     31d:	4c 89 6e e0          	mov    QWORD PTR [rsi-0x20],r13
     321:	4c 89 76 e8          	mov    QWORD PTR [rsi-0x18],r14
     325:	b8 01 00 00 00       	mov    eax,0x1
     32a:	48 89 46 f0          	mov    QWORD PTR [rsi-0x10],rax
     32e:	b8 01 00 00 00       	mov    eax,0x1
     333:	48 89 46 f8          	mov    QWORD PTR [rsi-0x8],rax
     337:	48 31 f6             	xor    rsi,rsi
     33a:	48 b8 00 00 00 00 00 	movabs rax,0x0
     341:	00 00 00 
			33c: R_X86_64_64	do_callback
     344:	48 89 5c 24 38       	mov    QWORD PTR [rsp+0x38],rbx
     349:	48 89 7c 24 40       	mov    QWORD PTR [rsp+0x40],rdi
     34e:	4c 89 6c 24 48       	mov    QWORD PTR [rsp+0x48],r13
     353:	ff d0                	call   rax
     355:	48 8b 5c 24 38       	mov    rbx,QWORD PTR [rsp+0x38]
     35a:	4c 8b 6c 24 48       	mov    r13,QWORD PTR [rsp+0x48]
     35f:	48 89 c6             	mov    rsi,rax
     362:	48 89 74 24 38       	mov    QWORD PTR [rsp+0x38],rsi
     367:	49 8b b4 24 98 00 00 	mov    rsi,QWORD PTR [r12+0x98]
     36e:	00 
     36f:	48 8b 7b 08          	mov    rdi,QWORD PTR [rbx+0x8]
     373:	49 89 b4 24 98 00 00 	mov    QWORD PTR [r12+0x98],rsi
     37a:	00 
     37b:	4c 89 6e e0          	mov    QWORD PTR [rsi-0x20],r13
     37f:	4c 89 76 e8          	mov    QWORD PTR [rsi-0x18],r14
     383:	b8 01 00 00 00       	mov    eax,0x1
     388:	48 89 46 f0          	mov    QWORD PTR [rsi-0x10],rax
     38c:	b8 01 00 00 00       	mov    eax,0x1
     391:	48 89 46 f8          	mov    QWORD PTR [rsi-0x8],rax
     395:	48 31 f6             	xor    rsi,rsi
     398:	48 b8 00 00 00 00 00 	movabs rax,0x0
     39f:	00 00 00 
			39a: R_X86_64_64	do_callback
     3a2:	48 89 5c 24 40       	mov    QWORD PTR [rsp+0x40],rbx
     3a7:	48 89 7c 24 48       	mov    QWORD PTR [rsp+0x48],rdi
     3ac:	4c 89 6c 24 50       	mov    QWORD PTR [rsp+0x50],r13
     3b1:	ff d0                	call   rax
     3b3:	48 8b 5c 24 40       	mov    rbx,QWORD PTR [rsp+0x40]
     3b8:	4c 8b 6c 24 50       	mov    r13,QWORD PTR [rsp+0x50]
     3bd:	48 89 c6             	mov    rsi,rax
     3c0:	48 89 74 24 40       	mov    QWORD PTR [rsp+0x40],rsi
     3c5:	49 8b b4 24 98 00 00 	mov    rsi,QWORD PTR [r12+0x98]
     3cc:	00 
     3cd:	48 8b 7b 08          	mov    rdi,QWORD PTR [rbx+0x8]
     3d1:	49 89 b4 24 98 00 00 	mov    QWORD PTR [r12+0x98],rsi
     3d8:	00 
     3d9:	4c 89 6e e0          	mov    QWORD PTR [rsi-0x20],r13
     3dd:	4c 89 76 e8          	mov    QWORD PTR [rsi-0x18],r14
     3e1:	b8 01 00 00 00       	mov    eax,0x1
     3e6:	48 89 46 f0          	mov    QWORD PTR [rsi-0x10],rax
     3ea:	b8 01 00 00 00       	mov    eax,0x1
     3ef:	48 89 46 f8          	mov    QWORD PTR [rsi-0x8],rax
     3f3:	48 31 f6             	xor    rsi,rsi
     3f6:	48 b8 00 00 00 00 00 	movabs rax,0x0
     3fd:	00 00 00 
			3f8: R_X86_64_64	do_callback
     400:	48 89 5c 24 48       	mov    QWORD PTR [rsp+0x48],rbx
     405:	48 89 7c 24 50       	mov    QWORD PTR [rsp+0x50],rdi
     40a:	4c 89 6c 24 58       	mov    QWORD PTR [rsp+0x58],r13
     40f:	ff d0                	call   rax
     411:	48 8b 5c 24 48       	mov    rbx,QWORD PTR [rsp+0x48]
     416:	4c 8b 6c 24 58       	mov    r13,QWORD PTR [rsp+0x58]
     41b:	48 89 c6             	mov    rsi,rax
     41e:	48 89 74 24 48       	mov    QWORD PTR [rsp+0x48],rsi
     423:	49 8b b4 24 98 00 00 	mov    rsi,QWORD PTR [r12+0x98]
     42a:	00 
     42b:	48 8b 7b 08          	mov    rdi,QWORD PTR [rbx+0x8]
     42f:	49 89 b4 24 98 00 00 	mov    QWORD PTR [r12+0x98],rsi
     436:	00 
     437:	4c 89 6e e0          	mov    QWORD PTR [rsi-0x20],r13
     43b:	4c 89 76 e8          	mov    QWORD PTR [rsi-0x18],r14
     43f:	b8 01 00 00 00       	mov    eax,0x1
     444:	48 89 46 f0          	mov    QWORD PTR [rsi-0x10],rax
     448:	b8 01 00 00 00       	mov    eax,0x1
     44d:	48 89 46 f8          	mov    QWORD PTR [rsi-0x8],rax
     451:	48 31 f6             	xor    rsi,rsi
     454:	48 b8 00 00 00 00 00 	movabs rax,0x0
     45b:	00 00 00 
			456: R_X86_64_64	do_callback
     45e:	48 89 5c 24 50       	mov    QWORD PTR [rsp+0x50],rbx
     463:	48 89 7c 24 58       	mov    QWORD PTR [rsp+0x58],rdi
     468:	4c 89 6c 24 60       	mov    QWORD PTR [rsp+0x60],r13
     46d:	ff d0                	call   rax
     46f:	48 8b 5c 24 50       	mov    rbx,QWORD PTR [rsp+0x50]
     474:	4c 8b 6c 24 60       	mov    r13,QWORD PTR [rsp+0x60]
     479:	48 89 c6             	mov    rsi,rax
     47c:	48 89 74 24 50       	mov    QWORD PTR [rsp+0x50],rsi
     481:	49 8b b4 24 98 00 00 	mov    rsi,QWORD PTR [r12+0x98]
     488:	00 
     489:	48 8b 7b 08          	mov    rdi,QWORD PTR [rbx+0x8]
     48d:	49 89 b4 24 98 00 00 	mov    QWORD PTR [r12+0x98],rsi
     494:	00 
     495:	4c 89 6e e0          	mov    QWORD PTR [rsi-0x20],r13
     499:	4c 89 76 e8          	mov    QWORD PTR [rsi-0x18],r14
     49d:	b8 01 00 00 00       	mov    eax,0x1
     4a2:	48 89 46 f0          	mov    QWORD PTR [rsi-0x10],rax
     4a6:	b8 01 00 00 00       	mov    eax,0x1
     4ab:	48 89 46 f8          	mov    QWORD PTR [rsi-0x8],rax
     4af:	48 31 f6             	xor    rsi,rsi
     4b2:	48 b8 00 00 00 00 00 	movabs rax,0x0
     4b9:	00 00 00 
			4b4: R_X86_64_64	do_callback
     4bc:	48 89 5c 24 58       	mov    QWORD PTR [rsp+0x58],rbx
     4c1:	48 89 7c 24 60       	mov    QWORD PTR [rsp+0x60],rdi
     4c6:	4c 89 6c 24 68       	mov    QWORD PTR [rsp+0x68],r13
     4cb:	ff d0                	call   rax
     4cd:	48 8b 5c 24 58       	mov    rbx,QWORD PTR [rsp+0x58]
     4d2:	4c 8b 6c 24 68       	mov    r13,QWORD PTR [rsp+0x68]
     4d7:	48 89 c6             	mov    rsi,rax
     4da:	48 89 74 24 58       	mov    QWORD PTR [rsp+0x58],rsi
     4df:	49 8b b4 24 98 00 00 	mov    rsi,QWORD PTR [r12+0x98]
     4e6:	00 
     4e7:	48 8b 7b 08          	mov    rdi,QWORD PTR [rbx+0x8]
     4eb:	49 89 b4 24 98 00 00 	mov    QWORD PTR [r12+0x98],rsi
     4f2:	00 
     4f3:	4c 89 6e e0          	mov    QWORD PTR [rsi-0x20],r13
     4f7:	4c 89 76 e8          	mov    QWORD PTR [rsi-0x18],r14
     4fb:	b8 01 00 00 00       	mov    eax,0x1
     500:	48 89 46 f0          	mov    QWORD PTR [rsi-0x10],rax
     504:	b8 01 00 00 00       	mov    eax,0x1
     509:	48 89 46 f8          	mov    QWORD PTR [rsi-0x8],rax
     50d:	48 31 f6             	xor    rsi,rsi
     510:	48 b8 00 00 00 00 00 	movabs rax,0x0
     517:	00 00 00 
			512: R_X86_64_64	do_callback
     51a:	48 89 5c 24 60       	mov    QWORD PTR [rsp+0x60],rbx
     51f:	48 89 7c 24 68       	mov    QWORD PTR [rsp+0x68],rdi
     524:	4c 89 6c 24 70       	mov    QWORD PTR [rsp+0x70],r13
     529:	ff d0                	call   rax
     52b:	48 8b 5c 24 60       	mov    rbx,QWORD PTR [rsp+0x60]
     530:	4c 8b 6c 24 70       	mov    r13,QWORD PTR [rsp+0x70]
     535:	48 89 c6             	mov    rsi,rax
     538:	48 89 74 24 60       	mov    QWORD PTR [rsp+0x60],rsi
     53d:	49 8b b4 24 98 00 00 	mov    rsi,QWORD PTR [r12+0x98]
     544:	00 
     545:	48 8b 7b 08          	mov    rdi,QWORD PTR [rbx+0x8]
     549:	49 89 b4 24 98 00 00 	mov    QWORD PTR [r12+0x98],rsi
     550:	00 
     551:	4c 89 6e e0          	mov    QWORD PTR [rsi-0x20],r13
     555:	4c 89 76 e8          	mov    QWORD PTR [rsi-0x18],r14
     559:	b8 01 00 00 00       	mov    eax,0x1
     55e:	48 89 46 f0          	mov    QWORD PTR [rsi-0x10],rax
     562:	b8 01 00 00 00       	mov    eax,0x1
     567:	48 89 46 f8          	mov    QWORD PTR [rsi-0x8],rax
     56b:	48 31 f6             	xor    rsi,rsi
     56e:	48 b8 00 00 00 00 00 	movabs rax,0x0
     575:	00 00 00 
			570: R_X86_64_64	do_callback
     578:	48 89 5c 24 68       	mov    QWORD PTR [rsp+0x68],rbx
     57d:	48 89 7c 24 70       	mov    QWORD PTR [rsp+0x70],rdi
     582:	4c 89 6c 24 78       	mov    QWORD PTR [rsp+0x78],r13
     587:	ff d0                	call   rax
     589:	48 8b 5c 24 68       	mov    rbx,QWORD PTR [rsp+0x68]
     58e:	4c 8b 6c 24 78       	mov    r13,QWORD PTR [rsp+0x78]
     593:	48 89 c6             	mov    rsi,rax
     596:	48 89 74 24 68       	mov    QWORD PTR [rsp+0x68],rsi
     59b:	49 8b b4 24 98 00 00 	mov    rsi,QWORD PTR [r12+0x98]
     5a2:	00 
     5a3:	48 8b 7b 08          	mov    rdi,QWORD PTR [rbx+0x8]
     5a7:	49 89 b4 24 98 00 00 	mov    QWORD PTR [r12+0x98],rsi
     5ae:	00 
     5af:	4c 89 6e e0          	mov    QWORD PTR [rsi-0x20],r13
     5b3:	4c 89 76 e8          	mov    QWORD PTR [rsi-0x18],r14
     5b7:	b8 01 00 00 00       	mov    eax,0x1
     5bc:	48 89 46 f0          	mov    QWORD PTR [rsi-0x10],rax
     5c0:	b8 01 00 00 00       	mov    eax,0x1
     5c5:	48 89 46 f8          	mov    QWORD PTR [rsi-0x8],rax
     5c9:	48 31 f6             	xor    rsi,rsi
     5cc:	48 b8 00 00 00 00 00 	movabs rax,0x0
     5d3:	00 00 00 
			5ce: R_X86_64_64	do_callback
     5d6:	48 89 5c 24 70       	mov    QWORD PTR [rsp+0x70],rbx
     5db:	48 89 7c 24 78       	mov    QWORD PTR [rsp+0x78],rdi
     5e0:	4c 89 ac 24 80 00 00 	mov    QWORD PTR [rsp+0x80],r13
     5e7:	00 
     5e8:	ff d0                	call   rax
     5ea:	48 8b 5c 24 70       	mov    rbx,QWORD PTR [rsp+0x70]
     5ef:	4c 8b ac 24 80 00 00 	mov    r13,QWORD PTR [rsp+0x80]
     5f6:	00 
     5f7:	48 89 c6             	mov    rsi,rax
     5fa:	48 89 74 24 70       	mov    QWORD PTR [rsp+0x70],rsi
     5ff:	49 8b b4 24 98 00 00 	mov    rsi,QWORD PTR [r12+0x98]
     606:	00 
     607:	48 8b 7b 08          	mov    rdi,QWORD PTR [rbx+0x8]
     60b:	49 89 b4 24 98 00 00 	mov    QWORD PTR [r12+0x98],rsi
     612:	00 
     613:	4c 89 6e e0          	mov    QWORD PTR [rsi-0x20],r13
     617:	4c 89 76 e8          	mov    QWORD PTR [rsi-0x18],r14
     61b:	b8 01 00 00 00       	mov    eax,0x1
     620:	48 89 46 f0          	mov    QWORD PTR [rsi-0x10],rax
     624:	b8 01 00 00 00       	mov    eax,0x1
     629:	48 89 46 f8          	mov    QWORD PTR [rsi-0x8],rax
     62d:	48 31 f6             	xor    rsi,rsi
     630:	48 b8 00 00 00 00 00 	movabs rax,0x0
     637:	00 00 00 
			632: R_X86_64_64	do_callback
     63a:	48 89 5c 24 78       	mov    QWORD PTR [rsp+0x78],rbx
     63f:	48 89 bc 24 80 00 00 	mov    QWORD PTR [rsp+0x80],rdi
     646:	00 
     647:	4c 89 ac 24 88 00 00 	mov    QWORD PTR [rsp+0x88],r13
     64e:	00 
     64f:	ff d0                	call   rax
     651:	48 8b 5c 24 78       	mov    rbx,QWORD PTR [rsp+0x78]
     656:	4c 8b ac 24 88 00 00 	mov    r13,QWORD PTR [rsp+0x88]
     65d:	00 
     65e:	48 89 c6             	mov    rsi,rax
     661:	48 89 74 24 78       	mov    QWORD PTR [rsp+0x78],rsi
     666:	49 8b b4 24 98 00 00 	mov    rsi,QWORD PTR [r12+0x98]
     66d:	00 
     66e:	48 8b 7b 08          	mov    rdi,QWORD PTR [rbx+0x8]
     672:	49 89 b4 24 98 00 00 	mov    QWORD PTR [r12+0x98],rsi
     679:	00 
     67a:	4c 89 6e e0          	mov    QWORD PTR [rsi-0x20],r13
     67e:	4c 89 76 e8          	mov    QWORD PTR [rsi-0x18],r14
     682:	b8 01 00 00 00       	mov    eax,0x1
     687:	48 89 46 f0          	mov    QWORD PTR [rsi-0x10],rax
     68b:	b8 01 00 00 00       	mov    eax,0x1
     690:	48 89 46 f8          	mov    QWORD PTR [rsi-0x8],rax
     694:	48 31 f6             	xor    rsi,rsi
     697:	48 b8 00 00 00 00 00 	movabs rax,0x0
     69e:	00 00 00 
			699: R_X86_64_64	do_callback
     6a1:	48 89 9c 24 80 00 00 	mov    QWORD PTR [rsp+0x80],rbx
     6a8:	00 
     6a9:	48 89 bc 24 88 00 00 	mov    QWORD PTR [rsp+0x88],rdi
     6b0:	00 
     6b1:	4c 89 ac 24 90 00 00 	mov    QWORD PTR [rsp+0x90],r13
     6b8:	00 
     6b9:	ff d0                	call   rax
     6bb:	48 8b 9c 24 80 00 00 	mov    rbx,QWORD PTR [rsp+0x80]
     6c2:	00 
     6c3:	4c 8b ac 24 90 00 00 	mov    r13,QWORD PTR [rsp+0x90]
     6ca:	00 
     6cb:	48 89 c6             	mov    rsi,rax
     6ce:	48 89 b4 24 80 00 00 	mov    QWORD PTR [rsp+0x80],rsi
     6d5:	00 
     6d6:	49 8b b4 24 98 00 00 	mov    rsi,QWORD PTR [r12+0x98]
     6dd:	00 
     6de:	48 8b 7b 08          	mov    rdi,QWORD PTR [rbx+0x8]
     6e2:	49 89 b4 24 98 00 00 	mov    QWORD PTR [r12+0x98],rsi
     6e9:	00 
     6ea:	4c 89 6e e0          	mov    QWORD PTR [rsi-0x20],r13
     6ee:	4c 89 76 e8          	mov    QWORD PTR [rsi-0x18],r14
     6f2:	b8 01 00 00 00       	mov    eax,0x1
     6f7:	48 89 46 f0          	mov    QWORD PTR [rsi-0x10],rax
     6fb:	b8 01 00 00 00       	mov    eax,0x1
     700:	48 89 46 f8          	mov    QWORD PTR [rsi-0x8],rax
     704:	48 31 f6             	xor    rsi,rsi
     707:	48 b8 00 00 00 00 00 	movabs rax,0x0
     70e:	00 00 00 
			709: R_X86_64_64	do_callback
     711:	48 89 9c 24 88 00 00 	mov    QWORD PTR [rsp+0x88],rbx
     718:	00 
     719:	48 89 bc 24 90 00 00 	mov    QWORD PTR [rsp+0x90],rdi
     720:	00 
     721:	4c 89 ac 24 98 00 00 	mov    QWORD PTR [rsp+0x98],r13
     728:	00 
     729:	ff d0                	call   rax
     72b:	48 8b 9c 24 88 00 00 	mov    rbx,QWORD PTR [rsp+0x88]
     732:	00 
     733:	4c 8b ac 24 98 00 00 	mov    r13,QWORD PTR [rsp+0x98]
     73a:	00 
     73b:	48 89 c6             	mov    rsi,rax
     73e:	48 89 b4 24 88 00 00 	mov    QWORD PTR [rsp+0x88],rsi
     745:	00 
     746:	49 8b b4 24 98 00 00 	mov    rsi,QWORD PTR [r12+0x98]
     74d:	00 
     74e:	48 8b 7b 08          	mov    rdi,QWORD PTR [rbx+0x8]
     752:	49 89 b4 24 98 00 00 	mov    QWORD PTR [r12+0x98],rsi
     759:	00 
     75a:	4c 89 6e e0          	mov    QWORD PTR [rsi-0x20],r13
     75e:	4c 89 76 e8          	mov    QWORD PTR [rsi-0x18],r14
     762:	b8 01 00 00 00       	mov    eax,0x1
     767:	48 89 46 f0          	mov    QWORD PTR [rsi-0x10],rax
     76b:	b8 01 00 00 00       	mov    eax,0x1
     770:	48 89 46 f8          	mov    QWORD PTR [rsi-0x8],rax
     774:	48 31 f6             	xor    rsi,rsi
     777:	48 b8 00 00 00 00 00 	movabs rax,0x0
     77e:	00 00 00 
			779: R_X86_64_64	do_callback
     781:	48 89 9c 24 90 00 00 	mov    QWORD PTR [rsp+0x90],rbx
     788:	00 
     789:	48 89 bc 24 98 00 00 	mov    QWORD PTR [rsp+0x98],rdi
     790:	00 
     791:	4c 89 ac 24 a0 00 00 	mov    QWORD PTR [rsp+0xa0],r13
     798:	00 
     799:	ff d0                	call   rax
     79b:	48 8b 9c 24 90 00 00 	mov    rbx,QWORD PTR [rsp+0x90]
     7a2:	00 
     7a3:	4c 8b ac 24 a0 00 00 	mov    r13,QWORD PTR [rsp+0xa0]
     7aa:	00 
     7ab:	48 89 c6             	mov    rsi,rax
     7ae:	48 89 b4 24 90 00 00 	mov    QWORD PTR [rsp+0x90],rsi
     7b5:	00 
     7b6:	49 8b b4 24 98 00 00 	mov    rsi,QWORD PTR [r12+0x98]
     7bd:	00 
     7be:	48 8b 7b 08          	mov    rdi,QWORD PTR [rbx+0x8]
     7c2:	49 89 b4 24 98 00 00 	mov    QWORD PTR [r12+0x98],rsi
     7c9:	00 
     7ca:	4c 89 6e e0          	mov    QWORD PTR [rsi-0x20],r13
     7ce:	4c 89 76 e8          	mov    QWORD PTR [rsi-0x18],r14
     7d2:	b8 01 00 00 00       	mov    eax,0x1
     7d7:	48 89 46 f0          	mov    QWORD PTR [rsi-0x10],rax
     7db:	b8 01 00 00 00       	mov    eax,0x1
     7e0:	48 89 46 f8          	mov    QWORD PTR [rsi-0x8],rax
     7e4:	48 31 f6             	xor    rsi,rsi
     7e7:	48 b8 00 00 00 00 00 	movabs rax,0x0
     7ee:	00 00 00 
			7e9: R_X86_64_64	do_callback
     7f1:	48 89 9c 24 98 00 00 	mov    QWORD PTR [rsp+0x98],rbx
     7f8:	00 
     7f9:	48 89 bc 24 a0 00 00 	mov    QWORD PTR [rsp+0xa0],rdi
     800:	00 
     801:	4c 89 ac 24 a8 00 00 	mov    QWORD PTR [rsp+0xa8],r13
     808:	00 
     809:	ff d0                	call   rax
     80b:	48 8b 9c 24 98 00 00 	mov    rbx,QWORD PTR [rsp+0x98]
     812:	00 
     813:	4c 8b ac 24 a8 00 00 	mov    r13,QWORD PTR [rsp+0xa8]
     81a:	00 
     81b:	48 89 c6             	mov    rsi,rax
     81e:	48 89 b4 24 98 00 00 	mov    QWORD PTR [rsp+0x98],rsi
     825:	00 
     826:	49 8b b4 24 98 00 00 	mov    rsi,QWORD PTR [r12+0x98]
     82d:	00 
     82e:	48 8b 7b 08          	mov    rdi,QWORD PTR [rbx+0x8]
     832:	49 89 b4 24 98 00 00 	mov    QWORD PTR [r12+0x98],rsi
     839:	00 
     83a:	4c 89 6e e0          	mov    QWORD PTR [rsi-0x20],r13
     83e:	4c 89 76 e8          	mov    QWORD PTR [rsi-0x18],r14
     842:	b8 01 00 00 00       	mov    eax,0x1
     847:	48 89 46 f0          	mov    QWORD PTR [rsi-0x10],rax
     84b:	b8 01 00 00 00       	mov    eax,0x1
     850:	48 89 46 f8          	mov    QWORD PTR [rsi-0x8],rax
     854:	48 31 f6             	xor    rsi,rsi
     857:	48 b8 00 00 00 00 00 	movabs rax,0x0
     85e:	00 00 00 
			859: R_X86_64_64	do_callback
     861:	48 89 9c 24 a0 00 00 	mov    QWORD PTR [rsp+0xa0],rbx
     868:	00 
     869:	48 89 bc 24 a8 00 00 	mov    QWORD PTR [rsp+0xa8],rdi
     870:	00 
     871:	4c 89 ac 24 b0 00 00 	mov    QWORD PTR [rsp+0xb0],r13
     878:	00 
     879:	ff d0                	call   rax
     87b:	48 8b 9c 24 a0 00 00 	mov    rbx,QWORD PTR [rsp+0xa0]
     882:	00 
     883:	4c 8b ac 24 b0 00 00 	mov    r13,QWORD PTR [rsp+0xb0]
     88a:	00 
     88b:	48 89 c6             	mov    rsi,rax
     88e:	48 89 b4 24 a0 00 00 	mov    QWORD PTR [rsp+0xa0],rsi
     895:	00 
     896:	49 8b b4 24 98 00 00 	mov    rsi,QWORD PTR [r12+0x98]
     89d:	00 
     89e:	48 8b 7b 08          	mov    rdi,QWORD PTR [rbx+0x8]
     8a2:	49 89 b4 24 98 00 00 	mov    QWORD PTR [r12+0x98],rsi
     8a9:	00 
     8aa:	4c 89 6e e0          	mov    QWORD PTR [rsi-0x20],r13
     8ae:	4c 89 76 e8          	mov    QWORD PTR [rsi-0x18],r14
     8b2:	b8 01 00 00 00       	mov    eax,0x1
     8b7:	48 89 46 f0          	mov    QWORD PTR [rsi-0x10],rax
     8bb:	b8 01 00 00 00       	mov    eax,0x1
     8c0:	48 89 46 f8          	mov    QWORD PTR [rsi-0x8],rax
     8c4:	48 31 f6             	xor    rsi,rsi
     8c7:	48 b8 00 00 00 00 00 	movabs rax,0x0
     8ce:	00 00 00 
			8c9: R_X86_64_64	do_callback
     8d1:	48 89 9c 24 a8 00 00 	mov    QWORD PTR [rsp+0xa8],rbx
     8d8:	00 
     8d9:	48 89 bc 24 b0 00 00 	mov    QWORD PTR [rsp+0xb0],rdi
     8e0:	00 
     8e1:	4c 89 ac 24 b8 00 00 	mov    QWORD PTR [rsp+0xb8],r13
     8e8:	00 
     8e9:	ff d0                	call   rax
     8eb:	48 8b 9c 24 a8 00 00 	mov    rbx,QWORD PTR [rsp+0xa8]
     8f2:	00 
     8f3:	4c 8b ac 24 b8 00 00 	mov    r13,QWORD PTR [rsp+0xb8]
     8fa:	00 
     8fb:	48 89 c6             	mov    rsi,rax
     8fe:	48 89 b4 24 a8 00 00 	mov    QWORD PTR [rsp+0xa8],rsi
     905:	00 
     906:	49 8b b4 24 98 00 00 	mov    rsi,QWORD PTR [r12+0x98]
     90d:	00 
     90e:	48 8b 7b 08          	mov    rdi,QWORD PTR [rbx+0x8]
     912:	49 89 b4 24 98 00 00 	mov    QWORD PTR [r12+0x98],rsi
     919:	00 
     91a:	4c 89 6e e0          	mov    QWORD PTR [rsi-0x20],r13
     91e:	4c 89 76 e8          	mov    QWORD PTR [rsi-0x18],r14
     922:	b8 01 00 00 00       	mov    eax,0x1
     927:	48 89 46 f0          	mov    QWORD PTR [rsi-0x10],rax
     92b:	b8 01 00 00 00       	mov    eax,0x1
     930:	48 89 46 f8          	mov    QWORD PTR [rsi-0x8],rax
     934:	48 31 f6             	xor    rsi,rsi
     937:	48 b8 00 00 00 00 00 	movabs rax,0x0
     93e:	00 00 00 
			939: R_X86_64_64	do_callback
     941:	48 89 9c 24 b0 00 00 	mov    QWORD PTR [rsp+0xb0],rbx
     948:	00 
     949:	48 89 bc 24 b8 00 00 	mov    QWORD PTR [rsp+0xb8],rdi
     950:	00 
     951:	4c 89 ac 24 c0 00 00 	mov    QWORD PTR [rsp+0xc0],r13
     958:	00 
     959:	ff d0                	call   rax
     95b:	48 8b 9c 24 b0 00 00 	mov    rbx,QWORD PTR [rsp+0xb0]
     962:	00 
     963:	4c 8b ac 24 c0 00 00 	mov    r13,QWORD PTR [rsp+0xc0]
     96a:	00 
     96b:	48 89 c6             	mov    rsi,rax
     96e:	48 89 b4 24 b0 00 00 	mov    QWORD PTR [rsp+0xb0],rsi
     975:	00 
     976:	49 8b b4 24 98 00 00 	mov    rsi,QWORD PTR [r12+0x98]
     97d:	00 
     97e:	48 8b 7b 08          	mov    rdi,QWORD PTR [rbx+0x8]
     982:	49 89 b4 24 98 00 00 	mov    QWORD PTR [r12+0x98],rsi
     989:	00 
     98a:	4c 89 6e e0          	mov    QWORD PTR [rsi-0x20],r13
     98e:	4c 89 76 e8          	mov    QWORD PTR [rsi-0x18],r14
     992:	b8 01 00 00 00       	mov    eax,0x1
     997:	48 89 46 f0          	mov    QWORD PTR [rsi-0x10],rax
     99b:	b8 01 00 00 00       	mov    eax,0x1
     9a0:	48 89 46 f8          	mov    QWORD PTR [rsi-0x8],rax
     9a4:	48 31 f6             	xor    rsi,rsi
     9a7:	48 b8 00 00 00 00 00 	movabs rax,0x0
     9ae:	00 00 00 
			9a9: R_X86_64_64	do_callback
     9b1:	48 89 9c 24 b8 00 00 	mov    QWORD PTR [rsp+0xb8],rbx
     9b8:	00 
     9b9:	48 89 bc 24 c0 00 00 	mov    QWORD PTR [rsp+0xc0],rdi
     9c0:	00 
     9c1:	4c 89 ac 24 c8 00 00 	mov    QWORD PTR [rsp+0xc8],r13
     9c8:	00 
     9c9:	ff d0                	call   rax
     9cb:	48 8b 9c 24 b8 00 00 	mov    rbx,QWORD PTR [rsp+0xb8]
     9d2:	00 
     9d3:	4c 8b ac 24 c8 00 00 	mov    r13,QWORD PTR [rsp+0xc8]
     9da:	00 
     9db:	48 89 c6             	mov    rsi,rax
     9de:	48 89 b4 24 b8 00 00 	mov    QWORD PTR [rsp+0xb8],rsi
     9e5:	00 
     9e6:	49 8b b4 24 98 00 00 	mov    rsi,QWORD PTR [r12+0x98]
     9ed:	00 
     9ee:	48 8b 7b 08          	mov    rdi,QWORD PTR [rbx+0x8]
     9f2:	49 89 b4 24 98 00 00 	mov    QWORD PTR [r12+0x98],rsi
     9f9:	00 
     9fa:	4c 89 6e e0          	mov    QWORD PTR [rsi-0x20],r13
     9fe:	4c 89 76 e8          	mov    QWORD PTR [rsi-0x18],r14
     a02:	b8 01 00 00 00       	mov    eax,0x1
     a07:	48 89 46 f0          	mov    QWORD PTR [rsi-0x10],rax
     a0b:	b8 01 00 00 00       	mov    eax,0x1
     a10:	48 89 46 f8          	mov    QWORD PTR [rsi-0x8],rax
     a14:	48 31 f6             	xor    rsi,rsi
     a17:	48 b8 00 00 00 00 00 	movabs rax,0x0
     a1e:	00 00 00 
			a19: R_X86_64_64	do_callback
     a21:	48 89 9c 24 c0 00 00 	mov    QWORD PTR [rsp+0xc0],rbx
     a28:	00 
     a29:	48 89 bc 24 c8 00 00 	mov    QWORD PTR [rsp+0xc8],rdi
     a30:	00 
     a31:	4c 89 ac 24 d0 00 00 	mov    QWORD PTR [rsp+0xd0],r13
     a38:	00 
     a39:	ff d0                	call   rax
     a3b:	48 8b 9c 24 c0 00 00 	mov    rbx,QWORD PTR [rsp+0xc0]
     a42:	00 
     a43:	4c 8b ac 24 d0 00 00 	mov    r13,QWORD PTR [rsp+0xd0]
     a4a:	00 
     a4b:	48 89 c6             	mov    rsi,rax
     a4e:	48 89 b4 24 c0 00 00 	mov    QWORD PTR [rsp+0xc0],rsi
     a55:	00 
     a56:	49 8b b4 24 98 00 00 	mov    rsi,QWORD PTR [r12+0x98]
     a5d:	00 
     a5e:	48 8b 7b 08          	mov    rdi,QWORD PTR [rbx+0x8]
     a62:	49 89 b4 24 98 00 00 	mov    QWORD PTR [r12+0x98],rsi
     a69:	00 
     a6a:	4c 89 6e e0          	mov    QWORD PTR [rsi-0x20],r13
     a6e:	4c 89 76 e8          	mov    QWORD PTR [rsi-0x18],r14
     a72:	b8 01 00 00 00       	mov    eax,0x1
     a77:	48 89 46 f0          	mov    QWORD PTR [rsi-0x10],rax
     a7b:	b8 01 00 00 00       	mov    eax,0x1
     a80:	48 89 46 f8          	mov    QWORD PTR [rsi-0x8],rax
     a84:	48 31 f6             	xor    rsi,rsi
     a87:	48 b8 00 00 00 00 00 	movabs rax,0x0
     a8e:	00 00 00 
			a89: R_X86_64_64	do_callback
     a91:	48 89 9c 24 c8 00 00 	mov    QWORD PTR [rsp+0xc8],rbx
     a98:	00 
     a99:	48 89 bc 24 d0 00 00 	mov    QWORD PTR [rsp+0xd0],rdi
     aa0:	00 
     aa1:	4c 89 ac 24 d8 00 00 	mov    QWORD PTR [rsp+0xd8],r13
     aa8:	00 
     aa9:	ff d0                	call   rax
     aab:	48 8b 9c 24 c8 00 00 	mov    rbx,QWORD PTR [rsp+0xc8]
     ab2:	00 
     ab3:	4c 8b ac 24 d8 00 00 	mov    r13,QWORD PTR [rsp+0xd8]
     aba:	00 
     abb:	48 89 c6             	mov    rsi,rax
     abe:	48 89 b4 24 c8 00 00 	mov    QWORD PTR [rsp+0xc8],rsi
     ac5:	00 
     ac6:	49 8b b4 24 98 00 00 	mov    rsi,QWORD PTR [r12+0x98]
     acd:	00 
     ace:	48 8b 7b 08          	mov    rdi,QWORD PTR [rbx+0x8]
     ad2:	49 89 b4 24 98 00 00 	mov    QWORD PTR [r12+0x98],rsi
     ad9:	00 
     ada:	4c 89 6e e0          	mov    QWORD PTR [rsi-0x20],r13
     ade:	4c 89 76 e8          	mov    QWORD PTR [rsi-0x18],r14
     ae2:	b8 01 00 00 00       	mov    eax,0x1
     ae7:	48 89 46 f0          	mov    QWORD PTR [rsi-0x10],rax
     aeb:	b8 01 00 00 00       	mov    eax,0x1
     af0:	48 89 46 f8          	mov    QWORD PTR [rsi-0x8],rax
     af4:	48 31 f6             	xor    rsi,rsi
     af7:	48 b8 00 00 00 00 00 	movabs rax,0x0
     afe:	00 00 00 
			af9: R_X86_64_64	do_callback
     b01:	48 89 9c 24 d0 00 00 	mov    QWORD PTR [rsp+0xd0],rbx
     b08:	00 
     b09:	48 89 bc 24 d8 00 00 	mov    QWORD PTR [rsp+0xd8],rdi
     b10:	00 
     b11:	4c 89 ac 24 e0 00 00 	mov    QWORD PTR [rsp+0xe0],r13
     b18:	00 
     b19:	ff d0                	call   rax
     b1b:	48 8b 9c 24 d0 00 00 	mov    rbx,QWORD PTR [rsp+0xd0]
     b22:	00 
     b23:	4c 8b ac 24 e0 00 00 	mov    r13,QWORD PTR [rsp+0xe0]
     b2a:	00 
     b2b:	48 89 c6             	mov    rsi,rax
     b2e:	48 89 b4 24 d0 00 00 	mov    QWORD PTR [rsp+0xd0],rsi
     b35:	00 
     b36:	49 8b b4 24 98 00 00 	mov    rsi,QWORD PTR [r12+0x98]
     b3d:	00 
     b3e:	48 8b 7b 08          	mov    rdi,QWORD PTR [rbx+0x8]
     b42:	49 89 b4 24 98 00 00 	mov    QWORD PTR [r12+0x98],rsi
     b49:	00 
     b4a:	4c 89 6e e0          	mov    QWORD PTR [rsi-0x20],r13
     b4e:	4c 89 76 e8          	mov    QWORD PTR [rsi-0x18],r14
     b52:	b8 01 00 00 00       	mov    eax,0x1
     b57:	48 89 46 f0          	mov    QWORD PTR [rsi-0x10],rax
     b5b:	b8 01 00 00 00       	mov    eax,0x1
     b60:	48 89 46 f8          	mov    QWORD PTR [rsi-0x8],rax
     b64:	48 31 f6             	xor    rsi,rsi
     b67:	48 b8 00 00 00 00 00 	movabs rax,0x0
     b6e:	00 00 00 
			b69: R_X86_64_64	do_callback
     b71:	48 89 9c 24 d8 00 00 	mov    QWORD PTR [rsp+0xd8],rbx
     b78:	00 
     b79:	48 89 bc 24 e0 00 00 	mov    QWORD PTR [rsp+0xe0],rdi
     b80:	00 
     b81:	4c 89 ac 24 e8 00 00 	mov    QWORD PTR [rsp+0xe8],r13
     b88:	00 
     b89:	ff d0                	call   rax
     b8b:	48 8b 9c 24 d8 00 00 	mov    rbx,QWORD PTR [rsp+0xd8]
     b92:	00 
     b93:	4c 8b ac 24 e8 00 00 	mov    r13,QWORD PTR [rsp+0xe8]
     b9a:	00 
     b9b:	48 89 c6             	mov    rsi,rax
     b9e:	48 89 b4 24 d8 00 00 	mov    QWORD PTR [rsp+0xd8],rsi
     ba5:	00 
     ba6:	49 8b b4 24 98 00 00 	mov    rsi,QWORD PTR [r12+0x98]
     bad:	00 
     bae:	48 8b 7b 08          	mov    rdi,QWORD PTR [rbx+0x8]
     bb2:	49 89 b4 24 98 00 00 	mov    QWORD PTR [r12+0x98],rsi
     bb9:	00 
     bba:	4c 89 6e e0          	mov    QWORD PTR [rsi-0x20],r13
     bbe:	4c 89 76 e8          	mov    QWORD PTR [rsi-0x18],r14
     bc2:	b8 01 00 00 00       	mov    eax,0x1
     bc7:	48 89 46 f0          	mov    QWORD PTR [rsi-0x10],rax
     bcb:	b8 01 00 00 00       	mov    eax,0x1
     bd0:	48 89 46 f8          	mov    QWORD PTR [rsi-0x8],rax
     bd4:	48 31 f6             	xor    rsi,rsi
     bd7:	48 b8 00 00 00 00 00 	movabs rax,0x0
     bde:	00 00 00 
			bd9: R_X86_64_64	do_callback
     be1:	48 89 9c 24 e0 00 00 	mov    QWORD PTR [rsp+0xe0],rbx
     be8:	00 
     be9:	48 89 bc 24 e8 00 00 	mov    QWORD PTR [rsp+0xe8],rdi
     bf0:	00 
     bf1:	4c 89 ac 24 f0 00 00 	mov    QWORD PTR [rsp+0xf0],r13
     bf8:	00 
     bf9:	ff d0                	call   rax
     bfb:	48 8b 9c 24 e0 00 00 	mov    rbx,QWORD PTR [rsp+0xe0]
     c02:	00 
     c03:	4c 8b ac 24 f0 00 00 	mov    r13,QWORD PTR [rsp+0xf0]
     c0a:	00 
     c0b:	48 89 c6             	mov    rsi,rax
     c0e:	48 89 b4 24 e0 00 00 	mov    QWORD PTR [rsp+0xe0],rsi
     c15:	00 
     c16:	49 8b b4 24 98 00 00 	mov    rsi,QWORD PTR [r12+0x98]
     c1d:	00 
     c1e:	48 8b 7b 08          	mov    rdi,QWORD PTR [rbx+0x8]
     c22:	49 89 b4 24 98 00 00 	mov    QWORD PTR [r12+0x98],rsi
     c29:	00 
     c2a:	4c 89 6e e0          	mov    QWORD PTR [rsi-0x20],r13
     c2e:	4c 89 76 e8          	mov    QWORD PTR [rsi-0x18],r14
     c32:	b8 01 00 00 00       	mov    eax,0x1
     c37:	48 89 46 f0          	mov    QWORD PTR [rsi-0x10],rax
     c3b:	b8 01 00 00 00       	mov    eax,0x1
     c40:	48 89 46 f8          	mov    QWORD PTR [rsi-0x8],rax
     c44:	48 31 f6             	xor    rsi,rsi
     c47:	48 b8 00 00 00 00 00 	movabs rax,0x0
     c4e:	00 00 00 
			c49: R_X86_64_64	do_callback
     c51:	48 89 9c 24 e8 00 00 	mov    QWORD PTR [rsp+0xe8],rbx
     c58:	00 
     c59:	48 89 bc 24 f0 00 00 	mov    QWORD PTR [rsp+0xf0],rdi
     c60:	00 
     c61:	4c 89 ac 24 f8 00 00 	mov    QWORD PTR [rsp+0xf8],r13
     c68:	00 
     c69:	ff d0                	call   rax
     c6b:	48 8b 9c 24 e8 00 00 	mov    rbx,QWORD PTR [rsp+0xe8]
     c72:	00 
     c73:	4c 8b ac 24 f8 00 00 	mov    r13,QWORD PTR [rsp+0xf8]
     c7a:	00 
     c7b:	48 89 c6             	mov    rsi,rax
     c7e:	48 89 b4 24 e8 00 00 	mov    QWORD PTR [rsp+0xe8],rsi
     c85:	00 
     c86:	49 8b b4 24 98 00 00 	mov    rsi,QWORD PTR [r12+0x98]
     c8d:	00 
     c8e:	48 8b 7b 08          	mov    rdi,QWORD PTR [rbx+0x8]
     c92:	49 89 b4 24 98 00 00 	mov    QWORD PTR [r12+0x98],rsi
     c99:	00 
     c9a:	4c 89 6e e0          	mov    QWORD PTR [rsi-0x20],r13
     c9e:	4c 89 76 e8          	mov    QWORD PTR [rsi-0x18],r14
     ca2:	b8 01 00 00 00       	mov    eax,0x1
     ca7:	48 89 46 f0          	mov    QWORD PTR [rsi-0x10],rax
     cab:	b8 01 00 00 00       	mov    eax,0x1
     cb0:	48 89 46 f8          	mov    QWORD PTR [rsi-0x8],rax
     cb4:	48 31 f6             	xor    rsi,rsi
     cb7:	48 b8 00 00 00 00 00 	movabs rax,0x0
     cbe:	00 00 00 
			cb9: R_X86_64_64	do_callback
     cc1:	48 89 9c 24 f0 00 00 	mov    QWORD PTR [rsp+0xf0],rbx
     cc8:	00 
     cc9:	48 89 bc 24 f8 00 00 	mov    QWORD PTR [rsp+0xf8],rdi
     cd0:	00 
     cd1:	4c 89 ac 24 00 01 00 	mov    QWORD PTR [rsp+0x100],r13
     cd8:	00 
     cd9:	ff d0                	call   rax
     cdb:	48 8b 9c 24 f0 00 00 	mov    rbx,QWORD PTR [rsp+0xf0]
     ce2:	00 
     ce3:	4c 8b ac 24 00 01 00 	mov    r13,QWORD PTR [rsp+0x100]
     cea:	00 
     ceb:	48 89 c6             	mov    rsi,rax
     cee:	48 89 b4 24 f0 00 00 	mov    QWORD PTR [rsp+0xf0],rsi
     cf5:	00 
     cf6:	49 8b b4 24 98 00 00 	mov    rsi,QWORD PTR [r12+0x98]
     cfd:	00 
     cfe:	48 8b 7b 08          	mov    rdi,QWORD PTR [rbx+0x8]
     d02:	49 89 b4 24 98 00 00 	mov    QWORD PTR [r12+0x98],rsi
     d09:	00 
     d0a:	4c 89 6e e0          	mov    QWORD PTR [rsi-0x20],r13
     d0e:	4c 89 76 e8          	mov    QWORD PTR [rsi-0x18],r14
     d12:	b8 01 00 00 00       	mov    eax,0x1
     d17:	48 89 46 f0          	mov    QWORD PTR [rsi-0x10],rax
     d1b:	b8 01 00 00 00       	mov    eax,0x1
     d20:	48 89 46 f8          	mov    QWORD PTR [rsi-0x8],rax
     d24:	48 31 f6             	xor    rsi,rsi
     d27:	48 b8 00 00 00 00 00 	movabs rax,0x0
     d2e:	00 00 00 
			d29: R_X86_64_64	do_callback
     d31:	48 89 9c 24 f8 00 00 	mov    QWORD PTR [rsp+0xf8],rbx
     d38:	00 
     d39:	48 89 bc 24 00 01 00 	mov    QWORD PTR [rsp+0x100],rdi
     d40:	00 
     d41:	4c 89 ac 24 08 01 00 	mov    QWORD PTR [rsp+0x108],r13
     d48:	00 
     d49:	ff d0                	call   rax
     d4b:	48 8b 9c 24 f8 00 00 	mov    rbx,QWORD PTR [rsp+0xf8]
     d52:	00 
     d53:	4c 8b ac 24 08 01 00 	mov    r13,QWORD PTR [rsp+0x108]
     d5a:	00 
     d5b:	48 89 c6             	mov    rsi,rax
     d5e:	48 89 b4 24 f8 00 00 	mov    QWORD PTR [rsp+0xf8],rsi
     d65:	00 
     d66:	49 8b b4 24 98 00 00 	mov    rsi,QWORD PTR [r12+0x98]
     d6d:	00 
     d6e:	48 8b 7b 08          	mov    rdi,QWORD PTR [rbx+0x8]
     d72:	49 89 b4 24 98 00 00 	mov    QWORD PTR [r12+0x98],rsi
     d79:	00 
     d7a:	4c 89 6e e0          	mov    QWORD PTR [rsi-0x20],r13
     d7e:	4c 89 76 e8          	mov    QWORD PTR [rsi-0x18],r14
     d82:	b8 01 00 00 00       	mov    eax,0x1
     d87:	48 89 46 f0          	mov    QWORD PTR [rsi-0x10],rax
     d8b:	b8 01 00 00 00       	mov    eax,0x1
     d90:	48 89 46 f8          	mov    QWORD PTR [rsi-0x8],rax
     d94:	48 31 f6             	xor    rsi,rsi
     d97:	48 b8 00 00 00 00 00 	movabs rax,0x0
     d9e:	00 00 00 
			d99: R_X86_64_64	do_callback
     da1:	48 89 9c 24 00 01 00 	mov    QWORD PTR [rsp+0x100],rbx
     da8:	00 
     da9:	48 89 bc 24 08 01 00 	mov    QWORD PTR [rsp+0x108],rdi
     db0:	00 
     db1:	4c 89 ac 24 10 01 00 	mov    QWORD PTR [rsp+0x110],r13
     db8:	00 
     db9:	ff d0                	call   rax
     dbb:	48 8b 9c 24 00 01 00 	mov    rbx,QWORD PTR [rsp+0x100]
     dc2:	00 
     dc3:	4c 8b ac 24 10 01 00 	mov    r13,QWORD PTR [rsp+0x110]
     dca:	00 
     dcb:	48 89 c6             	mov    rsi,rax
     dce:	48 89 b4 24 00 01 00 	mov    QWORD PTR [rsp+0x100],rsi
     dd5:	00 
     dd6:	49 8b b4 24 98 00 00 	mov    rsi,QWORD PTR [r12+0x98]
     ddd:	00 
     dde:	48 8b 7b 08          	mov    rdi,QWORD PTR [rbx+0x8]
     de2:	49 89 b4 24 98 00 00 	mov    QWORD PTR [r12+0x98],rsi
     de9:	00 
     dea:	4c 89 6e e0          	mov    QWORD PTR [rsi-0x20],r13
     dee:	4c 89 76 e8          	mov    QWORD PTR [rsi-0x18],r14
     df2:	b8 01 00 00 00       	mov    eax,0x1
     df7:	48 89 46 f0          	mov    QWORD PTR [rsi-0x10],rax
     dfb:	b8 01 00 00 00       	mov    eax,0x1
     e00:	48 89 46 f8          	mov    QWORD PTR [rsi-0x8],rax
     e04:	48 31 f6             	xor    rsi,rsi
     e07:	48 b8 00 00 00 00 00 	movabs rax,0x0
     e0e:	00 00 00 
			e09: R_X86_64_64	do_callback
     e11:	48 89 9c 24 08 01 00 	mov    QWORD PTR [rsp+0x108],rbx
     e18:	00 
     e19:	48 89 bc 24 10 01 00 	mov    QWORD PTR [rsp+0x110],rdi
     e20:	00 
     e21:	4c 89 ac 24 18 01 00 	mov    QWORD PTR [rsp+0x118],r13
     e28:	00 
     e29:	ff d0                	call   rax
     e2b:	48 8b 9c 24 08 01 00 	mov    rbx,QWORD PTR [rsp+0x108]
     e32:	00 
     e33:	4c 8b ac 24 18 01 00 	mov    r13,QWORD PTR [rsp+0x118]
     e3a:	00 
     e3b:	48 89 c6             	mov    rsi,rax
     e3e:	48 89 b4 24 08 01 00 	mov    QWORD PTR [rsp+0x108],rsi
     e45:	00 
     e46:	49 8b b4 24 98 00 00 	mov    rsi,QWORD PTR [r12+0x98]
     e4d:	00 
     e4e:	48 8b 7b 08          	mov    rdi,QWORD PTR [rbx+0x8]
     e52:	49 89 b4 24 98 00 00 	mov    QWORD PTR [r12+0x98],rsi
     e59:	00 
     e5a:	4c 89 6e e0          	mov    QWORD PTR [rsi-0x20],r13
     e5e:	4c 89 76 e8          	mov    QWORD PTR [rsi-0x18],r14
     e62:	b8 01 00 00 00       	mov    eax,0x1
     e67:	48 89 46 f0          	mov    QWORD PTR [rsi-0x10],rax
     e6b:	b8 01 00 00 00       	mov    eax,0x1
     e70:	48 89 46 f8          	mov    QWORD PTR [rsi-0x8],rax
     e74:	48 31 f6             	xor    rsi,rsi
     e77:	48 b8 00 00 00 00 00 	movabs rax,0x0
     e7e:	00 00 00 
			e79: R_X86_64_64	do_callback
     e81:	48 89 9c 24 10 01 00 	mov    QWORD PTR [rsp+0x110],rbx
     e88:	00 
     e89:	48 89 bc 24 18 01 00 	mov    QWORD PTR [rsp+0x118],rdi
     e90:	00 
     e91:	4c 89 ac 24 20 01 00 	mov    QWORD PTR [rsp+0x120],r13
     e98:	00 
     e99:	ff d0                	call   rax
     e9b:	48 8b 9c 24 10 01 00 	mov    rbx,QWORD PTR [rsp+0x110]
     ea2:	00 
     ea3:	4c 8b ac 24 20 01 00 	mov    r13,QWORD PTR [rsp+0x120]
     eaa:	00 
     eab:	48 89 c6             	mov    rsi,rax
     eae:	48 89 b4 24 10 01 00 	mov    QWORD PTR [rsp+0x110],rsi
     eb5:	00 
     eb6:	49 8b b4 24 98 00 00 	mov    rsi,QWORD PTR [r12+0x98]
     ebd:	00 
     ebe:	48 8b 7b 08          	mov    rdi,QWORD PTR [rbx+0x8]
     ec2:	49 89 b4 24 98 00 00 	mov    QWORD PTR [r12+0x98],rsi
     ec9:	00 
     eca:	4c 89 6e e0          	mov    QWORD PTR [rsi-0x20],r13
     ece:	4c 89 76 e8          	mov    QWORD PTR [rsi-0x18],r14
     ed2:	b8 01 00 00 00       	mov    eax,0x1
     ed7:	48 89 46 f0          	mov    QWORD PTR [rsi-0x10],rax
     edb:	b8 01 00 00 00       	mov    eax,0x1
     ee0:	48 89 46 f8          	mov    QWORD PTR [rsi-0x8],rax
     ee4:	48 31 f6             	xor    rsi,rsi
     ee7:	48 b8 00 00 00 00 00 	movabs rax,0x0
     eee:	00 00 00 
			ee9: R_X86_64_64	do_callback
     ef1:	48 89 9c 24 18 01 00 	mov    QWORD PTR [rsp+0x118],rbx
     ef8:	00 
     ef9:	48 89 bc 24 20 01 00 	mov    QWORD PTR [rsp+0x120],rdi
     f00:	00 
     f01:	4c 89 ac 24 28 01 00 	mov    QWORD PTR [rsp+0x128],r13
     f08:	00 
     f09:	ff d0                	call   rax
     f0b:	48 8b 9c 24 18 01 00 	mov    rbx,QWORD PTR [rsp+0x118]
     f12:	00 
     f13:	4c 8b ac 24 28 01 00 	mov    r13,QWORD PTR [rsp+0x128]
     f1a:	00 
     f1b:	48 89 c6             	mov    rsi,rax
     f1e:	48 89 b4 24 18 01 00 	mov    QWORD PTR [rsp+0x118],rsi
     f25:	00 
     f26:	49 8b b4 24 98 00 00 	mov    rsi,QWORD PTR [r12+0x98]
     f2d:	00 
     f2e:	48 8b 7b 08          	mov    rdi,QWORD PTR [rbx+0x8]
     f32:	49 89 b4 24 98 00 00 	mov    QWORD PTR [r12+0x98],rsi
     f39:	00 
     f3a:	4c 89 6e e0          	mov    QWORD PTR [rsi-0x20],r13
     f3e:	4c 89 76 e8          	mov    QWORD PTR [rsi-0x18],r14
     f42:	b8 01 00 00 00       	mov    eax,0x1
     f47:	48 89 46 f0          	mov    QWORD PTR [rsi-0x10],rax
     f4b:	b8 01 00 00 00       	mov    eax,0x1
     f50:	48 89 46 f8          	mov    QWORD PTR [rsi-0x8],rax
     f54:	48 31 f6             	xor    rsi,rsi
     f57:	48 b8 00 00 00 00 00 	movabs rax,0x0
     f5e:	00 00 00 
			f59: R_X86_64_64	do_callback
     f61:	48 89 9c 24 20 01 00 	mov    QWORD PTR [rsp+0x120],rbx
     f68:	00 
     f69:	48 89 bc 24 28 01 00 	mov    QWORD PTR [rsp+0x128],rdi
     f70:	00 
     f71:	4c 89 ac 24 30 01 00 	mov    QWORD PTR [rsp+0x130],r13
     f78:	00 
     f79:	ff d0                	call   rax
     f7b:	48 8b 9c 24 20 01 00 	mov    rbx,QWORD PTR [rsp+0x120]
     f82:	00 
     f83:	4c 8b ac 24 30 01 00 	mov    r13,QWORD PTR [rsp+0x130]
     f8a:	00 
     f8b:	48 89 c6             	mov    rsi,rax
     f8e:	48 89 b4 24 20 01 00 	mov    QWORD PTR [rsp+0x120],rsi
     f95:	00 
     f96:	49 8b b4 24 98 00 00 	mov    rsi,QWORD PTR [r12+0x98]
     f9d:	00 
     f9e:	48 8b 7b 08          	mov    rdi,QWORD PTR [rbx+0x8]
     fa2:	49 89 b4 24 98 00 00 	mov    QWORD PTR [r12+0x98],rsi
     fa9:	00 
     faa:	4c 89 6e e0          	mov    QWORD PTR [rsi-0x20],r13
     fae:	4c 89 76 e8          	mov    QWORD PTR [rsi-0x18],r14
     fb2:	b8 01 00 00 00       	mov    eax,0x1
     fb7:	48 89 46 f0          	mov    QWORD PTR [rsi-0x10],rax
     fbb:	b8 01 00 00 00       	mov    eax,0x1
     fc0:	48 89 46 f8          	mov    QWORD PTR [rsi-0x8],rax
     fc4:	48 31 f6             	xor    rsi,rsi
     fc7:	48 b8 00 00 00 00 00 	movabs rax,0x0
     fce:	00 00 00 
			fc9: R_X86_64_64	do_callback
     fd1:	48 89 9c 24 28 01 00 	mov    QWORD PTR [rsp+0x128],rbx
     fd8:	00 
     fd9:	48 89 bc 24 30 01 00 	mov    QWORD PTR [rsp+0x130],rdi
     fe0:	00 
     fe1:	4c 89 ac 24 38 01 00 	mov    QWORD PTR [rsp+0x138],r13
     fe8:	00 
     fe9:	ff d0                	call   rax
     feb:	48 8b 9c 24 28 01 00 	mov    rbx,QWORD PTR [rsp+0x128]
     ff2:	00 
     ff3:	4c 8b ac 24 38 01 00 	mov    r13,QWORD PTR [rsp+0x138]
     ffa:	00 
     ffb:	48 89 c6             	mov    rsi,rax
     ffe:	48 89 b4 24 28 01 00 	mov    QWORD PTR [rsp+0x128],rsi
    1005:	00 
    1006:	49 8b b4 24 98 00 00 	mov    rsi,QWORD PTR [r12+0x98]
    100d:	00 
    100e:	48 8b 7b 08          	mov    rdi,QWORD PTR [rbx+0x8]
    1012:	49 89 b4 24 98 00 00 	mov    QWORD PTR [r12+0x98],rsi
    1019:	00 
    101a:	4c 89 6e e0          	mov    QWORD PTR [rsi-0x20],r13
    101e:	4c 89 76 e8          	mov    QWORD PTR [rsi-0x18],r14
    1022:	b8 01 00 00 00       	mov    eax,0x1
    1027:	48 89 46 f0          	mov    QWORD PTR [rsi-0x10],rax
    102b:	b8 01 00 00 00       	mov    eax,0x1
    1030:	48 89 46 f8          	mov    QWORD PTR [rsi-0x8],rax
    1034:	48 31 f6             	xor    rsi,rsi
    1037:	48 b8 00 00 00 00 00 	movabs rax,0x0
    103e:	00 00 00 
			1039: R_X86_64_64	do_callback
    1041:	48 89 9c 24 30 01 00 	mov    QWORD PTR [rsp+0x130],rbx
    1048:	00 
    1049:	48 89 bc 24 38 01 00 	mov    QWORD PTR [rsp+0x138],rdi
    1050:	00 
    1051:	4c 89 ac 24 40 01 00 	mov    QWORD PTR [rsp+0x140],r13
    1058:	00 
    1059:	ff d0                	call   rax
    105b:	48 8b 9c 24 30 01 00 	mov    rbx,QWORD PTR [rsp+0x130]
    1062:	00 
    1063:	4c 8b ac 24 40 01 00 	mov    r13,QWORD PTR [rsp+0x140]
    106a:	00 
    106b:	48 89 c6             	mov    rsi,rax
    106e:	48 89 b4 24 30 01 00 	mov    QWORD PTR [rsp+0x130],rsi
    1075:	00 
    1076:	49 8b b4 24 98 00 00 	mov    rsi,QWORD PTR [r12+0x98]
    107d:	00 
    107e:	48 8b 7b 08          	mov    rdi,QWORD PTR [rbx+0x8]
    1082:	49 89 b4 24 98 00 00 	mov    QWORD PTR [r12+0x98],rsi
    1089:	00 
    108a:	4c 89 6e e0          	mov    QWORD PTR [rsi-0x20],r13
    108e:	4c 89 76 e8          	mov    QWORD PTR [rsi-0x18],r14
    1092:	b8 01 00 00 00       	mov    eax,0x1
    1097:	48 89 46 f0          	mov    QWORD PTR [rsi-0x10],rax
    109b:	b8 01 00 00 00       	mov    eax,0x1
    10a0:	48 89 46 f8          	mov    QWORD PTR [rsi-0x8],rax
    10a4:	48 31 f6             	xor    rsi,rsi
    10a7:	48 b8 00 00 00 00 00 	movabs rax,0x0
    10ae:	00 00 00 
			10a9: R_X86_64_64	do_callback
    10b1:	48 89 9c 24 38 01 00 	mov    QWORD PTR [rsp+0x138],rbx
    10b8:	00 
    10b9:	48 89 bc 24 40 01 00 	mov    QWORD PTR [rsp+0x140],rdi
    10c0:	00 
    10c1:	4c 89 ac 24 48 01 00 	mov    QWORD PTR [rsp+0x148],r13
    10c8:	00 
    10c9:	ff d0                	call   rax
    10cb:	48 8b 9c 24 38 01 00 	mov    rbx,QWORD PTR [rsp+0x138]
    10d2:	00 
    10d3:	4c 8b ac 24 48 01 00 	mov    r13,QWORD PTR [rsp+0x148]
    10da:	00 
    10db:	48 89 c6             	mov    rsi,rax
    10de:	48 89 b4 24 38 01 00 	mov    QWORD PTR [rsp+0x138],rsi
    10e5:	00 
    10e6:	49 8b b4 24 98 00 00 	mov    rsi,QWORD PTR [r12+0x98]
    10ed:	00 
    10ee:	48 8b 7b 08          	mov    rdi,QWORD PTR [rbx+0x8]
    10f2:	49 89 b4 24 98 00 00 	mov    QWORD PTR [r12+0x98],rsi
    10f9:	00 
    10fa:	4c 89 6e e0          	mov    QWORD PTR [rsi-0x20],r13
    10fe:	4c 89 76 e8          	mov    QWORD PTR [rsi-0x18],r14
    1102:	b8 01 00 00 00       	mov    eax,0x1
    1107:	48 89 46 f0          	mov    QWORD PTR [rsi-0x10],rax
    110b:	b8 01 00 00 00       	mov    eax,0x1
    1110:	48 89 46 f8          	mov    QWORD PTR [rsi-0x8],rax
    1114:	48 31 f6             	xor    rsi,rsi
    1117:	48 b8 00 00 00 00 00 	movabs rax,0x0
    111e:	00 00 00 
			1119: R_X86_64_64	do_callback
    1121:	48 89 9c 24 40 01 00 	mov    QWORD PTR [rsp+0x140],rbx
    1128:	00 
    1129:	48 89 bc 24 48 01 00 	mov    QWORD PTR [rsp+0x148],rdi
    1130:	00 
    1131:	4c 89 ac 24 50 01 00 	mov    QWORD PTR [rsp+0x150],r13
    1138:	00 
    1139:	ff d0                	call   rax
    113b:	48 8b 9c 24 40 01 00 	mov    rbx,QWORD PTR [rsp+0x140]
    1142:	00 
    1143:	4c 8b ac 24 50 01 00 	mov    r13,QWORD PTR [rsp+0x150]
    114a:	00 
    114b:	48 89 c6             	mov    rsi,rax
    114e:	48 89 b4 24 40 01 00 	mov    QWORD PTR [rsp+0x140],rsi
    1155:	00 
    1156:	49 8b b4 24 98 00 00 	mov    rsi,QWORD PTR [r12+0x98]
    115d:	00 
    115e:	48 8b 7b 08          	mov    rdi,QWORD PTR [rbx+0x8]
    1162:	49 89 b4 24 98 00 00 	mov    QWORD PTR [r12+0x98],rsi
    1169:	00 
    116a:	4c 89 6e e0          	mov    QWORD PTR [rsi-0x20],r13
    116e:	4c 89 76 e8          	mov    QWORD PTR [rsi-0x18],r14
    1172:	b8 01 00 00 00       	mov    eax,0x1
    1177:	48 89 46 f0          	mov    QWORD PTR [rsi-0x10],rax
    117b:	b8 01 00 00 00       	mov    eax,0x1
    1180:	48 89 46 f8          	mov    QWORD PTR [rsi-0x8],rax
    1184:	48 31 f6             	xor    rsi,rsi
    1187:	48 b8 00 00 00 00 00 	movabs rax,0x0
    118e:	00 00 00 
			1189: R_X86_64_64	do_callback
    1191:	48 89 9c 24 48 01 00 	mov    QWORD PTR [rsp+0x148],rbx
    1198:	00 
    1199:	48 89 bc 24 50 01 00 	mov    QWORD PTR [rsp+0x150],rdi
    11a0:	00 
    11a1:	4c 89 ac 24 58 01 00 	mov    QWORD PTR [rsp+0x158],r13
    11a8:	00 
    11a9:	ff d0                	call   rax
    11ab:	48 8b 9c 24 48 01 00 	mov    rbx,QWORD PTR [rsp+0x148]
    11b2:	00 
    11b3:	4c 8b ac 24 58 01 00 	mov    r13,QWORD PTR [rsp+0x158]
    11ba:	00 
    11bb:	48 89 c6             	mov    rsi,rax
    11be:	48 89 b4 24 48 01 00 	mov    QWORD PTR [rsp+0x148],rsi
    11c5:	00 
    11c6:	49 8b b4 24 98 00 00 	mov    rsi,QWORD PTR [r12+0x98]
    11cd:	00 
    11ce:	48 8b 7b 08          	mov    rdi,QWORD PTR [rbx+0x8]
    11d2:	49 89 b4 24 98 00 00 	mov    QWORD PTR [r12+0x98],rsi
    11d9:	00 
    11da:	4c 89 6e e0          	mov    QWORD PTR [rsi-0x20],r13
    11de:	4c 89 76 e8          	mov    QWORD PTR [rsi-0x18],r14
    11e2:	b8 01 00 00 00       	mov    eax,0x1
    11e7:	48 89 46 f0          	mov    QWORD PTR [rsi-0x10],rax
    11eb:	b8 01 00 00 00       	mov    eax,0x1
    11f0:	48 89 46 f8          	mov    QWORD PTR [rsi-0x8],rax
    11f4:	48 31 f6             	xor    rsi,rsi
    11f7:	48 b8 00 00 00 00 00 	movabs rax,0x0
    11fe:	00 00 00 
			11f9: R_X86_64_64	do_callback
    1201:	48 89 9c 24 50 01 00 	mov    QWORD PTR [rsp+0x150],rbx
    1208:	00 
    1209:	48 89 bc 24 58 01 00 	mov    QWORD PTR [rsp+0x158],rdi
    1210:	00 
    1211:	4c 89 ac 24 60 01 00 	mov    QWORD PTR [rsp+0x160],r13
    1218:	00 
    1219:	ff d0                	call   rax
    121b:	48 8b 9c 24 50 01 00 	mov    rbx,QWORD PTR [rsp+0x150]
    1222:	00 
    1223:	4c 8b ac 24 60 01 00 	mov    r13,QWORD PTR [rsp+0x160]
    122a:	00 
    122b:	48 89 c6             	mov    rsi,rax
    122e:	48 89 b4 24 50 01 00 	mov    QWORD PTR [rsp+0x150],rsi
    1235:	00 
    1236:	49 8b b4 24 98 00 00 	mov    rsi,QWORD PTR [r12+0x98]
    123d:	00 
    123e:	48 8b 7b 08          	mov    rdi,QWORD PTR [rbx+0x8]
    1242:	49 89 b4 24 98 00 00 	mov    QWORD PTR [r12+0x98],rsi
    1249:	00 
    124a:	4c 89 6e e0          	mov    QWORD PTR [rsi-0x20],r13
    124e:	4c 89 76 e8          	mov    QWORD PTR [rsi-0x18],r14
    1252:	b8 01 00 00 00       	mov    eax,0x1
    1257:	48 89 46 f0          	mov    QWORD PTR [rsi-0x10],rax
    125b:	b8 01 00 00 00       	mov    eax,0x1
    1260:	48 89 46 f8          	mov    QWORD PTR [rsi-0x8],rax
    1264:	48 31 f6             	xor    rsi,rsi
    1267:	48 b8 00 00 00 00 00 	movabs rax,0x0
    126e:	00 00 00 
			1269: R_X86_64_64	do_callback
    1271:	48 89 9c 24 58 01 00 	mov    QWORD PTR [rsp+0x158],rbx
    1278:	00 
    1279:	48 89 bc 24 60 01 00 	mov    QWORD PTR [rsp+0x160],rdi
    1280:	00 
    1281:	4c 89 ac 24 68 01 00 	mov    QWORD PTR [rsp+0x168],r13
    1288:	00 
    1289:	ff d0                	call   rax
    128b:	48 8b 9c 24 58 01 00 	mov    rbx,QWORD PTR [rsp+0x158]
    1292:	00 
    1293:	4c 8b ac 24 68 01 00 	mov    r13,QWORD PTR [rsp+0x168]
    129a:	00 
    129b:	48 89 c6             	mov    rsi,rax
    129e:	48 89 b4 24 58 01 00 	mov    QWORD PTR [rsp+0x158],rsi
    12a5:	00 
    12a6:	49 8b b4 24 98 00 00 	mov    rsi,QWORD PTR [r12+0x98]
    12ad:	00 
    12ae:	48 8b 7b 08          	mov    rdi,QWORD PTR [rbx+0x8]
    12b2:	49 89 b4 24 98 00 00 	mov    QWORD PTR [r12+0x98],rsi
    12b9:	00 
    12ba:	4c 89 6e e0          	mov    QWORD PTR [rsi-0x20],r13
    12be:	4c 89 76 e8          	mov    QWORD PTR [rsi-0x18],r14
    12c2:	b8 01 00 00 00       	mov    eax,0x1
    12c7:	48 89 46 f0          	mov    QWORD PTR [rsi-0x10],rax
    12cb:	b8 01 00 00 00       	mov    eax,0x1
    12d0:	48 89 46 f8          	mov    QWORD PTR [rsi-0x8],rax
    12d4:	48 31 f6             	xor    rsi,rsi
    12d7:	48 b8 00 00 00 00 00 	movabs rax,0x0
    12de:	00 00 00 
			12d9: R_X86_64_64	do_callback
    12e1:	48 89 9c 24 60 01 00 	mov    QWORD PTR [rsp+0x160],rbx
    12e8:	00 
    12e9:	48 89 bc 24 68 01 00 	mov    QWORD PTR [rsp+0x168],rdi
    12f0:	00 
    12f1:	4c 89 ac 24 70 01 00 	mov    QWORD PTR [rsp+0x170],r13
    12f8:	00 
    12f9:	ff d0                	call   rax
    12fb:	48 8b 9c 24 60 01 00 	mov    rbx,QWORD PTR [rsp+0x160]
    1302:	00 
    1303:	4c 8b ac 24 70 01 00 	mov    r13,QWORD PTR [rsp+0x170]
    130a:	00 
    130b:	48 89 c6             	mov    rsi,rax
    130e:	48 89 b4 24 60 01 00 	mov    QWORD PTR [rsp+0x160],rsi
    1315:	00 
    1316:	49 8b b4 24 98 00 00 	mov    rsi,QWORD PTR [r12+0x98]
    131d:	00 
    131e:	48 8b 7b 08          	mov    rdi,QWORD PTR [rbx+0x8]
    1322:	49 89 b4 24 98 00 00 	mov    QWORD PTR [r12+0x98],rsi
    1329:	00 
    132a:	4c 89 6e e0          	mov    QWORD PTR [rsi-0x20],r13
    132e:	4c 89 76 e8          	mov    QWORD PTR [rsi-0x18],r14
    1332:	b8 01 00 00 00       	mov    eax,0x1
    1337:	48 89 46 f0          	mov    QWORD PTR [rsi-0x10],rax
    133b:	b8 01 00 00 00       	mov    eax,0x1
    1340:	48 89 46 f8          	mov    QWORD PTR [rsi-0x8],rax
    1344:	48 31 f6             	xor    rsi,rsi
    1347:	48 b8 00 00 00 00 00 	movabs rax,0x0
    134e:	00 00 00 
			1349: R_X86_64_64	do_callback
    1351:	48 89 9c 24 68 01 00 	mov    QWORD PTR [rsp+0x168],rbx
    1358:	00 
    1359:	48 89 bc 24 70 01 00 	mov    QWORD PTR [rsp+0x170],rdi
    1360:	00 
    1361:	4c 89 ac 24 78 01 00 	mov    QWORD PTR [rsp+0x178],r13
    1368:	00 
    1369:	ff d0                	call   rax
    136b:	48 8b 9c 24 68 01 00 	mov    rbx,QWORD PTR [rsp+0x168]
    1372:	00 
    1373:	4c 8b ac 24 78 01 00 	mov    r13,QWORD PTR [rsp+0x178]
    137a:	00 
    137b:	48 89 c6             	mov    rsi,rax
    137e:	48 89 b4 24 68 01 00 	mov    QWORD PTR [rsp+0x168],rsi
    1385:	00 
    1386:	49 8b b4 24 98 00 00 	mov    rsi,QWORD PTR [r12+0x98]
    138d:	00 
    138e:	48 8b 7b 08          	mov    rdi,QWORD PTR [rbx+0x8]
    1392:	49 89 b4 24 98 00 00 	mov    QWORD PTR [r12+0x98],rsi
    1399:	00 
    139a:	4c 89 6e e0          	mov    QWORD PTR [rsi-0x20],r13
    139e:	4c 89 76 e8          	mov    QWORD PTR [rsi-0x18],r14
    13a2:	b8 01 00 00 00       	mov    eax,0x1
    13a7:	48 89 46 f0          	mov    QWORD PTR [rsi-0x10],rax
    13ab:	b8 01 00 00 00       	mov    eax,0x1
    13b0:	48 89 46 f8          	mov    QWORD PTR [rsi-0x8],rax
    13b4:	48 31 f6             	xor    rsi,rsi
    13b7:	48 b8 00 00 00 00 00 	movabs rax,0x0
    13be:	00 00 00 
			13b9: R_X86_64_64	do_callback
    13c1:	48 89 9c 24 70 01 00 	mov    QWORD PTR [rsp+0x170],rbx
    13c8:	00 
    13c9:	48 89 bc 24 78 01 00 	mov    QWORD PTR [rsp+0x178],rdi
    13d0:	00 
    13d1:	4c 89 ac 24 80 01 00 	mov    QWORD PTR [rsp+0x180],r13
    13d8:	00 
    13d9:	ff d0                	call   rax
    13db:	48 8b 9c 24 70 01 00 	mov    rbx,QWORD PTR [rsp+0x170]
    13e2:	00 
    13e3:	4c 8b ac 24 80 01 00 	mov    r13,QWORD PTR [rsp+0x180]
    13ea:	00 
    13eb:	48 89 c6             	mov    rsi,rax
    13ee:	48 89 b4 24 70 01 00 	mov    QWORD PTR [rsp+0x170],rsi
    13f5:	00 
    13f6:	49 8b b4 24 98 00 00 	mov    rsi,QWORD PTR [r12+0x98]
    13fd:	00 
    13fe:	48 8b 7b 08          	mov    rdi,QWORD PTR [rbx+0x8]
    1402:	49 89 b4 24 98 00 00 	mov    QWORD PTR [r12+0x98],rsi
    1409:	00 
    140a:	4c 89 6e e0          	mov    QWORD PTR [rsi-0x20],r13
    140e:	4c 89 76 e8          	mov    QWORD PTR [rsi-0x18],r14
    1412:	b8 01 00 00 00       	mov    eax,0x1
    1417:	48 89 46 f0          	mov    QWORD PTR [rsi-0x10],rax
    141b:	b8 01 00 00 00       	mov    eax,0x1
    1420:	48 89 46 f8          	mov    QWORD PTR [rsi-0x8],rax
    1424:	48 31 f6             	xor    rsi,rsi
    1427:	48 b8 00 00 00 00 00 	movabs rax,0x0
    142e:	00 00 00 
			1429: R_X86_64_64	do_callback
    1431:	48 89 9c 24 78 01 00 	mov    QWORD PTR [rsp+0x178],rbx
    1438:	00 
    1439:	48 89 bc 24 80 01 00 	mov    QWORD PTR [rsp+0x180],rdi
    1440:	00 
    1441:	4c 89 ac 24 88 01 00 	mov    QWORD PTR [rsp+0x188],r13
    1448:	00 
    1449:	ff d0                	call   rax
    144b:	48 8b 9c 24 78 01 00 	mov    rbx,QWORD PTR [rsp+0x178]
    1452:	00 
    1453:	4c 8b ac 24 88 01 00 	mov    r13,QWORD PTR [rsp+0x188]
    145a:	00 
    145b:	48 89 c6             	mov    rsi,rax
    145e:	48 89 b4 24 78 01 00 	mov    QWORD PTR [rsp+0x178],rsi
    1465:	00 
    1466:	49 8b b4 24 98 00 00 	mov    rsi,QWORD PTR [r12+0x98]
    146d:	00 
    146e:	48 8b 7b 08          	mov    rdi,QWORD PTR [rbx+0x8]
    1472:	49 89 b4 24 98 00 00 	mov    QWORD PTR [r12+0x98],rsi
    1479:	00 
    147a:	4c 89 6e e0          	mov    QWORD PTR [rsi-0x20],r13
    147e:	4c 89 76 e8          	mov    QWORD PTR [rsi-0x18],r14
    1482:	b8 01 00 00 00       	mov    eax,0x1
    1487:	48 89 46 f0          	mov    QWORD PTR [rsi-0x10],rax
    148b:	b8 01 00 00 00       	mov    eax,0x1
    1490:	48 89 46 f8          	mov    QWORD PTR [rsi-0x8],rax
    1494:	48 31 f6             	xor    rsi,rsi
    1497:	48 b8 00 00 00 00 00 	movabs rax,0x0
    149e:	00 00 00 
			1499: R_X86_64_64	do_callback
    14a1:	48 89 9c 24 80 01 00 	mov    QWORD PTR [rsp+0x180],rbx
    14a8:	00 
    14a9:	48 89 bc 24 88 01 00 	mov    QWORD PTR [rsp+0x188],rdi
    14b0:	00 
    14b1:	4c 89 ac 24 90 01 00 	mov    QWORD PTR [rsp+0x190],r13
    14b8:	00 
    14b9:	ff d0                	call   rax
    14bb:	48 8b 9c 24 80 01 00 	mov    rbx,QWORD PTR [rsp+0x180]
    14c2:	00 
    14c3:	4c 8b ac 24 90 01 00 	mov    r13,QWORD PTR [rsp+0x190]
    14ca:	00 
    14cb:	48 89 c6             	mov    rsi,rax
    14ce:	48 89 b4 24 80 01 00 	mov    QWORD PTR [rsp+0x180],rsi
    14d5:	00 
    14d6:	49 8b b4 24 98 00 00 	mov    rsi,QWORD PTR [r12+0x98]
    14dd:	00 
    14de:	48 8b 7b 08          	mov    rdi,QWORD PTR [rbx+0x8]
    14e2:	49 89 b4 24 98 00 00 	mov    QWORD PTR [r12+0x98],rsi
    14e9:	00 
    14ea:	4c 89 6e e0          	mov    QWORD PTR [rsi-0x20],r13
    14ee:	4c 89 76 e8          	mov    QWORD PTR [rsi-0x18],r14
    14f2:	b8 01 00 00 00       	mov    eax,0x1
    14f7:	48 89 46 f0          	mov    QWORD PTR [rsi-0x10],rax
    14fb:	b8 01 00 00 00       	mov    eax,0x1
    1500:	48 89 46 f8          	mov    QWORD PTR [rsi-0x8],rax
    1504:	48 31 f6             	xor    rsi,rsi
    1507:	48 b8 00 00 00 00 00 	movabs rax,0x0
    150e:	00 00 00 
			1509: R_X86_64_64	do_callback
    1511:	48 89 9c 24 88 01 00 	mov    QWORD PTR [rsp+0x188],rbx
    1518:	00 
    1519:	48 89 bc 24 90 01 00 	mov    QWORD PTR [rsp+0x190],rdi
    1520:	00 
    1521:	4c 89 ac 24 98 01 00 	mov    QWORD PTR [rsp+0x198],r13
    1528:	00 
    1529:	ff d0                	call   rax
    152b:	48 8b 9c 24 88 01 00 	mov    rbx,QWORD PTR [rsp+0x188]
    1532:	00 
    1533:	4c 8b ac 24 98 01 00 	mov    r13,QWORD PTR [rsp+0x198]
    153a:	00 
    153b:	48 89 c6             	mov    rsi,rax
    153e:	48 89 b4 24 88 01 00 	mov    QWORD PTR [rsp+0x188],rsi
    1545:	00 
    1546:	49 8b b4 24 98 00 00 	mov    rsi,QWORD PTR [r12+0x98]
    154d:	00 
    154e:	48 8b 7b 08          	mov    rdi,QWORD PTR [rbx+0x8]
    1552:	49 89 b4 24 98 00 00 	mov    QWORD PTR [r12+0x98],rsi
    1559:	00 
    155a:	4c 89 6e e0          	mov    QWORD PTR [rsi-0x20],r13
    155e:	4c 89 76 e8          	mov    QWORD PTR [rsi-0x18],r14
    1562:	b8 01 00 00 00       	mov    eax,0x1
    1567:	48 89 46 f0          	mov    QWORD PTR [rsi-0x10],rax
    156b:	b8 01 00 00 00       	mov    eax,0x1
    1570:	48 89 46 f8          	mov    QWORD PTR [rsi-0x8],rax
    1574:	48 31 f6             	xor    rsi,rsi
    1577:	48 b8 00 00 00 00 00 	movabs rax,0x0
    157e:	00 00 00 
			1579: R_X86_64_64	do_callback
    1581:	48 89 9c 24 90 01 00 	mov    QWORD PTR [rsp+0x190],rbx
    1588:	00 
    1589:	48 89 bc 24 98 01 00 	mov    QWORD PTR [rsp+0x198],rdi
    1590:	00 
    1591:	4c 89 ac 24 a0 01 00 	mov    QWORD PTR [rsp+0x1a0],r13
    1598:	00 
    1599:	ff d0                	call   rax
    159b:	48 8b 9c 24 90 01 00 	mov    rbx,QWORD PTR [rsp+0x190]
    15a2:	00 
    15a3:	4c 8b ac 24 a0 01 00 	mov    r13,QWORD PTR [rsp+0x1a0]
    15aa:	00 
    15ab:	48 89 c6             	mov    rsi,rax
    15ae:	48 89 b4 24 90 01 00 	mov    QWORD PTR [rsp+0x190],rsi
    15b5:	00 
    15b6:	49 8b b4 24 98 00 00 	mov    rsi,QWORD PTR [r12+0x98]
    15bd:	00 
    15be:	48 8b 7b 08          	mov    rdi,QWORD PTR [rbx+0x8]
    15c2:	49 89 b4 24 98 00 00 	mov    QWORD PTR [r12+0x98],rsi
    15c9:	00 
    15ca:	4c 89 6e e0          	mov    QWORD PTR [rsi-0x20],r13
    15ce:	4c 89 76 e8          	mov    QWORD PTR [rsi-0x18],r14
    15d2:	b8 01 00 00 00       	mov    eax,0x1
    15d7:	48 89 46 f0          	mov    QWORD PTR [rsi-0x10],rax
    15db:	b8 01 00 00 00       	mov    eax,0x1
    15e0:	48 89 46 f8          	mov    QWORD PTR [rsi-0x8],rax
    15e4:	48 31 f6             	xor    rsi,rsi
    15e7:	48 b8 00 00 00 00 00 	movabs rax,0x0
    15ee:	00 00 00 
			15e9: R_X86_64_64	do_callback
    15f1:	48 89 9c 24 98 01 00 	mov    QWORD PTR [rsp+0x198],rbx
    15f8:	00 
    15f9:	48 89 bc 24 a0 01 00 	mov    QWORD PTR [rsp+0x1a0],rdi
    1600:	00 
    1601:	4c 89 ac 24 a8 01 00 	mov    QWORD PTR [rsp+0x1a8],r13
    1608:	00 
    1609:	ff d0                	call   rax
    160b:	48 8b 9c 24 98 01 00 	mov    rbx,QWORD PTR [rsp+0x198]
    1612:	00 
    1613:	4c 8b ac 24 a8 01 00 	mov    r13,QWORD PTR [rsp+0x1a8]
    161a:	00 
    161b:	48 89 c6             	mov    rsi,rax
    161e:	48 89 b4 24 98 01 00 	mov    QWORD PTR [rsp+0x198],rsi
    1625:	00 
    1626:	49 8b b4 24 98 00 00 	mov    rsi,QWORD PTR [r12+0x98]
    162d:	00 
    162e:	48 8b 7b 08          	mov    rdi,QWORD PTR [rbx+0x8]
    1632:	49 89 b4 24 98 00 00 	mov    QWORD PTR [r12+0x98],rsi
    1639:	00 
    163a:	4c 89 6e e0          	mov    QWORD PTR [rsi-0x20],r13
    163e:	4c 89 76 e8          	mov    QWORD PTR [rsi-0x18],r14
    1642:	b8 01 00 00 00       	mov    eax,0x1
    1647:	48 89 46 f0          	mov    QWORD PTR [rsi-0x10],rax
    164b:	b8 01 00 00 00       	mov    eax,0x1
    1650:	48 89 46 f8          	mov    QWORD PTR [rsi-0x8],rax
    1654:	48 31 f6             	xor    rsi,rsi
    1657:	48 b8 00 00 00 00 00 	movabs rax,0x0
    165e:	00 00 00 
			1659: R_X86_64_64	do_callback
    1661:	48 89 9c 24 a0 01 00 	mov    QWORD PTR [rsp+0x1a0],rbx
    1668:	00 
    1669:	48 89 bc 24 a8 01 00 	mov    QWORD PTR [rsp+0x1a8],rdi
    1670:	00 
    1671:	4c 89 ac 24 b0 01 00 	mov    QWORD PTR [rsp+0x1b0],r13
    1678:	00 
    1679:	ff d0                	call   rax
    167b:	48 8b 9c 24 a0 01 00 	mov    rbx,QWORD PTR [rsp+0x1a0]
    1682:	00 
    1683:	4c 8b ac 24 b0 01 00 	mov    r13,QWORD PTR [rsp+0x1b0]
    168a:	00 
    168b:	48 89 c6             	mov    rsi,rax
    168e:	48 89 b4 24 a0 01 00 	mov    QWORD PTR [rsp+0x1a0],rsi
    1695:	00 
    1696:	49 8b b4 24 98 00 00 	mov    rsi,QWORD PTR [r12+0x98]
    169d:	00 
    169e:	48 8b 7b 08          	mov    rdi,QWORD PTR [rbx+0x8]
    16a2:	49 89 b4 24 98 00 00 	mov    QWORD PTR [r12+0x98],rsi
    16a9:	00 
    16aa:	4c 89 6e e0          	mov    QWORD PTR [rsi-0x20],r13
    16ae:	4c 89 76 e8          	mov    QWORD PTR [rsi-0x18],r14
    16b2:	b8 01 00 00 00       	mov    eax,0x1
    16b7:	48 89 46 f0          	mov    QWORD PTR [rsi-0x10],rax
    16bb:	b8 01 00 00 00       	mov    eax,0x1
    16c0:	48 89 46 f8          	mov    QWORD PTR [rsi-0x8],rax
    16c4:	48 31 f6             	xor    rsi,rsi
    16c7:	48 b8 00 00 00 00 00 	movabs rax,0x0
    16ce:	00 00 00 
			16c9: R_X86_64_64	do_callback
    16d1:	48 89 9c 24 a8 01 00 	mov    QWORD PTR [rsp+0x1a8],rbx
    16d8:	00 
    16d9:	48 89 bc 24 b0 01 00 	mov    QWORD PTR [rsp+0x1b0],rdi
    16e0:	00 
    16e1:	4c 89 ac 24 b8 01 00 	mov    QWORD PTR [rsp+0x1b8],r13
    16e8:	00 
    16e9:	ff d0                	call   rax
    16eb:	48 8b 9c 24 a8 01 00 	mov    rbx,QWORD PTR [rsp+0x1a8]
    16f2:	00 
    16f3:	4c 8b ac 24 b8 01 00 	mov    r13,QWORD PTR [rsp+0x1b8]
    16fa:	00 
    16fb:	48 89 c6             	mov    rsi,rax
    16fe:	48 89 b4 24 a8 01 00 	mov    QWORD PTR [rsp+0x1a8],rsi
    1705:	00 
    1706:	49 8b b4 24 98 00 00 	mov    rsi,QWORD PTR [r12+0x98]
    170d:	00 
    170e:	48 8b 7b 08          	mov    rdi,QWORD PTR [rbx+0x8]
    1712:	49 89 b4 24 98 00 00 	mov    QWORD PTR [r12+0x98],rsi
    1719:	00 
    171a:	4c 89 6e e0          	mov    QWORD PTR [rsi-0x20],r13
    171e:	4c 89 76 e8          	mov    QWORD PTR [rsi-0x18],r14
    1722:	b8 01 00 00 00       	mov    eax,0x1
    1727:	48 89 46 f0          	mov    QWORD PTR [rsi-0x10],rax
    172b:	b8 01 00 00 00       	mov    eax,0x1
    1730:	48 89 46 f8          	mov    QWORD PTR [rsi-0x8],rax
    1734:	48 31 f6             	xor    rsi,rsi
    1737:	48 b8 00 00 00 00 00 	movabs rax,0x0
    173e:	00 00 00 
			1739: R_X86_64_64	do_callback
    1741:	48 89 9c 24 b0 01 00 	mov    QWORD PTR [rsp+0x1b0],rbx
    1748:	00 
    1749:	48 89 bc 24 b8 01 00 	mov    QWORD PTR [rsp+0x1b8],rdi
    1750:	00 
    1751:	4c 89 ac 24 c0 01 00 	mov    QWORD PTR [rsp+0x1c0],r13
    1758:	00 
    1759:	ff d0                	call   rax
    175b:	48 8b 9c 24 b0 01 00 	mov    rbx,QWORD PTR [rsp+0x1b0]
    1762:	00 
    1763:	4c 8b ac 24 c0 01 00 	mov    r13,QWORD PTR [rsp+0x1c0]
    176a:	00 
    176b:	48 89 c6             	mov    rsi,rax
    176e:	48 89 b4 24 b0 01 00 	mov    QWORD PTR [rsp+0x1b0],rsi
    1775:	00 
    1776:	49 8b b4 24 98 00 00 	mov    rsi,QWORD PTR [r12+0x98]
    177d:	00 
    177e:	48 8b 7b 08          	mov    rdi,QWORD PTR [rbx+0x8]
    1782:	49 89 b4 24 98 00 00 	mov    QWORD PTR [r12+0x98],rsi
    1789:	00 
    178a:	4c 89 6e e0          	mov    QWORD PTR [rsi-0x20],r13
    178e:	4c 89 76 e8          	mov    QWORD PTR [rsi-0x18],r14
    1792:	b8 01 00 00 00       	mov    eax,0x1
    1797:	48 89 46 f0          	mov    QWORD PTR [rsi-0x10],rax
    179b:	b8 01 00 00 00       	mov    eax,0x1
    17a0:	48 89 46 f8          	mov    QWORD PTR [rsi-0x8],rax
    17a4:	48 31 f6             	xor    rsi,rsi
    17a7:	48 b8 00 00 00 00 00 	movabs rax,0x0
    17ae:	00 00 00 
			17a9: R_X86_64_64	do_callback
    17b1:	48 89 9c 24 b8 01 00 	mov    QWORD PTR [rsp+0x1b8],rbx
    17b8:	00 
    17b9:	48 89 bc 24 c0 01 00 	mov    QWORD PTR [rsp+0x1c0],rdi
    17c0:	00 
    17c1:	4c 89 ac 24 c8 01 00 	mov    QWORD PTR [rsp+0x1c8],r13
    17c8:	00 
    17c9:	ff d0                	call   rax
    17cb:	48 8b 9c 24 b8 01 00 	mov    rbx,QWORD PTR [rsp+0x1b8]
    17d2:	00 
    17d3:	4c 8b ac 24 c8 01 00 	mov    r13,QWORD PTR [rsp+0x1c8]
    17da:	00 
    17db:	48 89 c6             	mov    rsi,rax
    17de:	48 89 b4 24 b8 01 00 	mov    QWORD PTR [rsp+0x1b8],rsi
    17e5:	00 
    17e6:	49 8b b4 24 98 00 00 	mov    rsi,QWORD PTR [r12+0x98]
    17ed:	00 
    17ee:	48 8b 7b 08          	mov    rdi,QWORD PTR [rbx+0x8]
    17f2:	49 89 b4 24 98 00 00 	mov    QWORD PTR [r12+0x98],rsi
    17f9:	00 
    17fa:	4c 89 6e e0          	mov    QWORD PTR [rsi-0x20],r13
    17fe:	4c 89 76 e8          	mov    QWORD PTR [rsi-0x18],r14
    1802:	b8 01 00 00 00       	mov    eax,0x1
    1807:	48 89 46 f0          	mov    QWORD PTR [rsi-0x10],rax
    180b:	b8 01 00 00 00       	mov    eax,0x1
    1810:	48 89 46 f8          	mov    QWORD PTR [rsi-0x8],rax
    1814:	48 31 f6             	xor    rsi,rsi
    1817:	48 b8 00 00 00 00 00 	movabs rax,0x0
    181e:	00 00 00 
			1819: R_X86_64_64	do_callback
    1821:	48 89 9c 24 c0 01 00 	mov    QWORD PTR [rsp+0x1c0],rbx
    1828:	00 
    1829:	48 89 bc 24 c8 01 00 	mov    QWORD PTR [rsp+0x1c8],rdi
    1830:	00 
    1831:	4c 89 ac 24 d0 01 00 	mov    QWORD PTR [rsp+0x1d0],r13
    1838:	00 
    1839:	ff d0                	call   rax
    183b:	48 8b 9c 24 c0 01 00 	mov    rbx,QWORD PTR [rsp+0x1c0]
    1842:	00 
    1843:	4c 8b ac 24 d0 01 00 	mov    r13,QWORD PTR [rsp+0x1d0]
    184a:	00 
    184b:	48 89 c6             	mov    rsi,rax
    184e:	48 89 b4 24 c0 01 00 	mov    QWORD PTR [rsp+0x1c0],rsi
    1855:	00 
    1856:	49 8b b4 24 98 00 00 	mov    rsi,QWORD PTR [r12+0x98]
    185d:	00 
    185e:	48 8b 7b 08          	mov    rdi,QWORD PTR [rbx+0x8]
    1862:	49 89 b4 24 98 00 00 	mov    QWORD PTR [r12+0x98],rsi
    1869:	00 
    186a:	4c 89 6e e0          	mov    QWORD PTR [rsi-0x20],r13
    186e:	4c 89 76 e8          	mov    QWORD PTR [rsi-0x18],r14
    1872:	b8 01 00 00 00       	mov    eax,0x1
    1877:	48 89 46 f0          	mov    QWORD PTR [rsi-0x10],rax
    187b:	b8 01 00 00 00       	mov    eax,0x1
    1880:	48 89 46 f8          	mov    QWORD PTR [rsi-0x8],rax
    1884:	48 31 f6             	xor    rsi,rsi
    1887:	48 b8 00 00 00 00 00 	movabs rax,0x0
    188e:	00 00 00 
			1889: R_X86_64_64	do_callback
    1891:	48 89 9c 24 c8 01 00 	mov    QWORD PTR [rsp+0x1c8],rbx
    1898:	00 
    1899:	48 89 bc 24 d0 01 00 	mov    QWORD PTR [rsp+0x1d0],rdi
    18a0:	00 
    18a1:	4c 89 ac 24 d8 01 00 	mov    QWORD PTR [rsp+0x1d8],r13
    18a8:	00 
    18a9:	ff d0                	call   rax
    18ab:	48 8b 9c 24 c8 01 00 	mov    rbx,QWORD PTR [rsp+0x1c8]
    18b2:	00 
    18b3:	4c 8b ac 24 d8 01 00 	mov    r13,QWORD PTR [rsp+0x1d8]
    18ba:	00 
    18bb:	48 89 c6             	mov    rsi,rax
    18be:	48 89 b4 24 c8 01 00 	mov    QWORD PTR [rsp+0x1c8],rsi
    18c5:	00 
    18c6:	49 8b b4 24 98 00 00 	mov    rsi,QWORD PTR [r12+0x98]
    18cd:	00 
    18ce:	48 8b 7b 08          	mov    rdi,QWORD PTR [rbx+0x8]
    18d2:	49 89 b4 24 98 00 00 	mov    QWORD PTR [r12+0x98],rsi
    18d9:	00 
    18da:	4c 89 6e e0          	mov    QWORD PTR [rsi-0x20],r13
    18de:	4c 89 76 e8          	mov    QWORD PTR [rsi-0x18],r14
    18e2:	b8 01 00 00 00       	mov    eax,0x1
    18e7:	48 89 46 f0          	mov    QWORD PTR [rsi-0x10],rax
    18eb:	b8 01 00 00 00       	mov    eax,0x1
    18f0:	48 89 46 f8          	mov    QWORD PTR [rsi-0x8],rax
    18f4:	48 31 f6             	xor    rsi,rsi
    18f7:	48 b8 00 00 00 00 00 	movabs rax,0x0
    18fe:	00 00 00 
			18f9: R_X86_64_64	do_callback
    1901:	48 89 9c 24 d0 01 00 	mov    QWORD PTR [rsp+0x1d0],rbx
    1908:	00 
    1909:	48 89 bc 24 d8 01 00 	mov    QWORD PTR [rsp+0x1d8],rdi
    1910:	00 
    1911:	4c 89 ac 24 e0 01 00 	mov    QWORD PTR [rsp+0x1e0],r13
    1918:	00 
    1919:	ff d0                	call   rax
    191b:	48 8b 9c 24 d0 01 00 	mov    rbx,QWORD PTR [rsp+0x1d0]
    1922:	00 
    1923:	4c 8b ac 24 e0 01 00 	mov    r13,QWORD PTR [rsp+0x1e0]
    192a:	00 
    192b:	48 89 c6             	mov    rsi,rax
    192e:	48 89 b4 24 d0 01 00 	mov    QWORD PTR [rsp+0x1d0],rsi
    1935:	00 
    1936:	49 8b b4 24 98 00 00 	mov    rsi,QWORD PTR [r12+0x98]
    193d:	00 
    193e:	48 8b 7b 08          	mov    rdi,QWORD PTR [rbx+0x8]
    1942:	49 89 b4 24 98 00 00 	mov    QWORD PTR [r12+0x98],rsi
    1949:	00 
    194a:	4c 89 6e e0          	mov    QWORD PTR [rsi-0x20],r13
    194e:	4c 89 76 e8          	mov    QWORD PTR [rsi-0x18],r14
    1952:	b8 01 00 00 00       	mov    eax,0x1
    1957:	48 89 46 f0          	mov    QWORD PTR [rsi-0x10],rax
    195b:	b8 01 00 00 00       	mov    eax,0x1
    1960:	48 89 46 f8          	mov    QWORD PTR [rsi-0x8],rax
    1964:	48 31 f6             	xor    rsi,rsi
    1967:	48 b8 00 00 00 00 00 	movabs rax,0x0
    196e:	00 00 00 
			1969: R_X86_64_64	do_callback
    1971:	48 89 9c 24 d8 01 00 	mov    QWORD PTR [rsp+0x1d8],rbx
    1978:	00 
    1979:	48 89 bc 24 e0 01 00 	mov    QWORD PTR [rsp+0x1e0],rdi
    1980:	00 
    1981:	4c 89 ac 24 e8 01 00 	mov    QWORD PTR [rsp+0x1e8],r13
    1988:	00 
    1989:	ff d0                	call   rax
    198b:	48 8b 9c 24 d8 01 00 	mov    rbx,QWORD PTR [rsp+0x1d8]
    1992:	00 
    1993:	4c 8b ac 24 e8 01 00 	mov    r13,QWORD PTR [rsp+0x1e8]
    199a:	00 
    199b:	48 89 c6             	mov    rsi,rax
    199e:	48 89 b4 24 d8 01 00 	mov    QWORD PTR [rsp+0x1d8],rsi
    19a5:	00 
    19a6:	49 8b b4 24 98 00 00 	mov    rsi,QWORD PTR [r12+0x98]
    19ad:	00 
    19ae:	48 8b 7b 08          	mov    rdi,QWORD PTR [rbx+0x8]
    19b2:	49 89 b4 24 98 00 00 	mov    QWORD PTR [r12+0x98],rsi
    19b9:	00 
    19ba:	4c 89 6e e0          	mov    QWORD PTR [rsi-0x20],r13
    19be:	4c 89 76 e8          	mov    QWORD PTR [rsi-0x18],r14
    19c2:	b8 01 00 00 00       	mov    eax,0x1
    19c7:	48 89 46 f0          	mov    QWORD PTR [rsi-0x10],rax
    19cb:	b8 01 00 00 00       	mov    eax,0x1
    19d0:	48 89 46 f8          	mov    QWORD PTR [rsi-0x8],rax
    19d4:	48 31 f6             	xor    rsi,rsi
    19d7:	48 b8 00 00 00 00 00 	movabs rax,0x0
    19de:	00 00 00 
			19d9: R_X86_64_64	do_callback
    19e1:	48 89 9c 24 e0 01 00 	mov    QWORD PTR [rsp+0x1e0],rbx
    19e8:	00 
    19e9:	48 89 bc 24 e8 01 00 	mov    QWORD PTR [rsp+0x1e8],rdi
    19f0:	00 
    19f1:	4c 89 ac 24 f0 01 00 	mov    QWORD PTR [rsp+0x1f0],r13
    19f8:	00 
    19f9:	ff d0                	call   rax
    19fb:	48 8b 9c 24 e0 01 00 	mov    rbx,QWORD PTR [rsp+0x1e0]
    1a02:	00 
    1a03:	4c 8b ac 24 f0 01 00 	mov    r13,QWORD PTR [rsp+0x1f0]
    1a0a:	00 
    1a0b:	48 89 c6             	mov    rsi,rax
    1a0e:	48 89 b4 24 e0 01 00 	mov    QWORD PTR [rsp+0x1e0],rsi
    1a15:	00 
    1a16:	49 8b b4 24 98 00 00 	mov    rsi,QWORD PTR [r12+0x98]
    1a1d:	00 
    1a1e:	48 8b 7b 08          	mov    rdi,QWORD PTR [rbx+0x8]
    1a22:	49 89 b4 24 98 00 00 	mov    QWORD PTR [r12+0x98],rsi
    1a29:	00 
    1a2a:	4c 89 6e e0          	mov    QWORD PTR [rsi-0x20],r13
    1a2e:	4c 89 76 e8          	mov    QWORD PTR [rsi-0x18],r14
    1a32:	b8 01 00 00 00       	mov    eax,0x1
    1a37:	48 89 46 f0          	mov    QWORD PTR [rsi-0x10],rax
    1a3b:	b8 01 00 00 00       	mov    eax,0x1
    1a40:	48 89 46 f8          	mov    QWORD PTR [rsi-0x8],rax
    1a44:	48 31 f6             	xor    rsi,rsi
    1a47:	48 b8 00 00 00 00 00 	movabs rax,0x0
    1a4e:	00 00 00 
			1a49: R_X86_64_64	do_callback
    1a51:	48 89 9c 24 e8 01 00 	mov    QWORD PTR [rsp+0x1e8],rbx
    1a58:	00 
    1a59:	48 89 bc 24 f0 01 00 	mov    QWORD PTR [rsp+0x1f0],rdi
    1a60:	00 
    1a61:	4c 89 ac 24 f8 01 00 	mov    QWORD PTR [rsp+0x1f8],r13
    1a68:	00 
    1a69:	ff d0                	call   rax
    1a6b:	48 8b 9c 24 e8 01 00 	mov    rbx,QWORD PTR [rsp+0x1e8]
    1a72:	00 
    1a73:	4c 8b ac 24 f8 01 00 	mov    r13,QWORD PTR [rsp+0x1f8]
    1a7a:	00 
    1a7b:	48 89 c6             	mov    rsi,rax
    1a7e:	48 89 b4 24 e8 01 00 	mov    QWORD PTR [rsp+0x1e8],rsi
    1a85:	00 
    1a86:	49 8b b4 24 98 00 00 	mov    rsi,QWORD PTR [r12+0x98]
    1a8d:	00 
    1a8e:	48 8b 7b 08          	mov    rdi,QWORD PTR [rbx+0x8]
    1a92:	49 89 b4 24 98 00 00 	mov    QWORD PTR [r12+0x98],rsi
    1a99:	00 
    1a9a:	4c 89 6e e0          	mov    QWORD PTR [rsi-0x20],r13
    1a9e:	4c 89 76 e8          	mov    QWORD PTR [rsi-0x18],r14
    1aa2:	b8 01 00 00 00       	mov    eax,0x1
    1aa7:	48 89 46 f0          	mov    QWORD PTR [rsi-0x10],rax
    1aab:	b8 01 00 00 00       	mov    eax,0x1
    1ab0:	48 89 46 f8          	mov    QWORD PTR [rsi-0x8],rax
    1ab4:	48 31 f6             	xor    rsi,rsi
    1ab7:	48 b8 00 00 00 00 00 	movabs rax,0x0
    1abe:	00 00 00 
			1ab9: R_X86_64_64	do_callback
    1ac1:	48 89 9c 24 f0 01 00 	mov    QWORD PTR [rsp+0x1f0],rbx
    1ac8:	00 
    1ac9:	48 89 bc 24 f8 01 00 	mov    QWORD PTR [rsp+0x1f8],rdi
    1ad0:	00 
    1ad1:	4c 89 ac 24 00 02 00 	mov    QWORD PTR [rsp+0x200],r13
    1ad8:	00 
    1ad9:	ff d0                	call   rax
    1adb:	48 8b 9c 24 f0 01 00 	mov    rbx,QWORD PTR [rsp+0x1f0]
    1ae2:	00 
    1ae3:	4c 8b ac 24 00 02 00 	mov    r13,QWORD PTR [rsp+0x200]
    1aea:	00 
    1aeb:	48 89 c6             	mov    rsi,rax
    1aee:	48 89 b4 24 f0 01 00 	mov    QWORD PTR [rsp+0x1f0],rsi
    1af5:	00 
    1af6:	49 8b b4 24 98 00 00 	mov    rsi,QWORD PTR [r12+0x98]
    1afd:	00 
    1afe:	48 8b 7b 08          	mov    rdi,QWORD PTR [rbx+0x8]
    1b02:	49 89 b4 24 98 00 00 	mov    QWORD PTR [r12+0x98],rsi
    1b09:	00 
    1b0a:	4c 89 6e e0          	mov    QWORD PTR [rsi-0x20],r13
    1b0e:	4c 89 76 e8          	mov    QWORD PTR [rsi-0x18],r14
    1b12:	b8 01 00 00 00       	mov    eax,0x1
    1b17:	48 89 46 f0          	mov    QWORD PTR [rsi-0x10],rax
    1b1b:	b8 01 00 00 00       	mov    eax,0x1
    1b20:	48 89 46 f8          	mov    QWORD PTR [rsi-0x8],rax
    1b24:	48 31 f6             	xor    rsi,rsi
    1b27:	48 b8 00 00 00 00 00 	movabs rax,0x0
    1b2e:	00 00 00 
			1b29: R_X86_64_64	do_callback
    1b31:	48 89 9c 24 f8 01 00 	mov    QWORD PTR [rsp+0x1f8],rbx
    1b38:	00 
    1b39:	48 89 bc 24 00 02 00 	mov    QWORD PTR [rsp+0x200],rdi
    1b40:	00 
    1b41:	4c 89 ac 24 08 02 00 	mov    QWORD PTR [rsp+0x208],r13
    1b48:	00 
    1b49:	ff d0                	call   rax
    1b4b:	48 8b 9c 24 f8 01 00 	mov    rbx,QWORD PTR [rsp+0x1f8]
    1b52:	00 
    1b53:	4c 8b ac 24 08 02 00 	mov    r13,QWORD PTR [rsp+0x208]
    1b5a:	00 
    1b5b:	48 89 c6             	mov    rsi,rax
    1b5e:	48 89 b4 24 f8 01 00 	mov    QWORD PTR [rsp+0x1f8],rsi
    1b65:	00 
    1b66:	49 8b b4 24 98 00 00 	mov    rsi,QWORD PTR [r12+0x98]
    1b6d:	00 
    1b6e:	48 8b 7b 08          	mov    rdi,QWORD PTR [rbx+0x8]
    1b72:	49 89 b4 24 98 00 00 	mov    QWORD PTR [r12+0x98],rsi
    1b79:	00 
    1b7a:	4c 89 6e e0          	mov    QWORD PTR [rsi-0x20],r13
    1b7e:	4c 89 76 e8          	mov    QWORD PTR [rsi-0x18],r14
    1b82:	b8 01 00 00 00       	mov    eax,0x1
    1b87:	48 89 46 f0          	mov    QWORD PTR [rsi-0x10],rax
    1b8b:	b8 01 00 00 00       	mov    eax,0x1
    1b90:	48 89 46 f8          	mov    QWORD PTR [rsi-0x8],rax
    1b94:	48 31 f6             	xor    rsi,rsi
    1b97:	48 b8 00 00 00 00 00 	movabs rax,0x0
    1b9e:	00 00 00 
			1b99: R_X86_64_64	do_callback
    1ba1:	48 89 9c 24 00 02 00 	mov    QWORD PTR [rsp+0x200],rbx
    1ba8:	00 
    1ba9:	48 89 bc 24 08 02 00 	mov    QWORD PTR [rsp+0x208],rdi
    1bb0:	00 
    1bb1:	4c 89 ac 24 10 02 00 	mov    QWORD PTR [rsp+0x210],r13
    1bb8:	00 
    1bb9:	ff d0                	call   rax
    1bbb:	48 8b 9c 24 00 02 00 	mov    rbx,QWORD PTR [rsp+0x200]
    1bc2:	00 
    1bc3:	4c 8b ac 24 10 02 00 	mov    r13,QWORD PTR [rsp+0x210]
    1bca:	00 
    1bcb:	48 89 c6             	mov    rsi,rax
    1bce:	48 89 b4 24 00 02 00 	mov    QWORD PTR [rsp+0x200],rsi
    1bd5:	00 
    1bd6:	49 8b b4 24 98 00 00 	mov    rsi,QWORD PTR [r12+0x98]
    1bdd:	00 
    1bde:	48 8b 7b 08          	mov    rdi,QWORD PTR [rbx+0x8]
    1be2:	49 89 b4 24 98 00 00 	mov    QWORD PTR [r12+0x98],rsi
    1be9:	00 
    1bea:	4c 89 6e e0          	mov    QWORD PTR [rsi-0x20],r13
    1bee:	4c 89 76 e8          	mov    QWORD PTR [rsi-0x18],r14
    1bf2:	b8 01 00 00 00       	mov    eax,0x1
    1bf7:	48 89 46 f0          	mov    QWORD PTR [rsi-0x10],rax
    1bfb:	b8 01 00 00 00       	mov    eax,0x1
    1c00:	48 89 46 f8          	mov    QWORD PTR [rsi-0x8],rax
    1c04:	48 31 f6             	xor    rsi,rsi
    1c07:	48 b8 00 00 00 00 00 	movabs rax,0x0
    1c0e:	00 00 00 
			1c09: R_X86_64_64	do_callback
    1c11:	48 89 9c 24 08 02 00 	mov    QWORD PTR [rsp+0x208],rbx
    1c18:	00 
    1c19:	48 89 bc 24 10 02 00 	mov    QWORD PTR [rsp+0x210],rdi
    1c20:	00 
    1c21:	4c 89 ac 24 18 02 00 	mov    QWORD PTR [rsp+0x218],r13
    1c28:	00 
    1c29:	ff d0                	call   rax
    1c2b:	48 8b 9c 24 08 02 00 	mov    rbx,QWORD PTR [rsp+0x208]
    1c32:	00 
    1c33:	4c 8b ac 24 18 02 00 	mov    r13,QWORD PTR [rsp+0x218]
    1c3a:	00 
    1c3b:	48 89 c6             	mov    rsi,rax
    1c3e:	48 89 b4 24 08 02 00 	mov    QWORD PTR [rsp+0x208],rsi
    1c45:	00 
    1c46:	49 8b b4 24 98 00 00 	mov    rsi,QWORD PTR [r12+0x98]
    1c4d:	00 
    1c4e:	48 8b 7b 08          	mov    rdi,QWORD PTR [rbx+0x8]
    1c52:	49 89 b4 24 98 00 00 	mov    QWORD PTR [r12+0x98],rsi
    1c59:	00 
    1c5a:	4c 89 6e e0          	mov    QWORD PTR [rsi-0x20],r13
    1c5e:	4c 89 76 e8          	mov    QWORD PTR [rsi-0x18],r14
    1c62:	b8 01 00 00 00       	mov    eax,0x1
    1c67:	48 89 46 f0          	mov    QWORD PTR [rsi-0x10],rax
    1c6b:	b8 01 00 00 00       	mov    eax,0x1
    1c70:	48 89 46 f8          	mov    QWORD PTR [rsi-0x8],rax
    1c74:	48 31 f6             	xor    rsi,rsi
    1c77:	48 b8 00 00 00 00 00 	movabs rax,0x0
    1c7e:	00 00 00 
			1c79: R_X86_64_64	do_callback
    1c81:	48 89 9c 24 10 02 00 	mov    QWORD PTR [rsp+0x210],rbx
    1c88:	00 
    1c89:	48 89 bc 24 18 02 00 	mov    QWORD PTR [rsp+0x218],rdi
    1c90:	00 
    1c91:	4c 89 ac 24 20 02 00 	mov    QWORD PTR [rsp+0x220],r13
    1c98:	00 
    1c99:	ff d0                	call   rax
    1c9b:	48 8b 9c 24 10 02 00 	mov    rbx,QWORD PTR [rsp+0x210]
    1ca2:	00 
    1ca3:	4c 8b ac 24 20 02 00 	mov    r13,QWORD PTR [rsp+0x220]
    1caa:	00 
    1cab:	48 89 c6             	mov    rsi,rax
    1cae:	48 89 b4 24 10 02 00 	mov    QWORD PTR [rsp+0x210],rsi
    1cb5:	00 
    1cb6:	49 8b b4 24 98 00 00 	mov    rsi,QWORD PTR [r12+0x98]
    1cbd:	00 
    1cbe:	48 8b 7b 08          	mov    rdi,QWORD PTR [rbx+0x8]
    1cc2:	49 89 b4 24 98 00 00 	mov    QWORD PTR [r12+0x98],rsi
    1cc9:	00 
    1cca:	4c 89 6e e0          	mov    QWORD PTR [rsi-0x20],r13
    1cce:	4c 89 76 e8          	mov    QWORD PTR [rsi-0x18],r14
    1cd2:	b8 01 00 00 00       	mov    eax,0x1
    1cd7:	48 89 46 f0          	mov    QWORD PTR [rsi-0x10],rax
    1cdb:	b8 01 00 00 00       	mov    eax,0x1
    1ce0:	48 89 46 f8          	mov    QWORD PTR [rsi-0x8],rax
    1ce4:	48 31 f6             	xor    rsi,rsi
    1ce7:	48 b8 00 00 00 00 00 	movabs rax,0x0
    1cee:	00 00 00 
			1ce9: R_X86_64_64	do_callback
    1cf1:	48 89 9c 24 18 02 00 	mov    QWORD PTR [rsp+0x218],rbx
    1cf8:	00 
    1cf9:	48 89 bc 24 20 02 00 	mov    QWORD PTR [rsp+0x220],rdi
    1d00:	00 
    1d01:	4c 89 ac 24 28 02 00 	mov    QWORD PTR [rsp+0x228],r13
    1d08:	00 
    1d09:	ff d0                	call   rax
    1d0b:	48 8b 9c 24 18 02 00 	mov    rbx,QWORD PTR [rsp+0x218]
    1d12:	00 
    1d13:	4c 8b ac 24 28 02 00 	mov    r13,QWORD PTR [rsp+0x228]
    1d1a:	00 
    1d1b:	48 89 c6             	mov    rsi,rax
    1d1e:	48 89 b4 24 18 02 00 	mov    QWORD PTR [rsp+0x218],rsi
    1d25:	00 
    1d26:	49 8b b4 24 98 00 00 	mov    rsi,QWORD PTR [r12+0x98]
    1d2d:	00 
    1d2e:	48 8b 7b 08          	mov    rdi,QWORD PTR [rbx+0x8]
    1d32:	49 89 b4 24 98 00 00 	mov    QWORD PTR [r12+0x98],rsi
    1d39:	00 
    1d3a:	4c 89 6e e0          	mov    QWORD PTR [rsi-0x20],r13
    1d3e:	4c 89 76 e8          	mov    QWORD PTR [rsi-0x18],r14
    1d42:	b8 01 00 00 00       	mov    eax,0x1
    1d47:	48 89 46 f0          	mov    QWORD PTR [rsi-0x10],rax
    1d4b:	b8 01 00 00 00       	mov    eax,0x1
    1d50:	48 89 46 f8          	mov    QWORD PTR [rsi-0x8],rax
    1d54:	48 31 f6             	xor    rsi,rsi
    1d57:	48 b8 00 00 00 00 00 	movabs rax,0x0
    1d5e:	00 00 00 
			1d59: R_X86_64_64	do_callback
    1d61:	48 89 9c 24 20 02 00 	mov    QWORD PTR [rsp+0x220],rbx
    1d68:	00 
    1d69:	48 89 bc 24 28 02 00 	mov    QWORD PTR [rsp+0x228],rdi
    1d70:	00 
    1d71:	4c 89 ac 24 30 02 00 	mov    QWORD PTR [rsp+0x230],r13
    1d78:	00 
    1d79:	ff d0                	call   rax
    1d7b:	48 8b 9c 24 20 02 00 	mov    rbx,QWORD PTR [rsp+0x220]
    1d82:	00 
    1d83:	4c 8b ac 24 30 02 00 	mov    r13,QWORD PTR [rsp+0x230]
    1d8a:	00 
    1d8b:	48 89 c6             	mov    rsi,rax
    1d8e:	48 89 b4 24 20 02 00 	mov    QWORD PTR [rsp+0x220],rsi
    1d95:	00 
    1d96:	49 8b b4 24 98 00 00 	mov    rsi,QWORD PTR [r12+0x98]
    1d9d:	00 
    1d9e:	48 8b 7b 08          	mov    rdi,QWORD PTR [rbx+0x8]
    1da2:	49 89 b4 24 98 00 00 	mov    QWORD PTR [r12+0x98],rsi
    1da9:	00 
    1daa:	4c 89 6e e0          	mov    QWORD PTR [rsi-0x20],r13
    1dae:	4c 89 76 e8          	mov    QWORD PTR [rsi-0x18],r14
    1db2:	b8 01 00 00 00       	mov    eax,0x1
    1db7:	48 89 46 f0          	mov    QWORD PTR [rsi-0x10],rax
    1dbb:	b8 01 00 00 00       	mov    eax,0x1
    1dc0:	48 89 46 f8          	mov    QWORD PTR [rsi-0x8],rax
    1dc4:	48 31 f6             	xor    rsi,rsi
    1dc7:	48 b8 00 00 00 00 00 	movabs rax,0x0
    1dce:	00 00 00 
			1dc9: R_X86_64_64	do_callback
    1dd1:	48 89 9c 24 28 02 00 	mov    QWORD PTR [rsp+0x228],rbx
    1dd8:	00 
    1dd9:	48 89 bc 24 30 02 00 	mov    QWORD PTR [rsp+0x230],rdi
    1de0:	00 
    1de1:	4c 89 ac 24 38 02 00 	mov    QWORD PTR [rsp+0x238],r13
    1de8:	00 
    1de9:	ff d0                	call   rax
    1deb:	48 8b 9c 24 28 02 00 	mov    rbx,QWORD PTR [rsp+0x228]
    1df2:	00 
    1df3:	4c 8b ac 24 38 02 00 	mov    r13,QWORD PTR [rsp+0x238]
    1dfa:	00 
    1dfb:	48 89 c6             	mov    rsi,rax
    1dfe:	48 89 b4 24 28 02 00 	mov    QWORD PTR [rsp+0x228],rsi
    1e05:	00 
    1e06:	49 8b b4 24 98 00 00 	mov    rsi,QWORD PTR [r12+0x98]
    1e0d:	00 
    1e0e:	48 8b 7b 08          	mov    rdi,QWORD PTR [rbx+0x8]
    1e12:	49 89 b4 24 98 00 00 	mov    QWORD PTR [r12+0x98],rsi
    1e19:	00 
    1e1a:	4c 89 6e e0          	mov    QWORD PTR [rsi-0x20],r13
    1e1e:	4c 89 76 e8          	mov    QWORD PTR [rsi-0x18],r14
    1e22:	b8 01 00 00 00       	mov    eax,0x1
    1e27:	48 89 46 f0          	mov    QWORD PTR [rsi-0x10],rax
    1e2b:	b8 01 00 00 00       	mov    eax,0x1
    1e30:	48 89 46 f8          	mov    QWORD PTR [rsi-0x8],rax
    1e34:	48 31 f6             	xor    rsi,rsi
    1e37:	48 b8 00 00 00 00 00 	movabs rax,0x0
    1e3e:	00 00 00 
			1e39: R_X86_64_64	do_callback
    1e41:	48 89 9c 24 30 02 00 	mov    QWORD PTR [rsp+0x230],rbx
    1e48:	00 
    1e49:	48 89 bc 24 38 02 00 	mov    QWORD PTR [rsp+0x238],rdi
    1e50:	00 
    1e51:	4c 89 ac 24 40 02 00 	mov    QWORD PTR [rsp+0x240],r13
    1e58:	00 
    1e59:	ff d0                	call   rax
    1e5b:	48 8b 9c 24 30 02 00 	mov    rbx,QWORD PTR [rsp+0x230]
    1e62:	00 
    1e63:	4c 8b ac 24 40 02 00 	mov    r13,QWORD PTR [rsp+0x240]
    1e6a:	00 
    1e6b:	48 89 c6             	mov    rsi,rax
    1e6e:	48 89 b4 24 30 02 00 	mov    QWORD PTR [rsp+0x230],rsi
    1e75:	00 
    1e76:	49 8b b4 24 98 00 00 	mov    rsi,QWORD PTR [r12+0x98]
    1e7d:	00 
    1e7e:	48 8b 7b 08          	mov    rdi,QWORD PTR [rbx+0x8]
    1e82:	49 89 b4 24 98 00 00 	mov    QWORD PTR [r12+0x98],rsi
    1e89:	00 
    1e8a:	4c 89 6e e0          	mov    QWORD PTR [rsi-0x20],r13
    1e8e:	4c 89 76 e8          	mov    QWORD PTR [rsi-0x18],r14
    1e92:	b8 01 00 00 00       	mov    eax,0x1
    1e97:	48 89 46 f0          	mov    QWORD PTR [rsi-0x10],rax
    1e9b:	b8 01 00 00 00       	mov    eax,0x1
    1ea0:	48 89 46 f8          	mov    QWORD PTR [rsi-0x8],rax
    1ea4:	48 31 f6             	xor    rsi,rsi
    1ea7:	48 b8 00 00 00 00 00 	movabs rax,0x0
    1eae:	00 00 00 
			1ea9: R_X86_64_64	do_callback
    1eb1:	48 89 9c 24 38 02 00 	mov    QWORD PTR [rsp+0x238],rbx
    1eb8:	00 
    1eb9:	48 89 bc 24 40 02 00 	mov    QWORD PTR [rsp+0x240],rdi
    1ec0:	00 
    1ec1:	4c 89 ac 24 48 02 00 	mov    QWORD PTR [rsp+0x248],r13
    1ec8:	00 
    1ec9:	ff d0                	call   rax
    1ecb:	48 8b 9c 24 38 02 00 	mov    rbx,QWORD PTR [rsp+0x238]
    1ed2:	00 
    1ed3:	4c 8b ac 24 48 02 00 	mov    r13,QWORD PTR [rsp+0x248]
    1eda:	00 
    1edb:	48 89 c6             	mov    rsi,rax
    1ede:	48 89 b4 24 38 02 00 	mov    QWORD PTR [rsp+0x238],rsi
    1ee5:	00 
    1ee6:	49 8b b4 24 98 00 00 	mov    rsi,QWORD PTR [r12+0x98]
    1eed:	00 
    1eee:	48 8b 7b 08          	mov    rdi,QWORD PTR [rbx+0x8]
    1ef2:	49 89 b4 24 98 00 00 	mov    QWORD PTR [r12+0x98],rsi
    1ef9:	00 
    1efa:	4c 89 6e e0          	mov    QWORD PTR [rsi-0x20],r13
    1efe:	4c 89 76 e8          	mov    QWORD PTR [rsi-0x18],r14
    1f02:	b8 01 00 00 00       	mov    eax,0x1
    1f07:	48 89 46 f0          	mov    QWORD PTR [rsi-0x10],rax
    1f0b:	b8 01 00 00 00       	mov    eax,0x1
    1f10:	48 89 46 f8          	mov    QWORD PTR [rsi-0x8],rax
    1f14:	48 31 f6             	xor    rsi,rsi
    1f17:	48 b8 00 00 00 00 00 	movabs rax,0x0
    1f1e:	00 00 00 
			1f19: R_X86_64_64	do_callback
    1f21:	48 89 9c 24 40 02 00 	mov    QWORD PTR [rsp+0x240],rbx
    1f28:	00 
    1f29:	48 89 bc 24 48 02 00 	mov    QWORD PTR [rsp+0x248],rdi
    1f30:	00 
    1f31:	4c 89 ac 24 50 02 00 	mov    QWORD PTR [rsp+0x250],r13
    1f38:	00 
    1f39:	ff d0                	call   rax
    1f3b:	48 8b 9c 24 40 02 00 	mov    rbx,QWORD PTR [rsp+0x240]
    1f42:	00 
    1f43:	4c 8b ac 24 50 02 00 	mov    r13,QWORD PTR [rsp+0x250]
    1f4a:	00 
    1f4b:	48 89 c6             	mov    rsi,rax
    1f4e:	48 89 b4 24 40 02 00 	mov    QWORD PTR [rsp+0x240],rsi
    1f55:	00 
    1f56:	49 8b b4 24 98 00 00 	mov    rsi,QWORD PTR [r12+0x98]
    1f5d:	00 
    1f5e:	48 8b 7b 08          	mov    rdi,QWORD PTR [rbx+0x8]
    1f62:	49 89 b4 24 98 00 00 	mov    QWORD PTR [r12+0x98],rsi
    1f69:	00 
    1f6a:	4c 89 6e e0          	mov    QWORD PTR [rsi-0x20],r13
    1f6e:	4c 89 76 e8          	mov    QWORD PTR [rsi-0x18],r14
    1f72:	b8 01 00 00 00       	mov    eax,0x1
    1f77:	48 89 46 f0          	mov    QWORD PTR [rsi-0x10],rax
    1f7b:	b8 01 00 00 00       	mov    eax,0x1
    1f80:	48 89 46 f8          	mov    QWORD PTR [rsi-0x8],rax
    1f84:	48 31 f6             	xor    rsi,rsi
    1f87:	48 b8 00 00 00 00 00 	movabs rax,0x0
    1f8e:	00 00 00 
			1f89: R_X86_64_64	do_callback
    1f91:	48 89 9c 24 48 02 00 	mov    QWORD PTR [rsp+0x248],rbx
    1f98:	00 
    1f99:	48 89 bc 24 50 02 00 	mov    QWORD PTR [rsp+0x250],rdi
    1fa0:	00 
    1fa1:	4c 89 ac 24 58 02 00 	mov    QWORD PTR [rsp+0x258],r13
    1fa8:	00 
    1fa9:	ff d0                	call   rax
    1fab:	48 8b 9c 24 48 02 00 	mov    rbx,QWORD PTR [rsp+0x248]
    1fb2:	00 
    1fb3:	4c 8b ac 24 58 02 00 	mov    r13,QWORD PTR [rsp+0x258]
    1fba:	00 
    1fbb:	48 89 c6             	mov    rsi,rax
    1fbe:	48 89 b4 24 48 02 00 	mov    QWORD PTR [rsp+0x248],rsi
    1fc5:	00 
    1fc6:	49 8b b4 24 98 00 00 	mov    rsi,QWORD PTR [r12+0x98]
    1fcd:	00 
    1fce:	48 8b 7b 08          	mov    rdi,QWORD PTR [rbx+0x8]
    1fd2:	49 89 b4 24 98 00 00 	mov    QWORD PTR [r12+0x98],rsi
    1fd9:	00 
    1fda:	4c 89 6e e0          	mov    QWORD PTR [rsi-0x20],r13
    1fde:	4c 89 76 e8          	mov    QWORD PTR [rsi-0x18],r14
    1fe2:	b8 01 00 00 00       	mov    eax,0x1
    1fe7:	48 89 46 f0          	mov    QWORD PTR [rsi-0x10],rax
    1feb:	b8 01 00 00 00       	mov    eax,0x1
    1ff0:	48 89 46 f8          	mov    QWORD PTR [rsi-0x8],rax
    1ff4:	48 31 f6             	xor    rsi,rsi
    1ff7:	48 b8 00 00 00 00 00 	movabs rax,0x0
    1ffe:	00 00 00 
			1ff9: R_X86_64_64	do_callback
    2001:	48 89 9c 24 50 02 00 	mov    QWORD PTR [rsp+0x250],rbx
    2008:	00 
    2009:	48 89 bc 24 58 02 00 	mov    QWORD PTR [rsp+0x258],rdi
    2010:	00 
    2011:	4c 89 ac 24 60 02 00 	mov    QWORD PTR [rsp+0x260],r13
    2018:	00 
    2019:	ff d0                	call   rax
    201b:	48 8b 9c 24 50 02 00 	mov    rbx,QWORD PTR [rsp+0x250]
    2022:	00 
    2023:	4c 8b ac 24 60 02 00 	mov    r13,QWORD PTR [rsp+0x260]
    202a:	00 
    202b:	48 89 c6             	mov    rsi,rax
    202e:	48 89 b4 24 50 02 00 	mov    QWORD PTR [rsp+0x250],rsi
    2035:	00 
    2036:	49 8b b4 24 98 00 00 	mov    rsi,QWORD PTR [r12+0x98]
    203d:	00 
    203e:	48 8b 7b 08          	mov    rdi,QWORD PTR [rbx+0x8]
    2042:	49 89 b4 24 98 00 00 	mov    QWORD PTR [r12+0x98],rsi
    2049:	00 
    204a:	4c 89 6e e0          	mov    QWORD PTR [rsi-0x20],r13
    204e:	4c 89 76 e8          	mov    QWORD PTR [rsi-0x18],r14
    2052:	b8 01 00 00 00       	mov    eax,0x1
    2057:	48 89 46 f0          	mov    QWORD PTR [rsi-0x10],rax
    205b:	b8 01 00 00 00       	mov    eax,0x1
    2060:	48 89 46 f8          	mov    QWORD PTR [rsi-0x8],rax
    2064:	48 31 f6             	xor    rsi,rsi
    2067:	48 b8 00 00 00 00 00 	movabs rax,0x0
    206e:	00 00 00 
			2069: R_X86_64_64	do_callback
    2071:	48 89 9c 24 58 02 00 	mov    QWORD PTR [rsp+0x258],rbx
    2078:	00 
    2079:	48 89 bc 24 60 02 00 	mov    QWORD PTR [rsp+0x260],rdi
    2080:	00 
    2081:	4c 89 ac 24 68 02 00 	mov    QWORD PTR [rsp+0x268],r13
    2088:	00 
    2089:	ff d0                	call   rax
    208b:	48 8b 9c 24 58 02 00 	mov    rbx,QWORD PTR [rsp+0x258]
    2092:	00 
    2093:	4c 8b ac 24 68 02 00 	mov    r13,QWORD PTR [rsp+0x268]
    209a:	00 
    209b:	48 89 c6             	mov    rsi,rax
    209e:	48 89 b4 24 58 02 00 	mov    QWORD PTR [rsp+0x258],rsi
    20a5:	00 
    20a6:	49 8b b4 24 98 00 00 	mov    rsi,QWORD PTR [r12+0x98]
    20ad:	00 
    20ae:	48 8b 7b 08          	mov    rdi,QWORD PTR [rbx+0x8]
    20b2:	49 89 b4 24 98 00 00 	mov    QWORD PTR [r12+0x98],rsi
    20b9:	00 
    20ba:	4c 89 6e e0          	mov    QWORD PTR [rsi-0x20],r13
    20be:	4c 89 76 e8          	mov    QWORD PTR [rsi-0x18],r14
    20c2:	b8 01 00 00 00       	mov    eax,0x1
    20c7:	48 89 46 f0          	mov    QWORD PTR [rsi-0x10],rax
    20cb:	b8 01 00 00 00       	mov    eax,0x1
    20d0:	48 89 46 f8          	mov    QWORD PTR [rsi-0x8],rax
    20d4:	48 31 f6             	xor    rsi,rsi
    20d7:	48 b8 00 00 00 00 00 	movabs rax,0x0
    20de:	00 00 00 
			20d9: R_X86_64_64	do_callback
    20e1:	48 89 9c 24 60 02 00 	mov    QWORD PTR [rsp+0x260],rbx
    20e8:	00 
    20e9:	48 89 bc 24 68 02 00 	mov    QWORD PTR [rsp+0x268],rdi
    20f0:	00 
    20f1:	4c 89 ac 24 70 02 00 	mov    QWORD PTR [rsp+0x270],r13
    20f8:	00 
    20f9:	ff d0                	call   rax
    20fb:	48 8b 9c 24 60 02 00 	mov    rbx,QWORD PTR [rsp+0x260]
    2102:	00 
    2103:	4c 8b ac 24 70 02 00 	mov    r13,QWORD PTR [rsp+0x270]
    210a:	00 
    210b:	48 89 c6             	mov    rsi,rax
    210e:	48 89 b4 24 60 02 00 	mov    QWORD PTR [rsp+0x260],rsi
    2115:	00 
    2116:	49 8b b4 24 98 00 00 	mov    rsi,QWORD PTR [r12+0x98]
    211d:	00 
    211e:	48 8b 7b 08          	mov    rdi,QWORD PTR [rbx+0x8]
    2122:	49 89 b4 24 98 00 00 	mov    QWORD PTR [r12+0x98],rsi
    2129:	00 
    212a:	4c 89 6e e0          	mov    QWORD PTR [rsi-0x20],r13
    212e:	4c 89 76 e8          	mov    QWORD PTR [rsi-0x18],r14
    2132:	b8 01 00 00 00       	mov    eax,0x1
    2137:	48 89 46 f0          	mov    QWORD PTR [rsi-0x10],rax
    213b:	b8 01 00 00 00       	mov    eax,0x1
    2140:	48 89 46 f8          	mov    QWORD PTR [rsi-0x8],rax
    2144:	48 31 f6             	xor    rsi,rsi
    2147:	48 b8 00 00 00 00 00 	movabs rax,0x0
    214e:	00 00 00 
			2149: R_X86_64_64	do_callback
    2151:	48 89 9c 24 68 02 00 	mov    QWORD PTR [rsp+0x268],rbx
    2158:	00 
    2159:	48 89 bc 24 70 02 00 	mov    QWORD PTR [rsp+0x270],rdi
    2160:	00 
    2161:	4c 89 ac 24 78 02 00 	mov    QWORD PTR [rsp+0x278],r13
    2168:	00 
    2169:	ff d0                	call   rax
    216b:	48 8b 9c 24 68 02 00 	mov    rbx,QWORD PTR [rsp+0x268]
    2172:	00 
    2173:	4c 8b ac 24 78 02 00 	mov    r13,QWORD PTR [rsp+0x278]
    217a:	00 
    217b:	48 89 c6             	mov    rsi,rax
    217e:	48 89 b4 24 68 02 00 	mov    QWORD PTR [rsp+0x268],rsi
    2185:	00 
    2186:	49 8b b4 24 98 00 00 	mov    rsi,QWORD PTR [r12+0x98]
    218d:	00 
    218e:	48 8b 7b 08          	mov    rdi,QWORD PTR [rbx+0x8]
    2192:	49 89 b4 24 98 00 00 	mov    QWORD PTR [r12+0x98],rsi
    2199:	00 
    219a:	4c 89 6e e0          	mov    QWORD PTR [rsi-0x20],r13
    219e:	4c 89 76 e8          	mov    QWORD PTR [rsi-0x18],r14
    21a2:	b8 01 00 00 00       	mov    eax,0x1
    21a7:	48 89 46 f0          	mov    QWORD PTR [rsi-0x10],rax
    21ab:	b8 01 00 00 00       	mov    eax,0x1
    21b0:	48 89 46 f8          	mov    QWORD PTR [rsi-0x8],rax
    21b4:	48 31 f6             	xor    rsi,rsi
    21b7:	48 b8 00 00 00 00 00 	movabs rax,0x0
    21be:	00 00 00 
			21b9: R_X86_64_64	do_callback
    21c1:	48 89 9c 24 70 02 00 	mov    QWORD PTR [rsp+0x270],rbx
    21c8:	00 
    21c9:	48 89 bc 24 78 02 00 	mov    QWORD PTR [rsp+0x278],rdi
    21d0:	00 
    21d1:	4c 89 ac 24 80 02 00 	mov    QWORD PTR [rsp+0x280],r13
    21d8:	00 
    21d9:	ff d0                	call   rax
    21db:	48 8b 9c 24 70 02 00 	mov    rbx,QWORD PTR [rsp+0x270]
    21e2:	00 
    21e3:	4c 8b ac 24 80 02 00 	mov    r13,QWORD PTR [rsp+0x280]
    21ea:	00 
    21eb:	48 89 c6             	mov    rsi,rax
    21ee:	48 89 b4 24 70 02 00 	mov    QWORD PTR [rsp+0x270],rsi
    21f5:	00 
    21f6:	49 8b b4 24 98 00 00 	mov    rsi,QWORD PTR [r12+0x98]
    21fd:	00 
    21fe:	48 8b 7b 08          	mov    rdi,QWORD PTR [rbx+0x8]
    2202:	49 89 b4 24 98 00 00 	mov    QWORD PTR [r12+0x98],rsi
    2209:	00 
    220a:	4c 89 6e e0          	mov    QWORD PTR [rsi-0x20],r13
    220e:	4c 89 76 e8          	mov    QWORD PTR [rsi-0x18],r14
    2212:	b8 01 00 00 00       	mov    eax,0x1
    2217:	48 89 46 f0          	mov    QWORD PTR [rsi-0x10],rax
    221b:	b8 01 00 00 00       	mov    eax,0x1
    2220:	48 89 46 f8          	mov    QWORD PTR [rsi-0x8],rax
    2224:	48 31 f6             	xor    rsi,rsi
    2227:	48 b8 00 00 00 00 00 	movabs rax,0x0
    222e:	00 00 00 
			2229: R_X86_64_64	do_callback
    2231:	48 89 9c 24 78 02 00 	mov    QWORD PTR [rsp+0x278],rbx
    2238:	00 
    2239:	48 89 bc 24 80 02 00 	mov    QWORD PTR [rsp+0x280],rdi
    2240:	00 
    2241:	4c 89 ac 24 88 02 00 	mov    QWORD PTR [rsp+0x288],r13
    2248:	00 
    2249:	ff d0                	call   rax
    224b:	48 8b 9c 24 78 02 00 	mov    rbx,QWORD PTR [rsp+0x278]
    2252:	00 
    2253:	4c 8b ac 24 88 02 00 	mov    r13,QWORD PTR [rsp+0x288]
    225a:	00 
    225b:	48 89 c6             	mov    rsi,rax
    225e:	48 89 b4 24 78 02 00 	mov    QWORD PTR [rsp+0x278],rsi
    2265:	00 
    2266:	49 8b b4 24 98 00 00 	mov    rsi,QWORD PTR [r12+0x98]
    226d:	00 
    226e:	48 8b 7b 08          	mov    rdi,QWORD PTR [rbx+0x8]
    2272:	49 89 b4 24 98 00 00 	mov    QWORD PTR [r12+0x98],rsi
    2279:	00 
    227a:	4c 89 6e e0          	mov    QWORD PTR [rsi-0x20],r13
    227e:	4c 89 76 e8          	mov    QWORD PTR [rsi-0x18],r14
    2282:	b8 01 00 00 00       	mov    eax,0x1
    2287:	48 89 46 f0          	mov    QWORD PTR [rsi-0x10],rax
    228b:	b8 01 00 00 00       	mov    eax,0x1
    2290:	48 89 46 f8          	mov    QWORD PTR [rsi-0x8],rax
    2294:	48 31 f6             	xor    rsi,rsi
    2297:	48 b8 00 00 00 00 00 	movabs rax,0x0
    229e:	00 00 00 
			2299: R_X86_64_64	do_callback
    22a1:	48 89 9c 24 80 02 00 	mov    QWORD PTR [rsp+0x280],rbx
    22a8:	00 
    22a9:	48 89 bc 24 88 02 00 	mov    QWORD PTR [rsp+0x288],rdi
    22b0:	00 
    22b1:	4c 89 ac 24 90 02 00 	mov    QWORD PTR [rsp+0x290],r13
    22b8:	00 
    22b9:	ff d0                	call   rax
    22bb:	48 8b 9c 24 80 02 00 	mov    rbx,QWORD PTR [rsp+0x280]
    22c2:	00 
    22c3:	4c 8b ac 24 90 02 00 	mov    r13,QWORD PTR [rsp+0x290]
    22ca:	00 
    22cb:	48 89 c6             	mov    rsi,rax
    22ce:	48 89 b4 24 80 02 00 	mov    QWORD PTR [rsp+0x280],rsi
    22d5:	00 
    22d6:	49 8b b4 24 98 00 00 	mov    rsi,QWORD PTR [r12+0x98]
    22dd:	00 
    22de:	48 8b 7b 08          	mov    rdi,QWORD PTR [rbx+0x8]
    22e2:	49 89 b4 24 98 00 00 	mov    QWORD PTR [r12+0x98],rsi
    22e9:	00 
    22ea:	4c 89 6e e0          	mov    QWORD PTR [rsi-0x20],r13
    22ee:	4c 89 76 e8          	mov    QWORD PTR [rsi-0x18],r14
    22f2:	b8 01 00 00 00       	mov    eax,0x1
    22f7:	48 89 46 f0          	mov    QWORD PTR [rsi-0x10],rax
    22fb:	b8 01 00 00 00       	mov    eax,0x1
    2300:	48 89 46 f8          	mov    QWORD PTR [rsi-0x8],rax
    2304:	48 31 f6             	xor    rsi,rsi
    2307:	48 b8 00 00 00 00 00 	movabs rax,0x0
    230e:	00 00 00 
			2309: R_X86_64_64	do_callback
    2311:	48 89 9c 24 88 02 00 	mov    QWORD PTR [rsp+0x288],rbx
    2318:	00 
    2319:	48 89 bc 24 90 02 00 	mov    QWORD PTR [rsp+0x290],rdi
    2320:	00 
    2321:	4c 89 ac 24 98 02 00 	mov    QWORD PTR [rsp+0x298],r13
    2328:	00 
    2329:	ff d0                	call   rax
    232b:	48 8b 9c 24 88 02 00 	mov    rbx,QWORD PTR [rsp+0x288]
    2332:	00 
    2333:	4c 8b ac 24 98 02 00 	mov    r13,QWORD PTR [rsp+0x298]
    233a:	00 
    233b:	48 89 c6             	mov    rsi,rax
    233e:	48 89 b4 24 88 02 00 	mov    QWORD PTR [rsp+0x288],rsi
    2345:	00 
    2346:	49 8b b4 24 98 00 00 	mov    rsi,QWORD PTR [r12+0x98]
    234d:	00 
    234e:	48 8b 7b 08          	mov    rdi,QWORD PTR [rbx+0x8]
    2352:	49 89 b4 24 98 00 00 	mov    QWORD PTR [r12+0x98],rsi
    2359:	00 
    235a:	4c 89 6e e0          	mov    QWORD PTR [rsi-0x20],r13
    235e:	4c 89 76 e8          	mov    QWORD PTR [rsi-0x18],r14
    2362:	b8 01 00 00 00       	mov    eax,0x1
    2367:	48 89 46 f0          	mov    QWORD PTR [rsi-0x10],rax
    236b:	b8 01 00 00 00       	mov    eax,0x1
    2370:	48 89 46 f8          	mov    QWORD PTR [rsi-0x8],rax
    2374:	48 31 f6             	xor    rsi,rsi
    2377:	48 b8 00 00 00 00 00 	movabs rax,0x0
    237e:	00 00 00 
			2379: R_X86_64_64	do_callback
    2381:	48 89 9c 24 90 02 00 	mov    QWORD PTR [rsp+0x290],rbx
    2388:	00 
    2389:	48 89 bc 24 98 02 00 	mov    QWORD PTR [rsp+0x298],rdi
    2390:	00 
    2391:	4c 89 ac 24 a0 02 00 	mov    QWORD PTR [rsp+0x2a0],r13
    2398:	00 
    2399:	ff d0                	call   rax
    239b:	48 8b 9c 24 90 02 00 	mov    rbx,QWORD PTR [rsp+0x290]
    23a2:	00 
    23a3:	4c 8b ac 24 a0 02 00 	mov    r13,QWORD PTR [rsp+0x2a0]
    23aa:	00 
    23ab:	48 89 c6             	mov    rsi,rax
    23ae:	48 89 b4 24 90 02 00 	mov    QWORD PTR [rsp+0x290],rsi
    23b5:	00 
    23b6:	49 8b b4 24 98 00 00 	mov    rsi,QWORD PTR [r12+0x98]
    23bd:	00 
    23be:	48 8b 7b 08          	mov    rdi,QWORD PTR [rbx+0x8]
    23c2:	49 89 b4 24 98 00 00 	mov    QWORD PTR [r12+0x98],rsi
    23c9:	00 
    23ca:	4c 89 6e e0          	mov    QWORD PTR [rsi-0x20],r13
    23ce:	4c 89 76 e8          	mov    QWORD PTR [rsi-0x18],r14
    23d2:	b8 01 00 00 00       	mov    eax,0x1
    23d7:	48 89 46 f0          	mov    QWORD PTR [rsi-0x10],rax
    23db:	b8 01 00 00 00       	mov    eax,0x1
    23e0:	48 89 46 f8          	mov    QWORD PTR [rsi-0x8],rax
    23e4:	48 31 f6             	xor    rsi,rsi
    23e7:	48 b8 00 00 00 00 00 	movabs rax,0x0
    23ee:	00 00 00 
			23e9: R_X86_64_64	do_callback
    23f1:	48 89 9c 24 98 02 00 	mov    QWORD PTR [rsp+0x298],rbx
    23f8:	00 
    23f9:	48 89 bc 24 a0 02 00 	mov    QWORD PTR [rsp+0x2a0],rdi
    2400:	00 
    2401:	4c 89 ac 24 a8 02 00 	mov    QWORD PTR [rsp+0x2a8],r13
    2408:	00 
    2409:	ff d0                	call   rax
    240b:	48 8b 9c 24 98 02 00 	mov    rbx,QWORD PTR [rsp+0x298]
    2412:	00 
    2413:	4c 8b ac 24 a8 02 00 	mov    r13,QWORD PTR [rsp+0x2a8]
    241a:	00 
    241b:	48 89 c6             	mov    rsi,rax
    241e:	48 89 b4 24 98 02 00 	mov    QWORD PTR [rsp+0x298],rsi
    2425:	00 
    2426:	49 8b b4 24 98 00 00 	mov    rsi,QWORD PTR [r12+0x98]
    242d:	00 
    242e:	48 8b 7b 08          	mov    rdi,QWORD PTR [rbx+0x8]
    2432:	49 89 b4 24 98 00 00 	mov    QWORD PTR [r12+0x98],rsi
    2439:	00 
    243a:	4c 89 6e e0          	mov    QWORD PTR [rsi-0x20],r13
    243e:	4c 89 76 e8          	mov    QWORD PTR [rsi-0x18],r14
    2442:	b8 01 00 00 00       	mov    eax,0x1
    2447:	48 89 46 f0          	mov    QWORD PTR [rsi-0x10],rax
    244b:	b8 01 00 00 00       	mov    eax,0x1
    2450:	48 89 46 f8          	mov    QWORD PTR [rsi-0x8],rax
    2454:	48 31 f6             	xor    rsi,rsi
    2457:	48 b8 00 00 00 00 00 	movabs rax,0x0
    245e:	00 00 00 
			2459: R_X86_64_64	do_callback
    2461:	48 89 9c 24 a0 02 00 	mov    QWORD PTR [rsp+0x2a0],rbx
    2468:	00 
    2469:	48 89 bc 24 a8 02 00 	mov    QWORD PTR [rsp+0x2a8],rdi
    2470:	00 
    2471:	4c 89 ac 24 b0 02 00 	mov    QWORD PTR [rsp+0x2b0],r13
    2478:	00 
    2479:	ff d0                	call   rax
    247b:	48 8b 9c 24 a0 02 00 	mov    rbx,QWORD PTR [rsp+0x2a0]
    2482:	00 
    2483:	4c 8b ac 24 b0 02 00 	mov    r13,QWORD PTR [rsp+0x2b0]
    248a:	00 
    248b:	48 89 c6             	mov    rsi,rax
    248e:	48 89 b4 24 a0 02 00 	mov    QWORD PTR [rsp+0x2a0],rsi
    2495:	00 
    2496:	49 8b b4 24 98 00 00 	mov    rsi,QWORD PTR [r12+0x98]
    249d:	00 
    249e:	48 8b 7b 08          	mov    rdi,QWORD PTR [rbx+0x8]
    24a2:	49 89 b4 24 98 00 00 	mov    QWORD PTR [r12+0x98],rsi
    24a9:	00 
    24aa:	4c 89 6e e0          	mov    QWORD PTR [rsi-0x20],r13
    24ae:	4c 89 76 e8          	mov    QWORD PTR [rsi-0x18],r14
    24b2:	b8 01 00 00 00       	mov    eax,0x1
    24b7:	48 89 46 f0          	mov    QWORD PTR [rsi-0x10],rax
    24bb:	b8 01 00 00 00       	mov    eax,0x1
    24c0:	48 89 46 f8          	mov    QWORD PTR [rsi-0x8],rax
    24c4:	48 31 f6             	xor    rsi,rsi
    24c7:	48 b8 00 00 00 00 00 	movabs rax,0x0
    24ce:	00 00 00 
			24c9: R_X86_64_64	do_callback
    24d1:	48 89 9c 24 a8 02 00 	mov    QWORD PTR [rsp+0x2a8],rbx
    24d8:	00 
    24d9:	48 89 bc 24 b0 02 00 	mov    QWORD PTR [rsp+0x2b0],rdi
    24e0:	00 
    24e1:	4c 89 ac 24 b8 02 00 	mov    QWORD PTR [rsp+0x2b8],r13
    24e8:	00 
    24e9:	ff d0                	call   rax
    24eb:	48 8b 9c 24 a8 02 00 	mov    rbx,QWORD PTR [rsp+0x2a8]
    24f2:	00 
    24f3:	4c 8b ac 24 b8 02 00 	mov    r13,QWORD PTR [rsp+0x2b8]
    24fa:	00 
    24fb:	48 89 c6             	mov    rsi,rax
    24fe:	48 89 b4 24 a8 02 00 	mov    QWORD PTR [rsp+0x2a8],rsi
    2505:	00 
    2506:	49 8b b4 24 98 00 00 	mov    rsi,QWORD PTR [r12+0x98]
    250d:	00 
    250e:	48 8b 7b 08          	mov    rdi,QWORD PTR [rbx+0x8]
    2512:	49 89 b4 24 98 00 00 	mov    QWORD PTR [r12+0x98],rsi
    2519:	00 
    251a:	4c 89 6e e0          	mov    QWORD PTR [rsi-0x20],r13
    251e:	4c 89 76 e8          	mov    QWORD PTR [rsi-0x18],r14
    2522:	b8 01 00 00 00       	mov    eax,0x1
    2527:	48 89 46 f0          	mov    QWORD PTR [rsi-0x10],rax
    252b:	b8 01 00 00 00       	mov    eax,0x1
    2530:	48 89 46 f8          	mov    QWORD PTR [rsi-0x8],rax
    2534:	48 31 f6             	xor    rsi,rsi
    2537:	48 b8 00 00 00 00 00 	movabs rax,0x0
    253e:	00 00 00 
			2539: R_X86_64_64	do_callback
    2541:	48 89 9c 24 b0 02 00 	mov    QWORD PTR [rsp+0x2b0],rbx
    2548:	00 
    2549:	48 89 bc 24 b8 02 00 	mov    QWORD PTR [rsp+0x2b8],rdi
    2550:	00 
    2551:	4c 89 ac 24 c0 02 00 	mov    QWORD PTR [rsp+0x2c0],r13
    2558:	00 
    2559:	ff d0                	call   rax
    255b:	48 8b 9c 24 b0 02 00 	mov    rbx,QWORD PTR [rsp+0x2b0]
    2562:	00 
    2563:	4c 8b ac 24 c0 02 00 	mov    r13,QWORD PTR [rsp+0x2c0]
    256a:	00 
    256b:	48 89 c6             	mov    rsi,rax
    256e:	48 89 b4 24 b0 02 00 	mov    QWORD PTR [rsp+0x2b0],rsi
    2575:	00 
    2576:	49 8b b4 24 98 00 00 	mov    rsi,QWORD PTR [r12+0x98]
    257d:	00 
    257e:	48 8b 7b 08          	mov    rdi,QWORD PTR [rbx+0x8]
    2582:	49 89 b4 24 98 00 00 	mov    QWORD PTR [r12+0x98],rsi
    2589:	00 
    258a:	4c 89 6e e0          	mov    QWORD PTR [rsi-0x20],r13
    258e:	4c 89 76 e8          	mov    QWORD PTR [rsi-0x18],r14
    2592:	b8 01 00 00 00       	mov    eax,0x1
    2597:	48 89 46 f0          	mov    QWORD PTR [rsi-0x10],rax
    259b:	b8 01 00 00 00       	mov    eax,0x1
    25a0:	48 89 46 f8          	mov    QWORD PTR [rsi-0x8],rax
    25a4:	48 31 f6             	xor    rsi,rsi
    25a7:	48 b8 00 00 00 00 00 	movabs rax,0x0
    25ae:	00 00 00 
			25a9: R_X86_64_64	do_callback
    25b1:	48 89 9c 24 b8 02 00 	mov    QWORD PTR [rsp+0x2b8],rbx
    25b8:	00 
    25b9:	48 89 bc 24 c0 02 00 	mov    QWORD PTR [rsp+0x2c0],rdi
    25c0:	00 
    25c1:	4c 89 ac 24 c8 02 00 	mov    QWORD PTR [rsp+0x2c8],r13
    25c8:	00 
    25c9:	ff d0                	call   rax
    25cb:	48 8b 9c 24 b8 02 00 	mov    rbx,QWORD PTR [rsp+0x2b8]
    25d2:	00 
    25d3:	4c 8b ac 24 c8 02 00 	mov    r13,QWORD PTR [rsp+0x2c8]
    25da:	00 
    25db:	48 89 c6             	mov    rsi,rax
    25de:	48 89 b4 24 b8 02 00 	mov    QWORD PTR [rsp+0x2b8],rsi
    25e5:	00 
    25e6:	49 8b b4 24 98 00 00 	mov    rsi,QWORD PTR [r12+0x98]
    25ed:	00 
    25ee:	48 8b 7b 08          	mov    rdi,QWORD PTR [rbx+0x8]
    25f2:	49 89 b4 24 98 00 00 	mov    QWORD PTR [r12+0x98],rsi
    25f9:	00 
    25fa:	4c 89 6e e0          	mov    QWORD PTR [rsi-0x20],r13
    25fe:	4c 89 76 e8          	mov    QWORD PTR [rsi-0x18],r14
    2602:	b8 01 00 00 00       	mov    eax,0x1
    2607:	48 89 46 f0          	mov    QWORD PTR [rsi-0x10],rax
    260b:	b8 01 00 00 00       	mov    eax,0x1
    2610:	48 89 46 f8          	mov    QWORD PTR [rsi-0x8],rax
    2614:	48 31 f6             	xor    rsi,rsi
    2617:	48 b8 00 00 00 00 00 	movabs rax,0x0
    261e:	00 00 00 
			2619: R_X86_64_64	do_callback
    2621:	48 89 9c 24 c0 02 00 	mov    QWORD PTR [rsp+0x2c0],rbx
    2628:	00 
    2629:	48 89 bc 24 c8 02 00 	mov    QWORD PTR [rsp+0x2c8],rdi
    2630:	00 
    2631:	4c 89 ac 24 d0 02 00 	mov    QWORD PTR [rsp+0x2d0],r13
    2638:	00 
    2639:	ff d0                	call   rax
    263b:	48 8b 9c 24 c0 02 00 	mov    rbx,QWORD PTR [rsp+0x2c0]
    2642:	00 
    2643:	4c 8b ac 24 d0 02 00 	mov    r13,QWORD PTR [rsp+0x2d0]
    264a:	00 
    264b:	48 89 c6             	mov    rsi,rax
    264e:	48 89 b4 24 c0 02 00 	mov    QWORD PTR [rsp+0x2c0],rsi
    2655:	00 
    2656:	49 8b b4 24 98 00 00 	mov    rsi,QWORD PTR [r12+0x98]
    265d:	00 
    265e:	48 8b 7b 08          	mov    rdi,QWORD PTR [rbx+0x8]
    2662:	49 89 b4 24 98 00 00 	mov    QWORD PTR [r12+0x98],rsi
    2669:	00 
    266a:	4c 89 6e e0          	mov    QWORD PTR [rsi-0x20],r13
    266e:	4c 89 76 e8          	mov    QWORD PTR [rsi-0x18],r14
    2672:	b8 01 00 00 00       	mov    eax,0x1
    2677:	48 89 46 f0          	mov    QWORD PTR [rsi-0x10],rax
    267b:	b8 01 00 00 00       	mov    eax,0x1
    2680:	48 89 46 f8          	mov    QWORD PTR [rsi-0x8],rax
    2684:	48 31 f6             	xor    rsi,rsi
    2687:	48 b8 00 00 00 00 00 	movabs rax,0x0
    268e:	00 00 00 
			2689: R_X86_64_64	do_callback
    2691:	48 89 9c 24 c8 02 00 	mov    QWORD PTR [rsp+0x2c8],rbx
    2698:	00 
    2699:	48 89 bc 24 d0 02 00 	mov    QWORD PTR [rsp+0x2d0],rdi
    26a0:	00 
    26a1:	4c 89 ac 24 d8 02 00 	mov    QWORD PTR [rsp+0x2d8],r13
    26a8:	00 
    26a9:	ff d0                	call   rax
    26ab:	48 8b 9c 24 c8 02 00 	mov    rbx,QWORD PTR [rsp+0x2c8]
    26b2:	00 
    26b3:	4c 8b ac 24 d8 02 00 	mov    r13,QWORD PTR [rsp+0x2d8]
    26ba:	00 
    26bb:	48 89 c6             	mov    rsi,rax
    26be:	48 89 b4 24 c8 02 00 	mov    QWORD PTR [rsp+0x2c8],rsi
    26c5:	00 
    26c6:	49 8b b4 24 98 00 00 	mov    rsi,QWORD PTR [r12+0x98]
    26cd:	00 
    26ce:	48 8b 7b 08          	mov    rdi,QWORD PTR [rbx+0x8]
    26d2:	49 89 b4 24 98 00 00 	mov    QWORD PTR [r12+0x98],rsi
    26d9:	00 
    26da:	4c 89 6e e0          	mov    QWORD PTR [rsi-0x20],r13
    26de:	4c 89 76 e8          	mov    QWORD PTR [rsi-0x18],r14
    26e2:	b8 01 00 00 00       	mov    eax,0x1
    26e7:	48 89 46 f0          	mov    QWORD PTR [rsi-0x10],rax
    26eb:	b8 01 00 00 00       	mov    eax,0x1
    26f0:	48 89 46 f8          	mov    QWORD PTR [rsi-0x8],rax
    26f4:	48 31 f6             	xor    rsi,rsi
    26f7:	48 b8 00 00 00 00 00 	movabs rax,0x0
    26fe:	00 00 00 
			26f9: R_X86_64_64	do_callback
    2701:	48 89 9c 24 d0 02 00 	mov    QWORD PTR [rsp+0x2d0],rbx
    2708:	00 
    2709:	48 89 bc 24 d8 02 00 	mov    QWORD PTR [rsp+0x2d8],rdi
    2710:	00 
    2711:	4c 89 ac 24 e0 02 00 	mov    QWORD PTR [rsp+0x2e0],r13
    2718:	00 
    2719:	ff d0                	call   rax
    271b:	48 8b 9c 24 d0 02 00 	mov    rbx,QWORD PTR [rsp+0x2d0]
    2722:	00 
    2723:	4c 8b ac 24 e0 02 00 	mov    r13,QWORD PTR [rsp+0x2e0]
    272a:	00 
    272b:	48 89 c6             	mov    rsi,rax
    272e:	48 89 b4 24 d0 02 00 	mov    QWORD PTR [rsp+0x2d0],rsi
    2735:	00 
    2736:	49 8b b4 24 98 00 00 	mov    rsi,QWORD PTR [r12+0x98]
    273d:	00 
    273e:	48 8b 7b 08          	mov    rdi,QWORD PTR [rbx+0x8]
    2742:	49 89 b4 24 98 00 00 	mov    QWORD PTR [r12+0x98],rsi
    2749:	00 
    274a:	4c 89 6e e0          	mov    QWORD PTR [rsi-0x20],r13
    274e:	4c 89 76 e8          	mov    QWORD PTR [rsi-0x18],r14
    2752:	b8 01 00 00 00       	mov    eax,0x1
    2757:	48 89 46 f0          	mov    QWORD PTR [rsi-0x10],rax
    275b:	b8 01 00 00 00       	mov    eax,0x1
    2760:	48 89 46 f8          	mov    QWORD PTR [rsi-0x8],rax
    2764:	48 31 f6             	xor    rsi,rsi
    2767:	48 b8 00 00 00 00 00 	movabs rax,0x0
    276e:	00 00 00 
			2769: R_X86_64_64	do_callback
    2771:	48 89 9c 24 d8 02 00 	mov    QWORD PTR [rsp+0x2d8],rbx
    2778:	00 
    2779:	48 89 bc 24 e0 02 00 	mov    QWORD PTR [rsp+0x2e0],rdi
    2780:	00 
    2781:	4c 89 ac 24 e8 02 00 	mov    QWORD PTR [rsp+0x2e8],r13
    2788:	00 
    2789:	ff d0                	call   rax
    278b:	48 8b 9c 24 d8 02 00 	mov    rbx,QWORD PTR [rsp+0x2d8]
    2792:	00 
    2793:	4c 8b ac 24 e8 02 00 	mov    r13,QWORD PTR [rsp+0x2e8]
    279a:	00 
    279b:	48 89 c6             	mov    rsi,rax
    279e:	48 89 b4 24 d8 02 00 	mov    QWORD PTR [rsp+0x2d8],rsi
    27a5:	00 
    27a6:	49 8b b4 24 98 00 00 	mov    rsi,QWORD PTR [r12+0x98]
    27ad:	00 
    27ae:	48 8b 7b 08          	mov    rdi,QWORD PTR [rbx+0x8]
    27b2:	49 89 b4 24 98 00 00 	mov    QWORD PTR [r12+0x98],rsi
    27b9:	00 
    27ba:	4c 89 6e e0          	mov    QWORD PTR [rsi-0x20],r13
    27be:	4c 89 76 e8          	mov    QWORD PTR [rsi-0x18],r14
    27c2:	b8 01 00 00 00       	mov    eax,0x1
    27c7:	48 89 46 f0          	mov    QWORD PTR [rsi-0x10],rax
    27cb:	b8 01 00 00 00       	mov    eax,0x1
    27d0:	48 89 46 f8          	mov    QWORD PTR [rsi-0x8],rax
    27d4:	48 31 f6             	xor    rsi,rsi
    27d7:	48 b8 00 00 00 00 00 	movabs rax,0x0
    27de:	00 00 00 
			27d9: R_X86_64_64	do_callback
    27e1:	48 89 9c 24 e0 02 00 	mov    QWORD PTR [rsp+0x2e0],rbx
    27e8:	00 
    27e9:	48 89 bc 24 e8 02 00 	mov    QWORD PTR [rsp+0x2e8],rdi
    27f0:	00 
    27f1:	4c 89 ac 24 f0 02 00 	mov    QWORD PTR [rsp+0x2f0],r13
    27f8:	00 
    27f9:	ff d0                	call   rax
    27fb:	48 8b 9c 24 e0 02 00 	mov    rbx,QWORD PTR [rsp+0x2e0]
    2802:	00 
    2803:	4c 8b ac 24 f0 02 00 	mov    r13,QWORD PTR [rsp+0x2f0]
    280a:	00 
    280b:	48 89 c6             	mov    rsi,rax
    280e:	48 89 b4 24 e0 02 00 	mov    QWORD PTR [rsp+0x2e0],rsi
    2815:	00 
    2816:	49 8b b4 24 98 00 00 	mov    rsi,QWORD PTR [r12+0x98]
    281d:	00 
    281e:	48 8b 7b 08          	mov    rdi,QWORD PTR [rbx+0x8]
    2822:	49 89 b4 24 98 00 00 	mov    QWORD PTR [r12+0x98],rsi
    2829:	00 
    282a:	4c 89 6e e0          	mov    QWORD PTR [rsi-0x20],r13
    282e:	4c 89 76 e8          	mov    QWORD PTR [rsi-0x18],r14
    2832:	b8 01 00 00 00       	mov    eax,0x1
    2837:	48 89 46 f0          	mov    QWORD PTR [rsi-0x10],rax
    283b:	b8 01 00 00 00       	mov    eax,0x1
    2840:	48 89 46 f8          	mov    QWORD PTR [rsi-0x8],rax
    2844:	48 31 f6             	xor    rsi,rsi
    2847:	48 b8 00 00 00 00 00 	movabs rax,0x0
    284e:	00 00 00 
			2849: R_X86_64_64	do_callback
    2851:	48 89 9c 24 e8 02 00 	mov    QWORD PTR [rsp+0x2e8],rbx
    2858:	00 
    2859:	48 89 bc 24 f0 02 00 	mov    QWORD PTR [rsp+0x2f0],rdi
    2860:	00 
    2861:	4c 89 ac 24 f8 02 00 	mov    QWORD PTR [rsp+0x2f8],r13
    2868:	00 
    2869:	ff d0                	call   rax
    286b:	48 8b 9c 24 e8 02 00 	mov    rbx,QWORD PTR [rsp+0x2e8]
    2872:	00 
    2873:	4c 8b ac 24 f8 02 00 	mov    r13,QWORD PTR [rsp+0x2f8]
    287a:	00 
    287b:	48 89 c6             	mov    rsi,rax
    287e:	48 89 b4 24 e8 02 00 	mov    QWORD PTR [rsp+0x2e8],rsi
    2885:	00 
    2886:	49 8b b4 24 98 00 00 	mov    rsi,QWORD PTR [r12+0x98]
    288d:	00 
    288e:	48 8b 7b 08          	mov    rdi,QWORD PTR [rbx+0x8]
    2892:	49 89 b4 24 98 00 00 	mov    QWORD PTR [r12+0x98],rsi
    2899:	00 
    289a:	4c 89 6e e0          	mov    QWORD PTR [rsi-0x20],r13
    289e:	4c 89 76 e8          	mov    QWORD PTR [rsi-0x18],r14
    28a2:	b8 01 00 00 00       	mov    eax,0x1
    28a7:	48 89 46 f0          	mov    QWORD PTR [rsi-0x10],rax
    28ab:	b8 01 00 00 00       	mov    eax,0x1
    28b0:	48 89 46 f8          	mov    QWORD PTR [rsi-0x8],rax
    28b4:	48 31 f6             	xor    rsi,rsi
    28b7:	48 b8 00 00 00 00 00 	movabs rax,0x0
    28be:	00 00 00 
			28b9: R_X86_64_64	do_callback
    28c1:	48 89 9c 24 f0 02 00 	mov    QWORD PTR [rsp+0x2f0],rbx
    28c8:	00 
    28c9:	48 89 bc 24 f8 02 00 	mov    QWORD PTR [rsp+0x2f8],rdi
    28d0:	00 
    28d1:	4c 89 ac 24 00 03 00 	mov    QWORD PTR [rsp+0x300],r13
    28d8:	00 
    28d9:	ff d0                	call   rax
    28db:	48 8b 9c 24 f0 02 00 	mov    rbx,QWORD PTR [rsp+0x2f0]
    28e2:	00 
    28e3:	4c 8b ac 24 00 03 00 	mov    r13,QWORD PTR [rsp+0x300]
    28ea:	00 
    28eb:	48 89 c6             	mov    rsi,rax
    28ee:	48 89 b4 24 f0 02 00 	mov    QWORD PTR [rsp+0x2f0],rsi
    28f5:	00 
    28f6:	49 8b b4 24 98 00 00 	mov    rsi,QWORD PTR [r12+0x98]
    28fd:	00 
    28fe:	48 8b 7b 08          	mov    rdi,QWORD PTR [rbx+0x8]
    2902:	49 89 b4 24 98 00 00 	mov    QWORD PTR [r12+0x98],rsi
    2909:	00 
    290a:	4c 89 6e e0          	mov    QWORD PTR [rsi-0x20],r13
    290e:	4c 89 76 e8          	mov    QWORD PTR [rsi-0x18],r14
    2912:	b8 01 00 00 00       	mov    eax,0x1
    2917:	48 89 46 f0          	mov    QWORD PTR [rsi-0x10],rax
    291b:	b8 01 00 00 00       	mov    eax,0x1
    2920:	48 89 46 f8          	mov    QWORD PTR [rsi-0x8],rax
    2924:	48 31 f6             	xor    rsi,rsi
    2927:	48 b8 00 00 00 00 00 	movabs rax,0x0
    292e:	00 00 00 
			2929: R_X86_64_64	do_callback
    2931:	48 89 9c 24 f8 02 00 	mov    QWORD PTR [rsp+0x2f8],rbx
    2938:	00 
    2939:	48 89 bc 24 00 03 00 	mov    QWORD PTR [rsp+0x300],rdi
    2940:	00 
    2941:	4c 89 ac 24 08 03 00 	mov    QWORD PTR [rsp+0x308],r13
    2948:	00 
    2949:	ff d0                	call   rax
    294b:	48 8b 9c 24 f8 02 00 	mov    rbx,QWORD PTR [rsp+0x2f8]
    2952:	00 
    2953:	4c 8b ac 24 08 03 00 	mov    r13,QWORD PTR [rsp+0x308]
    295a:	00 
    295b:	48 89 c6             	mov    rsi,rax
    295e:	48 89 b4 24 f8 02 00 	mov    QWORD PTR [rsp+0x2f8],rsi
    2965:	00 
    2966:	49 8b b4 24 98 00 00 	mov    rsi,QWORD PTR [r12+0x98]
    296d:	00 
    296e:	48 8b 7b 08          	mov    rdi,QWORD PTR [rbx+0x8]
    2972:	49 89 b4 24 98 00 00 	mov    QWORD PTR [r12+0x98],rsi
    2979:	00 
    297a:	4c 89 6e e0          	mov    QWORD PTR [rsi-0x20],r13
    297e:	4c 89 76 e8          	mov    QWORD PTR [rsi-0x18],r14
    2982:	b8 01 00 00 00       	mov    eax,0x1
    2987:	48 89 46 f0          	mov    QWORD PTR [rsi-0x10],rax
    298b:	b8 01 00 00 00       	mov    eax,0x1
    2990:	48 89 46 f8          	mov    QWORD PTR [rsi-0x8],rax
    2994:	48 31 f6             	xor    rsi,rsi
    2997:	48 b8 00 00 00 00 00 	movabs rax,0x0
    299e:	00 00 00 
			2999: R_X86_64_64	do_callback
    29a1:	48 89 9c 24 00 03 00 	mov    QWORD PTR [rsp+0x300],rbx
    29a8:	00 
    29a9:	48 89 bc 24 08 03 00 	mov    QWORD PTR [rsp+0x308],rdi
    29b0:	00 
    29b1:	4c 89 ac 24 10 03 00 	mov    QWORD PTR [rsp+0x310],r13
    29b8:	00 
    29b9:	ff d0                	call   rax
    29bb:	48 8b 9c 24 00 03 00 	mov    rbx,QWORD PTR [rsp+0x300]
    29c2:	00 
    29c3:	4c 8b ac 24 10 03 00 	mov    r13,QWORD PTR [rsp+0x310]
    29ca:	00 
    29cb:	48 89 c6             	mov    rsi,rax
    29ce:	48 89 b4 24 00 03 00 	mov    QWORD PTR [rsp+0x300],rsi
    29d5:	00 
    29d6:	49 8b b4 24 98 00 00 	mov    rsi,QWORD PTR [r12+0x98]
    29dd:	00 
    29de:	48 8b 7b 08          	mov    rdi,QWORD PTR [rbx+0x8]
    29e2:	49 89 b4 24 98 00 00 	mov    QWORD PTR [r12+0x98],rsi
    29e9:	00 
    29ea:	4c 89 6e e0          	mov    QWORD PTR [rsi-0x20],r13
    29ee:	4c 89 76 e8          	mov    QWORD PTR [rsi-0x18],r14
    29f2:	b8 01 00 00 00       	mov    eax,0x1
    29f7:	48 89 46 f0          	mov    QWORD PTR [rsi-0x10],rax
    29fb:	b8 01 00 00 00       	mov    eax,0x1
    2a00:	48 89 46 f8          	mov    QWORD PTR [rsi-0x8],rax
    2a04:	48 31 f6             	xor    rsi,rsi
    2a07:	48 b8 00 00 00 00 00 	movabs rax,0x0
    2a0e:	00 00 00 
			2a09: R_X86_64_64	do_callback
    2a11:	48 89 9c 24 08 03 00 	mov    QWORD PTR [rsp+0x308],rbx
    2a18:	00 
    2a19:	48 89 bc 24 10 03 00 	mov    QWORD PTR [rsp+0x310],rdi
    2a20:	00 
    2a21:	4c 89 ac 24 18 03 00 	mov    QWORD PTR [rsp+0x318],r13
    2a28:	00 
    2a29:	ff d0                	call   rax
    2a2b:	48 8b 9c 24 08 03 00 	mov    rbx,QWORD PTR [rsp+0x308]
    2a32:	00 
    2a33:	4c 8b ac 24 18 03 00 	mov    r13,QWORD PTR [rsp+0x318]
    2a3a:	00 
    2a3b:	48 89 c6             	mov    rsi,rax
    2a3e:	48 89 b4 24 08 03 00 	mov    QWORD PTR [rsp+0x308],rsi
    2a45:	00 
    2a46:	49 8b b4 24 98 00 00 	mov    rsi,QWORD PTR [r12+0x98]
    2a4d:	00 
    2a4e:	48 8b 7b 08          	mov    rdi,QWORD PTR [rbx+0x8]
    2a52:	49 89 b4 24 98 00 00 	mov    QWORD PTR [r12+0x98],rsi
    2a59:	00 
    2a5a:	4c 89 6e e0          	mov    QWORD PTR [rsi-0x20],r13
    2a5e:	4c 89 76 e8          	mov    QWORD PTR [rsi-0x18],r14
    2a62:	b8 01 00 00 00       	mov    eax,0x1
    2a67:	48 89 46 f0          	mov    QWORD PTR [rsi-0x10],rax
    2a6b:	b8 01 00 00 00       	mov    eax,0x1
    2a70:	48 89 46 f8          	mov    QWORD PTR [rsi-0x8],rax
    2a74:	48 31 f6             	xor    rsi,rsi
    2a77:	48 b8 00 00 00 00 00 	movabs rax,0x0
    2a7e:	00 00 00 
			2a79: R_X86_64_64	do_callback
    2a81:	48 89 9c 24 10 03 00 	mov    QWORD PTR [rsp+0x310],rbx
    2a88:	00 
    2a89:	48 89 bc 24 18 03 00 	mov    QWORD PTR [rsp+0x318],rdi
    2a90:	00 
    2a91:	4c 89 ac 24 20 03 00 	mov    QWORD PTR [rsp+0x320],r13
    2a98:	00 
    2a99:	ff d0                	call   rax
    2a9b:	48 8b 9c 24 10 03 00 	mov    rbx,QWORD PTR [rsp+0x310]
    2aa2:	00 
    2aa3:	4c 8b ac 24 20 03 00 	mov    r13,QWORD PTR [rsp+0x320]
    2aaa:	00 
    2aab:	48 89 c6             	mov    rsi,rax
    2aae:	48 89 b4 24 10 03 00 	mov    QWORD PTR [rsp+0x310],rsi
    2ab5:	00 
    2ab6:	49 8b b4 24 98 00 00 	mov    rsi,QWORD PTR [r12+0x98]
    2abd:	00 
    2abe:	48 8b 7b 08          	mov    rdi,QWORD PTR [rbx+0x8]
    2ac2:	49 89 b4 24 98 00 00 	mov    QWORD PTR [r12+0x98],rsi
    2ac9:	00 
    2aca:	4c 89 6e e0          	mov    QWORD PTR [rsi-0x20],r13
    2ace:	4c 89 76 e8          	mov    QWORD PTR [rsi-0x18],r14
    2ad2:	b8 01 00 00 00       	mov    eax,0x1
    2ad7:	48 89 46 f0          	mov    QWORD PTR [rsi-0x10],rax
    2adb:	b8 01 00 00 00       	mov    eax,0x1
    2ae0:	48 89 46 f8          	mov    QWORD PTR [rsi-0x8],rax
    2ae4:	48 31 f6             	xor    rsi,rsi
    2ae7:	48 b8 00 00 00 00 00 	movabs rax,0x0
    2aee:	00 00 00 
			2ae9: R_X86_64_64	do_callback
    2af1:	48 89 9c 24 18 03 00 	mov    QWORD PTR [rsp+0x318],rbx
    2af8:	00 
    2af9:	48 89 bc 24 20 03 00 	mov    QWORD PTR [rsp+0x320],rdi
    2b00:	00 
    2b01:	4c 89 ac 24 28 03 00 	mov    QWORD PTR [rsp+0x328],r13
    2b08:	00 
    2b09:	ff d0                	call   rax
    2b0b:	48 8b 9c 24 18 03 00 	mov    rbx,QWORD PTR [rsp+0x318]
    2b12:	00 
    2b13:	4c 8b ac 24 28 03 00 	mov    r13,QWORD PTR [rsp+0x328]
    2b1a:	00 
    2b1b:	48 89 c6             	mov    rsi,rax
    2b1e:	48 89 b4 24 18 03 00 	mov    QWORD PTR [rsp+0x318],rsi
    2b25:	00 
    2b26:	49 8b b4 24 98 00 00 	mov    rsi,QWORD PTR [r12+0x98]
    2b2d:	00 
    2b2e:	48 8b 7b 08          	mov    rdi,QWORD PTR [rbx+0x8]
    2b32:	49 89 b4 24 98 00 00 	mov    QWORD PTR [r12+0x98],rsi
    2b39:	00 
    2b3a:	4c 89 6e e0          	mov    QWORD PTR [rsi-0x20],r13
    2b3e:	4c 89 76 e8          	mov    QWORD PTR [rsi-0x18],r14
    2b42:	b8 01 00 00 00       	mov    eax,0x1
    2b47:	48 89 46 f0          	mov    QWORD PTR [rsi-0x10],rax
    2b4b:	b8 01 00 00 00       	mov    eax,0x1
    2b50:	48 89 46 f8          	mov    QWORD PTR [rsi-0x8],rax
    2b54:	48 31 f6             	xor    rsi,rsi
    2b57:	48 b8 00 00 00 00 00 	movabs rax,0x0
    2b5e:	00 00 00 
			2b59: R_X86_64_64	do_callback
    2b61:	48 89 9c 24 20 03 00 	mov    QWORD PTR [rsp+0x320],rbx
    2b68:	00 
    2b69:	48 89 bc 24 28 03 00 	mov    QWORD PTR [rsp+0x328],rdi
    2b70:	00 
    2b71:	4c 89 ac 24 30 03 00 	mov    QWORD PTR [rsp+0x330],r13
    2b78:	00 
    2b79:	ff d0                	call   rax
    2b7b:	48 8b 9c 24 20 03 00 	mov    rbx,QWORD PTR [rsp+0x320]
    2b82:	00 
    2b83:	4c 8b ac 24 30 03 00 	mov    r13,QWORD PTR [rsp+0x330]
    2b8a:	00 
    2b8b:	48 89 c6             	mov    rsi,rax
    2b8e:	48 89 b4 24 20 03 00 	mov    QWORD PTR [rsp+0x320],rsi
    2b95:	00 
    2b96:	49 8b b4 24 98 00 00 	mov    rsi,QWORD PTR [r12+0x98]
    2b9d:	00 
    2b9e:	48 8b 7b 08          	mov    rdi,QWORD PTR [rbx+0x8]
    2ba2:	49 89 b4 24 98 00 00 	mov    QWORD PTR [r12+0x98],rsi
    2ba9:	00 
    2baa:	4c 89 6e e0          	mov    QWORD PTR [rsi-0x20],r13
    2bae:	4c 89 76 e8          	mov    QWORD PTR [rsi-0x18],r14
    2bb2:	b8 01 00 00 00       	mov    eax,0x1
    2bb7:	48 89 46 f0          	mov    QWORD PTR [rsi-0x10],rax
    2bbb:	b8 01 00 00 00       	mov    eax,0x1
    2bc0:	48 89 46 f8          	mov    QWORD PTR [rsi-0x8],rax
    2bc4:	48 31 f6             	xor    rsi,rsi
    2bc7:	48 b8 00 00 00 00 00 	movabs rax,0x0
    2bce:	00 00 00 
			2bc9: R_X86_64_64	do_callback
    2bd1:	48 89 9c 24 28 03 00 	mov    QWORD PTR [rsp+0x328],rbx
    2bd8:	00 
    2bd9:	48 89 bc 24 30 03 00 	mov    QWORD PTR [rsp+0x330],rdi
    2be0:	00 
    2be1:	4c 89 ac 24 38 03 00 	mov    QWORD PTR [rsp+0x338],r13
    2be8:	00 
    2be9:	ff d0                	call   rax
    2beb:	48 8b 9c 24 28 03 00 	mov    rbx,QWORD PTR [rsp+0x328]
    2bf2:	00 
    2bf3:	4c 8b ac 24 38 03 00 	mov    r13,QWORD PTR [rsp+0x338]
    2bfa:	00 
    2bfb:	48 89 c6             	mov    rsi,rax
    2bfe:	48 89 b4 24 28 03 00 	mov    QWORD PTR [rsp+0x328],rsi
    2c05:	00 
    2c06:	49 8b b4 24 98 00 00 	mov    rsi,QWORD PTR [r12+0x98]
    2c0d:	00 
    2c0e:	48 8b 7b 08          	mov    rdi,QWORD PTR [rbx+0x8]
    2c12:	49 89 b4 24 98 00 00 	mov    QWORD PTR [r12+0x98],rsi
    2c19:	00 
    2c1a:	4c 89 6e e0          	mov    QWORD PTR [rsi-0x20],r13
    2c1e:	4c 89 76 e8          	mov    QWORD PTR [rsi-0x18],r14
    2c22:	b8 01 00 00 00       	mov    eax,0x1
    2c27:	48 89 46 f0          	mov    QWORD PTR [rsi-0x10],rax
    2c2b:	b8 01 00 00 00       	mov    eax,0x1
    2c30:	48 89 46 f8          	mov    QWORD PTR [rsi-0x8],rax
    2c34:	48 31 f6             	xor    rsi,rsi
    2c37:	48 b8 00 00 00 00 00 	movabs rax,0x0
    2c3e:	00 00 00 
			2c39: R_X86_64_64	do_callback
    2c41:	48 89 9c 24 30 03 00 	mov    QWORD PTR [rsp+0x330],rbx
    2c48:	00 
    2c49:	48 89 bc 24 38 03 00 	mov    QWORD PTR [rsp+0x338],rdi
    2c50:	00 
    2c51:	4c 89 ac 24 40 03 00 	mov    QWORD PTR [rsp+0x340],r13
    2c58:	00 
    2c59:	ff d0                	call   rax
    2c5b:	48 8b 9c 24 30 03 00 	mov    rbx,QWORD PTR [rsp+0x330]
    2c62:	00 
    2c63:	4c 8b ac 24 40 03 00 	mov    r13,QWORD PTR [rsp+0x340]
    2c6a:	00 
    2c6b:	48 89 c6             	mov    rsi,rax
    2c6e:	48 89 b4 24 30 03 00 	mov    QWORD PTR [rsp+0x330],rsi
    2c75:	00 
    2c76:	49 8b b4 24 98 00 00 	mov    rsi,QWORD PTR [r12+0x98]
    2c7d:	00 
    2c7e:	48 8b 7b 08          	mov    rdi,QWORD PTR [rbx+0x8]
    2c82:	49 89 b4 24 98 00 00 	mov    QWORD PTR [r12+0x98],rsi
    2c89:	00 
    2c8a:	4c 89 6e e0          	mov    QWORD PTR [rsi-0x20],r13
    2c8e:	4c 89 76 e8          	mov    QWORD PTR [rsi-0x18],r14
    2c92:	b8 01 00 00 00       	mov    eax,0x1
    2c97:	48 89 46 f0          	mov    QWORD PTR [rsi-0x10],rax
    2c9b:	b8 01 00 00 00       	mov    eax,0x1
    2ca0:	48 89 46 f8          	mov    QWORD PTR [rsi-0x8],rax
    2ca4:	48 31 f6             	xor    rsi,rsi
    2ca7:	48 b8 00 00 00 00 00 	movabs rax,0x0
    2cae:	00 00 00 
			2ca9: R_X86_64_64	do_callback
    2cb1:	48 89 9c 24 38 03 00 	mov    QWORD PTR [rsp+0x338],rbx
    2cb8:	00 
    2cb9:	48 89 bc 24 40 03 00 	mov    QWORD PTR [rsp+0x340],rdi
    2cc0:	00 
    2cc1:	4c 89 ac 24 48 03 00 	mov    QWORD PTR [rsp+0x348],r13
    2cc8:	00 
    2cc9:	ff d0                	call   rax
    2ccb:	48 8b 9c 24 38 03 00 	mov    rbx,QWORD PTR [rsp+0x338]
    2cd2:	00 
    2cd3:	4c 8b ac 24 48 03 00 	mov    r13,QWORD PTR [rsp+0x348]
    2cda:	00 
    2cdb:	48 89 c6             	mov    rsi,rax
    2cde:	48 89 b4 24 38 03 00 	mov    QWORD PTR [rsp+0x338],rsi
    2ce5:	00 
    2ce6:	49 8b b4 24 98 00 00 	mov    rsi,QWORD PTR [r12+0x98]
    2ced:	00 
    2cee:	48 8b 7b 08          	mov    rdi,QWORD PTR [rbx+0x8]
    2cf2:	49 89 b4 24 98 00 00 	mov    QWORD PTR [r12+0x98],rsi
    2cf9:	00 
    2cfa:	4c 89 6e e0          	mov    QWORD PTR [rsi-0x20],r13
    2cfe:	4c 89 76 e8          	mov    QWORD PTR [rsi-0x18],r14
    2d02:	b8 01 00 00 00       	mov    eax,0x1
    2d07:	48 89 46 f0          	mov    QWORD PTR [rsi-0x10],rax
    2d0b:	b8 01 00 00 00       	mov    eax,0x1
    2d10:	48 89 46 f8          	mov    QWORD PTR [rsi-0x8],rax
    2d14:	48 31 f6             	xor    rsi,rsi
    2d17:	48 b8 00 00 00 00 00 	movabs rax,0x0
    2d1e:	00 00 00 
			2d19: R_X86_64_64	do_callback
    2d21:	48 89 9c 24 40 03 00 	mov    QWORD PTR [rsp+0x340],rbx
    2d28:	00 
    2d29:	48 89 bc 24 48 03 00 	mov    QWORD PTR [rsp+0x348],rdi
    2d30:	00 
    2d31:	4c 89 ac 24 50 03 00 	mov    QWORD PTR [rsp+0x350],r13
    2d38:	00 
    2d39:	ff d0                	call   rax
    2d3b:	48 8b 9c 24 40 03 00 	mov    rbx,QWORD PTR [rsp+0x340]
    2d42:	00 
    2d43:	4c 8b ac 24 50 03 00 	mov    r13,QWORD PTR [rsp+0x350]
    2d4a:	00 
    2d4b:	48 89 c6             	mov    rsi,rax
    2d4e:	48 89 b4 24 40 03 00 	mov    QWORD PTR [rsp+0x340],rsi
    2d55:	00 
    2d56:	49 8b b4 24 98 00 00 	mov    rsi,QWORD PTR [r12+0x98]
    2d5d:	00 
    2d5e:	48 8b 7b 08          	mov    rdi,QWORD PTR [rbx+0x8]
    2d62:	49 89 b4 24 98 00 00 	mov    QWORD PTR [r12+0x98],rsi
    2d69:	00 
    2d6a:	4c 89 6e e0          	mov    QWORD PTR [rsi-0x20],r13
    2d6e:	4c 89 76 e8          	mov    QWORD PTR [rsi-0x18],r14
    2d72:	b8 01 00 00 00       	mov    eax,0x1
    2d77:	48 89 46 f0          	mov    QWORD PTR [rsi-0x10],rax
    2d7b:	b8 01 00 00 00       	mov    eax,0x1
    2d80:	48 89 46 f8          	mov    QWORD PTR [rsi-0x8],rax
    2d84:	48 31 f6             	xor    rsi,rsi
    2d87:	48 b8 00 00 00 00 00 	movabs rax,0x0
    2d8e:	00 00 00 
			2d89: R_X86_64_64	do_callback
    2d91:	48 89 9c 24 48 03 00 	mov    QWORD PTR [rsp+0x348],rbx
    2d98:	00 
    2d99:	48 89 bc 24 50 03 00 	mov    QWORD PTR [rsp+0x350],rdi
    2da0:	00 
    2da1:	4c 89 ac 24 58 03 00 	mov    QWORD PTR [rsp+0x358],r13
    2da8:	00 
    2da9:	ff d0                	call   rax
    2dab:	48 8b 9c 24 48 03 00 	mov    rbx,QWORD PTR [rsp+0x348]
    2db2:	00 
    2db3:	4c 8b ac 24 58 03 00 	mov    r13,QWORD PTR [rsp+0x358]
    2dba:	00 
    2dbb:	48 89 c6             	mov    rsi,rax
    2dbe:	48 89 b4 24 48 03 00 	mov    QWORD PTR [rsp+0x348],rsi
    2dc5:	00 
    2dc6:	49 8b b4 24 98 00 00 	mov    rsi,QWORD PTR [r12+0x98]
    2dcd:	00 
    2dce:	48 8b 7b 08          	mov    rdi,QWORD PTR [rbx+0x8]
    2dd2:	49 89 b4 24 98 00 00 	mov    QWORD PTR [r12+0x98],rsi
    2dd9:	00 
    2dda:	4c 89 6e e0          	mov    QWORD PTR [rsi-0x20],r13
    2dde:	4c 89 76 e8          	mov    QWORD PTR [rsi-0x18],r14
    2de2:	b8 01 00 00 00       	mov    eax,0x1
    2de7:	48 89 46 f0          	mov    QWORD PTR [rsi-0x10],rax
    2deb:	b8 01 00 00 00       	mov    eax,0x1
    2df0:	48 89 46 f8          	mov    QWORD PTR [rsi-0x8],rax
    2df4:	48 31 f6             	xor    rsi,rsi
    2df7:	48 b8 00 00 00 00 00 	movabs rax,0x0
    2dfe:	00 00 00 
			2df9: R_X86_64_64	do_callback
    2e01:	48 89 9c 24 50 03 00 	mov    QWORD PTR [rsp+0x350],rbx
    2e08:	00 
    2e09:	48 89 bc 24 58 03 00 	mov    QWORD PTR [rsp+0x358],rdi
    2e10:	00 
    2e11:	4c 89 ac 24 60 03 00 	mov    QWORD PTR [rsp+0x360],r13
    2e18:	00 
    2e19:	ff d0                	call   rax
    2e1b:	48 8b 9c 24 50 03 00 	mov    rbx,QWORD PTR [rsp+0x350]
    2e22:	00 
    2e23:	4c 8b ac 24 60 03 00 	mov    r13,QWORD PTR [rsp+0x360]
    2e2a:	00 
    2e2b:	48 89 c6             	mov    rsi,rax
    2e2e:	48 89 b4 24 50 03 00 	mov    QWORD PTR [rsp+0x350],rsi
    2e35:	00 
    2e36:	49 8b b4 24 98 00 00 	mov    rsi,QWORD PTR [r12+0x98]
    2e3d:	00 
    2e3e:	48 8b 7b 08          	mov    rdi,QWORD PTR [rbx+0x8]
    2e42:	49 89 b4 24 98 00 00 	mov    QWORD PTR [r12+0x98],rsi
    2e49:	00 
    2e4a:	4c 89 6e e0          	mov    QWORD PTR [rsi-0x20],r13
    2e4e:	4c 89 76 e8          	mov    QWORD PTR [rsi-0x18],r14
    2e52:	b8 01 00 00 00       	mov    eax,0x1
    2e57:	48 89 46 f0          	mov    QWORD PTR [rsi-0x10],rax
    2e5b:	b8 01 00 00 00       	mov    eax,0x1
    2e60:	48 89 46 f8          	mov    QWORD PTR [rsi-0x8],rax
    2e64:	48 31 f6             	xor    rsi,rsi
    2e67:	48 b8 00 00 00 00 00 	movabs rax,0x0
    2e6e:	00 00 00 
			2e69: R_X86_64_64	do_callback
    2e71:	48 89 9c 24 58 03 00 	mov    QWORD PTR [rsp+0x358],rbx
    2e78:	00 
    2e79:	48 89 bc 24 60 03 00 	mov    QWORD PTR [rsp+0x360],rdi
    2e80:	00 
    2e81:	4c 89 ac 24 68 03 00 	mov    QWORD PTR [rsp+0x368],r13
    2e88:	00 
    2e89:	ff d0                	call   rax
    2e8b:	48 8b 9c 24 58 03 00 	mov    rbx,QWORD PTR [rsp+0x358]
    2e92:	00 
    2e93:	4c 8b ac 24 68 03 00 	mov    r13,QWORD PTR [rsp+0x368]
    2e9a:	00 
    2e9b:	48 89 c6             	mov    rsi,rax
    2e9e:	48 89 b4 24 58 03 00 	mov    QWORD PTR [rsp+0x358],rsi
    2ea5:	00 
    2ea6:	49 8b b4 24 98 00 00 	mov    rsi,QWORD PTR [r12+0x98]
    2ead:	00 
    2eae:	48 8b 7b 08          	mov    rdi,QWORD PTR [rbx+0x8]
    2eb2:	49 89 b4 24 98 00 00 	mov    QWORD PTR [r12+0x98],rsi
    2eb9:	00 
    2eba:	4c 89 6e e0          	mov    QWORD PTR [rsi-0x20],r13
    2ebe:	4c 89 76 e8          	mov    QWORD PTR [rsi-0x18],r14
    2ec2:	b8 01 00 00 00       	mov    eax,0x1
    2ec7:	48 89 46 f0          	mov    QWORD PTR [rsi-0x10],rax
    2ecb:	b8 01 00 00 00       	mov    eax,0x1
    2ed0:	48 89 46 f8          	mov    QWORD PTR [rsi-0x8],rax
    2ed4:	48 31 f6             	xor    rsi,rsi
    2ed7:	48 b8 00 00 00 00 00 	movabs rax,0x0
    2ede:	00 00 00 
			2ed9: R_X86_64_64	do_callback
    2ee1:	48 89 9c 24 60 03 00 	mov    QWORD PTR [rsp+0x360],rbx
    2ee8:	00 
    2ee9:	48 89 bc 24 68 03 00 	mov    QWORD PTR [rsp+0x368],rdi
    2ef0:	00 
    2ef1:	4c 89 ac 24 70 03 00 	mov    QWORD PTR [rsp+0x370],r13
    2ef8:	00 
    2ef9:	ff d0                	call   rax
    2efb:	48 8b 9c 24 60 03 00 	mov    rbx,QWORD PTR [rsp+0x360]
    2f02:	00 
    2f03:	4c 8b ac 24 70 03 00 	mov    r13,QWORD PTR [rsp+0x370]
    2f0a:	00 
    2f0b:	48 89 c6             	mov    rsi,rax
    2f0e:	48 89 b4 24 60 03 00 	mov    QWORD PTR [rsp+0x360],rsi
    2f15:	00 
    2f16:	49 8b b4 24 98 00 00 	mov    rsi,QWORD PTR [r12+0x98]
    2f1d:	00 
    2f1e:	48 8b 7b 08          	mov    rdi,QWORD PTR [rbx+0x8]
    2f22:	49 89 b4 24 98 00 00 	mov    QWORD PTR [r12+0x98],rsi
    2f29:	00 
    2f2a:	4c 89 6e e0          	mov    QWORD PTR [rsi-0x20],r13
    2f2e:	4c 89 76 e8          	mov    QWORD PTR [rsi-0x18],r14
    2f32:	b8 01 00 00 00       	mov    eax,0x1
    2f37:	48 89 46 f0          	mov    QWORD PTR [rsi-0x10],rax
    2f3b:	b8 01 00 00 00       	mov    eax,0x1
    2f40:	48 89 46 f8          	mov    QWORD PTR [rsi-0x8],rax
    2f44:	48 31 f6             	xor    rsi,rsi
    2f47:	48 b8 00 00 00 00 00 	movabs rax,0x0
    2f4e:	00 00 00 
			2f49: R_X86_64_64	do_callback
    2f51:	48 89 9c 24 68 03 00 	mov    QWORD PTR [rsp+0x368],rbx
    2f58:	00 
    2f59:	48 89 bc 24 70 03 00 	mov    QWORD PTR [rsp+0x370],rdi
    2f60:	00 
    2f61:	4c 89 ac 24 78 03 00 	mov    QWORD PTR [rsp+0x378],r13
    2f68:	00 
    2f69:	ff d0                	call   rax
    2f6b:	48 8b 9c 24 68 03 00 	mov    rbx,QWORD PTR [rsp+0x368]
    2f72:	00 
    2f73:	4c 8b ac 24 78 03 00 	mov    r13,QWORD PTR [rsp+0x378]
    2f7a:	00 
    2f7b:	48 89 c6             	mov    rsi,rax
    2f7e:	48 89 b4 24 68 03 00 	mov    QWORD PTR [rsp+0x368],rsi
    2f85:	00 
    2f86:	49 8b b4 24 98 00 00 	mov    rsi,QWORD PTR [r12+0x98]
    2f8d:	00 
    2f8e:	48 8b 7b 08          	mov    rdi,QWORD PTR [rbx+0x8]
    2f92:	49 89 b4 24 98 00 00 	mov    QWORD PTR [r12+0x98],rsi
    2f99:	00 
    2f9a:	4c 89 6e e0          	mov    QWORD PTR [rsi-0x20],r13
    2f9e:	4c 89 76 e8          	mov    QWORD PTR [rsi-0x18],r14
    2fa2:	b8 01 00 00 00       	mov    eax,0x1
    2fa7:	48 89 46 f0          	mov    QWORD PTR [rsi-0x10],rax
    2fab:	b8 01 00 00 00       	mov    eax,0x1
    2fb0:	48 89 46 f8          	mov    QWORD PTR [rsi-0x8],rax
    2fb4:	48 31 f6             	xor    rsi,rsi
    2fb7:	48 b8 00 00 00 00 00 	movabs rax,0x0
    2fbe:	00 00 00 
			2fb9: R_X86_64_64	do_callback
    2fc1:	48 89 9c 24 70 03 00 	mov    QWORD PTR [rsp+0x370],rbx
    2fc8:	00 
    2fc9:	48 89 bc 24 78 03 00 	mov    QWORD PTR [rsp+0x378],rdi
    2fd0:	00 
    2fd1:	4c 89 ac 24 80 03 00 	mov    QWORD PTR [rsp+0x380],r13
    2fd8:	00 
    2fd9:	ff d0                	call   rax
    2fdb:	48 8b 9c 24 70 03 00 	mov    rbx,QWORD PTR [rsp+0x370]
    2fe2:	00 
    2fe3:	4c 8b ac 24 80 03 00 	mov    r13,QWORD PTR [rsp+0x380]
    2fea:	00 
    2feb:	48 89 c6             	mov    rsi,rax
    2fee:	48 89 b4 24 70 03 00 	mov    QWORD PTR [rsp+0x370],rsi
    2ff5:	00 
    2ff6:	49 8b b4 24 98 00 00 	mov    rsi,QWORD PTR [r12+0x98]
    2ffd:	00 
    2ffe:	48 8b 7b 08          	mov    rdi,QWORD PTR [rbx+0x8]
    3002:	49 89 b4 24 98 00 00 	mov    QWORD PTR [r12+0x98],rsi
    3009:	00 
    300a:	4c 89 6e e0          	mov    QWORD PTR [rsi-0x20],r13
    300e:	4c 89 76 e8          	mov    QWORD PTR [rsi-0x18],r14
    3012:	b8 01 00 00 00       	mov    eax,0x1
    3017:	48 89 46 f0          	mov    QWORD PTR [rsi-0x10],rax
    301b:	b8 01 00 00 00       	mov    eax,0x1
    3020:	48 89 46 f8          	mov    QWORD PTR [rsi-0x8],rax
    3024:	48 31 f6             	xor    rsi,rsi
    3027:	48 b8 00 00 00 00 00 	movabs rax,0x0
    302e:	00 00 00 
			3029: R_X86_64_64	do_callback
    3031:	48 89 9c 24 78 03 00 	mov    QWORD PTR [rsp+0x378],rbx
    3038:	00 
    3039:	48 89 bc 24 80 03 00 	mov    QWORD PTR [rsp+0x380],rdi
    3040:	00 
    3041:	4c 89 ac 24 88 03 00 	mov    QWORD PTR [rsp+0x388],r13
    3048:	00 
    3049:	ff d0                	call   rax
    304b:	48 8b 9c 24 78 03 00 	mov    rbx,QWORD PTR [rsp+0x378]
    3052:	00 
    3053:	4c 8b ac 24 88 03 00 	mov    r13,QWORD PTR [rsp+0x388]
    305a:	00 
    305b:	48 89 c6             	mov    rsi,rax
    305e:	48 89 b4 24 78 03 00 	mov    QWORD PTR [rsp+0x378],rsi
    3065:	00 
    3066:	49 8b b4 24 98 00 00 	mov    rsi,QWORD PTR [r12+0x98]
    306d:	00 
    306e:	48 8b 7b 08          	mov    rdi,QWORD PTR [rbx+0x8]
    3072:	49 89 b4 24 98 00 00 	mov    QWORD PTR [r12+0x98],rsi
    3079:	00 
    307a:	4c 89 6e e0          	mov    QWORD PTR [rsi-0x20],r13
    307e:	4c 89 76 e8          	mov    QWORD PTR [rsi-0x18],r14
    3082:	b8 01 00 00 00       	mov    eax,0x1
    3087:	48 89 46 f0          	mov    QWORD PTR [rsi-0x10],rax
    308b:	b8 01 00 00 00       	mov    eax,0x1
    3090:	48 89 46 f8          	mov    QWORD PTR [rsi-0x8],rax
    3094:	48 31 f6             	xor    rsi,rsi
    3097:	48 b8 00 00 00 00 00 	movabs rax,0x0
    309e:	00 00 00 
			3099: R_X86_64_64	do_callback
    30a1:	48 89 9c 24 80 03 00 	mov    QWORD PTR [rsp+0x380],rbx
    30a8:	00 
    30a9:	48 89 bc 24 88 03 00 	mov    QWORD PTR [rsp+0x388],rdi
    30b0:	00 
    30b1:	4c 89 ac 24 90 03 00 	mov    QWORD PTR [rsp+0x390],r13
    30b8:	00 
    30b9:	ff d0                	call   rax
    30bb:	48 8b 9c 24 80 03 00 	mov    rbx,QWORD PTR [rsp+0x380]
    30c2:	00 
    30c3:	4c 8b ac 24 90 03 00 	mov    r13,QWORD PTR [rsp+0x390]
    30ca:	00 
    30cb:	48 89 c6             	mov    rsi,rax
    30ce:	48 89 b4 24 80 03 00 	mov    QWORD PTR [rsp+0x380],rsi
    30d5:	00 
    30d6:	49 8b b4 24 98 00 00 	mov    rsi,QWORD PTR [r12+0x98]
    30dd:	00 
    30de:	48 8b 7b 08          	mov    rdi,QWORD PTR [rbx+0x8]
    30e2:	49 89 b4 24 98 00 00 	mov    QWORD PTR [r12+0x98],rsi
    30e9:	00 
    30ea:	4c 89 6e e0          	mov    QWORD PTR [rsi-0x20],r13
    30ee:	4c 89 76 e8          	mov    QWORD PTR [rsi-0x18],r14
    30f2:	b8 01 00 00 00       	mov    eax,0x1
    30f7:	48 89 46 f0          	mov    QWORD PTR [rsi-0x10],rax
    30fb:	b8 01 00 00 00       	mov    eax,0x1
    3100:	48 89 46 f8          	mov    QWORD PTR [rsi-0x8],rax
    3104:	48 31 f6             	xor    rsi,rsi
    3107:	48 b8 00 00 00 00 00 	movabs rax,0x0
    310e:	00 00 00 
			3109: R_X86_64_64	do_callback
    3111:	48 89 9c 24 88 03 00 	mov    QWORD PTR [rsp+0x388],rbx
    3118:	00 
    3119:	48 89 bc 24 90 03 00 	mov    QWORD PTR [rsp+0x390],rdi
    3120:	00 
    3121:	4c 89 ac 24 98 03 00 	mov    QWORD PTR [rsp+0x398],r13
    3128:	00 
    3129:	ff d0                	call   rax
    312b:	48 8b 9c 24 88 03 00 	mov    rbx,QWORD PTR [rsp+0x388]
    3132:	00 
    3133:	4c 8b ac 24 98 03 00 	mov    r13,QWORD PTR [rsp+0x398]
    313a:	00 
    313b:	48 89 c6             	mov    rsi,rax
    313e:	48 89 b4 24 88 03 00 	mov    QWORD PTR [rsp+0x388],rsi
    3145:	00 
    3146:	49 8b b4 24 98 00 00 	mov    rsi,QWORD PTR [r12+0x98]
    314d:	00 
    314e:	48 8b 7b 08          	mov    rdi,QWORD PTR [rbx+0x8]
    3152:	49 89 b4 24 98 00 00 	mov    QWORD PTR [r12+0x98],rsi
    3159:	00 
    315a:	4c 89 6e e0          	mov    QWORD PTR [rsi-0x20],r13
    315e:	4c 89 76 e8          	mov    QWORD PTR [rsi-0x18],r14
    3162:	b8 01 00 00 00       	mov    eax,0x1
    3167:	48 89 46 f0          	mov    QWORD PTR [rsi-0x10],rax
    316b:	b8 01 00 00 00       	mov    eax,0x1
    3170:	48 89 46 f8          	mov    QWORD PTR [rsi-0x8],rax
    3174:	48 31 f6             	xor    rsi,rsi
    3177:	48 b8 00 00 00 00 00 	movabs rax,0x0
    317e:	00 00 00 
			3179: R_X86_64_64	do_callback
    3181:	48 89 9c 24 90 03 00 	mov    QWORD PTR [rsp+0x390],rbx
    3188:	00 
    3189:	48 89 bc 24 98 03 00 	mov    QWORD PTR [rsp+0x398],rdi
    3190:	00 
    3191:	4c 89 ac 24 a0 03 00 	mov    QWORD PTR [rsp+0x3a0],r13
    3198:	00 
    3199:	ff d0                	call   rax
    319b:	48 8b 9c 24 90 03 00 	mov    rbx,QWORD PTR [rsp+0x390]
    31a2:	00 
    31a3:	4c 8b ac 24 a0 03 00 	mov    r13,QWORD PTR [rsp+0x3a0]
    31aa:	00 
    31ab:	48 89 c6             	mov    rsi,rax
    31ae:	48 89 b4 24 90 03 00 	mov    QWORD PTR [rsp+0x390],rsi
    31b5:	00 
    31b6:	49 8b b4 24 98 00 00 	mov    rsi,QWORD PTR [r12+0x98]
    31bd:	00 
    31be:	48 8b 7b 08          	mov    rdi,QWORD PTR [rbx+0x8]
    31c2:	49 89 b4 24 98 00 00 	mov    QWORD PTR [r12+0x98],rsi
    31c9:	00 
    31ca:	4c 89 6e e0          	mov    QWORD PTR [rsi-0x20],r13
    31ce:	4c 89 76 e8          	mov    QWORD PTR [rsi-0x18],r14
    31d2:	b8 01 00 00 00       	mov    eax,0x1
    31d7:	48 89 46 f0          	mov    QWORD PTR [rsi-0x10],rax
    31db:	b8 01 00 00 00       	mov    eax,0x1
    31e0:	48 89 46 f8          	mov    QWORD PTR [rsi-0x8],rax
    31e4:	48 31 f6             	xor    rsi,rsi
    31e7:	48 b8 00 00 00 00 00 	movabs rax,0x0
    31ee:	00 00 00 
			31e9: R_X86_64_64	do_callback
    31f1:	48 89 9c 24 98 03 00 	mov    QWORD PTR [rsp+0x398],rbx
    31f8:	00 
    31f9:	48 89 bc 24 a0 03 00 	mov    QWORD PTR [rsp+0x3a0],rdi
    3200:	00 
    3201:	4c 89 ac 24 a8 03 00 	mov    QWORD PTR [rsp+0x3a8],r13
    3208:	00 
    3209:	ff d0                	call   rax
    320b:	48 8b 9c 24 98 03 00 	mov    rbx,QWORD PTR [rsp+0x398]
    3212:	00 
    3213:	4c 8b ac 24 a8 03 00 	mov    r13,QWORD PTR [rsp+0x3a8]
    321a:	00 
    321b:	48 89 c6             	mov    rsi,rax
    321e:	48 89 b4 24 98 03 00 	mov    QWORD PTR [rsp+0x398],rsi
    3225:	00 
    3226:	49 8b b4 24 98 00 00 	mov    rsi,QWORD PTR [r12+0x98]
    322d:	00 
    322e:	48 8b 7b 08          	mov    rdi,QWORD PTR [rbx+0x8]
    3232:	49 89 b4 24 98 00 00 	mov    QWORD PTR [r12+0x98],rsi
    3239:	00 
    323a:	4c 89 6e e0          	mov    QWORD PTR [rsi-0x20],r13
    323e:	4c 89 76 e8          	mov    QWORD PTR [rsi-0x18],r14
    3242:	b8 01 00 00 00       	mov    eax,0x1
    3247:	48 89 46 f0          	mov    QWORD PTR [rsi-0x10],rax
    324b:	b8 01 00 00 00       	mov    eax,0x1
    3250:	48 89 46 f8          	mov    QWORD PTR [rsi-0x8],rax
    3254:	48 31 f6             	xor    rsi,rsi
    3257:	48 b8 00 00 00 00 00 	movabs rax,0x0
    325e:	00 00 00 
			3259: R_X86_64_64	do_callback
    3261:	48 89 9c 24 a0 03 00 	mov    QWORD PTR [rsp+0x3a0],rbx
    3268:	00 
    3269:	48 89 bc 24 a8 03 00 	mov    QWORD PTR [rsp+0x3a8],rdi
    3270:	00 
    3271:	4c 89 ac 24 b0 03 00 	mov    QWORD PTR [rsp+0x3b0],r13
    3278:	00 
    3279:	ff d0                	call   rax
    327b:	48 8b 9c 24 a0 03 00 	mov    rbx,QWORD PTR [rsp+0x3a0]
    3282:	00 
    3283:	4c 8b ac 24 b0 03 00 	mov    r13,QWORD PTR [rsp+0x3b0]
    328a:	00 
    328b:	48 89 c6             	mov    rsi,rax
    328e:	48 89 b4 24 a0 03 00 	mov    QWORD PTR [rsp+0x3a0],rsi
    3295:	00 
    3296:	49 8b b4 24 98 00 00 	mov    rsi,QWORD PTR [r12+0x98]
    329d:	00 
    329e:	48 8b 7b 08          	mov    rdi,QWORD PTR [rbx+0x8]
    32a2:	49 89 b4 24 98 00 00 	mov    QWORD PTR [r12+0x98],rsi
    32a9:	00 
    32aa:	4c 89 6e e0          	mov    QWORD PTR [rsi-0x20],r13
    32ae:	4c 89 76 e8          	mov    QWORD PTR [rsi-0x18],r14
    32b2:	b8 01 00 00 00       	mov    eax,0x1
    32b7:	48 89 46 f0          	mov    QWORD PTR [rsi-0x10],rax
    32bb:	b8 01 00 00 00       	mov    eax,0x1
    32c0:	48 89 46 f8          	mov    QWORD PTR [rsi-0x8],rax
    32c4:	48 31 f6             	xor    rsi,rsi
    32c7:	48 b8 00 00 00 00 00 	movabs rax,0x0
    32ce:	00 00 00 
			32c9: R_X86_64_64	do_callback
    32d1:	48 89 9c 24 a8 03 00 	mov    QWORD PTR [rsp+0x3a8],rbx
    32d8:	00 
    32d9:	48 89 bc 24 b0 03 00 	mov    QWORD PTR [rsp+0x3b0],rdi
    32e0:	00 
    32e1:	4c 89 ac 24 b8 03 00 	mov    QWORD PTR [rsp+0x3b8],r13
    32e8:	00 
    32e9:	ff d0                	call   rax
    32eb:	48 8b 9c 24 a8 03 00 	mov    rbx,QWORD PTR [rsp+0x3a8]
    32f2:	00 
    32f3:	4c 8b ac 24 b8 03 00 	mov    r13,QWORD PTR [rsp+0x3b8]
    32fa:	00 
    32fb:	48 89 c6             	mov    rsi,rax
    32fe:	48 89 b4 24 a8 03 00 	mov    QWORD PTR [rsp+0x3a8],rsi
    3305:	00 
    3306:	49 8b b4 24 98 00 00 	mov    rsi,QWORD PTR [r12+0x98]
    330d:	00 
    330e:	48 8b 7b 08          	mov    rdi,QWORD PTR [rbx+0x8]
    3312:	49 89 b4 24 98 00 00 	mov    QWORD PTR [r12+0x98],rsi
    3319:	00 
    331a:	4c 89 6e e0          	mov    QWORD PTR [rsi-0x20],r13
    331e:	4c 89 76 e8          	mov    QWORD PTR [rsi-0x18],r14
    3322:	b8 01 00 00 00       	mov    eax,0x1
    3327:	48 89 46 f0          	mov    QWORD PTR [rsi-0x10],rax
    332b:	b8 01 00 00 00       	mov    eax,0x1
    3330:	48 89 46 f8          	mov    QWORD PTR [rsi-0x8],rax
    3334:	48 31 f6             	xor    rsi,rsi
    3337:	48 b8 00 00 00 00 00 	movabs rax,0x0
    333e:	00 00 00 
			3339: R_X86_64_64	do_callback
    3341:	48 89 9c 24 b0 03 00 	mov    QWORD PTR [rsp+0x3b0],rbx
    3348:	00 
    3349:	48 89 bc 24 b8 03 00 	mov    QWORD PTR [rsp+0x3b8],rdi
    3350:	00 
    3351:	4c 89 ac 24 c0 03 00 	mov    QWORD PTR [rsp+0x3c0],r13
    3358:	00 
    3359:	ff d0                	call   rax
    335b:	48 8b 9c 24 b0 03 00 	mov    rbx,QWORD PTR [rsp+0x3b0]
    3362:	00 
    3363:	4c 8b ac 24 c0 03 00 	mov    r13,QWORD PTR [rsp+0x3c0]
    336a:	00 
    336b:	48 89 c6             	mov    rsi,rax
    336e:	48 89 b4 24 b0 03 00 	mov    QWORD PTR [rsp+0x3b0],rsi
    3375:	00 
    3376:	49 8b b4 24 98 00 00 	mov    rsi,QWORD PTR [r12+0x98]
    337d:	00 
    337e:	48 8b 7b 08          	mov    rdi,QWORD PTR [rbx+0x8]
    3382:	49 89 b4 24 98 00 00 	mov    QWORD PTR [r12+0x98],rsi
    3389:	00 
    338a:	4c 89 6e e0          	mov    QWORD PTR [rsi-0x20],r13
    338e:	4c 89 76 e8          	mov    QWORD PTR [rsi-0x18],r14
    3392:	b8 01 00 00 00       	mov    eax,0x1
    3397:	48 89 46 f0          	mov    QWORD PTR [rsi-0x10],rax
    339b:	b8 01 00 00 00       	mov    eax,0x1
    33a0:	48 89 46 f8          	mov    QWORD PTR [rsi-0x8],rax
    33a4:	48 31 f6             	xor    rsi,rsi
    33a7:	48 b8 00 00 00 00 00 	movabs rax,0x0
    33ae:	00 00 00 
			33a9: R_X86_64_64	do_callback
    33b1:	48 89 9c 24 b8 03 00 	mov    QWORD PTR [rsp+0x3b8],rbx
    33b8:	00 
    33b9:	48 89 bc 24 c0 03 00 	mov    QWORD PTR [rsp+0x3c0],rdi
    33c0:	00 
    33c1:	4c 89 ac 24 c8 03 00 	mov    QWORD PTR [rsp+0x3c8],r13
    33c8:	00 
    33c9:	ff d0                	call   rax
    33cb:	48 8b 9c 24 b8 03 00 	mov    rbx,QWORD PTR [rsp+0x3b8]
    33d2:	00 
    33d3:	4c 8b ac 24 c8 03 00 	mov    r13,QWORD PTR [rsp+0x3c8]
    33da:	00 
    33db:	48 89 c6             	mov    rsi,rax
    33de:	48 89 b4 24 b8 03 00 	mov    QWORD PTR [rsp+0x3b8],rsi
    33e5:	00 
    33e6:	49 8b b4 24 98 00 00 	mov    rsi,QWORD PTR [r12+0x98]
    33ed:	00 
    33ee:	48 8b 7b 08          	mov    rdi,QWORD PTR [rbx+0x8]
    33f2:	49 89 b4 24 98 00 00 	mov    QWORD PTR [r12+0x98],rsi
    33f9:	00 
    33fa:	4c 89 6e e0          	mov    QWORD PTR [rsi-0x20],r13
    33fe:	4c 89 76 e8          	mov    QWORD PTR [rsi-0x18],r14
    3402:	b8 01 00 00 00       	mov    eax,0x1
    3407:	48 89 46 f0          	mov    QWORD PTR [rsi-0x10],rax
    340b:	b8 01 00 00 00       	mov    eax,0x1
    3410:	48 89 46 f8          	mov    QWORD PTR [rsi-0x8],rax
    3414:	48 31 f6             	xor    rsi,rsi
    3417:	48 b8 00 00 00 00 00 	movabs rax,0x0
    341e:	00 00 00 
			3419: R_X86_64_64	do_callback
    3421:	48 89 9c 24 c0 03 00 	mov    QWORD PTR [rsp+0x3c0],rbx
    3428:	00 
    3429:	48 89 bc 24 c8 03 00 	mov    QWORD PTR [rsp+0x3c8],rdi
    3430:	00 
    3431:	4c 89 ac 24 d0 03 00 	mov    QWORD PTR [rsp+0x3d0],r13
    3438:	00 
    3439:	ff d0                	call   rax
    343b:	48 8b 9c 24 c0 03 00 	mov    rbx,QWORD PTR [rsp+0x3c0]
    3442:	00 
    3443:	4c 8b ac 24 d0 03 00 	mov    r13,QWORD PTR [rsp+0x3d0]
    344a:	00 
    344b:	48 89 c6             	mov    rsi,rax
    344e:	48 89 b4 24 c0 03 00 	mov    QWORD PTR [rsp+0x3c0],rsi
    3455:	00 
    3456:	49 8b b4 24 98 00 00 	mov    rsi,QWORD PTR [r12+0x98]
    345d:	00 
    345e:	48 8b 7b 08          	mov    rdi,QWORD PTR [rbx+0x8]
    3462:	49 89 b4 24 98 00 00 	mov    QWORD PTR [r12+0x98],rsi
    3469:	00 
    346a:	4c 89 6e e0          	mov    QWORD PTR [rsi-0x20],r13
    346e:	4c 89 76 e8          	mov    QWORD PTR [rsi-0x18],r14
    3472:	b8 01 00 00 00       	mov    eax,0x1
    3477:	48 89 46 f0          	mov    QWORD PTR [rsi-0x10],rax
    347b:	b8 01 00 00 00       	mov    eax,0x1
    3480:	48 89 46 f8          	mov    QWORD PTR [rsi-0x8],rax
    3484:	48 31 f6             	xor    rsi,rsi
    3487:	48 b8 00 00 00 00 00 	movabs rax,0x0
    348e:	00 00 00 
			3489: R_X86_64_64	do_callback
    3491:	48 89 9c 24 c8 03 00 	mov    QWORD PTR [rsp+0x3c8],rbx
    3498:	00 
    3499:	48 89 bc 24 d0 03 00 	mov    QWORD PTR [rsp+0x3d0],rdi
    34a0:	00 
    34a1:	4c 89 ac 24 d8 03 00 	mov    QWORD PTR [rsp+0x3d8],r13
    34a8:	00 
    34a9:	ff d0                	call   rax
    34ab:	48 8b 9c 24 c8 03 00 	mov    rbx,QWORD PTR [rsp+0x3c8]
    34b2:	00 
    34b3:	4c 8b ac 24 d8 03 00 	mov    r13,QWORD PTR [rsp+0x3d8]
    34ba:	00 
    34bb:	48 89 c6             	mov    rsi,rax
    34be:	48 89 b4 24 c8 03 00 	mov    QWORD PTR [rsp+0x3c8],rsi
    34c5:	00 
    34c6:	49 8b b4 24 98 00 00 	mov    rsi,QWORD PTR [r12+0x98]
    34cd:	00 
    34ce:	48 8b 7b 08          	mov    rdi,QWORD PTR [rbx+0x8]
    34d2:	49 89 b4 24 98 00 00 	mov    QWORD PTR [r12+0x98],rsi
    34d9:	00 
    34da:	4c 89 6e e0          	mov    QWORD PTR [rsi-0x20],r13
    34de:	4c 89 76 e8          	mov    QWORD PTR [rsi-0x18],r14
    34e2:	b8 01 00 00 00       	mov    eax,0x1
    34e7:	48 89 46 f0          	mov    QWORD PTR [rsi-0x10],rax
    34eb:	b8 01 00 00 00       	mov    eax,0x1
    34f0:	48 89 46 f8          	mov    QWORD PTR [rsi-0x8],rax
    34f4:	48 31 f6             	xor    rsi,rsi
    34f7:	48 b8 00 00 00 00 00 	movabs rax,0x0
    34fe:	00 00 00 
			34f9: R_X86_64_64	do_callback
    3501:	48 89 9c 24 d0 03 00 	mov    QWORD PTR [rsp+0x3d0],rbx
    3508:	00 
    3509:	48 89 bc 24 d8 03 00 	mov    QWORD PTR [rsp+0x3d8],rdi
    3510:	00 
    3511:	4c 89 ac 24 e0 03 00 	mov    QWORD PTR [rsp+0x3e0],r13
    3518:	00 
    3519:	ff d0                	call   rax
    351b:	48 8b 9c 24 d0 03 00 	mov    rbx,QWORD PTR [rsp+0x3d0]
    3522:	00 
    3523:	4c 8b ac 24 e0 03 00 	mov    r13,QWORD PTR [rsp+0x3e0]
    352a:	00 
    352b:	48 89 c6             	mov    rsi,rax
    352e:	48 89 b4 24 d0 03 00 	mov    QWORD PTR [rsp+0x3d0],rsi
    3535:	00 
    3536:	49 8b b4 24 98 00 00 	mov    rsi,QWORD PTR [r12+0x98]
    353d:	00 
    353e:	48 8b 7b 08          	mov    rdi,QWORD PTR [rbx+0x8]
    3542:	49 89 b4 24 98 00 00 	mov    QWORD PTR [r12+0x98],rsi
    3549:	00 
    354a:	4c 89 6e e0          	mov    QWORD PTR [rsi-0x20],r13
    354e:	4c 89 76 e8          	mov    QWORD PTR [rsi-0x18],r14
    3552:	b8 01 00 00 00       	mov    eax,0x1
    3557:	48 89 46 f0          	mov    QWORD PTR [rsi-0x10],rax
    355b:	b8 01 00 00 00       	mov    eax,0x1
    3560:	48 89 46 f8          	mov    QWORD PTR [rsi-0x8],rax
    3564:	48 31 f6             	xor    rsi,rsi
    3567:	48 b8 00 00 00 00 00 	movabs rax,0x0
    356e:	00 00 00 
			3569: R_X86_64_64	do_callback
    3571:	48 89 9c 24 d8 03 00 	mov    QWORD PTR [rsp+0x3d8],rbx
    3578:	00 
    3579:	48 89 bc 24 e0 03 00 	mov    QWORD PTR [rsp+0x3e0],rdi
    3580:	00 
    3581:	4c 89 ac 24 e8 03 00 	mov    QWORD PTR [rsp+0x3e8],r13
    3588:	00 
    3589:	ff d0                	call   rax
    358b:	48 8b 9c 24 d8 03 00 	mov    rbx,QWORD PTR [rsp+0x3d8]
    3592:	00 
    3593:	4c 8b ac 24 e8 03 00 	mov    r13,QWORD PTR [rsp+0x3e8]
    359a:	00 
    359b:	48 89 c6             	mov    rsi,rax
    359e:	48 89 b4 24 d8 03 00 	mov    QWORD PTR [rsp+0x3d8],rsi
    35a5:	00 
    35a6:	49 8b b4 24 98 00 00 	mov    rsi,QWORD PTR [r12+0x98]
    35ad:	00 
    35ae:	48 8b 7b 08          	mov    rdi,QWORD PTR [rbx+0x8]
    35b2:	49 89 b4 24 98 00 00 	mov    QWORD PTR [r12+0x98],rsi
    35b9:	00 
    35ba:	4c 89 6e e0          	mov    QWORD PTR [rsi-0x20],r13
    35be:	4c 89 76 e8          	mov    QWORD PTR [rsi-0x18],r14
    35c2:	b8 01 00 00 00       	mov    eax,0x1
    35c7:	48 89 46 f0          	mov    QWORD PTR [rsi-0x10],rax
    35cb:	b8 01 00 00 00       	mov    eax,0x1
    35d0:	48 89 46 f8          	mov    QWORD PTR [rsi-0x8],rax
    35d4:	48 31 f6             	xor    rsi,rsi
    35d7:	48 b8 00 00 00 00 00 	movabs rax,0x0
    35de:	00 00 00 
			35d9: R_X86_64_64	do_callback
    35e1:	48 89 9c 24 e0 03 00 	mov    QWORD PTR [rsp+0x3e0],rbx
    35e8:	00 
    35e9:	48 89 bc 24 e8 03 00 	mov    QWORD PTR [rsp+0x3e8],rdi
    35f0:	00 
    35f1:	4c 89 ac 24 f0 03 00 	mov    QWORD PTR [rsp+0x3f0],r13
    35f8:	00 
    35f9:	ff d0                	call   rax
    35fb:	48 8b 9c 24 e0 03 00 	mov    rbx,QWORD PTR [rsp+0x3e0]
    3602:	00 
    3603:	4c 8b ac 24 f0 03 00 	mov    r13,QWORD PTR [rsp+0x3f0]
    360a:	00 
    360b:	48 89 c6             	mov    rsi,rax
    360e:	48 89 b4 24 e0 03 00 	mov    QWORD PTR [rsp+0x3e0],rsi
    3615:	00 
    3616:	49 8b b4 24 98 00 00 	mov    rsi,QWORD PTR [r12+0x98]
    361d:	00 
    361e:	48 8b 7b 08          	mov    rdi,QWORD PTR [rbx+0x8]
    3622:	49 89 b4 24 98 00 00 	mov    QWORD PTR [r12+0x98],rsi
    3629:	00 
    362a:	4c 89 6e e0          	mov    QWORD PTR [rsi-0x20],r13
    362e:	4c 89 76 e8          	mov    QWORD PTR [rsi-0x18],r14
    3632:	b8 01 00 00 00       	mov    eax,0x1
    3637:	48 89 46 f0          	mov    QWORD PTR [rsi-0x10],rax
    363b:	b8 01 00 00 00       	mov    eax,0x1
    3640:	48 89 46 f8          	mov    QWORD PTR [rsi-0x8],rax
    3644:	48 31 f6             	xor    rsi,rsi
    3647:	48 b8 00 00 00 00 00 	movabs rax,0x0
    364e:	00 00 00 
			3649: R_X86_64_64	do_callback
    3651:	48 89 9c 24 e8 03 00 	mov    QWORD PTR [rsp+0x3e8],rbx
    3658:	00 
    3659:	48 89 bc 24 f0 03 00 	mov    QWORD PTR [rsp+0x3f0],rdi
    3660:	00 
    3661:	4c 89 ac 24 f8 03 00 	mov    QWORD PTR [rsp+0x3f8],r13
    3668:	00 
    3669:	ff d0                	call   rax
    366b:	48 8b 9c 24 e8 03 00 	mov    rbx,QWORD PTR [rsp+0x3e8]
    3672:	00 
    3673:	4c 8b ac 24 f8 03 00 	mov    r13,QWORD PTR [rsp+0x3f8]
    367a:	00 
    367b:	48 89 c6             	mov    rsi,rax
    367e:	48 89 b4 24 e8 03 00 	mov    QWORD PTR [rsp+0x3e8],rsi
    3685:	00 
    3686:	49 8b b4 24 98 00 00 	mov    rsi,QWORD PTR [r12+0x98]
    368d:	00 
    368e:	48 8b 7b 08          	mov    rdi,QWORD PTR [rbx+0x8]
    3692:	49 89 b4 24 98 00 00 	mov    QWORD PTR [r12+0x98],rsi
    3699:	00 
    369a:	4c 89 6e e0          	mov    QWORD PTR [rsi-0x20],r13
    369e:	4c 89 76 e8          	mov    QWORD PTR [rsi-0x18],r14
    36a2:	b8 01 00 00 00       	mov    eax,0x1
    36a7:	48 89 46 f0          	mov    QWORD PTR [rsi-0x10],rax
    36ab:	b8 01 00 00 00       	mov    eax,0x1
    36b0:	48 89 46 f8          	mov    QWORD PTR [rsi-0x8],rax
    36b4:	48 31 f6             	xor    rsi,rsi
    36b7:	48 b8 00 00 00 00 00 	movabs rax,0x0
    36be:	00 00 00 
			36b9: R_X86_64_64	do_callback
    36c1:	48 89 9c 24 f0 03 00 	mov    QWORD PTR [rsp+0x3f0],rbx
    36c8:	00 
    36c9:	48 89 bc 24 f8 03 00 	mov    QWORD PTR [rsp+0x3f8],rdi
    36d0:	00 
    36d1:	4c 89 ac 24 00 04 00 	mov    QWORD PTR [rsp+0x400],r13
    36d8:	00 
    36d9:	ff d0                	call   rax
    36db:	48 8b 9c 24 f0 03 00 	mov    rbx,QWORD PTR [rsp+0x3f0]
    36e2:	00 
    36e3:	4c 8b ac 24 00 04 00 	mov    r13,QWORD PTR [rsp+0x400]
    36ea:	00 
    36eb:	48 89 c6             	mov    rsi,rax
    36ee:	48 89 b4 24 f0 03 00 	mov    QWORD PTR [rsp+0x3f0],rsi
    36f5:	00 
    36f6:	49 8b b4 24 98 00 00 	mov    rsi,QWORD PTR [r12+0x98]
    36fd:	00 
    36fe:	48 8b 7b 08          	mov    rdi,QWORD PTR [rbx+0x8]
    3702:	49 89 b4 24 98 00 00 	mov    QWORD PTR [r12+0x98],rsi
    3709:	00 
    370a:	4c 89 6e e0          	mov    QWORD PTR [rsi-0x20],r13
    370e:	4c 89 76 e8          	mov    QWORD PTR [rsi-0x18],r14
    3712:	b8 01 00 00 00       	mov    eax,0x1
    3717:	48 89 46 f0          	mov    QWORD PTR [rsi-0x10],rax
    371b:	b8 01 00 00 00       	mov    eax,0x1
    3720:	48 89 46 f8          	mov    QWORD PTR [rsi-0x8],rax
    3724:	48 31 f6             	xor    rsi,rsi
    3727:	48 b8 00 00 00 00 00 	movabs rax,0x0
    372e:	00 00 00 
			3729: R_X86_64_64	do_callback
    3731:	48 89 9c 24 f8 03 00 	mov    QWORD PTR [rsp+0x3f8],rbx
    3738:	00 
    3739:	48 89 bc 24 00 04 00 	mov    QWORD PTR [rsp+0x400],rdi
    3740:	00 
    3741:	4c 89 ac 24 08 04 00 	mov    QWORD PTR [rsp+0x408],r13
    3748:	00 
    3749:	ff d0                	call   rax
    374b:	48 8b 9c 24 f8 03 00 	mov    rbx,QWORD PTR [rsp+0x3f8]
    3752:	00 
    3753:	4c 8b ac 24 08 04 00 	mov    r13,QWORD PTR [rsp+0x408]
    375a:	00 
    375b:	48 89 c6             	mov    rsi,rax
    375e:	48 89 b4 24 f8 03 00 	mov    QWORD PTR [rsp+0x3f8],rsi
    3765:	00 
    3766:	49 8b b4 24 98 00 00 	mov    rsi,QWORD PTR [r12+0x98]
    376d:	00 
    376e:	48 8b 7b 08          	mov    rdi,QWORD PTR [rbx+0x8]
    3772:	49 89 b4 24 98 00 00 	mov    QWORD PTR [r12+0x98],rsi
    3779:	00 
    377a:	4c 89 6e e0          	mov    QWORD PTR [rsi-0x20],r13
    377e:	4c 89 76 e8          	mov    QWORD PTR [rsi-0x18],r14
    3782:	b8 01 00 00 00       	mov    eax,0x1
    3787:	48 89 46 f0          	mov    QWORD PTR [rsi-0x10],rax
    378b:	b8 01 00 00 00       	mov    eax,0x1
    3790:	48 89 46 f8          	mov    QWORD PTR [rsi-0x8],rax
    3794:	48 31 f6             	xor    rsi,rsi
    3797:	48 b8 00 00 00 00 00 	movabs rax,0x0
    379e:	00 00 00 
			3799: R_X86_64_64	do_callback
    37a1:	48 89 9c 24 00 04 00 	mov    QWORD PTR [rsp+0x400],rbx
    37a8:	00 
    37a9:	48 89 bc 24 08 04 00 	mov    QWORD PTR [rsp+0x408],rdi
    37b0:	00 
    37b1:	4c 89 ac 24 10 04 00 	mov    QWORD PTR [rsp+0x410],r13
    37b8:	00 
    37b9:	ff d0                	call   rax
    37bb:	48 8b 9c 24 00 04 00 	mov    rbx,QWORD PTR [rsp+0x400]
    37c2:	00 
    37c3:	4c 8b ac 24 10 04 00 	mov    r13,QWORD PTR [rsp+0x410]
    37ca:	00 
    37cb:	48 89 c6             	mov    rsi,rax
    37ce:	48 89 b4 24 00 04 00 	mov    QWORD PTR [rsp+0x400],rsi
    37d5:	00 
    37d6:	49 8b b4 24 98 00 00 	mov    rsi,QWORD PTR [r12+0x98]
    37dd:	00 
    37de:	48 8b 7b 08          	mov    rdi,QWORD PTR [rbx+0x8]
    37e2:	49 89 b4 24 98 00 00 	mov    QWORD PTR [r12+0x98],rsi
    37e9:	00 
    37ea:	4c 89 6e e0          	mov    QWORD PTR [rsi-0x20],r13
    37ee:	4c 89 76 e8          	mov    QWORD PTR [rsi-0x18],r14
    37f2:	b8 01 00 00 00       	mov    eax,0x1
    37f7:	48 89 46 f0          	mov    QWORD PTR [rsi-0x10],rax
    37fb:	b8 01 00 00 00       	mov    eax,0x1
    3800:	48 89 46 f8          	mov    QWORD PTR [rsi-0x8],rax
    3804:	48 31 f6             	xor    rsi,rsi
    3807:	48 b8 00 00 00 00 00 	movabs rax,0x0
    380e:	00 00 00 
			3809: R_X86_64_64	do_callback
    3811:	48 89 9c 24 08 04 00 	mov    QWORD PTR [rsp+0x408],rbx
    3818:	00 
    3819:	48 89 bc 24 10 04 00 	mov    QWORD PTR [rsp+0x410],rdi
    3820:	00 
    3821:	4c 89 ac 24 18 04 00 	mov    QWORD PTR [rsp+0x418],r13
    3828:	00 
    3829:	ff d0                	call   rax
    382b:	48 8b 9c 24 08 04 00 	mov    rbx,QWORD PTR [rsp+0x408]
    3832:	00 
    3833:	4c 8b ac 24 18 04 00 	mov    r13,QWORD PTR [rsp+0x418]
    383a:	00 
    383b:	48 89 c6             	mov    rsi,rax
    383e:	48 89 b4 24 08 04 00 	mov    QWORD PTR [rsp+0x408],rsi
    3845:	00 
    3846:	49 8b b4 24 98 00 00 	mov    rsi,QWORD PTR [r12+0x98]
    384d:	00 
    384e:	48 8b 7b 08          	mov    rdi,QWORD PTR [rbx+0x8]
    3852:	49 89 b4 24 98 00 00 	mov    QWORD PTR [r12+0x98],rsi
    3859:	00 
    385a:	4c 89 6e e0          	mov    QWORD PTR [rsi-0x20],r13
    385e:	4c 89 76 e8          	mov    QWORD PTR [rsi-0x18],r14
    3862:	b8 01 00 00 00       	mov    eax,0x1
    3867:	48 89 46 f0          	mov    QWORD PTR [rsi-0x10],rax
    386b:	b8 01 00 00 00       	mov    eax,0x1
    3870:	48 89 46 f8          	mov    QWORD PTR [rsi-0x8],rax
    3874:	48 31 f6             	xor    rsi,rsi
    3877:	48 b8 00 00 00 00 00 	movabs rax,0x0
    387e:	00 00 00 
			3879: R_X86_64_64	do_callback
    3881:	48 89 9c 24 10 04 00 	mov    QWORD PTR [rsp+0x410],rbx
    3888:	00 
    3889:	48 89 bc 24 18 04 00 	mov    QWORD PTR [rsp+0x418],rdi
    3890:	00 
    3891:	4c 89 ac 24 20 04 00 	mov    QWORD PTR [rsp+0x420],r13
    3898:	00 
    3899:	ff d0                	call   rax
    389b:	48 8b 9c 24 10 04 00 	mov    rbx,QWORD PTR [rsp+0x410]
    38a2:	00 
    38a3:	4c 8b ac 24 20 04 00 	mov    r13,QWORD PTR [rsp+0x420]
    38aa:	00 
    38ab:	48 89 c6             	mov    rsi,rax
    38ae:	48 89 b4 24 10 04 00 	mov    QWORD PTR [rsp+0x410],rsi
    38b5:	00 
    38b6:	49 8b b4 24 98 00 00 	mov    rsi,QWORD PTR [r12+0x98]
    38bd:	00 
    38be:	48 8b 7b 08          	mov    rdi,QWORD PTR [rbx+0x8]
    38c2:	49 89 b4 24 98 00 00 	mov    QWORD PTR [r12+0x98],rsi
    38c9:	00 
    38ca:	4c 89 6e e0          	mov    QWORD PTR [rsi-0x20],r13
    38ce:	4c 89 76 e8          	mov    QWORD PTR [rsi-0x18],r14
    38d2:	b8 01 00 00 00       	mov    eax,0x1
    38d7:	48 89 46 f0          	mov    QWORD PTR [rsi-0x10],rax
    38db:	b8 01 00 00 00       	mov    eax,0x1
    38e0:	48 89 46 f8          	mov    QWORD PTR [rsi-0x8],rax
    38e4:	48 31 f6             	xor    rsi,rsi
    38e7:	48 b8 00 00 00 00 00 	movabs rax,0x0
    38ee:	00 00 00 
			38e9: R_X86_64_64	do_callback
    38f1:	48 89 9c 24 18 04 00 	mov    QWORD PTR [rsp+0x418],rbx
    38f8:	00 
    38f9:	48 89 bc 24 20 04 00 	mov    QWORD PTR [rsp+0x420],rdi
    3900:	00 
    3901:	4c 89 ac 24 28 04 00 	mov    QWORD PTR [rsp+0x428],r13
    3908:	00 
    3909:	ff d0                	call   rax
    390b:	48 8b 9c 24 18 04 00 	mov    rbx,QWORD PTR [rsp+0x418]
    3912:	00 
    3913:	4c 8b ac 24 28 04 00 	mov    r13,QWORD PTR [rsp+0x428]
    391a:	00 
    391b:	48 89 c6             	mov    rsi,rax
    391e:	48 89 b4 24 18 04 00 	mov    QWORD PTR [rsp+0x418],rsi
    3925:	00 
    3926:	49 8b b4 24 98 00 00 	mov    rsi,QWORD PTR [r12+0x98]
    392d:	00 
    392e:	48 8b 7b 08          	mov    rdi,QWORD PTR [rbx+0x8]
    3932:	49 89 b4 24 98 00 00 	mov    QWORD PTR [r12+0x98],rsi
    3939:	00 
    393a:	4c 89 6e e0          	mov    QWORD PTR [rsi-0x20],r13
    393e:	4c 89 76 e8          	mov    QWORD PTR [rsi-0x18],r14
    3942:	b8 01 00 00 00       	mov    eax,0x1
    3947:	48 89 46 f0          	mov    QWORD PTR [rsi-0x10],rax
    394b:	b8 01 00 00 00       	mov    eax,0x1
    3950:	48 89 46 f8          	mov    QWORD PTR [rsi-0x8],rax
    3954:	48 31 f6             	xor    rsi,rsi
    3957:	48 b8 00 00 00 00 00 	movabs rax,0x0
    395e:	00 00 00 
			3959: R_X86_64_64	do_callback
    3961:	48 89 9c 24 20 04 00 	mov    QWORD PTR [rsp+0x420],rbx
    3968:	00 
    3969:	48 89 bc 24 28 04 00 	mov    QWORD PTR [rsp+0x428],rdi
    3970:	00 
    3971:	4c 89 ac 24 30 04 00 	mov    QWORD PTR [rsp+0x430],r13
    3978:	00 
    3979:	ff d0                	call   rax
    397b:	48 8b 9c 24 20 04 00 	mov    rbx,QWORD PTR [rsp+0x420]
    3982:	00 
    3983:	4c 8b ac 24 30 04 00 	mov    r13,QWORD PTR [rsp+0x430]
    398a:	00 
    398b:	48 89 c6             	mov    rsi,rax
    398e:	48 89 b4 24 20 04 00 	mov    QWORD PTR [rsp+0x420],rsi
    3995:	00 
    3996:	49 8b b4 24 98 00 00 	mov    rsi,QWORD PTR [r12+0x98]
    399d:	00 
    399e:	48 8b 7b 08          	mov    rdi,QWORD PTR [rbx+0x8]
    39a2:	49 89 b4 24 98 00 00 	mov    QWORD PTR [r12+0x98],rsi
    39a9:	00 
    39aa:	4c 89 6e e0          	mov    QWORD PTR [rsi-0x20],r13
    39ae:	4c 89 76 e8          	mov    QWORD PTR [rsi-0x18],r14
    39b2:	b8 01 00 00 00       	mov    eax,0x1
    39b7:	48 89 46 f0          	mov    QWORD PTR [rsi-0x10],rax
    39bb:	b8 01 00 00 00       	mov    eax,0x1
    39c0:	48 89 46 f8          	mov    QWORD PTR [rsi-0x8],rax
    39c4:	48 31 f6             	xor    rsi,rsi
    39c7:	48 b8 00 00 00 00 00 	movabs rax,0x0
    39ce:	00 00 00 
			39c9: R_X86_64_64	do_callback
    39d1:	48 89 9c 24 28 04 00 	mov    QWORD PTR [rsp+0x428],rbx
    39d8:	00 
    39d9:	48 89 bc 24 30 04 00 	mov    QWORD PTR [rsp+0x430],rdi
    39e0:	00 
    39e1:	4c 89 ac 24 38 04 00 	mov    QWORD PTR [rsp+0x438],r13
    39e8:	00 
    39e9:	ff d0                	call   rax
    39eb:	48 8b 9c 24 28 04 00 	mov    rbx,QWORD PTR [rsp+0x428]
    39f2:	00 
    39f3:	4c 8b ac 24 38 04 00 	mov    r13,QWORD PTR [rsp+0x438]
    39fa:	00 
    39fb:	48 89 c6             	mov    rsi,rax
    39fe:	48 89 b4 24 28 04 00 	mov    QWORD PTR [rsp+0x428],rsi
    3a05:	00 
    3a06:	49 8b b4 24 98 00 00 	mov    rsi,QWORD PTR [r12+0x98]
    3a0d:	00 
    3a0e:	48 8b 7b 08          	mov    rdi,QWORD PTR [rbx+0x8]
    3a12:	49 89 b4 24 98 00 00 	mov    QWORD PTR [r12+0x98],rsi
    3a19:	00 
    3a1a:	4c 89 6e e0          	mov    QWORD PTR [rsi-0x20],r13
    3a1e:	4c 89 76 e8          	mov    QWORD PTR [rsi-0x18],r14
    3a22:	b8 01 00 00 00       	mov    eax,0x1
    3a27:	48 89 46 f0          	mov    QWORD PTR [rsi-0x10],rax
    3a2b:	b8 01 00 00 00       	mov    eax,0x1
    3a30:	48 89 46 f8          	mov    QWORD PTR [rsi-0x8],rax
    3a34:	48 31 f6             	xor    rsi,rsi
    3a37:	48 b8 00 00 00 00 00 	movabs rax,0x0
    3a3e:	00 00 00 
			3a39: R_X86_64_64	do_callback
    3a41:	48 89 9c 24 30 04 00 	mov    QWORD PTR [rsp+0x430],rbx
    3a48:	00 
    3a49:	48 89 bc 24 38 04 00 	mov    QWORD PTR [rsp+0x438],rdi
    3a50:	00 
    3a51:	4c 89 ac 24 40 04 00 	mov    QWORD PTR [rsp+0x440],r13
    3a58:	00 
    3a59:	ff d0                	call   rax
    3a5b:	48 8b 9c 24 30 04 00 	mov    rbx,QWORD PTR [rsp+0x430]
    3a62:	00 
    3a63:	4c 8b ac 24 40 04 00 	mov    r13,QWORD PTR [rsp+0x440]
    3a6a:	00 
    3a6b:	48 89 c6             	mov    rsi,rax
    3a6e:	48 89 b4 24 30 04 00 	mov    QWORD PTR [rsp+0x430],rsi
    3a75:	00 
    3a76:	49 8b b4 24 98 00 00 	mov    rsi,QWORD PTR [r12+0x98]
    3a7d:	00 
    3a7e:	48 8b 7b 08          	mov    rdi,QWORD PTR [rbx+0x8]
    3a82:	49 89 b4 24 98 00 00 	mov    QWORD PTR [r12+0x98],rsi
    3a89:	00 
    3a8a:	4c 89 6e e0          	mov    QWORD PTR [rsi-0x20],r13
    3a8e:	4c 89 76 e8          	mov    QWORD PTR [rsi-0x18],r14
    3a92:	b8 01 00 00 00       	mov    eax,0x1
    3a97:	48 89 46 f0          	mov    QWORD PTR [rsi-0x10],rax
    3a9b:	b8 01 00 00 00       	mov    eax,0x1
    3aa0:	48 89 46 f8          	mov    QWORD PTR [rsi-0x8],rax
    3aa4:	48 31 f6             	xor    rsi,rsi
    3aa7:	48 b8 00 00 00 00 00 	movabs rax,0x0
    3aae:	00 00 00 
			3aa9: R_X86_64_64	do_callback
    3ab1:	48 89 9c 24 38 04 00 	mov    QWORD PTR [rsp+0x438],rbx
    3ab8:	00 
    3ab9:	48 89 bc 24 40 04 00 	mov    QWORD PTR [rsp+0x440],rdi
    3ac0:	00 
    3ac1:	4c 89 ac 24 48 04 00 	mov    QWORD PTR [rsp+0x448],r13
    3ac8:	00 
    3ac9:	ff d0                	call   rax
    3acb:	48 8b 9c 24 38 04 00 	mov    rbx,QWORD PTR [rsp+0x438]
    3ad2:	00 
    3ad3:	4c 8b ac 24 48 04 00 	mov    r13,QWORD PTR [rsp+0x448]
    3ada:	00 
    3adb:	48 89 c6             	mov    rsi,rax
    3ade:	48 89 b4 24 38 04 00 	mov    QWORD PTR [rsp+0x438],rsi
    3ae5:	00 
    3ae6:	49 8b b4 24 98 00 00 	mov    rsi,QWORD PTR [r12+0x98]
    3aed:	00 
    3aee:	48 8b 7b 08          	mov    rdi,QWORD PTR [rbx+0x8]
    3af2:	49 89 b4 24 98 00 00 	mov    QWORD PTR [r12+0x98],rsi
    3af9:	00 
    3afa:	4c 89 6e e0          	mov    QWORD PTR [rsi-0x20],r13
    3afe:	4c 89 76 e8          	mov    QWORD PTR [rsi-0x18],r14
    3b02:	b8 01 00 00 00       	mov    eax,0x1
    3b07:	48 89 46 f0          	mov    QWORD PTR [rsi-0x10],rax
    3b0b:	b8 01 00 00 00       	mov    eax,0x1
    3b10:	48 89 46 f8          	mov    QWORD PTR [rsi-0x8],rax
    3b14:	48 31 f6             	xor    rsi,rsi
    3b17:	48 b8 00 00 00 00 00 	movabs rax,0x0
    3b1e:	00 00 00 
			3b19: R_X86_64_64	do_callback
    3b21:	48 89 9c 24 40 04 00 	mov    QWORD PTR [rsp+0x440],rbx
    3b28:	00 
    3b29:	48 89 bc 24 48 04 00 	mov    QWORD PTR [rsp+0x448],rdi
    3b30:	00 
    3b31:	4c 89 ac 24 50 04 00 	mov    QWORD PTR [rsp+0x450],r13
    3b38:	00 
    3b39:	ff d0                	call   rax
    3b3b:	48 8b 9c 24 40 04 00 	mov    rbx,QWORD PTR [rsp+0x440]
    3b42:	00 
    3b43:	4c 8b ac 24 50 04 00 	mov    r13,QWORD PTR [rsp+0x450]
    3b4a:	00 
    3b4b:	48 89 c6             	mov    rsi,rax
    3b4e:	48 89 b4 24 40 04 00 	mov    QWORD PTR [rsp+0x440],rsi
    3b55:	00 
    3b56:	49 8b b4 24 98 00 00 	mov    rsi,QWORD PTR [r12+0x98]
    3b5d:	00 
    3b5e:	48 8b 7b 08          	mov    rdi,QWORD PTR [rbx+0x8]
    3b62:	49 89 b4 24 98 00 00 	mov    QWORD PTR [r12+0x98],rsi
    3b69:	00 
    3b6a:	4c 89 6e e0          	mov    QWORD PTR [rsi-0x20],r13
    3b6e:	4c 89 76 e8          	mov    QWORD PTR [rsi-0x18],r14
    3b72:	b8 01 00 00 00       	mov    eax,0x1
    3b77:	48 89 46 f0          	mov    QWORD PTR [rsi-0x10],rax
    3b7b:	b8 01 00 00 00       	mov    eax,0x1
    3b80:	48 89 46 f8          	mov    QWORD PTR [rsi-0x8],rax
    3b84:	48 31 f6             	xor    rsi,rsi
    3b87:	48 b8 00 00 00 00 00 	movabs rax,0x0
    3b8e:	00 00 00 
			3b89: R_X86_64_64	do_callback
    3b91:	48 89 9c 24 48 04 00 	mov    QWORD PTR [rsp+0x448],rbx
    3b98:	00 
    3b99:	48 89 bc 24 50 04 00 	mov    QWORD PTR [rsp+0x450],rdi
    3ba0:	00 
    3ba1:	4c 89 ac 24 58 04 00 	mov    QWORD PTR [rsp+0x458],r13
    3ba8:	00 
    3ba9:	ff d0                	call   rax
    3bab:	48 8b 9c 24 48 04 00 	mov    rbx,QWORD PTR [rsp+0x448]
    3bb2:	00 
    3bb3:	4c 8b ac 24 58 04 00 	mov    r13,QWORD PTR [rsp+0x458]
    3bba:	00 
    3bbb:	48 89 c6             	mov    rsi,rax
    3bbe:	48 89 b4 24 48 04 00 	mov    QWORD PTR [rsp+0x448],rsi
    3bc5:	00 
    3bc6:	49 8b b4 24 98 00 00 	mov    rsi,QWORD PTR [r12+0x98]
    3bcd:	00 
    3bce:	48 8b 7b 08          	mov    rdi,QWORD PTR [rbx+0x8]
    3bd2:	49 89 b4 24 98 00 00 	mov    QWORD PTR [r12+0x98],rsi
    3bd9:	00 
    3bda:	4c 89 6e e0          	mov    QWORD PTR [rsi-0x20],r13
    3bde:	4c 89 76 e8          	mov    QWORD PTR [rsi-0x18],r14
    3be2:	b8 01 00 00 00       	mov    eax,0x1
    3be7:	48 89 46 f0          	mov    QWORD PTR [rsi-0x10],rax
    3beb:	b8 01 00 00 00       	mov    eax,0x1
    3bf0:	48 89 46 f8          	mov    QWORD PTR [rsi-0x8],rax
    3bf4:	48 31 f6             	xor    rsi,rsi
    3bf7:	48 b8 00 00 00 00 00 	movabs rax,0x0
    3bfe:	00 00 00 
			3bf9: R_X86_64_64	do_callback
    3c01:	48 89 9c 24 50 04 00 	mov    QWORD PTR [rsp+0x450],rbx
    3c08:	00 
    3c09:	48 89 bc 24 58 04 00 	mov    QWORD PTR [rsp+0x458],rdi
    3c10:	00 
    3c11:	4c 89 ac 24 60 04 00 	mov    QWORD PTR [rsp+0x460],r13
    3c18:	00 
    3c19:	ff d0                	call   rax
    3c1b:	48 8b 9c 24 50 04 00 	mov    rbx,QWORD PTR [rsp+0x450]
    3c22:	00 
    3c23:	4c 8b ac 24 60 04 00 	mov    r13,QWORD PTR [rsp+0x460]
    3c2a:	00 
    3c2b:	48 89 c6             	mov    rsi,rax
    3c2e:	48 89 b4 24 50 04 00 	mov    QWORD PTR [rsp+0x450],rsi
    3c35:	00 
    3c36:	49 8b b4 24 98 00 00 	mov    rsi,QWORD PTR [r12+0x98]
    3c3d:	00 
    3c3e:	48 8b 7b 08          	mov    rdi,QWORD PTR [rbx+0x8]
    3c42:	49 89 b4 24 98 00 00 	mov    QWORD PTR [r12+0x98],rsi
    3c49:	00 
    3c4a:	4c 89 6e e0          	mov    QWORD PTR [rsi-0x20],r13
    3c4e:	4c 89 76 e8          	mov    QWORD PTR [rsi-0x18],r14
    3c52:	b8 01 00 00 00       	mov    eax,0x1
    3c57:	48 89 46 f0          	mov    QWORD PTR [rsi-0x10],rax
    3c5b:	b8 01 00 00 00       	mov    eax,0x1
    3c60:	48 89 46 f8          	mov    QWORD PTR [rsi-0x8],rax
    3c64:	48 31 f6             	xor    rsi,rsi
    3c67:	48 b8 00 00 00 00 00 	movabs rax,0x0
    3c6e:	00 00 00 
			3c69: R_X86_64_64	do_callback
    3c71:	48 89 9c 24 58 04 00 	mov    QWORD PTR [rsp+0x458],rbx
    3c78:	00 
    3c79:	48 89 bc 24 60 04 00 	mov    QWORD PTR [rsp+0x460],rdi
    3c80:	00 
    3c81:	4c 89 ac 24 68 04 00 	mov    QWORD PTR [rsp+0x468],r13
    3c88:	00 
    3c89:	ff d0                	call   rax
    3c8b:	48 8b 9c 24 58 04 00 	mov    rbx,QWORD PTR [rsp+0x458]
    3c92:	00 
    3c93:	4c 8b ac 24 68 04 00 	mov    r13,QWORD PTR [rsp+0x468]
    3c9a:	00 
    3c9b:	48 89 c6             	mov    rsi,rax
    3c9e:	48 89 b4 24 58 04 00 	mov    QWORD PTR [rsp+0x458],rsi
    3ca5:	00 
    3ca6:	49 8b b4 24 98 00 00 	mov    rsi,QWORD PTR [r12+0x98]
    3cad:	00 
    3cae:	48 8b 7b 08          	mov    rdi,QWORD PTR [rbx+0x8]
    3cb2:	49 89 b4 24 98 00 00 	mov    QWORD PTR [r12+0x98],rsi
    3cb9:	00 
    3cba:	4c 89 6e e0          	mov    QWORD PTR [rsi-0x20],r13
    3cbe:	4c 89 76 e8          	mov    QWORD PTR [rsi-0x18],r14
    3cc2:	b8 01 00 00 00       	mov    eax,0x1
    3cc7:	48 89 46 f0          	mov    QWORD PTR [rsi-0x10],rax
    3ccb:	b8 01 00 00 00       	mov    eax,0x1
    3cd0:	48 89 46 f8          	mov    QWORD PTR [rsi-0x8],rax
    3cd4:	48 31 f6             	xor    rsi,rsi
    3cd7:	48 b8 00 00 00 00 00 	movabs rax,0x0
    3cde:	00 00 00 
			3cd9: R_X86_64_64	do_callback
    3ce1:	48 89 9c 24 60 04 00 	mov    QWORD PTR [rsp+0x460],rbx
    3ce8:	00 
    3ce9:	48 89 bc 24 68 04 00 	mov    QWORD PTR [rsp+0x468],rdi
    3cf0:	00 
    3cf1:	4c 89 ac 24 70 04 00 	mov    QWORD PTR [rsp+0x470],r13
    3cf8:	00 
    3cf9:	ff d0                	call   rax
    3cfb:	48 8b 9c 24 60 04 00 	mov    rbx,QWORD PTR [rsp+0x460]
    3d02:	00 
    3d03:	4c 8b ac 24 70 04 00 	mov    r13,QWORD PTR [rsp+0x470]
    3d0a:	00 
    3d0b:	48 89 c6             	mov    rsi,rax
    3d0e:	48 89 b4 24 60 04 00 	mov    QWORD PTR [rsp+0x460],rsi
    3d15:	00 
    3d16:	49 8b b4 24 98 00 00 	mov    rsi,QWORD PTR [r12+0x98]
    3d1d:	00 
    3d1e:	48 8b 7b 08          	mov    rdi,QWORD PTR [rbx+0x8]
    3d22:	49 89 b4 24 98 00 00 	mov    QWORD PTR [r12+0x98],rsi
    3d29:	00 
    3d2a:	4c 89 6e e0          	mov    QWORD PTR [rsi-0x20],r13
    3d2e:	4c 89 76 e8          	mov    QWORD PTR [rsi-0x18],r14
    3d32:	b8 01 00 00 00       	mov    eax,0x1
    3d37:	48 89 46 f0          	mov    QWORD PTR [rsi-0x10],rax
    3d3b:	b8 01 00 00 00       	mov    eax,0x1
    3d40:	48 89 46 f8          	mov    QWORD PTR [rsi-0x8],rax
    3d44:	48 31 f6             	xor    rsi,rsi
    3d47:	48 b8 00 00 00 00 00 	movabs rax,0x0
    3d4e:	00 00 00 
			3d49: R_X86_64_64	do_callback
    3d51:	48 89 9c 24 68 04 00 	mov    QWORD PTR [rsp+0x468],rbx
    3d58:	00 
    3d59:	48 89 bc 24 70 04 00 	mov    QWORD PTR [rsp+0x470],rdi
    3d60:	00 
    3d61:	4c 89 ac 24 78 04 00 	mov    QWORD PTR [rsp+0x478],r13
    3d68:	00 
    3d69:	ff d0                	call   rax
    3d6b:	48 8b 9c 24 68 04 00 	mov    rbx,QWORD PTR [rsp+0x468]
    3d72:	00 
    3d73:	4c 8b ac 24 78 04 00 	mov    r13,QWORD PTR [rsp+0x478]
    3d7a:	00 
    3d7b:	48 89 c6             	mov    rsi,rax
    3d7e:	48 89 b4 24 68 04 00 	mov    QWORD PTR [rsp+0x468],rsi
    3d85:	00 
    3d86:	49 8b b4 24 98 00 00 	mov    rsi,QWORD PTR [r12+0x98]
    3d8d:	00 
    3d8e:	48 8b 7b 08          	mov    rdi,QWORD PTR [rbx+0x8]
    3d92:	49 89 b4 24 98 00 00 	mov    QWORD PTR [r12+0x98],rsi
    3d99:	00 
    3d9a:	4c 89 6e e0          	mov    QWORD PTR [rsi-0x20],r13
    3d9e:	4c 89 76 e8          	mov    QWORD PTR [rsi-0x18],r14
    3da2:	b8 01 00 00 00       	mov    eax,0x1
    3da7:	48 89 46 f0          	mov    QWORD PTR [rsi-0x10],rax
    3dab:	b8 01 00 00 00       	mov    eax,0x1
    3db0:	48 89 46 f8          	mov    QWORD PTR [rsi-0x8],rax
    3db4:	48 31 f6             	xor    rsi,rsi
    3db7:	48 b8 00 00 00 00 00 	movabs rax,0x0
    3dbe:	00 00 00 
			3db9: R_X86_64_64	do_callback
    3dc1:	48 89 9c 24 70 04 00 	mov    QWORD PTR [rsp+0x470],rbx
    3dc8:	00 
    3dc9:	48 89 bc 24 78 04 00 	mov    QWORD PTR [rsp+0x478],rdi
    3dd0:	00 
    3dd1:	4c 89 ac 24 80 04 00 	mov    QWORD PTR [rsp+0x480],r13
    3dd8:	00 
    3dd9:	ff d0                	call   rax
    3ddb:	48 8b 9c 24 70 04 00 	mov    rbx,QWORD PTR [rsp+0x470]
    3de2:	00 
    3de3:	4c 8b ac 24 80 04 00 	mov    r13,QWORD PTR [rsp+0x480]
    3dea:	00 
    3deb:	48 89 c6             	mov    rsi,rax
    3dee:	48 89 b4 24 70 04 00 	mov    QWORD PTR [rsp+0x470],rsi
    3df5:	00 
    3df6:	49 8b b4 24 98 00 00 	mov    rsi,QWORD PTR [r12+0x98]
    3dfd:	00 
    3dfe:	48 8b 7b 08          	mov    rdi,QWORD PTR [rbx+0x8]
    3e02:	49 89 b4 24 98 00 00 	mov    QWORD PTR [r12+0x98],rsi
    3e09:	00 
    3e0a:	4c 89 6e e0          	mov    QWORD PTR [rsi-0x20],r13
    3e0e:	4c 89 76 e8          	mov    QWORD PTR [rsi-0x18],r14
    3e12:	b8 01 00 00 00       	mov    eax,0x1
    3e17:	48 89 46 f0          	mov    QWORD PTR [rsi-0x10],rax
    3e1b:	b8 01 00 00 00       	mov    eax,0x1
    3e20:	48 89 46 f8          	mov    QWORD PTR [rsi-0x8],rax
    3e24:	48 31 f6             	xor    rsi,rsi
    3e27:	48 b8 00 00 00 00 00 	movabs rax,0x0
    3e2e:	00 00 00 
			3e29: R_X86_64_64	do_callback
    3e31:	48 89 9c 24 78 04 00 	mov    QWORD PTR [rsp+0x478],rbx
    3e38:	00 
    3e39:	48 89 bc 24 80 04 00 	mov    QWORD PTR [rsp+0x480],rdi
    3e40:	00 
    3e41:	4c 89 ac 24 88 04 00 	mov    QWORD PTR [rsp+0x488],r13
    3e48:	00 
    3e49:	ff d0                	call   rax
    3e4b:	48 8b 9c 24 78 04 00 	mov    rbx,QWORD PTR [rsp+0x478]
    3e52:	00 
    3e53:	4c 8b ac 24 88 04 00 	mov    r13,QWORD PTR [rsp+0x488]
    3e5a:	00 
    3e5b:	48 89 c6             	mov    rsi,rax
    3e5e:	48 89 b4 24 78 04 00 	mov    QWORD PTR [rsp+0x478],rsi
    3e65:	00 
    3e66:	49 8b b4 24 98 00 00 	mov    rsi,QWORD PTR [r12+0x98]
    3e6d:	00 
    3e6e:	48 8b 7b 08          	mov    rdi,QWORD PTR [rbx+0x8]
    3e72:	49 89 b4 24 98 00 00 	mov    QWORD PTR [r12+0x98],rsi
    3e79:	00 
    3e7a:	4c 89 6e e0          	mov    QWORD PTR [rsi-0x20],r13
    3e7e:	4c 89 76 e8          	mov    QWORD PTR [rsi-0x18],r14
    3e82:	b8 01 00 00 00       	mov    eax,0x1
    3e87:	48 89 46 f0          	mov    QWORD PTR [rsi-0x10],rax
    3e8b:	b8 01 00 00 00       	mov    eax,0x1
    3e90:	48 89 46 f8          	mov    QWORD PTR [rsi-0x8],rax
    3e94:	48 31 f6             	xor    rsi,rsi
    3e97:	48 b8 00 00 00 00 00 	movabs rax,0x0
    3e9e:	00 00 00 
			3e99: R_X86_64_64	do_callback
    3ea1:	48 89 9c 24 80 04 00 	mov    QWORD PTR [rsp+0x480],rbx
    3ea8:	00 
    3ea9:	48 89 bc 24 88 04 00 	mov    QWORD PTR [rsp+0x488],rdi
    3eb0:	00 
    3eb1:	4c 89 ac 24 90 04 00 	mov    QWORD PTR [rsp+0x490],r13
    3eb8:	00 
    3eb9:	ff d0                	call   rax
    3ebb:	48 8b 9c 24 80 04 00 	mov    rbx,QWORD PTR [rsp+0x480]
    3ec2:	00 
    3ec3:	4c 8b ac 24 90 04 00 	mov    r13,QWORD PTR [rsp+0x490]
    3eca:	00 
    3ecb:	48 89 c6             	mov    rsi,rax
    3ece:	48 89 b4 24 80 04 00 	mov    QWORD PTR [rsp+0x480],rsi
    3ed5:	00 
    3ed6:	49 8b b4 24 98 00 00 	mov    rsi,QWORD PTR [r12+0x98]
    3edd:	00 
    3ede:	48 8b 7b 08          	mov    rdi,QWORD PTR [rbx+0x8]
    3ee2:	49 89 b4 24 98 00 00 	mov    QWORD PTR [r12+0x98],rsi
    3ee9:	00 
    3eea:	4c 89 6e e0          	mov    QWORD PTR [rsi-0x20],r13
    3eee:	4c 89 76 e8          	mov    QWORD PTR [rsi-0x18],r14
    3ef2:	b8 01 00 00 00       	mov    eax,0x1
    3ef7:	48 89 46 f0          	mov    QWORD PTR [rsi-0x10],rax
    3efb:	b8 01 00 00 00       	mov    eax,0x1
    3f00:	48 89 46 f8          	mov    QWORD PTR [rsi-0x8],rax
    3f04:	48 31 f6             	xor    rsi,rsi
    3f07:	48 b8 00 00 00 00 00 	movabs rax,0x0
    3f0e:	00 00 00 
			3f09: R_X86_64_64	do_callback
    3f11:	48 89 9c 24 88 04 00 	mov    QWORD PTR [rsp+0x488],rbx
    3f18:	00 
    3f19:	48 89 bc 24 90 04 00 	mov    QWORD PTR [rsp+0x490],rdi
    3f20:	00 
    3f21:	4c 89 ac 24 98 04 00 	mov    QWORD PTR [rsp+0x498],r13
    3f28:	00 
    3f29:	ff d0                	call   rax
    3f2b:	48 8b 9c 24 88 04 00 	mov    rbx,QWORD PTR [rsp+0x488]
    3f32:	00 
    3f33:	4c 8b ac 24 98 04 00 	mov    r13,QWORD PTR [rsp+0x498]
    3f3a:	00 
    3f3b:	48 89 c6             	mov    rsi,rax
    3f3e:	48 89 b4 24 88 04 00 	mov    QWORD PTR [rsp+0x488],rsi
    3f45:	00 
    3f46:	49 8b b4 24 98 00 00 	mov    rsi,QWORD PTR [r12+0x98]
    3f4d:	00 
    3f4e:	48 8b 7b 08          	mov    rdi,QWORD PTR [rbx+0x8]
    3f52:	49 89 b4 24 98 00 00 	mov    QWORD PTR [r12+0x98],rsi
    3f59:	00 
    3f5a:	4c 89 6e e0          	mov    QWORD PTR [rsi-0x20],r13
    3f5e:	4c 89 76 e8          	mov    QWORD PTR [rsi-0x18],r14
    3f62:	b8 01 00 00 00       	mov    eax,0x1
    3f67:	48 89 46 f0          	mov    QWORD PTR [rsi-0x10],rax
    3f6b:	b8 01 00 00 00       	mov    eax,0x1
    3f70:	48 89 46 f8          	mov    QWORD PTR [rsi-0x8],rax
    3f74:	48 31 f6             	xor    rsi,rsi
    3f77:	48 b8 00 00 00 00 00 	movabs rax,0x0
    3f7e:	00 00 00 
			3f79: R_X86_64_64	do_callback
    3f81:	48 89 9c 24 90 04 00 	mov    QWORD PTR [rsp+0x490],rbx
    3f88:	00 
    3f89:	48 89 bc 24 98 04 00 	mov    QWORD PTR [rsp+0x498],rdi
    3f90:	00 
    3f91:	4c 89 ac 24 a0 04 00 	mov    QWORD PTR [rsp+0x4a0],r13
    3f98:	00 
    3f99:	ff d0                	call   rax
    3f9b:	48 8b 9c 24 90 04 00 	mov    rbx,QWORD PTR [rsp+0x490]
    3fa2:	00 
    3fa3:	4c 8b ac 24 a0 04 00 	mov    r13,QWORD PTR [rsp+0x4a0]
    3faa:	00 
    3fab:	48 89 c6             	mov    rsi,rax
    3fae:	48 89 b4 24 90 04 00 	mov    QWORD PTR [rsp+0x490],rsi
    3fb5:	00 
    3fb6:	49 8b b4 24 98 00 00 	mov    rsi,QWORD PTR [r12+0x98]
    3fbd:	00 
    3fbe:	48 8b 7b 08          	mov    rdi,QWORD PTR [rbx+0x8]
    3fc2:	49 89 b4 24 98 00 00 	mov    QWORD PTR [r12+0x98],rsi
    3fc9:	00 
    3fca:	4c 89 6e e0          	mov    QWORD PTR [rsi-0x20],r13
    3fce:	4c 89 76 e8          	mov    QWORD PTR [rsi-0x18],r14
    3fd2:	b8 01 00 00 00       	mov    eax,0x1
    3fd7:	48 89 46 f0          	mov    QWORD PTR [rsi-0x10],rax
    3fdb:	b8 01 00 00 00       	mov    eax,0x1
    3fe0:	48 89 46 f8          	mov    QWORD PTR [rsi-0x8],rax
    3fe4:	48 31 f6             	xor    rsi,rsi
    3fe7:	48 b8 00 00 00 00 00 	movabs rax,0x0
    3fee:	00 00 00 
			3fe9: R_X86_64_64	do_callback
    3ff1:	48 89 9c 24 98 04 00 	mov    QWORD PTR [rsp+0x498],rbx
    3ff8:	00 
    3ff9:	48 89 bc 24 a0 04 00 	mov    QWORD PTR [rsp+0x4a0],rdi
    4000:	00 
    4001:	4c 89 ac 24 a8 04 00 	mov    QWORD PTR [rsp+0x4a8],r13
    4008:	00 
    4009:	ff d0                	call   rax
    400b:	48 8b 9c 24 98 04 00 	mov    rbx,QWORD PTR [rsp+0x498]
    4012:	00 
    4013:	4c 8b ac 24 a8 04 00 	mov    r13,QWORD PTR [rsp+0x4a8]
    401a:	00 
    401b:	48 89 c6             	mov    rsi,rax
    401e:	48 89 b4 24 98 04 00 	mov    QWORD PTR [rsp+0x498],rsi
    4025:	00 
    4026:	49 8b b4 24 98 00 00 	mov    rsi,QWORD PTR [r12+0x98]
    402d:	00 
    402e:	48 8b 7b 08          	mov    rdi,QWORD PTR [rbx+0x8]
    4032:	49 89 b4 24 98 00 00 	mov    QWORD PTR [r12+0x98],rsi
    4039:	00 
    403a:	4c 89 6e e0          	mov    QWORD PTR [rsi-0x20],r13
    403e:	4c 89 76 e8          	mov    QWORD PTR [rsi-0x18],r14
    4042:	b8 01 00 00 00       	mov    eax,0x1
    4047:	48 89 46 f0          	mov    QWORD PTR [rsi-0x10],rax
    404b:	b8 01 00 00 00       	mov    eax,0x1
    4050:	48 89 46 f8          	mov    QWORD PTR [rsi-0x8],rax
    4054:	48 31 f6             	xor    rsi,rsi
    4057:	48 b8 00 00 00 00 00 	movabs rax,0x0
    405e:	00 00 00 
			4059: R_X86_64_64	do_callback
    4061:	48 89 9c 24 a0 04 00 	mov    QWORD PTR [rsp+0x4a0],rbx
    4068:	00 
    4069:	48 89 bc 24 a8 04 00 	mov    QWORD PTR [rsp+0x4a8],rdi
    4070:	00 
    4071:	4c 89 ac 24 b0 04 00 	mov    QWORD PTR [rsp+0x4b0],r13
    4078:	00 
    4079:	ff d0                	call   rax
    407b:	48 8b 9c 24 a0 04 00 	mov    rbx,QWORD PTR [rsp+0x4a0]
    4082:	00 
    4083:	4c 8b ac 24 b0 04 00 	mov    r13,QWORD PTR [rsp+0x4b0]
    408a:	00 
    408b:	48 89 c6             	mov    rsi,rax
    408e:	48 89 b4 24 a0 04 00 	mov    QWORD PTR [rsp+0x4a0],rsi
    4095:	00 
    4096:	49 8b b4 24 98 00 00 	mov    rsi,QWORD PTR [r12+0x98]
    409d:	00 
    409e:	48 8b 7b 08          	mov    rdi,QWORD PTR [rbx+0x8]
    40a2:	49 89 b4 24 98 00 00 	mov    QWORD PTR [r12+0x98],rsi
    40a9:	00 
    40aa:	4c 89 6e e0          	mov    QWORD PTR [rsi-0x20],r13
    40ae:	4c 89 76 e8          	mov    QWORD PTR [rsi-0x18],r14
    40b2:	b8 01 00 00 00       	mov    eax,0x1
    40b7:	48 89 46 f0          	mov    QWORD PTR [rsi-0x10],rax
    40bb:	b8 01 00 00 00       	mov    eax,0x1
    40c0:	48 89 46 f8          	mov    QWORD PTR [rsi-0x8],rax
    40c4:	48 31 f6             	xor    rsi,rsi
    40c7:	48 b8 00 00 00 00 00 	movabs rax,0x0
    40ce:	00 00 00 
			40c9: R_X86_64_64	do_callback
    40d1:	48 89 9c 24 a8 04 00 	mov    QWORD PTR [rsp+0x4a8],rbx
    40d8:	00 
    40d9:	48 89 bc 24 b0 04 00 	mov    QWORD PTR [rsp+0x4b0],rdi
    40e0:	00 
    40e1:	4c 89 ac 24 b8 04 00 	mov    QWORD PTR [rsp+0x4b8],r13
    40e8:	00 
    40e9:	ff d0                	call   rax
    40eb:	48 8b 9c 24 a8 04 00 	mov    rbx,QWORD PTR [rsp+0x4a8]
    40f2:	00 
    40f3:	4c 8b ac 24 b8 04 00 	mov    r13,QWORD PTR [rsp+0x4b8]
    40fa:	00 
    40fb:	48 89 c6             	mov    rsi,rax
    40fe:	48 89 b4 24 a8 04 00 	mov    QWORD PTR [rsp+0x4a8],rsi
    4105:	00 
    4106:	49 8b b4 24 98 00 00 	mov    rsi,QWORD PTR [r12+0x98]
    410d:	00 
    410e:	48 8b 7b 08          	mov    rdi,QWORD PTR [rbx+0x8]
    4112:	49 89 b4 24 98 00 00 	mov    QWORD PTR [r12+0x98],rsi
    4119:	00 
    411a:	4c 89 6e e0          	mov    QWORD PTR [rsi-0x20],r13
    411e:	4c 89 76 e8          	mov    QWORD PTR [rsi-0x18],r14
    4122:	b8 01 00 00 00       	mov    eax,0x1
    4127:	48 89 46 f0          	mov    QWORD PTR [rsi-0x10],rax
    412b:	b8 01 00 00 00       	mov    eax,0x1
    4130:	48 89 46 f8          	mov    QWORD PTR [rsi-0x8],rax
    4134:	48 31 f6             	xor    rsi,rsi
    4137:	48 b8 00 00 00 00 00 	movabs rax,0x0
    413e:	00 00 00 
			4139: R_X86_64_64	do_callback
    4141:	48 89 9c 24 b0 04 00 	mov    QWORD PTR [rsp+0x4b0],rbx
    4148:	00 
    4149:	48 89 bc 24 b8 04 00 	mov    QWORD PTR [rsp+0x4b8],rdi
    4150:	00 
    4151:	4c 89 ac 24 c0 04 00 	mov    QWORD PTR [rsp+0x4c0],r13
    4158:	00 
    4159:	ff d0                	call   rax
    415b:	48 8b 9c 24 b0 04 00 	mov    rbx,QWORD PTR [rsp+0x4b0]
    4162:	00 
    4163:	4c 8b ac 24 c0 04 00 	mov    r13,QWORD PTR [rsp+0x4c0]
    416a:	00 
    416b:	48 89 c6             	mov    rsi,rax
    416e:	48 89 b4 24 b0 04 00 	mov    QWORD PTR [rsp+0x4b0],rsi
    4175:	00 
    4176:	49 8b b4 24 98 00 00 	mov    rsi,QWORD PTR [r12+0x98]
    417d:	00 
    417e:	48 8b 7b 08          	mov    rdi,QWORD PTR [rbx+0x8]
    4182:	49 89 b4 24 98 00 00 	mov    QWORD PTR [r12+0x98],rsi
    4189:	00 
    418a:	4c 89 6e e0          	mov    QWORD PTR [rsi-0x20],r13
    418e:	4c 89 76 e8          	mov    QWORD PTR [rsi-0x18],r14
    4192:	b8 01 00 00 00       	mov    eax,0x1
    4197:	48 89 46 f0          	mov    QWORD PTR [rsi-0x10],rax
    419b:	b8 01 00 00 00       	mov    eax,0x1
    41a0:	48 89 46 f8          	mov    QWORD PTR [rsi-0x8],rax
    41a4:	48 31 f6             	xor    rsi,rsi
    41a7:	48 b8 00 00 00 00 00 	movabs rax,0x0
    41ae:	00 00 00 
			41a9: R_X86_64_64	do_callback
    41b1:	48 89 9c 24 b8 04 00 	mov    QWORD PTR [rsp+0x4b8],rbx
    41b8:	00 
    41b9:	48 89 bc 24 c0 04 00 	mov    QWORD PTR [rsp+0x4c0],rdi
    41c0:	00 
    41c1:	4c 89 ac 24 c8 04 00 	mov    QWORD PTR [rsp+0x4c8],r13
    41c8:	00 
    41c9:	ff d0                	call   rax
    41cb:	48 8b 9c 24 b8 04 00 	mov    rbx,QWORD PTR [rsp+0x4b8]
    41d2:	00 
    41d3:	4c 8b ac 24 c8 04 00 	mov    r13,QWORD PTR [rsp+0x4c8]
    41da:	00 
    41db:	48 89 c6             	mov    rsi,rax
    41de:	48 89 b4 24 b8 04 00 	mov    QWORD PTR [rsp+0x4b8],rsi
    41e5:	00 
    41e6:	49 8b b4 24 98 00 00 	mov    rsi,QWORD PTR [r12+0x98]
    41ed:	00 
    41ee:	48 8b 7b 08          	mov    rdi,QWORD PTR [rbx+0x8]
    41f2:	49 89 b4 24 98 00 00 	mov    QWORD PTR [r12+0x98],rsi
    41f9:	00 
    41fa:	4c 89 6e e0          	mov    QWORD PTR [rsi-0x20],r13
    41fe:	4c 89 76 e8          	mov    QWORD PTR [rsi-0x18],r14
    4202:	b8 01 00 00 00       	mov    eax,0x1
    4207:	48 89 46 f0          	mov    QWORD PTR [rsi-0x10],rax
    420b:	b8 01 00 00 00       	mov    eax,0x1
    4210:	48 89 46 f8          	mov    QWORD PTR [rsi-0x8],rax
    4214:	48 31 f6             	xor    rsi,rsi
    4217:	48 b8 00 00 00 00 00 	movabs rax,0x0
    421e:	00 00 00 
			4219: R_X86_64_64	do_callback
    4221:	48 89 9c 24 c0 04 00 	mov    QWORD PTR [rsp+0x4c0],rbx
    4228:	00 
    4229:	48 89 bc 24 c8 04 00 	mov    QWORD PTR [rsp+0x4c8],rdi
    4230:	00 
    4231:	4c 89 ac 24 d0 04 00 	mov    QWORD PTR [rsp+0x4d0],r13
    4238:	00 
    4239:	ff d0                	call   rax
    423b:	48 8b 9c 24 c0 04 00 	mov    rbx,QWORD PTR [rsp+0x4c0]
    4242:	00 
    4243:	4c 8b ac 24 d0 04 00 	mov    r13,QWORD PTR [rsp+0x4d0]
    424a:	00 
    424b:	48 89 c6             	mov    rsi,rax
    424e:	48 89 b4 24 c0 04 00 	mov    QWORD PTR [rsp+0x4c0],rsi
    4255:	00 
    4256:	49 8b b4 24 98 00 00 	mov    rsi,QWORD PTR [r12+0x98]
    425d:	00 
    425e:	48 8b 7b 08          	mov    rdi,QWORD PTR [rbx+0x8]
    4262:	49 89 b4 24 98 00 00 	mov    QWORD PTR [r12+0x98],rsi
    4269:	00 
    426a:	4c 89 6e e0          	mov    QWORD PTR [rsi-0x20],r13
    426e:	4c 89 76 e8          	mov    QWORD PTR [rsi-0x18],r14
    4272:	b8 01 00 00 00       	mov    eax,0x1
    4277:	48 89 46 f0          	mov    QWORD PTR [rsi-0x10],rax
    427b:	b8 01 00 00 00       	mov    eax,0x1
    4280:	48 89 46 f8          	mov    QWORD PTR [rsi-0x8],rax
    4284:	48 31 f6             	xor    rsi,rsi
    4287:	48 b8 00 00 00 00 00 	movabs rax,0x0
    428e:	00 00 00 
			4289: R_X86_64_64	do_callback
    4291:	48 89 9c 24 c8 04 00 	mov    QWORD PTR [rsp+0x4c8],rbx
    4298:	00 
    4299:	48 89 bc 24 d0 04 00 	mov    QWORD PTR [rsp+0x4d0],rdi
    42a0:	00 
    42a1:	4c 89 ac 24 d8 04 00 	mov    QWORD PTR [rsp+0x4d8],r13
    42a8:	00 
    42a9:	ff d0                	call   rax
    42ab:	48 8b 9c 24 c8 04 00 	mov    rbx,QWORD PTR [rsp+0x4c8]
    42b2:	00 
    42b3:	4c 8b ac 24 d8 04 00 	mov    r13,QWORD PTR [rsp+0x4d8]
    42ba:	00 
    42bb:	48 89 c6             	mov    rsi,rax
    42be:	48 89 b4 24 c8 04 00 	mov    QWORD PTR [rsp+0x4c8],rsi
    42c5:	00 
    42c6:	49 8b b4 24 98 00 00 	mov    rsi,QWORD PTR [r12+0x98]
    42cd:	00 
    42ce:	48 8b 7b 08          	mov    rdi,QWORD PTR [rbx+0x8]
    42d2:	49 89 b4 24 98 00 00 	mov    QWORD PTR [r12+0x98],rsi
    42d9:	00 
    42da:	4c 89 6e e0          	mov    QWORD PTR [rsi-0x20],r13
    42de:	4c 89 76 e8          	mov    QWORD PTR [rsi-0x18],r14
    42e2:	b8 01 00 00 00       	mov    eax,0x1
    42e7:	48 89 46 f0          	mov    QWORD PTR [rsi-0x10],rax
    42eb:	b8 01 00 00 00       	mov    eax,0x1
    42f0:	48 89 46 f8          	mov    QWORD PTR [rsi-0x8],rax
    42f4:	48 31 f6             	xor    rsi,rsi
    42f7:	48 b8 00 00 00 00 00 	movabs rax,0x0
    42fe:	00 00 00 
			42f9: R_X86_64_64	do_callback
    4301:	48 89 9c 24 d0 04 00 	mov    QWORD PTR [rsp+0x4d0],rbx
    4308:	00 
    4309:	48 89 bc 24 d8 04 00 	mov    QWORD PTR [rsp+0x4d8],rdi
    4310:	00 
    4311:	4c 89 ac 24 e0 04 00 	mov    QWORD PTR [rsp+0x4e0],r13
    4318:	00 
    4319:	ff d0                	call   rax
    431b:	48 8b 9c 24 d0 04 00 	mov    rbx,QWORD PTR [rsp+0x4d0]
    4322:	00 
    4323:	4c 8b ac 24 e0 04 00 	mov    r13,QWORD PTR [rsp+0x4e0]
    432a:	00 
    432b:	48 89 c6             	mov    rsi,rax
    432e:	48 89 b4 24 d0 04 00 	mov    QWORD PTR [rsp+0x4d0],rsi
    4335:	00 
    4336:	49 8b b4 24 98 00 00 	mov    rsi,QWORD PTR [r12+0x98]
    433d:	00 
    433e:	48 8b 7b 08          	mov    rdi,QWORD PTR [rbx+0x8]
    4342:	49 89 b4 24 98 00 00 	mov    QWORD PTR [r12+0x98],rsi
    4349:	00 
    434a:	4c 89 6e e0          	mov    QWORD PTR [rsi-0x20],r13
    434e:	4c 89 76 e8          	mov    QWORD PTR [rsi-0x18],r14
    4352:	b8 01 00 00 00       	mov    eax,0x1
    4357:	48 89 46 f0          	mov    QWORD PTR [rsi-0x10],rax
    435b:	b8 01 00 00 00       	mov    eax,0x1
    4360:	48 89 46 f8          	mov    QWORD PTR [rsi-0x8],rax
    4364:	48 31 f6             	xor    rsi,rsi
    4367:	48 b8 00 00 00 00 00 	movabs rax,0x0
    436e:	00 00 00 
			4369: R_X86_64_64	do_callback
    4371:	48 89 9c 24 d8 04 00 	mov    QWORD PTR [rsp+0x4d8],rbx
    4378:	00 
    4379:	48 89 bc 24 e0 04 00 	mov    QWORD PTR [rsp+0x4e0],rdi
    4380:	00 
    4381:	4c 89 ac 24 e8 04 00 	mov    QWORD PTR [rsp+0x4e8],r13
    4388:	00 
    4389:	ff d0                	call   rax
    438b:	48 8b 9c 24 d8 04 00 	mov    rbx,QWORD PTR [rsp+0x4d8]
    4392:	00 
    4393:	4c 8b ac 24 e8 04 00 	mov    r13,QWORD PTR [rsp+0x4e8]
    439a:	00 
    439b:	48 89 c6             	mov    rsi,rax
    439e:	48 89 b4 24 d8 04 00 	mov    QWORD PTR [rsp+0x4d8],rsi
    43a5:	00 
    43a6:	49 8b b4 24 98 00 00 	mov    rsi,QWORD PTR [r12+0x98]
    43ad:	00 
    43ae:	48 8b 7b 08          	mov    rdi,QWORD PTR [rbx+0x8]
    43b2:	49 89 b4 24 98 00 00 	mov    QWORD PTR [r12+0x98],rsi
    43b9:	00 
    43ba:	4c 89 6e e0          	mov    QWORD PTR [rsi-0x20],r13
    43be:	4c 89 76 e8          	mov    QWORD PTR [rsi-0x18],r14
    43c2:	b8 01 00 00 00       	mov    eax,0x1
    43c7:	48 89 46 f0          	mov    QWORD PTR [rsi-0x10],rax
    43cb:	b8 01 00 00 00       	mov    eax,0x1
    43d0:	48 89 46 f8          	mov    QWORD PTR [rsi-0x8],rax
    43d4:	48 31 f6             	xor    rsi,rsi
    43d7:	48 b8 00 00 00 00 00 	movabs rax,0x0
    43de:	00 00 00 
			43d9: R_X86_64_64	do_callback
    43e1:	48 89 9c 24 e0 04 00 	mov    QWORD PTR [rsp+0x4e0],rbx
    43e8:	00 
    43e9:	48 89 bc 24 e8 04 00 	mov    QWORD PTR [rsp+0x4e8],rdi
    43f0:	00 
    43f1:	4c 89 ac 24 f0 04 00 	mov    QWORD PTR [rsp+0x4f0],r13
    43f8:	00 
    43f9:	ff d0                	call   rax
    43fb:	48 8b 9c 24 e0 04 00 	mov    rbx,QWORD PTR [rsp+0x4e0]
    4402:	00 
    4403:	4c 8b ac 24 f0 04 00 	mov    r13,QWORD PTR [rsp+0x4f0]
    440a:	00 
    440b:	48 89 c6             	mov    rsi,rax
    440e:	48 89 b4 24 e0 04 00 	mov    QWORD PTR [rsp+0x4e0],rsi
    4415:	00 
    4416:	49 8b b4 24 98 00 00 	mov    rsi,QWORD PTR [r12+0x98]
    441d:	00 
    441e:	48 8b 7b 08          	mov    rdi,QWORD PTR [rbx+0x8]
    4422:	49 89 b4 24 98 00 00 	mov    QWORD PTR [r12+0x98],rsi
    4429:	00 
    442a:	4c 89 6e e0          	mov    QWORD PTR [rsi-0x20],r13
    442e:	4c 89 76 e8          	mov    QWORD PTR [rsi-0x18],r14
    4432:	b8 01 00 00 00       	mov    eax,0x1
    4437:	48 89 46 f0          	mov    QWORD PTR [rsi-0x10],rax
    443b:	b8 01 00 00 00       	mov    eax,0x1
    4440:	48 89 46 f8          	mov    QWORD PTR [rsi-0x8],rax
    4444:	48 31 f6             	xor    rsi,rsi
    4447:	48 b8 00 00 00 00 00 	movabs rax,0x0
    444e:	00 00 00 
			4449: R_X86_64_64	do_callback
    4451:	48 89 9c 24 e8 04 00 	mov    QWORD PTR [rsp+0x4e8],rbx
    4458:	00 
    4459:	48 89 bc 24 f0 04 00 	mov    QWORD PTR [rsp+0x4f0],rdi
    4460:	00 
    4461:	4c 89 ac 24 f8 04 00 	mov    QWORD PTR [rsp+0x4f8],r13
    4468:	00 
    4469:	ff d0                	call   rax
    446b:	48 8b 9c 24 e8 04 00 	mov    rbx,QWORD PTR [rsp+0x4e8]
    4472:	00 
    4473:	4c 8b ac 24 f8 04 00 	mov    r13,QWORD PTR [rsp+0x4f8]
    447a:	00 
    447b:	48 89 c6             	mov    rsi,rax
    447e:	48 89 b4 24 e8 04 00 	mov    QWORD PTR [rsp+0x4e8],rsi
    4485:	00 
    4486:	49 8b b4 24 98 00 00 	mov    rsi,QWORD PTR [r12+0x98]
    448d:	00 
    448e:	48 8b 7b 08          	mov    rdi,QWORD PTR [rbx+0x8]
    4492:	49 89 b4 24 98 00 00 	mov    QWORD PTR [r12+0x98],rsi
    4499:	00 
    449a:	4c 89 6e e0          	mov    QWORD PTR [rsi-0x20],r13
    449e:	4c 89 76 e8          	mov    QWORD PTR [rsi-0x18],r14
    44a2:	b8 01 00 00 00       	mov    eax,0x1
    44a7:	48 89 46 f0          	mov    QWORD PTR [rsi-0x10],rax
    44ab:	b8 01 00 00 00       	mov    eax,0x1
    44b0:	48 89 46 f8          	mov    QWORD PTR [rsi-0x8],rax
    44b4:	48 31 f6             	xor    rsi,rsi
    44b7:	48 b8 00 00 00 00 00 	movabs rax,0x0
    44be:	00 00 00 
			44b9: R_X86_64_64	do_callback
    44c1:	48 89 9c 24 f0 04 00 	mov    QWORD PTR [rsp+0x4f0],rbx
    44c8:	00 
    44c9:	48 89 bc 24 f8 04 00 	mov    QWORD PTR [rsp+0x4f8],rdi
    44d0:	00 
    44d1:	4c 89 ac 24 00 05 00 	mov    QWORD PTR [rsp+0x500],r13
    44d8:	00 
    44d9:	ff d0                	call   rax
    44db:	48 8b 9c 24 f0 04 00 	mov    rbx,QWORD PTR [rsp+0x4f0]
    44e2:	00 
    44e3:	4c 8b ac 24 00 05 00 	mov    r13,QWORD PTR [rsp+0x500]
    44ea:	00 
    44eb:	48 89 c6             	mov    rsi,rax
    44ee:	48 89 b4 24 f0 04 00 	mov    QWORD PTR [rsp+0x4f0],rsi
    44f5:	00 
    44f6:	49 8b b4 24 98 00 00 	mov    rsi,QWORD PTR [r12+0x98]
    44fd:	00 
    44fe:	48 8b 7b 08          	mov    rdi,QWORD PTR [rbx+0x8]
    4502:	49 89 b4 24 98 00 00 	mov    QWORD PTR [r12+0x98],rsi
    4509:	00 
    450a:	4c 89 6e e0          	mov    QWORD PTR [rsi-0x20],r13
    450e:	4c 89 76 e8          	mov    QWORD PTR [rsi-0x18],r14
    4512:	b8 01 00 00 00       	mov    eax,0x1
    4517:	48 89 46 f0          	mov    QWORD PTR [rsi-0x10],rax
    451b:	b8 01 00 00 00       	mov    eax,0x1
    4520:	48 89 46 f8          	mov    QWORD PTR [rsi-0x8],rax
    4524:	48 31 f6             	xor    rsi,rsi
    4527:	48 b8 00 00 00 00 00 	movabs rax,0x0
    452e:	00 00 00 
			4529: R_X86_64_64	do_callback
    4531:	48 89 9c 24 f8 04 00 	mov    QWORD PTR [rsp+0x4f8],rbx
    4538:	00 
    4539:	48 89 bc 24 00 05 00 	mov    QWORD PTR [rsp+0x500],rdi
    4540:	00 
    4541:	4c 89 ac 24 08 05 00 	mov    QWORD PTR [rsp+0x508],r13
    4548:	00 
    4549:	ff d0                	call   rax
    454b:	48 8b 9c 24 f8 04 00 	mov    rbx,QWORD PTR [rsp+0x4f8]
    4552:	00 
    4553:	4c 8b ac 24 08 05 00 	mov    r13,QWORD PTR [rsp+0x508]
    455a:	00 
    455b:	48 89 c6             	mov    rsi,rax
    455e:	48 89 b4 24 f8 04 00 	mov    QWORD PTR [rsp+0x4f8],rsi
    4565:	00 
    4566:	49 8b b4 24 98 00 00 	mov    rsi,QWORD PTR [r12+0x98]
    456d:	00 
    456e:	48 8b 7b 08          	mov    rdi,QWORD PTR [rbx+0x8]
    4572:	49 89 b4 24 98 00 00 	mov    QWORD PTR [r12+0x98],rsi
    4579:	00 
    457a:	4c 89 6e e0          	mov    QWORD PTR [rsi-0x20],r13
    457e:	4c 89 76 e8          	mov    QWORD PTR [rsi-0x18],r14
    4582:	b8 01 00 00 00       	mov    eax,0x1
    4587:	48 89 46 f0          	mov    QWORD PTR [rsi-0x10],rax
    458b:	b8 01 00 00 00       	mov    eax,0x1
    4590:	48 89 46 f8          	mov    QWORD PTR [rsi-0x8],rax
    4594:	48 31 f6             	xor    rsi,rsi
    4597:	48 b8 00 00 00 00 00 	movabs rax,0x0
    459e:	00 00 00 
			4599: R_X86_64_64	do_callback
    45a1:	48 89 9c 24 00 05 00 	mov    QWORD PTR [rsp+0x500],rbx
    45a8:	00 
    45a9:	48 89 bc 24 08 05 00 	mov    QWORD PTR [rsp+0x508],rdi
    45b0:	00 
    45b1:	4c 89 ac 24 10 05 00 	mov    QWORD PTR [rsp+0x510],r13
    45b8:	00 
    45b9:	ff d0                	call   rax
    45bb:	48 8b 9c 24 00 05 00 	mov    rbx,QWORD PTR [rsp+0x500]
    45c2:	00 
    45c3:	4c 8b ac 24 10 05 00 	mov    r13,QWORD PTR [rsp+0x510]
    45ca:	00 
    45cb:	48 89 c6             	mov    rsi,rax
    45ce:	48 89 b4 24 00 05 00 	mov    QWORD PTR [rsp+0x500],rsi
    45d5:	00 
    45d6:	49 8b b4 24 98 00 00 	mov    rsi,QWORD PTR [r12+0x98]
    45dd:	00 
    45de:	48 8b 7b 08          	mov    rdi,QWORD PTR [rbx+0x8]
    45e2:	49 89 b4 24 98 00 00 	mov    QWORD PTR [r12+0x98],rsi
    45e9:	00 
    45ea:	4c 89 6e e0          	mov    QWORD PTR [rsi-0x20],r13
    45ee:	4c 89 76 e8          	mov    QWORD PTR [rsi-0x18],r14
    45f2:	b8 01 00 00 00       	mov    eax,0x1
    45f7:	48 89 46 f0          	mov    QWORD PTR [rsi-0x10],rax
    45fb:	b8 01 00 00 00       	mov    eax,0x1
    4600:	48 89 46 f8          	mov    QWORD PTR [rsi-0x8],rax
    4604:	48 31 f6             	xor    rsi,rsi
    4607:	48 b8 00 00 00 00 00 	movabs rax,0x0
    460e:	00 00 00 
			4609: R_X86_64_64	do_callback
    4611:	48 89 9c 24 08 05 00 	mov    QWORD PTR [rsp+0x508],rbx
    4618:	00 
    4619:	48 89 bc 24 10 05 00 	mov    QWORD PTR [rsp+0x510],rdi
    4620:	00 
    4621:	4c 89 ac 24 18 05 00 	mov    QWORD PTR [rsp+0x518],r13
    4628:	00 
    4629:	ff d0                	call   rax
    462b:	48 8b 9c 24 08 05 00 	mov    rbx,QWORD PTR [rsp+0x508]
    4632:	00 
    4633:	4c 8b ac 24 18 05 00 	mov    r13,QWORD PTR [rsp+0x518]
    463a:	00 
    463b:	48 89 c6             	mov    rsi,rax
    463e:	48 89 b4 24 08 05 00 	mov    QWORD PTR [rsp+0x508],rsi
    4645:	00 
    4646:	49 8b b4 24 98 00 00 	mov    rsi,QWORD PTR [r12+0x98]
    464d:	00 
    464e:	48 8b 7b 08          	mov    rdi,QWORD PTR [rbx+0x8]
    4652:	49 89 b4 24 98 00 00 	mov    QWORD PTR [r12+0x98],rsi
    4659:	00 
    465a:	4c 89 6e e0          	mov    QWORD PTR [rsi-0x20],r13
    465e:	4c 89 76 e8          	mov    QWORD PTR [rsi-0x18],r14
    4662:	b8 01 00 00 00       	mov    eax,0x1
    4667:	48 89 46 f0          	mov    QWORD PTR [rsi-0x10],rax
    466b:	b8 01 00 00 00       	mov    eax,0x1
    4670:	48 89 46 f8          	mov    QWORD PTR [rsi-0x8],rax
    4674:	48 31 f6             	xor    rsi,rsi
    4677:	48 b8 00 00 00 00 00 	movabs rax,0x0
    467e:	00 00 00 
			4679: R_X86_64_64	do_callback
    4681:	48 89 9c 24 10 05 00 	mov    QWORD PTR [rsp+0x510],rbx
    4688:	00 
    4689:	48 89 bc 24 18 05 00 	mov    QWORD PTR [rsp+0x518],rdi
    4690:	00 
    4691:	4c 89 ac 24 20 05 00 	mov    QWORD PTR [rsp+0x520],r13
    4698:	00 
    4699:	ff d0                	call   rax
    469b:	48 8b 9c 24 10 05 00 	mov    rbx,QWORD PTR [rsp+0x510]
    46a2:	00 
    46a3:	4c 8b ac 24 20 05 00 	mov    r13,QWORD PTR [rsp+0x520]
    46aa:	00 
    46ab:	48 89 c6             	mov    rsi,rax
    46ae:	48 89 b4 24 10 05 00 	mov    QWORD PTR [rsp+0x510],rsi
    46b5:	00 
    46b6:	49 8b b4 24 98 00 00 	mov    rsi,QWORD PTR [r12+0x98]
    46bd:	00 
    46be:	48 8b 7b 08          	mov    rdi,QWORD PTR [rbx+0x8]
    46c2:	49 89 b4 24 98 00 00 	mov    QWORD PTR [r12+0x98],rsi
    46c9:	00 
    46ca:	4c 89 6e e0          	mov    QWORD PTR [rsi-0x20],r13
    46ce:	4c 89 76 e8          	mov    QWORD PTR [rsi-0x18],r14
    46d2:	b8 01 00 00 00       	mov    eax,0x1
    46d7:	48 89 46 f0          	mov    QWORD PTR [rsi-0x10],rax
    46db:	b8 01 00 00 00       	mov    eax,0x1
    46e0:	48 89 46 f8          	mov    QWORD PTR [rsi-0x8],rax
    46e4:	48 31 f6             	xor    rsi,rsi
    46e7:	48 b8 00 00 00 00 00 	movabs rax,0x0
    46ee:	00 00 00 
			46e9: R_X86_64_64	do_callback
    46f1:	48 89 9c 24 18 05 00 	mov    QWORD PTR [rsp+0x518],rbx
    46f8:	00 
    46f9:	48 89 bc 24 20 05 00 	mov    QWORD PTR [rsp+0x520],rdi
    4700:	00 
    4701:	4c 89 ac 24 28 05 00 	mov    QWORD PTR [rsp+0x528],r13
    4708:	00 
    4709:	ff d0                	call   rax
    470b:	48 8b 9c 24 18 05 00 	mov    rbx,QWORD PTR [rsp+0x518]
    4712:	00 
    4713:	4c 8b ac 24 28 05 00 	mov    r13,QWORD PTR [rsp+0x528]
    471a:	00 
    471b:	48 89 c6             	mov    rsi,rax
    471e:	48 89 b4 24 18 05 00 	mov    QWORD PTR [rsp+0x518],rsi
    4725:	00 
    4726:	49 8b b4 24 98 00 00 	mov    rsi,QWORD PTR [r12+0x98]
    472d:	00 
    472e:	48 8b 7b 08          	mov    rdi,QWORD PTR [rbx+0x8]
    4732:	49 89 b4 24 98 00 00 	mov    QWORD PTR [r12+0x98],rsi
    4739:	00 
    473a:	4c 89 6e e0          	mov    QWORD PTR [rsi-0x20],r13
    473e:	4c 89 76 e8          	mov    QWORD PTR [rsi-0x18],r14
    4742:	b8 01 00 00 00       	mov    eax,0x1
    4747:	48 89 46 f0          	mov    QWORD PTR [rsi-0x10],rax
    474b:	b8 01 00 00 00       	mov    eax,0x1
    4750:	48 89 46 f8          	mov    QWORD PTR [rsi-0x8],rax
    4754:	48 31 f6             	xor    rsi,rsi
    4757:	48 b8 00 00 00 00 00 	movabs rax,0x0
    475e:	00 00 00 
			4759: R_X86_64_64	do_callback
    4761:	48 89 9c 24 20 05 00 	mov    QWORD PTR [rsp+0x520],rbx
    4768:	00 
    4769:	48 89 bc 24 28 05 00 	mov    QWORD PTR [rsp+0x528],rdi
    4770:	00 
    4771:	4c 89 ac 24 30 05 00 	mov    QWORD PTR [rsp+0x530],r13
    4778:	00 
    4779:	ff d0                	call   rax
    477b:	48 8b 9c 24 20 05 00 	mov    rbx,QWORD PTR [rsp+0x520]
    4782:	00 
    4783:	4c 8b ac 24 30 05 00 	mov    r13,QWORD PTR [rsp+0x530]
    478a:	00 
    478b:	48 89 c6             	mov    rsi,rax
    478e:	48 89 b4 24 20 05 00 	mov    QWORD PTR [rsp+0x520],rsi
    4795:	00 
    4796:	49 8b b4 24 98 00 00 	mov    rsi,QWORD PTR [r12+0x98]
    479d:	00 
    479e:	48 8b 7b 08          	mov    rdi,QWORD PTR [rbx+0x8]
    47a2:	49 89 b4 24 98 00 00 	mov    QWORD PTR [r12+0x98],rsi
    47a9:	00 
    47aa:	4c 89 6e e0          	mov    QWORD PTR [rsi-0x20],r13
    47ae:	4c 89 76 e8          	mov    QWORD PTR [rsi-0x18],r14
    47b2:	b8 01 00 00 00       	mov    eax,0x1
    47b7:	48 89 46 f0          	mov    QWORD PTR [rsi-0x10],rax
    47bb:	b8 01 00 00 00       	mov    eax,0x1
    47c0:	48 89 46 f8          	mov    QWORD PTR [rsi-0x8],rax
    47c4:	48 31 f6             	xor    rsi,rsi
    47c7:	48 b8 00 00 00 00 00 	movabs rax,0x0
    47ce:	00 00 00 
			47c9: R_X86_64_64	do_callback
    47d1:	48 89 9c 24 28 05 00 	mov    QWORD PTR [rsp+0x528],rbx
    47d8:	00 
    47d9:	48 89 bc 24 30 05 00 	mov    QWORD PTR [rsp+0x530],rdi
    47e0:	00 
    47e1:	4c 89 ac 24 38 05 00 	mov    QWORD PTR [rsp+0x538],r13
    47e8:	00 
    47e9:	ff d0                	call   rax
    47eb:	48 8b 9c 24 28 05 00 	mov    rbx,QWORD PTR [rsp+0x528]
    47f2:	00 
    47f3:	4c 8b ac 24 38 05 00 	mov    r13,QWORD PTR [rsp+0x538]
    47fa:	00 
    47fb:	48 89 c6             	mov    rsi,rax
    47fe:	48 89 b4 24 28 05 00 	mov    QWORD PTR [rsp+0x528],rsi
    4805:	00 
    4806:	49 8b b4 24 98 00 00 	mov    rsi,QWORD PTR [r12+0x98]
    480d:	00 
    480e:	48 8b 7b 08          	mov    rdi,QWORD PTR [rbx+0x8]
    4812:	49 89 b4 24 98 00 00 	mov    QWORD PTR [r12+0x98],rsi
    4819:	00 
    481a:	4c 89 6e e0          	mov    QWORD PTR [rsi-0x20],r13
    481e:	4c 89 76 e8          	mov    QWORD PTR [rsi-0x18],r14
    4822:	b8 01 00 00 00       	mov    eax,0x1
    4827:	48 89 46 f0          	mov    QWORD PTR [rsi-0x10],rax
    482b:	b8 01 00 00 00       	mov    eax,0x1
    4830:	48 89 46 f8          	mov    QWORD PTR [rsi-0x8],rax
    4834:	48 31 f6             	xor    rsi,rsi
    4837:	48 b8 00 00 00 00 00 	movabs rax,0x0
    483e:	00 00 00 
			4839: R_X86_64_64	do_callback
    4841:	48 89 9c 24 30 05 00 	mov    QWORD PTR [rsp+0x530],rbx
    4848:	00 
    4849:	48 89 bc 24 38 05 00 	mov    QWORD PTR [rsp+0x538],rdi
    4850:	00 
    4851:	4c 89 ac 24 40 05 00 	mov    QWORD PTR [rsp+0x540],r13
    4858:	00 
    4859:	ff d0                	call   rax
    485b:	48 8b 9c 24 30 05 00 	mov    rbx,QWORD PTR [rsp+0x530]
    4862:	00 
    4863:	4c 8b ac 24 40 05 00 	mov    r13,QWORD PTR [rsp+0x540]
    486a:	00 
    486b:	48 89 c6             	mov    rsi,rax
    486e:	48 89 b4 24 30 05 00 	mov    QWORD PTR [rsp+0x530],rsi
    4875:	00 
    4876:	49 8b b4 24 98 00 00 	mov    rsi,QWORD PTR [r12+0x98]
    487d:	00 
    487e:	48 8b 7b 08          	mov    rdi,QWORD PTR [rbx+0x8]
    4882:	49 89 b4 24 98 00 00 	mov    QWORD PTR [r12+0x98],rsi
    4889:	00 
    488a:	4c 89 6e e0          	mov    QWORD PTR [rsi-0x20],r13
    488e:	4c 89 76 e8          	mov    QWORD PTR [rsi-0x18],r14
    4892:	b8 01 00 00 00       	mov    eax,0x1
    4897:	48 89 46 f0          	mov    QWORD PTR [rsi-0x10],rax
    489b:	b8 01 00 00 00       	mov    eax,0x1
    48a0:	48 89 46 f8          	mov    QWORD PTR [rsi-0x8],rax
    48a4:	48 31 f6             	xor    rsi,rsi
    48a7:	48 b8 00 00 00 00 00 	movabs rax,0x0
    48ae:	00 00 00 
			48a9: R_X86_64_64	do_callback
    48b1:	48 89 9c 24 38 05 00 	mov    QWORD PTR [rsp+0x538],rbx
    48b8:	00 
    48b9:	48 89 bc 24 40 05 00 	mov    QWORD PTR [rsp+0x540],rdi
    48c0:	00 
    48c1:	4c 89 ac 24 48 05 00 	mov    QWORD PTR [rsp+0x548],r13
    48c8:	00 
    48c9:	ff d0                	call   rax
    48cb:	48 8b 9c 24 38 05 00 	mov    rbx,QWORD PTR [rsp+0x538]
    48d2:	00 
    48d3:	4c 8b ac 24 48 05 00 	mov    r13,QWORD PTR [rsp+0x548]
    48da:	00 
    48db:	48 89 c6             	mov    rsi,rax
    48de:	48 89 b4 24 38 05 00 	mov    QWORD PTR [rsp+0x538],rsi
    48e5:	00 
    48e6:	49 8b b4 24 98 00 00 	mov    rsi,QWORD PTR [r12+0x98]
    48ed:	00 
    48ee:	48 8b 7b 08          	mov    rdi,QWORD PTR [rbx+0x8]
    48f2:	49 89 b4 24 98 00 00 	mov    QWORD PTR [r12+0x98],rsi
    48f9:	00 
    48fa:	4c 89 6e e0          	mov    QWORD PTR [rsi-0x20],r13
    48fe:	4c 89 76 e8          	mov    QWORD PTR [rsi-0x18],r14
    4902:	b8 01 00 00 00       	mov    eax,0x1
    4907:	48 89 46 f0          	mov    QWORD PTR [rsi-0x10],rax
    490b:	b8 01 00 00 00       	mov    eax,0x1
    4910:	48 89 46 f8          	mov    QWORD PTR [rsi-0x8],rax
    4914:	48 31 f6             	xor    rsi,rsi
    4917:	48 b8 00 00 00 00 00 	movabs rax,0x0
    491e:	00 00 00 
			4919: R_X86_64_64	do_callback
    4921:	48 89 9c 24 40 05 00 	mov    QWORD PTR [rsp+0x540],rbx
    4928:	00 
    4929:	48 89 bc 24 48 05 00 	mov    QWORD PTR [rsp+0x548],rdi
    4930:	00 
    4931:	4c 89 ac 24 50 05 00 	mov    QWORD PTR [rsp+0x550],r13
    4938:	00 
    4939:	ff d0                	call   rax
    493b:	48 8b 9c 24 40 05 00 	mov    rbx,QWORD PTR [rsp+0x540]
    4942:	00 
    4943:	4c 8b ac 24 50 05 00 	mov    r13,QWORD PTR [rsp+0x550]
    494a:	00 
    494b:	48 89 c6             	mov    rsi,rax
    494e:	48 89 b4 24 40 05 00 	mov    QWORD PTR [rsp+0x540],rsi
    4955:	00 
    4956:	49 8b b4 24 98 00 00 	mov    rsi,QWORD PTR [r12+0x98]
    495d:	00 
    495e:	48 8b 7b 08          	mov    rdi,QWORD PTR [rbx+0x8]
    4962:	49 89 b4 24 98 00 00 	mov    QWORD PTR [r12+0x98],rsi
    4969:	00 
    496a:	4c 89 6e e0          	mov    QWORD PTR [rsi-0x20],r13
    496e:	4c 89 76 e8          	mov    QWORD PTR [rsi-0x18],r14
    4972:	b8 01 00 00 00       	mov    eax,0x1
    4977:	48 89 46 f0          	mov    QWORD PTR [rsi-0x10],rax
    497b:	b8 01 00 00 00       	mov    eax,0x1
    4980:	48 89 46 f8          	mov    QWORD PTR [rsi-0x8],rax
    4984:	48 31 f6             	xor    rsi,rsi
    4987:	48 b8 00 00 00 00 00 	movabs rax,0x0
    498e:	00 00 00 
			4989: R_X86_64_64	do_callback
    4991:	48 89 9c 24 48 05 00 	mov    QWORD PTR [rsp+0x548],rbx
    4998:	00 
    4999:	48 89 bc 24 50 05 00 	mov    QWORD PTR [rsp+0x550],rdi
    49a0:	00 
    49a1:	4c 89 ac 24 58 05 00 	mov    QWORD PTR [rsp+0x558],r13
    49a8:	00 
    49a9:	ff d0                	call   rax
    49ab:	48 8b 9c 24 48 05 00 	mov    rbx,QWORD PTR [rsp+0x548]
    49b2:	00 
    49b3:	4c 8b ac 24 58 05 00 	mov    r13,QWORD PTR [rsp+0x558]
    49ba:	00 
    49bb:	48 89 c6             	mov    rsi,rax
    49be:	48 89 b4 24 48 05 00 	mov    QWORD PTR [rsp+0x548],rsi
    49c5:	00 
    49c6:	49 8b b4 24 98 00 00 	mov    rsi,QWORD PTR [r12+0x98]
    49cd:	00 
    49ce:	48 8b 7b 08          	mov    rdi,QWORD PTR [rbx+0x8]
    49d2:	49 89 b4 24 98 00 00 	mov    QWORD PTR [r12+0x98],rsi
    49d9:	00 
    49da:	4c 89 6e e0          	mov    QWORD PTR [rsi-0x20],r13
    49de:	4c 89 76 e8          	mov    QWORD PTR [rsi-0x18],r14
    49e2:	b8 01 00 00 00       	mov    eax,0x1
    49e7:	48 89 46 f0          	mov    QWORD PTR [rsi-0x10],rax
    49eb:	b8 01 00 00 00       	mov    eax,0x1
    49f0:	48 89 46 f8          	mov    QWORD PTR [rsi-0x8],rax
    49f4:	48 31 f6             	xor    rsi,rsi
    49f7:	48 b8 00 00 00 00 00 	movabs rax,0x0
    49fe:	00 00 00 
			49f9: R_X86_64_64	do_callback
    4a01:	48 89 9c 24 50 05 00 	mov    QWORD PTR [rsp+0x550],rbx
    4a08:	00 
    4a09:	48 89 bc 24 58 05 00 	mov    QWORD PTR [rsp+0x558],rdi
    4a10:	00 
    4a11:	4c 89 ac 24 60 05 00 	mov    QWORD PTR [rsp+0x560],r13
    4a18:	00 
    4a19:	ff d0                	call   rax
    4a1b:	48 8b 9c 24 50 05 00 	mov    rbx,QWORD PTR [rsp+0x550]
    4a22:	00 
    4a23:	4c 8b ac 24 60 05 00 	mov    r13,QWORD PTR [rsp+0x560]
    4a2a:	00 
    4a2b:	48 89 c6             	mov    rsi,rax
    4a2e:	48 89 b4 24 50 05 00 	mov    QWORD PTR [rsp+0x550],rsi
    4a35:	00 
    4a36:	49 8b b4 24 98 00 00 	mov    rsi,QWORD PTR [r12+0x98]
    4a3d:	00 
    4a3e:	48 8b 7b 08          	mov    rdi,QWORD PTR [rbx+0x8]
    4a42:	49 89 b4 24 98 00 00 	mov    QWORD PTR [r12+0x98],rsi
    4a49:	00 
    4a4a:	4c 89 6e e0          	mov    QWORD PTR [rsi-0x20],r13
    4a4e:	4c 89 76 e8          	mov    QWORD PTR [rsi-0x18],r14
    4a52:	b8 01 00 00 00       	mov    eax,0x1
    4a57:	48 89 46 f0          	mov    QWORD PTR [rsi-0x10],rax
    4a5b:	b8 01 00 00 00       	mov    eax,0x1
    4a60:	48 89 46 f8          	mov    QWORD PTR [rsi-0x8],rax
    4a64:	48 31 f6             	xor    rsi,rsi
    4a67:	48 b8 00 00 00 00 00 	movabs rax,0x0
    4a6e:	00 00 00 
			4a69: R_X86_64_64	do_callback
    4a71:	48 89 9c 24 58 05 00 	mov    QWORD PTR [rsp+0x558],rbx
    4a78:	00 
    4a79:	48 89 bc 24 60 05 00 	mov    QWORD PTR [rsp+0x560],rdi
    4a80:	00 
    4a81:	4c 89 ac 24 68 05 00 	mov    QWORD PTR [rsp+0x568],r13
    4a88:	00 
    4a89:	ff d0                	call   rax
    4a8b:	48 8b 9c 24 58 05 00 	mov    rbx,QWORD PTR [rsp+0x558]
    4a92:	00 
    4a93:	4c 8b ac 24 68 05 00 	mov    r13,QWORD PTR [rsp+0x568]
    4a9a:	00 
    4a9b:	48 89 c6             	mov    rsi,rax
    4a9e:	48 89 b4 24 58 05 00 	mov    QWORD PTR [rsp+0x558],rsi
    4aa5:	00 
    4aa6:	49 8b b4 24 98 00 00 	mov    rsi,QWORD PTR [r12+0x98]
    4aad:	00 
    4aae:	48 8b 7b 08          	mov    rdi,QWORD PTR [rbx+0x8]
    4ab2:	49 89 b4 24 98 00 00 	mov    QWORD PTR [r12+0x98],rsi
    4ab9:	00 
    4aba:	4c 89 6e e0          	mov    QWORD PTR [rsi-0x20],r13
    4abe:	4c 89 76 e8          	mov    QWORD PTR [rsi-0x18],r14
    4ac2:	b8 01 00 00 00       	mov    eax,0x1
    4ac7:	48 89 46 f0          	mov    QWORD PTR [rsi-0x10],rax
    4acb:	b8 01 00 00 00       	mov    eax,0x1
    4ad0:	48 89 46 f8          	mov    QWORD PTR [rsi-0x8],rax
    4ad4:	48 31 f6             	xor    rsi,rsi
    4ad7:	48 b8 00 00 00 00 00 	movabs rax,0x0
    4ade:	00 00 00 
			4ad9: R_X86_64_64	do_callback
    4ae1:	48 89 9c 24 60 05 00 	mov    QWORD PTR [rsp+0x560],rbx
    4ae8:	00 
    4ae9:	48 89 bc 24 68 05 00 	mov    QWORD PTR [rsp+0x568],rdi
    4af0:	00 
    4af1:	4c 89 ac 24 70 05 00 	mov    QWORD PTR [rsp+0x570],r13
    4af8:	00 
    4af9:	ff d0                	call   rax
    4afb:	48 8b 9c 24 60 05 00 	mov    rbx,QWORD PTR [rsp+0x560]
    4b02:	00 
    4b03:	4c 8b ac 24 70 05 00 	mov    r13,QWORD PTR [rsp+0x570]
    4b0a:	00 
    4b0b:	48 89 c6             	mov    rsi,rax
    4b0e:	48 89 b4 24 60 05 00 	mov    QWORD PTR [rsp+0x560],rsi
    4b15:	00 
    4b16:	49 8b b4 24 98 00 00 	mov    rsi,QWORD PTR [r12+0x98]
    4b1d:	00 
    4b1e:	48 8b 7b 08          	mov    rdi,QWORD PTR [rbx+0x8]
    4b22:	49 89 b4 24 98 00 00 	mov    QWORD PTR [r12+0x98],rsi
    4b29:	00 
    4b2a:	4c 89 6e e0          	mov    QWORD PTR [rsi-0x20],r13
    4b2e:	4c 89 76 e8          	mov    QWORD PTR [rsi-0x18],r14
    4b32:	b8 01 00 00 00       	mov    eax,0x1
    4b37:	48 89 46 f0          	mov    QWORD PTR [rsi-0x10],rax
    4b3b:	b8 01 00 00 00       	mov    eax,0x1
    4b40:	48 89 46 f8          	mov    QWORD PTR [rsi-0x8],rax
    4b44:	48 31 f6             	xor    rsi,rsi
    4b47:	48 b8 00 00 00 00 00 	movabs rax,0x0
    4b4e:	00 00 00 
			4b49: R_X86_64_64	do_callback
    4b51:	48 89 9c 24 68 05 00 	mov    QWORD PTR [rsp+0x568],rbx
    4b58:	00 
    4b59:	48 89 bc 24 70 05 00 	mov    QWORD PTR [rsp+0x570],rdi
    4b60:	00 
    4b61:	4c 89 ac 24 78 05 00 	mov    QWORD PTR [rsp+0x578],r13
    4b68:	00 
    4b69:	ff d0                	call   rax
    4b6b:	48 8b 9c 24 68 05 00 	mov    rbx,QWORD PTR [rsp+0x568]
    4b72:	00 
    4b73:	4c 8b ac 24 78 05 00 	mov    r13,QWORD PTR [rsp+0x578]
    4b7a:	00 
    4b7b:	48 89 c6             	mov    rsi,rax
    4b7e:	48 89 b4 24 68 05 00 	mov    QWORD PTR [rsp+0x568],rsi
    4b85:	00 
    4b86:	49 8b b4 24 98 00 00 	mov    rsi,QWORD PTR [r12+0x98]
    4b8d:	00 
    4b8e:	48 8b 7b 08          	mov    rdi,QWORD PTR [rbx+0x8]
    4b92:	49 89 b4 24 98 00 00 	mov    QWORD PTR [r12+0x98],rsi
    4b99:	00 
    4b9a:	4c 89 6e e0          	mov    QWORD PTR [rsi-0x20],r13
    4b9e:	4c 89 76 e8          	mov    QWORD PTR [rsi-0x18],r14
    4ba2:	b8 01 00 00 00       	mov    eax,0x1
    4ba7:	48 89 46 f0          	mov    QWORD PTR [rsi-0x10],rax
    4bab:	b8 01 00 00 00       	mov    eax,0x1
    4bb0:	48 89 46 f8          	mov    QWORD PTR [rsi-0x8],rax
    4bb4:	48 31 f6             	xor    rsi,rsi
    4bb7:	48 b8 00 00 00 00 00 	movabs rax,0x0
    4bbe:	00 00 00 
			4bb9: R_X86_64_64	do_callback
    4bc1:	48 89 9c 24 70 05 00 	mov    QWORD PTR [rsp+0x570],rbx
    4bc8:	00 
    4bc9:	48 89 bc 24 78 05 00 	mov    QWORD PTR [rsp+0x578],rdi
    4bd0:	00 
    4bd1:	4c 89 ac 24 80 05 00 	mov    QWORD PTR [rsp+0x580],r13
    4bd8:	00 
    4bd9:	ff d0                	call   rax
    4bdb:	48 8b 9c 24 70 05 00 	mov    rbx,QWORD PTR [rsp+0x570]
    4be2:	00 
    4be3:	4c 8b ac 24 80 05 00 	mov    r13,QWORD PTR [rsp+0x580]
    4bea:	00 
    4beb:	48 89 c6             	mov    rsi,rax
    4bee:	48 89 b4 24 70 05 00 	mov    QWORD PTR [rsp+0x570],rsi
    4bf5:	00 
    4bf6:	49 8b b4 24 98 00 00 	mov    rsi,QWORD PTR [r12+0x98]
    4bfd:	00 
    4bfe:	48 8b 7b 08          	mov    rdi,QWORD PTR [rbx+0x8]
    4c02:	49 89 b4 24 98 00 00 	mov    QWORD PTR [r12+0x98],rsi
    4c09:	00 
    4c0a:	4c 89 6e e0          	mov    QWORD PTR [rsi-0x20],r13
    4c0e:	4c 89 76 e8          	mov    QWORD PTR [rsi-0x18],r14
    4c12:	b8 01 00 00 00       	mov    eax,0x1
    4c17:	48 89 46 f0          	mov    QWORD PTR [rsi-0x10],rax
    4c1b:	b8 01 00 00 00       	mov    eax,0x1
    4c20:	48 89 46 f8          	mov    QWORD PTR [rsi-0x8],rax
    4c24:	48 31 f6             	xor    rsi,rsi
    4c27:	48 b8 00 00 00 00 00 	movabs rax,0x0
    4c2e:	00 00 00 
			4c29: R_X86_64_64	do_callback
    4c31:	48 89 9c 24 78 05 00 	mov    QWORD PTR [rsp+0x578],rbx
    4c38:	00 
    4c39:	48 89 bc 24 80 05 00 	mov    QWORD PTR [rsp+0x580],rdi
    4c40:	00 
    4c41:	4c 89 ac 24 88 05 00 	mov    QWORD PTR [rsp+0x588],r13
    4c48:	00 
    4c49:	ff d0                	call   rax
    4c4b:	48 8b 9c 24 78 05 00 	mov    rbx,QWORD PTR [rsp+0x578]
    4c52:	00 
    4c53:	4c 8b ac 24 88 05 00 	mov    r13,QWORD PTR [rsp+0x588]
    4c5a:	00 
    4c5b:	48 89 c6             	mov    rsi,rax
    4c5e:	48 89 b4 24 78 05 00 	mov    QWORD PTR [rsp+0x578],rsi
    4c65:	00 
    4c66:	49 8b b4 24 98 00 00 	mov    rsi,QWORD PTR [r12+0x98]
    4c6d:	00 
    4c6e:	48 8b 7b 08          	mov    rdi,QWORD PTR [rbx+0x8]
    4c72:	49 89 b4 24 98 00 00 	mov    QWORD PTR [r12+0x98],rsi
    4c79:	00 
    4c7a:	4c 89 6e e0          	mov    QWORD PTR [rsi-0x20],r13
    4c7e:	4c 89 76 e8          	mov    QWORD PTR [rsi-0x18],r14
    4c82:	b8 01 00 00 00       	mov    eax,0x1
    4c87:	48 89 46 f0          	mov    QWORD PTR [rsi-0x10],rax
    4c8b:	b8 01 00 00 00       	mov    eax,0x1
    4c90:	48 89 46 f8          	mov    QWORD PTR [rsi-0x8],rax
    4c94:	48 31 f6             	xor    rsi,rsi
    4c97:	48 b8 00 00 00 00 00 	movabs rax,0x0
    4c9e:	00 00 00 
			4c99: R_X86_64_64	do_callback
    4ca1:	48 89 9c 24 80 05 00 	mov    QWORD PTR [rsp+0x580],rbx
    4ca8:	00 
    4ca9:	48 89 bc 24 88 05 00 	mov    QWORD PTR [rsp+0x588],rdi
    4cb0:	00 
    4cb1:	4c 89 ac 24 90 05 00 	mov    QWORD PTR [rsp+0x590],r13
    4cb8:	00 
    4cb9:	ff d0                	call   rax
    4cbb:	48 8b 9c 24 80 05 00 	mov    rbx,QWORD PTR [rsp+0x580]
    4cc2:	00 
    4cc3:	4c 8b ac 24 90 05 00 	mov    r13,QWORD PTR [rsp+0x590]
    4cca:	00 
    4ccb:	48 89 c6             	mov    rsi,rax
    4cce:	48 89 b4 24 80 05 00 	mov    QWORD PTR [rsp+0x580],rsi
    4cd5:	00 
    4cd6:	49 8b b4 24 98 00 00 	mov    rsi,QWORD PTR [r12+0x98]
    4cdd:	00 
    4cde:	48 8b 7b 08          	mov    rdi,QWORD PTR [rbx+0x8]
    4ce2:	49 89 b4 24 98 00 00 	mov    QWORD PTR [r12+0x98],rsi
    4ce9:	00 
    4cea:	4c 89 6e e0          	mov    QWORD PTR [rsi-0x20],r13
    4cee:	4c 89 76 e8          	mov    QWORD PTR [rsi-0x18],r14
    4cf2:	b8 01 00 00 00       	mov    eax,0x1
    4cf7:	48 89 46 f0          	mov    QWORD PTR [rsi-0x10],rax
    4cfb:	b8 01 00 00 00       	mov    eax,0x1
    4d00:	48 89 46 f8          	mov    QWORD PTR [rsi-0x8],rax
    4d04:	48 31 f6             	xor    rsi,rsi
    4d07:	48 b8 00 00 00 00 00 	movabs rax,0x0
    4d0e:	00 00 00 
			4d09: R_X86_64_64	do_callback
    4d11:	48 89 9c 24 88 05 00 	mov    QWORD PTR [rsp+0x588],rbx
    4d18:	00 
    4d19:	48 89 bc 24 90 05 00 	mov    QWORD PTR [rsp+0x590],rdi
    4d20:	00 
    4d21:	4c 89 ac 24 98 05 00 	mov    QWORD PTR [rsp+0x598],r13
    4d28:	00 
    4d29:	ff d0                	call   rax
    4d2b:	48 8b 9c 24 88 05 00 	mov    rbx,QWORD PTR [rsp+0x588]
    4d32:	00 
    4d33:	4c 8b ac 24 98 05 00 	mov    r13,QWORD PTR [rsp+0x598]
    4d3a:	00 
    4d3b:	48 89 c6             	mov    rsi,rax
    4d3e:	48 89 b4 24 88 05 00 	mov    QWORD PTR [rsp+0x588],rsi
    4d45:	00 
    4d46:	49 8b b4 24 98 00 00 	mov    rsi,QWORD PTR [r12+0x98]
    4d4d:	00 
    4d4e:	48 8b 7b 08          	mov    rdi,QWORD PTR [rbx+0x8]
    4d52:	49 89 b4 24 98 00 00 	mov    QWORD PTR [r12+0x98],rsi
    4d59:	00 
    4d5a:	4c 89 6e e0          	mov    QWORD PTR [rsi-0x20],r13
    4d5e:	4c 89 76 e8          	mov    QWORD PTR [rsi-0x18],r14
    4d62:	b8 01 00 00 00       	mov    eax,0x1
    4d67:	48 89 46 f0          	mov    QWORD PTR [rsi-0x10],rax
    4d6b:	b8 01 00 00 00       	mov    eax,0x1
    4d70:	48 89 46 f8          	mov    QWORD PTR [rsi-0x8],rax
    4d74:	48 31 f6             	xor    rsi,rsi
    4d77:	48 b8 00 00 00 00 00 	movabs rax,0x0
    4d7e:	00 00 00 
			4d79: R_X86_64_64	do_callback
    4d81:	48 89 9c 24 90 05 00 	mov    QWORD PTR [rsp+0x590],rbx
    4d88:	00 
    4d89:	48 89 bc 24 98 05 00 	mov    QWORD PTR [rsp+0x598],rdi
    4d90:	00 
    4d91:	4c 89 ac 24 a0 05 00 	mov    QWORD PTR [rsp+0x5a0],r13
    4d98:	00 
    4d99:	ff d0                	call   rax
    4d9b:	48 8b 9c 24 90 05 00 	mov    rbx,QWORD PTR [rsp+0x590]
    4da2:	00 
    4da3:	4c 8b ac 24 a0 05 00 	mov    r13,QWORD PTR [rsp+0x5a0]
    4daa:	00 
    4dab:	48 89 c6             	mov    rsi,rax
    4dae:	48 89 b4 24 90 05 00 	mov    QWORD PTR [rsp+0x590],rsi
    4db5:	00 
    4db6:	49 8b b4 24 98 00 00 	mov    rsi,QWORD PTR [r12+0x98]
    4dbd:	00 
    4dbe:	48 8b 7b 08          	mov    rdi,QWORD PTR [rbx+0x8]
    4dc2:	49 89 b4 24 98 00 00 	mov    QWORD PTR [r12+0x98],rsi
    4dc9:	00 
    4dca:	4c 89 6e e0          	mov    QWORD PTR [rsi-0x20],r13
    4dce:	4c 89 76 e8          	mov    QWORD PTR [rsi-0x18],r14
    4dd2:	b8 01 00 00 00       	mov    eax,0x1
    4dd7:	48 89 46 f0          	mov    QWORD PTR [rsi-0x10],rax
    4ddb:	b8 01 00 00 00       	mov    eax,0x1
    4de0:	48 89 46 f8          	mov    QWORD PTR [rsi-0x8],rax
    4de4:	48 31 f6             	xor    rsi,rsi
    4de7:	48 b8 00 00 00 00 00 	movabs rax,0x0
    4dee:	00 00 00 
			4de9: R_X86_64_64	do_callback
    4df1:	48 89 9c 24 98 05 00 	mov    QWORD PTR [rsp+0x598],rbx
    4df8:	00 
    4df9:	48 89 bc 24 a0 05 00 	mov    QWORD PTR [rsp+0x5a0],rdi
    4e00:	00 
    4e01:	4c 89 ac 24 a8 05 00 	mov    QWORD PTR [rsp+0x5a8],r13
    4e08:	00 
    4e09:	ff d0                	call   rax
    4e0b:	48 8b 9c 24 98 05 00 	mov    rbx,QWORD PTR [rsp+0x598]
    4e12:	00 
    4e13:	4c 8b ac 24 a8 05 00 	mov    r13,QWORD PTR [rsp+0x5a8]
    4e1a:	00 
    4e1b:	48 89 c6             	mov    rsi,rax
    4e1e:	48 89 b4 24 98 05 00 	mov    QWORD PTR [rsp+0x598],rsi
    4e25:	00 
    4e26:	49 8b b4 24 98 00 00 	mov    rsi,QWORD PTR [r12+0x98]
    4e2d:	00 
    4e2e:	48 8b 7b 08          	mov    rdi,QWORD PTR [rbx+0x8]
    4e32:	49 89 b4 24 98 00 00 	mov    QWORD PTR [r12+0x98],rsi
    4e39:	00 
    4e3a:	4c 89 6e e0          	mov    QWORD PTR [rsi-0x20],r13
    4e3e:	4c 89 76 e8          	mov    QWORD PTR [rsi-0x18],r14
    4e42:	b8 01 00 00 00       	mov    eax,0x1
    4e47:	48 89 46 f0          	mov    QWORD PTR [rsi-0x10],rax
    4e4b:	b8 01 00 00 00       	mov    eax,0x1
    4e50:	48 89 46 f8          	mov    QWORD PTR [rsi-0x8],rax
    4e54:	48 31 f6             	xor    rsi,rsi
    4e57:	48 b8 00 00 00 00 00 	movabs rax,0x0
    4e5e:	00 00 00 
			4e59: R_X86_64_64	do_callback
    4e61:	48 89 9c 24 a0 05 00 	mov    QWORD PTR [rsp+0x5a0],rbx
    4e68:	00 
    4e69:	48 89 bc 24 a8 05 00 	mov    QWORD PTR [rsp+0x5a8],rdi
    4e70:	00 
    4e71:	4c 89 ac 24 b0 05 00 	mov    QWORD PTR [rsp+0x5b0],r13
    4e78:	00 
    4e79:	ff d0                	call   rax
    4e7b:	48 8b 9c 24 a0 05 00 	mov    rbx,QWORD PTR [rsp+0x5a0]
    4e82:	00 
    4e83:	4c 8b ac 24 b0 05 00 	mov    r13,QWORD PTR [rsp+0x5b0]
    4e8a:	00 
    4e8b:	48 89 c6             	mov    rsi,rax
    4e8e:	48 89 b4 24 a0 05 00 	mov    QWORD PTR [rsp+0x5a0],rsi
    4e95:	00 
    4e96:	49 8b b4 24 98 00 00 	mov    rsi,QWORD PTR [r12+0x98]
    4e9d:	00 
    4e9e:	48 8b 7b 08          	mov    rdi,QWORD PTR [rbx+0x8]
    4ea2:	49 89 b4 24 98 00 00 	mov    QWORD PTR [r12+0x98],rsi
    4ea9:	00 
    4eaa:	4c 89 6e e0          	mov    QWORD PTR [rsi-0x20],r13
    4eae:	4c 89 76 e8          	mov    QWORD PTR [rsi-0x18],r14
    4eb2:	b8 01 00 00 00       	mov    eax,0x1
    4eb7:	48 89 46 f0          	mov    QWORD PTR [rsi-0x10],rax
    4ebb:	b8 01 00 00 00       	mov    eax,0x1
    4ec0:	48 89 46 f8          	mov    QWORD PTR [rsi-0x8],rax
    4ec4:	48 31 f6             	xor    rsi,rsi
    4ec7:	48 b8 00 00 00 00 00 	movabs rax,0x0
    4ece:	00 00 00 
			4ec9: R_X86_64_64	do_callback
    4ed1:	48 89 9c 24 a8 05 00 	mov    QWORD PTR [rsp+0x5a8],rbx
    4ed8:	00 
    4ed9:	48 89 bc 24 b0 05 00 	mov    QWORD PTR [rsp+0x5b0],rdi
    4ee0:	00 
    4ee1:	4c 89 ac 24 b8 05 00 	mov    QWORD PTR [rsp+0x5b8],r13
    4ee8:	00 
    4ee9:	ff d0                	call   rax
    4eeb:	48 8b 9c 24 a8 05 00 	mov    rbx,QWORD PTR [rsp+0x5a8]
    4ef2:	00 
    4ef3:	4c 8b ac 24 b8 05 00 	mov    r13,QWORD PTR [rsp+0x5b8]
    4efa:	00 
    4efb:	48 89 c6             	mov    rsi,rax
    4efe:	48 89 b4 24 a8 05 00 	mov    QWORD PTR [rsp+0x5a8],rsi
    4f05:	00 
    4f06:	49 8b b4 24 98 00 00 	mov    rsi,QWORD PTR [r12+0x98]
    4f0d:	00 
    4f0e:	48 8b 7b 08          	mov    rdi,QWORD PTR [rbx+0x8]
    4f12:	49 89 b4 24 98 00 00 	mov    QWORD PTR [r12+0x98],rsi
    4f19:	00 
    4f1a:	4c 89 6e e0          	mov    QWORD PTR [rsi-0x20],r13
    4f1e:	4c 89 76 e8          	mov    QWORD PTR [rsi-0x18],r14
    4f22:	b8 01 00 00 00       	mov    eax,0x1
    4f27:	48 89 46 f0          	mov    QWORD PTR [rsi-0x10],rax
    4f2b:	b8 01 00 00 00       	mov    eax,0x1
    4f30:	48 89 46 f8          	mov    QWORD PTR [rsi-0x8],rax
    4f34:	48 31 f6             	xor    rsi,rsi
    4f37:	48 b8 00 00 00 00 00 	movabs rax,0x0
    4f3e:	00 00 00 
			4f39: R_X86_64_64	do_callback
    4f41:	48 89 9c 24 b0 05 00 	mov    QWORD PTR [rsp+0x5b0],rbx
    4f48:	00 
    4f49:	48 89 bc 24 b8 05 00 	mov    QWORD PTR [rsp+0x5b8],rdi
    4f50:	00 
    4f51:	4c 89 ac 24 c0 05 00 	mov    QWORD PTR [rsp+0x5c0],r13
    4f58:	00 
    4f59:	ff d0                	call   rax
    4f5b:	48 8b 9c 24 b0 05 00 	mov    rbx,QWORD PTR [rsp+0x5b0]
    4f62:	00 
    4f63:	4c 8b ac 24 c0 05 00 	mov    r13,QWORD PTR [rsp+0x5c0]
    4f6a:	00 
    4f6b:	48 89 c6             	mov    rsi,rax
    4f6e:	48 89 b4 24 b0 05 00 	mov    QWORD PTR [rsp+0x5b0],rsi
    4f75:	00 
    4f76:	49 8b b4 24 98 00 00 	mov    rsi,QWORD PTR [r12+0x98]
    4f7d:	00 
    4f7e:	48 8b 7b 08          	mov    rdi,QWORD PTR [rbx+0x8]
    4f82:	49 89 b4 24 98 00 00 	mov    QWORD PTR [r12+0x98],rsi
    4f89:	00 
    4f8a:	4c 89 6e e0          	mov    QWORD PTR [rsi-0x20],r13
    4f8e:	4c 89 76 e8          	mov    QWORD PTR [rsi-0x18],r14
    4f92:	b8 01 00 00 00       	mov    eax,0x1
    4f97:	48 89 46 f0          	mov    QWORD PTR [rsi-0x10],rax
    4f9b:	b8 01 00 00 00       	mov    eax,0x1
    4fa0:	48 89 46 f8          	mov    QWORD PTR [rsi-0x8],rax
    4fa4:	48 31 f6             	xor    rsi,rsi
    4fa7:	48 b8 00 00 00 00 00 	movabs rax,0x0
    4fae:	00 00 00 
			4fa9: R_X86_64_64	do_callback
    4fb1:	48 89 9c 24 b8 05 00 	mov    QWORD PTR [rsp+0x5b8],rbx
    4fb8:	00 
    4fb9:	48 89 bc 24 c0 05 00 	mov    QWORD PTR [rsp+0x5c0],rdi
    4fc0:	00 
    4fc1:	4c 89 ac 24 c8 05 00 	mov    QWORD PTR [rsp+0x5c8],r13
    4fc8:	00 
    4fc9:	ff d0                	call   rax
    4fcb:	48 8b 9c 24 b8 05 00 	mov    rbx,QWORD PTR [rsp+0x5b8]
    4fd2:	00 
    4fd3:	4c 8b ac 24 c8 05 00 	mov    r13,QWORD PTR [rsp+0x5c8]
    4fda:	00 
    4fdb:	48 89 c6             	mov    rsi,rax
    4fde:	48 89 b4 24 b8 05 00 	mov    QWORD PTR [rsp+0x5b8],rsi
    4fe5:	00 
    4fe6:	49 8b b4 24 98 00 00 	mov    rsi,QWORD PTR [r12+0x98]
    4fed:	00 
    4fee:	48 8b 7b 08          	mov    rdi,QWORD PTR [rbx+0x8]
    4ff2:	49 89 b4 24 98 00 00 	mov    QWORD PTR [r12+0x98],rsi
    4ff9:	00 
    4ffa:	4c 89 6e e0          	mov    QWORD PTR [rsi-0x20],r13
    4ffe:	4c 89 76 e8          	mov    QWORD PTR [rsi-0x18],r14
    5002:	b8 01 00 00 00       	mov    eax,0x1
    5007:	48 89 46 f0          	mov    QWORD PTR [rsi-0x10],rax
    500b:	b8 01 00 00 00       	mov    eax,0x1
    5010:	48 89 46 f8          	mov    QWORD PTR [rsi-0x8],rax
    5014:	48 31 f6             	xor    rsi,rsi
    5017:	48 b8 00 00 00 00 00 	movabs rax,0x0
    501e:	00 00 00 
			5019: R_X86_64_64	do_callback
    5021:	48 89 9c 24 c0 05 00 	mov    QWORD PTR [rsp+0x5c0],rbx
    5028:	00 
    5029:	48 89 bc 24 c8 05 00 	mov    QWORD PTR [rsp+0x5c8],rdi
    5030:	00 
    5031:	4c 89 ac 24 d0 05 00 	mov    QWORD PTR [rsp+0x5d0],r13
    5038:	00 
    5039:	ff d0                	call   rax
    503b:	48 8b 9c 24 c0 05 00 	mov    rbx,QWORD PTR [rsp+0x5c0]
    5042:	00 
    5043:	4c 8b ac 24 d0 05 00 	mov    r13,QWORD PTR [rsp+0x5d0]
    504a:	00 
    504b:	48 89 c6             	mov    rsi,rax
    504e:	48 89 b4 24 c0 05 00 	mov    QWORD PTR [rsp+0x5c0],rsi
    5055:	00 
    5056:	49 8b b4 24 98 00 00 	mov    rsi,QWORD PTR [r12+0x98]
    505d:	00 
    505e:	48 8b 7b 08          	mov    rdi,QWORD PTR [rbx+0x8]
    5062:	49 89 b4 24 98 00 00 	mov    QWORD PTR [r12+0x98],rsi
    5069:	00 
    506a:	4c 89 6e e0          	mov    QWORD PTR [rsi-0x20],r13
    506e:	4c 89 76 e8          	mov    QWORD PTR [rsi-0x18],r14
    5072:	b8 01 00 00 00       	mov    eax,0x1
    5077:	48 89 46 f0          	mov    QWORD PTR [rsi-0x10],rax
    507b:	b8 01 00 00 00       	mov    eax,0x1
    5080:	48 89 46 f8          	mov    QWORD PTR [rsi-0x8],rax
    5084:	48 31 f6             	xor    rsi,rsi
    5087:	48 b8 00 00 00 00 00 	movabs rax,0x0
    508e:	00 00 00 
			5089: R_X86_64_64	do_callback
    5091:	48 89 9c 24 c8 05 00 	mov    QWORD PTR [rsp+0x5c8],rbx
    5098:	00 
    5099:	48 89 bc 24 d0 05 00 	mov    QWORD PTR [rsp+0x5d0],rdi
    50a0:	00 
    50a1:	4c 89 ac 24 d8 05 00 	mov    QWORD PTR [rsp+0x5d8],r13
    50a8:	00 
    50a9:	ff d0                	call   rax
    50ab:	48 8b 9c 24 c8 05 00 	mov    rbx,QWORD PTR [rsp+0x5c8]
    50b2:	00 
    50b3:	4c 8b ac 24 d8 05 00 	mov    r13,QWORD PTR [rsp+0x5d8]
    50ba:	00 
    50bb:	48 89 c6             	mov    rsi,rax
    50be:	48 89 b4 24 c8 05 00 	mov    QWORD PTR [rsp+0x5c8],rsi
    50c5:	00 
    50c6:	49 8b b4 24 98 00 00 	mov    rsi,QWORD PTR [r12+0x98]
    50cd:	00 
    50ce:	48 8b 7b 08          	mov    rdi,QWORD PTR [rbx+0x8]
    50d2:	49 89 b4 24 98 00 00 	mov    QWORD PTR [r12+0x98],rsi
    50d9:	00 
    50da:	4c 89 6e e0          	mov    QWORD PTR [rsi-0x20],r13
    50de:	4c 89 76 e8          	mov    QWORD PTR [rsi-0x18],r14
    50e2:	b8 01 00 00 00       	mov    eax,0x1
    50e7:	48 89 46 f0          	mov    QWORD PTR [rsi-0x10],rax
    50eb:	b8 01 00 00 00       	mov    eax,0x1
    50f0:	48 89 46 f8          	mov    QWORD PTR [rsi-0x8],rax
    50f4:	48 31 f6             	xor    rsi,rsi
    50f7:	48 b8 00 00 00 00 00 	movabs rax,0x0
    50fe:	00 00 00 
			50f9: R_X86_64_64	do_callback
    5101:	48 89 9c 24 d0 05 00 	mov    QWORD PTR [rsp+0x5d0],rbx
    5108:	00 
    5109:	48 89 bc 24 d8 05 00 	mov    QWORD PTR [rsp+0x5d8],rdi
    5110:	00 
    5111:	4c 89 ac 24 e0 05 00 	mov    QWORD PTR [rsp+0x5e0],r13
    5118:	00 
    5119:	ff d0                	call   rax
    511b:	48 8b 9c 24 d0 05 00 	mov    rbx,QWORD PTR [rsp+0x5d0]
    5122:	00 
    5123:	4c 8b ac 24 e0 05 00 	mov    r13,QWORD PTR [rsp+0x5e0]
    512a:	00 
    512b:	48 89 c6             	mov    rsi,rax
    512e:	48 89 b4 24 d0 05 00 	mov    QWORD PTR [rsp+0x5d0],rsi
    5135:	00 
    5136:	49 8b b4 24 98 00 00 	mov    rsi,QWORD PTR [r12+0x98]
    513d:	00 
    513e:	48 8b 7b 08          	mov    rdi,QWORD PTR [rbx+0x8]
    5142:	49 89 b4 24 98 00 00 	mov    QWORD PTR [r12+0x98],rsi
    5149:	00 
    514a:	4c 89 6e e0          	mov    QWORD PTR [rsi-0x20],r13
    514e:	4c 89 76 e8          	mov    QWORD PTR [rsi-0x18],r14
    5152:	b8 01 00 00 00       	mov    eax,0x1
    5157:	48 89 46 f0          	mov    QWORD PTR [rsi-0x10],rax
    515b:	b8 01 00 00 00       	mov    eax,0x1
    5160:	48 89 46 f8          	mov    QWORD PTR [rsi-0x8],rax
    5164:	48 31 f6             	xor    rsi,rsi
    5167:	48 b8 00 00 00 00 00 	movabs rax,0x0
    516e:	00 00 00 
			5169: R_X86_64_64	do_callback
    5171:	48 89 9c 24 d8 05 00 	mov    QWORD PTR [rsp+0x5d8],rbx
    5178:	00 
    5179:	48 89 bc 24 e0 05 00 	mov    QWORD PTR [rsp+0x5e0],rdi
    5180:	00 
    5181:	4c 89 ac 24 e8 05 00 	mov    QWORD PTR [rsp+0x5e8],r13
    5188:	00 
    5189:	ff d0                	call   rax
    518b:	48 8b 9c 24 d8 05 00 	mov    rbx,QWORD PTR [rsp+0x5d8]
    5192:	00 
    5193:	4c 8b ac 24 e8 05 00 	mov    r13,QWORD PTR [rsp+0x5e8]
    519a:	00 
    519b:	48 89 c6             	mov    rsi,rax
    519e:	48 89 b4 24 d8 05 00 	mov    QWORD PTR [rsp+0x5d8],rsi
    51a5:	00 
    51a6:	49 8b b4 24 98 00 00 	mov    rsi,QWORD PTR [r12+0x98]
    51ad:	00 
    51ae:	48 8b 7b 08          	mov    rdi,QWORD PTR [rbx+0x8]
    51b2:	49 89 b4 24 98 00 00 	mov    QWORD PTR [r12+0x98],rsi
    51b9:	00 
    51ba:	4c 89 6e e0          	mov    QWORD PTR [rsi-0x20],r13
    51be:	4c 89 76 e8          	mov    QWORD PTR [rsi-0x18],r14
    51c2:	b8 01 00 00 00       	mov    eax,0x1
    51c7:	48 89 46 f0          	mov    QWORD PTR [rsi-0x10],rax
    51cb:	b8 01 00 00 00       	mov    eax,0x1
    51d0:	48 89 46 f8          	mov    QWORD PTR [rsi-0x8],rax
    51d4:	48 31 f6             	xor    rsi,rsi
    51d7:	48 b8 00 00 00 00 00 	movabs rax,0x0
    51de:	00 00 00 
			51d9: R_X86_64_64	do_callback
    51e1:	48 89 9c 24 e0 05 00 	mov    QWORD PTR [rsp+0x5e0],rbx
    51e8:	00 
    51e9:	48 89 bc 24 e8 05 00 	mov    QWORD PTR [rsp+0x5e8],rdi
    51f0:	00 
    51f1:	4c 89 ac 24 f0 05 00 	mov    QWORD PTR [rsp+0x5f0],r13
    51f8:	00 
    51f9:	ff d0                	call   rax
    51fb:	48 8b 9c 24 e0 05 00 	mov    rbx,QWORD PTR [rsp+0x5e0]
    5202:	00 
    5203:	4c 8b ac 24 f0 05 00 	mov    r13,QWORD PTR [rsp+0x5f0]
    520a:	00 
    520b:	48 89 c6             	mov    rsi,rax
    520e:	48 89 b4 24 e0 05 00 	mov    QWORD PTR [rsp+0x5e0],rsi
    5215:	00 
    5216:	49 8b b4 24 98 00 00 	mov    rsi,QWORD PTR [r12+0x98]
    521d:	00 
    521e:	48 8b 7b 08          	mov    rdi,QWORD PTR [rbx+0x8]
    5222:	49 89 b4 24 98 00 00 	mov    QWORD PTR [r12+0x98],rsi
    5229:	00 
    522a:	4c 89 6e e0          	mov    QWORD PTR [rsi-0x20],r13
    522e:	4c 89 76 e8          	mov    QWORD PTR [rsi-0x18],r14
    5232:	b8 01 00 00 00       	mov    eax,0x1
    5237:	48 89 46 f0          	mov    QWORD PTR [rsi-0x10],rax
    523b:	b8 01 00 00 00       	mov    eax,0x1
    5240:	48 89 46 f8          	mov    QWORD PTR [rsi-0x8],rax
    5244:	48 31 f6             	xor    rsi,rsi
    5247:	48 b8 00 00 00 00 00 	movabs rax,0x0
    524e:	00 00 00 
			5249: R_X86_64_64	do_callback
    5251:	48 89 9c 24 e8 05 00 	mov    QWORD PTR [rsp+0x5e8],rbx
    5258:	00 
    5259:	48 89 bc 24 f0 05 00 	mov    QWORD PTR [rsp+0x5f0],rdi
    5260:	00 
    5261:	4c 89 ac 24 f8 05 00 	mov    QWORD PTR [rsp+0x5f8],r13
    5268:	00 
    5269:	ff d0                	call   rax
    526b:	48 8b 9c 24 e8 05 00 	mov    rbx,QWORD PTR [rsp+0x5e8]
    5272:	00 
    5273:	4c 8b ac 24 f8 05 00 	mov    r13,QWORD PTR [rsp+0x5f8]
    527a:	00 
    527b:	48 89 c6             	mov    rsi,rax
    527e:	48 89 b4 24 e8 05 00 	mov    QWORD PTR [rsp+0x5e8],rsi
    5285:	00 
    5286:	49 8b b4 24 98 00 00 	mov    rsi,QWORD PTR [r12+0x98]
    528d:	00 
    528e:	48 8b 7b 08          	mov    rdi,QWORD PTR [rbx+0x8]
    5292:	49 89 b4 24 98 00 00 	mov    QWORD PTR [r12+0x98],rsi
    5299:	00 
    529a:	4c 89 6e e0          	mov    QWORD PTR [rsi-0x20],r13
    529e:	4c 89 76 e8          	mov    QWORD PTR [rsi-0x18],r14
    52a2:	b8 01 00 00 00       	mov    eax,0x1
    52a7:	48 89 46 f0          	mov    QWORD PTR [rsi-0x10],rax
    52ab:	b8 01 00 00 00       	mov    eax,0x1
    52b0:	48 89 46 f8          	mov    QWORD PTR [rsi-0x8],rax
    52b4:	48 31 f6             	xor    rsi,rsi
    52b7:	48 b8 00 00 00 00 00 	movabs rax,0x0
    52be:	00 00 00 
			52b9: R_X86_64_64	do_callback
    52c1:	48 89 9c 24 f0 05 00 	mov    QWORD PTR [rsp+0x5f0],rbx
    52c8:	00 
    52c9:	48 89 bc 24 f8 05 00 	mov    QWORD PTR [rsp+0x5f8],rdi
    52d0:	00 
    52d1:	4c 89 ac 24 00 06 00 	mov    QWORD PTR [rsp+0x600],r13
    52d8:	00 
    52d9:	ff d0                	call   rax
    52db:	48 8b 9c 24 f0 05 00 	mov    rbx,QWORD PTR [rsp+0x5f0]
    52e2:	00 
    52e3:	4c 8b ac 24 00 06 00 	mov    r13,QWORD PTR [rsp+0x600]
    52ea:	00 
    52eb:	48 89 c6             	mov    rsi,rax
    52ee:	48 89 b4 24 f0 05 00 	mov    QWORD PTR [rsp+0x5f0],rsi
    52f5:	00 
    52f6:	49 8b b4 24 98 00 00 	mov    rsi,QWORD PTR [r12+0x98]
    52fd:	00 
    52fe:	48 8b 7b 08          	mov    rdi,QWORD PTR [rbx+0x8]
    5302:	49 89 b4 24 98 00 00 	mov    QWORD PTR [r12+0x98],rsi
    5309:	00 
    530a:	4c 89 6e e0          	mov    QWORD PTR [rsi-0x20],r13
    530e:	4c 89 76 e8          	mov    QWORD PTR [rsi-0x18],r14
    5312:	b8 01 00 00 00       	mov    eax,0x1
    5317:	48 89 46 f0          	mov    QWORD PTR [rsi-0x10],rax
    531b:	b8 01 00 00 00       	mov    eax,0x1
    5320:	48 89 46 f8          	mov    QWORD PTR [rsi-0x8],rax
    5324:	48 31 f6             	xor    rsi,rsi
    5327:	48 b8 00 00 00 00 00 	movabs rax,0x0
    532e:	00 00 00 
			5329: R_X86_64_64	do_callback
    5331:	48 89 9c 24 f8 05 00 	mov    QWORD PTR [rsp+0x5f8],rbx
    5338:	00 
    5339:	48 89 bc 24 00 06 00 	mov    QWORD PTR [rsp+0x600],rdi
    5340:	00 
    5341:	4c 89 ac 24 08 06 00 	mov    QWORD PTR [rsp+0x608],r13
    5348:	00 
    5349:	ff d0                	call   rax
    534b:	48 8b 9c 24 f8 05 00 	mov    rbx,QWORD PTR [rsp+0x5f8]
    5352:	00 
    5353:	4c 8b ac 24 08 06 00 	mov    r13,QWORD PTR [rsp+0x608]
    535a:	00 
    535b:	48 89 c6             	mov    rsi,rax
    535e:	48 89 b4 24 f8 05 00 	mov    QWORD PTR [rsp+0x5f8],rsi
    5365:	00 
    5366:	49 8b b4 24 98 00 00 	mov    rsi,QWORD PTR [r12+0x98]
    536d:	00 
    536e:	48 8b 7b 08          	mov    rdi,QWORD PTR [rbx+0x8]
    5372:	49 89 b4 24 98 00 00 	mov    QWORD PTR [r12+0x98],rsi
    5379:	00 
    537a:	4c 89 6e e0          	mov    QWORD PTR [rsi-0x20],r13
    537e:	4c 89 76 e8          	mov    QWORD PTR [rsi-0x18],r14
    5382:	b8 01 00 00 00       	mov    eax,0x1
    5387:	48 89 46 f0          	mov    QWORD PTR [rsi-0x10],rax
    538b:	b8 01 00 00 00       	mov    eax,0x1
    5390:	48 89 46 f8          	mov    QWORD PTR [rsi-0x8],rax
    5394:	48 31 f6             	xor    rsi,rsi
    5397:	48 b8 00 00 00 00 00 	movabs rax,0x0
    539e:	00 00 00 
			5399: R_X86_64_64	do_callback
    53a1:	48 89 9c 24 00 06 00 	mov    QWORD PTR [rsp+0x600],rbx
    53a8:	00 
    53a9:	48 89 bc 24 08 06 00 	mov    QWORD PTR [rsp+0x608],rdi
    53b0:	00 
    53b1:	4c 89 ac 24 10 06 00 	mov    QWORD PTR [rsp+0x610],r13
    53b8:	00 
    53b9:	ff d0                	call   rax
    53bb:	48 8b 9c 24 00 06 00 	mov    rbx,QWORD PTR [rsp+0x600]
    53c2:	00 
    53c3:	4c 8b ac 24 10 06 00 	mov    r13,QWORD PTR [rsp+0x610]
    53ca:	00 
    53cb:	48 89 c6             	mov    rsi,rax
    53ce:	48 89 b4 24 00 06 00 	mov    QWORD PTR [rsp+0x600],rsi
    53d5:	00 
    53d6:	49 8b b4 24 98 00 00 	mov    rsi,QWORD PTR [r12+0x98]
    53dd:	00 
    53de:	48 8b 7b 08          	mov    rdi,QWORD PTR [rbx+0x8]
    53e2:	49 89 b4 24 98 00 00 	mov    QWORD PTR [r12+0x98],rsi
    53e9:	00 
    53ea:	4c 89 6e e0          	mov    QWORD PTR [rsi-0x20],r13
    53ee:	4c 89 76 e8          	mov    QWORD PTR [rsi-0x18],r14
    53f2:	b8 01 00 00 00       	mov    eax,0x1
    53f7:	48 89 46 f0          	mov    QWORD PTR [rsi-0x10],rax
    53fb:	b8 01 00 00 00       	mov    eax,0x1
    5400:	48 89 46 f8          	mov    QWORD PTR [rsi-0x8],rax
    5404:	48 31 f6             	xor    rsi,rsi
    5407:	48 b8 00 00 00 00 00 	movabs rax,0x0
    540e:	00 00 00 
			5409: R_X86_64_64	do_callback
    5411:	48 89 9c 24 08 06 00 	mov    QWORD PTR [rsp+0x608],rbx
    5418:	00 
    5419:	48 89 bc 24 10 06 00 	mov    QWORD PTR [rsp+0x610],rdi
    5420:	00 
    5421:	4c 89 ac 24 18 06 00 	mov    QWORD PTR [rsp+0x618],r13
    5428:	00 
    5429:	ff d0                	call   rax
    542b:	48 8b 9c 24 08 06 00 	mov    rbx,QWORD PTR [rsp+0x608]
    5432:	00 
    5433:	4c 8b ac 24 18 06 00 	mov    r13,QWORD PTR [rsp+0x618]
    543a:	00 
    543b:	48 89 c6             	mov    rsi,rax
    543e:	48 89 b4 24 08 06 00 	mov    QWORD PTR [rsp+0x608],rsi
    5445:	00 
    5446:	49 8b b4 24 98 00 00 	mov    rsi,QWORD PTR [r12+0x98]
    544d:	00 
    544e:	48 8b 7b 08          	mov    rdi,QWORD PTR [rbx+0x8]
    5452:	49 89 b4 24 98 00 00 	mov    QWORD PTR [r12+0x98],rsi
    5459:	00 
    545a:	4c 89 6e e0          	mov    QWORD PTR [rsi-0x20],r13
    545e:	4c 89 76 e8          	mov    QWORD PTR [rsi-0x18],r14
    5462:	b8 01 00 00 00       	mov    eax,0x1
    5467:	48 89 46 f0          	mov    QWORD PTR [rsi-0x10],rax
    546b:	b8 01 00 00 00       	mov    eax,0x1
    5470:	48 89 46 f8          	mov    QWORD PTR [rsi-0x8],rax
    5474:	48 31 f6             	xor    rsi,rsi
    5477:	48 b8 00 00 00 00 00 	movabs rax,0x0
    547e:	00 00 00 
			5479: R_X86_64_64	do_callback
    5481:	48 89 9c 24 10 06 00 	mov    QWORD PTR [rsp+0x610],rbx
    5488:	00 
    5489:	48 89 bc 24 18 06 00 	mov    QWORD PTR [rsp+0x618],rdi
    5490:	00 
    5491:	4c 89 ac 24 20 06 00 	mov    QWORD PTR [rsp+0x620],r13
    5498:	00 
    5499:	ff d0                	call   rax
    549b:	48 8b 9c 24 10 06 00 	mov    rbx,QWORD PTR [rsp+0x610]
    54a2:	00 
    54a3:	4c 8b ac 24 20 06 00 	mov    r13,QWORD PTR [rsp+0x620]
    54aa:	00 
    54ab:	48 89 c6             	mov    rsi,rax
    54ae:	48 89 b4 24 10 06 00 	mov    QWORD PTR [rsp+0x610],rsi
    54b5:	00 
    54b6:	49 8b b4 24 98 00 00 	mov    rsi,QWORD PTR [r12+0x98]
    54bd:	00 
    54be:	48 8b 7b 08          	mov    rdi,QWORD PTR [rbx+0x8]
    54c2:	49 89 b4 24 98 00 00 	mov    QWORD PTR [r12+0x98],rsi
    54c9:	00 
    54ca:	4c 89 6e e0          	mov    QWORD PTR [rsi-0x20],r13
    54ce:	4c 89 76 e8          	mov    QWORD PTR [rsi-0x18],r14
    54d2:	b8 01 00 00 00       	mov    eax,0x1
    54d7:	48 89 46 f0          	mov    QWORD PTR [rsi-0x10],rax
    54db:	b8 01 00 00 00       	mov    eax,0x1
    54e0:	48 89 46 f8          	mov    QWORD PTR [rsi-0x8],rax
    54e4:	48 31 f6             	xor    rsi,rsi
    54e7:	48 b8 00 00 00 00 00 	movabs rax,0x0
