
<input>:     file format elf64-x86-64


Disassembly of section .text:

0000000000000000 <big_makeblock>:
       0:	55                   	push   rbp
       1:	48 89 e5             	mov    rbp,rsp
       4:	48 81 ec 70 08 00 00 	sub    rsp,0x870
       b:	4c 89 a4 24 40 08 00 	mov    QWORD PTR [rsp+0x840],r12
      12:	00 
      13:	4c 89 ac 24 48 08 00 	mov    QWORD PTR [rsp+0x848],r13
      1a:	00 
      1b:	4c 89 b4 24 50 08 00 	mov    QWORD PTR [rsp+0x850],r14
      22:	00 
      23:	48 89 9c 24 58 08 00 	mov    QWORD PTR [rsp+0x858],rbx
      2a:	00 
      2b:	4c 89 bc 24 60 08 00 	mov    QWORD PTR [rsp+0x860],r15
      32:	00 
      33:	48 89 bc 24 10 08 00 	mov    QWORD PTR [rsp+0x810],rdi
      3a:	00 
      3b:	48 be 00 00 00 00 00 	movabs rsi,0x0
      42:	00 00 00 
			3d: R_X86_64_64	caml_state_addr
      45:	48 89 b4 24 18 08 00 	mov    QWORD PTR [rsp+0x818],rsi
      4c:	00 
      4d:	bf 7d 02 00 00       	mov    edi,0x27d
      52:	48 be 00 00 00 00 00 	movabs rsi,0x0
      59:	00 00 00 
			54: R_X86_64_64	oc_prim92
      5c:	48 89 3c 24          	mov    QWORD PTR [rsp],rdi
      60:	ff d6                	call   rsi
      62:	be 01 00 00 00       	mov    esi,0x1
      67:	48 89 b4 24 00 08 00 	mov    QWORD PTR [rsp+0x800],rsi
      6e:	00 
      6f:	48 8b b4 24 10 08 00 	mov    rsi,QWORD PTR [rsp+0x810]
      76:	00 
      77:	48 8b 7e 08          	mov    rdi,QWORD PTR [rsi+0x8]
      7b:	48 8b b4 24 00 08 00 	mov    rsi,QWORD PTR [rsp+0x800]
      82:	00 
      83:	48 b8 00 00 00 00 00 	movabs rax,0x0
      8a:	00 00 00 
			85: R_X86_64_64	apply1
      8d:	48 89 34 24          	mov    QWORD PTR [rsp],rsi
      91:	48 89 7c 24 08       	mov    QWORD PTR [rsp+0x8],rdi
      96:	ff d0                	call   rax
      98:	48 89 c3             	mov    rbx,rax
      9b:	49 89 d6             	mov    r14,rdx
      9e:	4d 85 f6             	test   r14,r14
      a1:	0f 85 0d 00 00 00    	jne    b4 <big_makeblock+0xb4>
      a7:	48 89 9c 24 f8 00 00 	mov    QWORD PTR [rsp+0xf8],rbx
      ae:	00 
      af:	e9 91 00 00 00       	jmp    145 <big_makeblock+0x145>
      b4:	48 8b b4 24 18 08 00 	mov    rsi,QWORD PTR [rsp+0x818]
      bb:	00 
      bc:	4c 8b ae 98 00 00 00 	mov    r13,QWORD PTR [rsi+0x98]
      c3:	4d 89 f7             	mov    r15,r14
      c6:	49 83 c7 ff          	add    r15,0xffffffffffffffff
      ca:	4c 89 f2             	mov    rdx,r14
      cd:	48 c1 e2 03          	shl    rdx,0x3
      d1:	4d 89 ec             	mov    r12,r13
      d4:	49 01 d4             	add    r12,rdx
      d7:	4c 89 ef             	mov    rdi,r13
      da:	48 83 c7 e8          	add    rdi,0xffffffffffffffe8
      de:	4c 89 ee             	mov    rsi,r13
      e1:	48 b8 00 00 00 00 00 	movabs rax,0x0
      e8:	00 00 00 
			e3: R_X86_64_64	memmove
      eb:	48 89 1c 24          	mov    QWORD PTR [rsp],rbx
      ef:	ff d0                	call   rax
      f1:	48 8b 1c 24          	mov    rbx,QWORD PTR [rsp]
      f5:	48 be 00 00 00 00 00 	movabs rsi,0x0
      fc:	00 00 00 
			f7: R_X86_64_64	callback_return_addr
      ff:	bf 01 00 00 00       	mov    edi,0x1
     104:	4b 89 7c f5 f8       	mov    QWORD PTR [r13+r14*8-0x8],rdi
     109:	bf 01 00 00 00       	mov    edi,0x1
     10e:	4b 89 7c f5 f0       	mov    QWORD PTR [r13+r14*8-0x10],rdi
     113:	4b 89 74 f5 e8       	mov    QWORD PTR [r13+r14*8-0x18],rsi
     118:	48 8b b4 24 18 08 00 	mov    rsi,QWORD PTR [rsp+0x818]
     11f:	00 
     120:	4c 89 a6 98 00 00 00 	mov    QWORD PTR [rsi+0x98],r12
     127:	48 89 df             	mov    rdi,rbx
     12a:	4c 89 fe             	mov    rsi,r15
     12d:	48 b8 00 00 00 00 00 	movabs rax,0x0
     134:	00 00 00 
			12f: R_X86_64_64	apply_n
     137:	48 89 3c 24          	mov    QWORD PTR [rsp],rdi
     13b:	ff d0                	call   rax
     13d:	48 89 84 24 f8 00 00 	mov    QWORD PTR [rsp+0xf8],rax
     144:	00 
     145:	48 8b b4 24 10 08 00 	mov    rsi,QWORD PTR [rsp+0x810]
     14c:	00 
     14d:	48 8b 7e 08          	mov    rdi,QWORD PTR [rsi+0x8]
     151:	48 8b b4 24 00 08 00 	mov    rsi,QWORD PTR [rsp+0x800]
     158:	00 
     159:	48 b8 00 00 00 00 00 	movabs rax,0x0
     160:	00 00 00 
			15b: R_X86_64_64	apply1
     163:	48 89 34 24          	mov    QWORD PTR [rsp],rsi
     167:	48 89 7c 24 08       	mov    QWORD PTR [rsp+0x8],rdi
     16c:	ff d0                	call   rax
     16e:	48 89 c3             	mov    rbx,rax
     171:	49 89 d6             	mov    r14,rdx
     174:	4d 85 f6             	test   r14,r14
     177:	0f 85 09 00 00 00    	jne    186 <big_makeblock+0x186>
     17d:	48 89 1c 24          	mov    QWORD PTR [rsp],rbx
     181:	e9 8f 00 00 00       	jmp    215 <big_makeblock+0x215>
     186:	48 8b b4 24 18 08 00 	mov    rsi,QWORD PTR [rsp+0x818]
     18d:	00 
     18e:	4c 8b ae 98 00 00 00 	mov    r13,QWORD PTR [rsi+0x98]
     195:	4d 89 f7             	mov    r15,r14
     198:	49 83 c7 ff          	add    r15,0xffffffffffffffff
     19c:	4c 89 f2             	mov    rdx,r14
     19f:	48 c1 e2 03          	shl    rdx,0x3
     1a3:	4d 89 ec             	mov    r12,r13
     1a6:	49 01 d4             	add    r12,rdx
     1a9:	4c 89 ef             	mov    rdi,r13
     1ac:	48 83 c7 e8          	add    rdi,0xffffffffffffffe8
     1b0:	4c 89 ee             	mov    rsi,r13
     1b3:	48 b8 00 00 00 00 00 	movabs rax,0x0
     1ba:	00 00 00 
			1b5: R_X86_64_64	memmove
     1bd:	48 89 5c 24 08       	mov    QWORD PTR [rsp+0x8],rbx
     1c2:	ff d0                	call   rax
     1c4:	48 8b 5c 24 08       	mov    rbx,QWORD PTR [rsp+0x8]
     1c9:	48 be 00 00 00 00 00 	movabs rsi,0x0
     1d0:	00 00 00 
			1cb: R_X86_64_64	callback_return_addr
     1d3:	bf 01 00 00 00       	mov    edi,0x1
     1d8:	4b 89 7c f5 f8       	mov    QWORD PTR [r13+r14*8-0x8],rdi
     1dd:	bf 01 00 00 00       	mov    edi,0x1
     1e2:	4b 89 7c f5 f0       	mov    QWORD PTR [r13+r14*8-0x10],rdi
     1e7:	4b 89 74 f5 e8       	mov    QWORD PTR [r13+r14*8-0x18],rsi
     1ec:	48 8b b4 24 18 08 00 	mov    rsi,QWORD PTR [rsp+0x818]
     1f3:	00 
     1f4:	4c 89 a6 98 00 00 00 	mov    QWORD PTR [rsi+0x98],r12
     1fb:	48 89 df             	mov    rdi,rbx
     1fe:	4c 89 fe             	mov    rsi,r15
     201:	48 b8 00 00 00 00 00 	movabs rax,0x0
     208:	00 00 00 
			203: R_X86_64_64	apply_n
     20b:	48 89 3c 24          	mov    QWORD PTR [rsp],rdi
     20f:	ff d0                	call   rax
     211:	48 89 04 24          	mov    QWORD PTR [rsp],rax
     215:	48 8b b4 24 10 08 00 	mov    rsi,QWORD PTR [rsp+0x810]
     21c:	00 
     21d:	48 8b 7e 08          	mov    rdi,QWORD PTR [rsi+0x8]
     221:	48 8b b4 24 00 08 00 	mov    rsi,QWORD PTR [rsp+0x800]
     228:	00 
     229:	48 b8 00 00 00 00 00 	movabs rax,0x0
     230:	00 00 00 
			22b: R_X86_64_64	apply1
     233:	48 89 74 24 08       	mov    QWORD PTR [rsp+0x8],rsi
     238:	48 89 7c 24 10       	mov    QWORD PTR [rsp+0x10],rdi
     23d:	ff d0                	call   rax
     23f:	49 89 c7             	mov    r15,rax
     242:	49 89 d6             	mov    r14,rdx
     245:	4d 85 f6             	test   r14,r14
     248:	0f 85 0d 00 00 00    	jne    25b <big_makeblock+0x25b>
     24e:	4c 89 bc 24 08 01 00 	mov    QWORD PTR [rsp+0x108],r15
     255:	00 
     256:	e9 94 00 00 00       	jmp    2ef <big_makeblock+0x2ef>
     25b:	48 8b b4 24 18 08 00 	mov    rsi,QWORD PTR [rsp+0x818]
     262:	00 
     263:	4c 8b ae 98 00 00 00 	mov    r13,QWORD PTR [rsi+0x98]
     26a:	4c 89 f3             	mov    rbx,r14
     26d:	48 83 c3 ff          	add    rbx,0xffffffffffffffff
     271:	4c 89 f2             	mov    rdx,r14
     274:	48 c1 e2 03          	shl    rdx,0x3
     278:	4d 89 ec             	mov    r12,r13
     27b:	49 01 d4             	add    r12,rdx
     27e:	4c 89 ef             	mov    rdi,r13
     281:	48 83 c7 e8          	add    rdi,0xffffffffffffffe8
     285:	4c 89 ee             	mov    rsi,r13
     288:	48 b8 00 00 00 00 00 	movabs rax,0x0
     28f:	00 00 00 
			28a: R_X86_64_64	memmove
     292:	4c 89 7c 24 08       	mov    QWORD PTR [rsp+0x8],r15
     297:	ff d0                	call   rax
     299:	4c 8b 7c 24 08       	mov    r15,QWORD PTR [rsp+0x8]
     29e:	48 be 00 00 00 00 00 	movabs rsi,0x0
     2a5:	00 00 00 
			2a0: R_X86_64_64	callback_return_addr
     2a8:	bf 01 00 00 00       	mov    edi,0x1
     2ad:	4b 89 7c f5 f8       	mov    QWORD PTR [r13+r14*8-0x8],rdi
     2b2:	bf 01 00 00 00       	mov    edi,0x1
     2b7:	4b 89 7c f5 f0       	mov    QWORD PTR [r13+r14*8-0x10],rdi
     2bc:	4b 89 74 f5 e8       	mov    QWORD PTR [r13+r14*8-0x18],rsi
     2c1:	48 8b b4 24 18 08 00 	mov    rsi,QWORD PTR [rsp+0x818]
     2c8:	00 
     2c9:	4c 89 a6 98 00 00 00 	mov    QWORD PTR [rsi+0x98],r12
     2d0:	4c 89 ff             	mov    rdi,r15
     2d3:	48 89 de             	mov    rsi,rbx
     2d6:	48 b8 00 00 00 00 00 	movabs rax,0x0
     2dd:	00 00 00 
			2d8: R_X86_64_64	apply_n
     2e0:	48 89 7c 24 08       	mov    QWORD PTR [rsp+0x8],rdi
     2e5:	ff d0                	call   rax
     2e7:	48 89 84 24 08 01 00 	mov    QWORD PTR [rsp+0x108],rax
     2ee:	00 
     2ef:	48 8b b4 24 10 08 00 	mov    rsi,QWORD PTR [rsp+0x810]
     2f6:	00 
     2f7:	48 8b 7e 08          	mov    rdi,QWORD PTR [rsi+0x8]
     2fb:	48 8b b4 24 00 08 00 	mov    rsi,QWORD PTR [rsp+0x800]
     302:	00 
     303:	48 b8 00 00 00 00 00 	movabs rax,0x0
     30a:	00 00 00 
			305: R_X86_64_64	apply1
     30d:	48 89 74 24 08       	mov    QWORD PTR [rsp+0x8],rsi
     312:	48 89 7c 24 10       	mov    QWORD PTR [rsp+0x10],rdi
     317:	ff d0                	call   rax
     319:	48 89 c3             	mov    rbx,rax
     31c:	49 89 d6             	mov    r14,rdx
     31f:	4d 85 f6             	test   r14,r14
     322:	0f 85 0a 00 00 00    	jne    332 <big_makeblock+0x332>
     328:	48 89 5c 24 08       	mov    QWORD PTR [rsp+0x8],rbx
     32d:	e9 91 00 00 00       	jmp    3c3 <big_makeblock+0x3c3>
     332:	48 8b b4 24 18 08 00 	mov    rsi,QWORD PTR [rsp+0x818]
     339:	00 
     33a:	4c 8b ae 98 00 00 00 	mov    r13,QWORD PTR [rsi+0x98]
     341:	4d 89 f7             	mov    r15,r14
     344:	49 83 c7 ff          	add    r15,0xffffffffffffffff
     348:	4c 89 f2             	mov    rdx,r14
     34b:	48 c1 e2 03          	shl    rdx,0x3
     34f:	4d 89 ec             	mov    r12,r13
     352:	49 01 d4             	add    r12,rdx
     355:	4c 89 ef             	mov    rdi,r13
     358:	48 83 c7 e8          	add    rdi,0xffffffffffffffe8
     35c:	4c 89 ee             	mov    rsi,r13
     35f:	48 b8 00 00 00 00 00 	movabs rax,0x0
     366:	00 00 00 
			361: R_X86_64_64	memmove
     369:	48 89 5c 24 10       	mov    QWORD PTR [rsp+0x10],rbx
     36e:	ff d0                	call   rax
     370:	48 8b 5c 24 10       	mov    rbx,QWORD PTR [rsp+0x10]
     375:	48 be 00 00 00 00 00 	movabs rsi,0x0
     37c:	00 00 00 
			377: R_X86_64_64	callback_return_addr
     37f:	bf 01 00 00 00       	mov    edi,0x1
     384:	4b 89 7c f5 f8       	mov    QWORD PTR [r13+r14*8-0x8],rdi
     389:	bf 01 00 00 00       	mov    edi,0x1
     38e:	4b 89 7c f5 f0       	mov    QWORD PTR [r13+r14*8-0x10],rdi
     393:	4b 89 74 f5 e8       	mov    QWORD PTR [r13+r14*8-0x18],rsi
     398:	48 8b b4 24 18 08 00 	mov    rsi,QWORD PTR [rsp+0x818]
     39f:	00 
     3a0:	4c 89 a6 98 00 00 00 	mov    QWORD PTR [rsi+0x98],r12
     3a7:	48 89 df             	mov    rdi,rbx
     3aa:	4c 89 fe             	mov    rsi,r15
     3ad:	48 b8 00 00 00 00 00 	movabs rax,0x0
     3b4:	00 00 00 
			3af: R_X86_64_64	apply_n
     3b7:	48 89 7c 24 08       	mov    QWORD PTR [rsp+0x8],rdi
     3bc:	ff d0                	call   rax
     3be:	48 89 44 24 08       	mov    QWORD PTR [rsp+0x8],rax
     3c3:	48 8b b4 24 10 08 00 	mov    rsi,QWORD PTR [rsp+0x810]
     3ca:	00 
     3cb:	48 8b 7e 08          	mov    rdi,QWORD PTR [rsi+0x8]
     3cf:	48 8b b4 24 00 08 00 	mov    rsi,QWORD PTR [rsp+0x800]
     3d6:	00 
     3d7:	48 b8 00 00 00 00 00 	movabs rax,0x0
     3de:	00 00 00 
			3d9: R_X86_64_64	apply1
     3e1:	48 89 74 24 10       	mov    QWORD PTR [rsp+0x10],rsi
     3e6:	48 89 7c 24 18       	mov    QWORD PTR [rsp+0x18],rdi
     3eb:	ff d0                	call   rax
     3ed:	48 89 c3             	mov    rbx,rax
     3f0:	49 89 d6             	mov    r14,rdx
     3f3:	4d 85 f6             	test   r14,r14
     3f6:	0f 85 0d 00 00 00    	jne    409 <big_makeblock+0x409>
     3fc:	48 89 9c 24 18 01 00 	mov    QWORD PTR [rsp+0x118],rbx
     403:	00 
     404:	e9 94 00 00 00       	jmp    49d <big_makeblock+0x49d>
     409:	48 8b b4 24 18 08 00 	mov    rsi,QWORD PTR [rsp+0x818]
     410:	00 
     411:	4c 8b ae 98 00 00 00 	mov    r13,QWORD PTR [rsi+0x98]
     418:	4d 89 f7             	mov    r15,r14
     41b:	49 83 c7 ff          	add    r15,0xffffffffffffffff
     41f:	4c 89 f2             	mov    rdx,r14
     422:	48 c1 e2 03          	shl    rdx,0x3
     426:	4d 89 ec             	mov    r12,r13
     429:	49 01 d4             	add    r12,rdx
     42c:	4c 89 ef             	mov    rdi,r13
     42f:	48 83 c7 e8          	add    rdi,0xffffffffffffffe8
     433:	4c 89 ee             	mov    rsi,r13
     436:	48 b8 00 00 00 00 00 	movabs rax,0x0
     43d:	00 00 00 
			438: R_X86_64_64	memmove
     440:	48 89 5c 24 10       	mov    QWORD PTR [rsp+0x10],rbx
     445:	ff d0                	call   rax
     447:	48 8b 5c 24 10       	mov    rbx,QWORD PTR [rsp+0x10]
     44c:	48 be 00 00 00 00 00 	movabs rsi,0x0
     453:	00 00 00 
			44e: R_X86_64_64	callback_return_addr
     456:	bf 01 00 00 00       	mov    edi,0x1
     45b:	4b 89 7c f5 f8       	mov    QWORD PTR [r13+r14*8-0x8],rdi
     460:	bf 01 00 00 00       	mov    edi,0x1
     465:	4b 89 7c f5 f0       	mov    QWORD PTR [r13+r14*8-0x10],rdi
     46a:	4b 89 74 f5 e8       	mov    QWORD PTR [r13+r14*8-0x18],rsi
     46f:	48 8b b4 24 18 08 00 	mov    rsi,QWORD PTR [rsp+0x818]
     476:	00 
     477:	4c 89 a6 98 00 00 00 	mov    QWORD PTR [rsi+0x98],r12
     47e:	48 89 df             	mov    rdi,rbx
     481:	4c 89 fe             	mov    rsi,r15
     484:	48 b8 00 00 00 00 00 	movabs rax,0x0
     48b:	00 00 00 
			486: R_X86_64_64	apply_n
     48e:	48 89 7c 24 10       	mov    QWORD PTR [rsp+0x10],rdi
     493:	ff d0                	call   rax
     495:	48 89 84 24 18 01 00 	mov    QWORD PTR [rsp+0x118],rax
     49c:	00 
     49d:	48 8b b4 24 10 08 00 	mov    rsi,QWORD PTR [rsp+0x810]
     4a4:	00 
     4a5:	48 8b 7e 08          	mov    rdi,QWORD PTR [rsi+0x8]
     4a9:	48 8b b4 24 00 08 00 	mov    rsi,QWORD PTR [rsp+0x800]
     4b0:	00 
     4b1:	48 b8 00 00 00 00 00 	movabs rax,0x0
     4b8:	00 00 00 
			4b3: R_X86_64_64	apply1
     4bb:	48 89 74 24 10       	mov    QWORD PTR [rsp+0x10],rsi
     4c0:	48 89 7c 24 18       	mov    QWORD PTR [rsp+0x18],rdi
     4c5:	ff d0                	call   rax
     4c7:	49 89 c7             	mov    r15,rax
     4ca:	49 89 d6             	mov    r14,rdx
     4cd:	4d 85 f6             	test   r14,r14
     4d0:	0f 85 0a 00 00 00    	jne    4e0 <big_makeblock+0x4e0>
     4d6:	4c 89 7c 24 10       	mov    QWORD PTR [rsp+0x10],r15
     4db:	e9 91 00 00 00       	jmp    571 <big_makeblock+0x571>
     4e0:	48 8b b4 24 18 08 00 	mov    rsi,QWORD PTR [rsp+0x818]
     4e7:	00 
     4e8:	4c 8b ae 98 00 00 00 	mov    r13,QWORD PTR [rsi+0x98]
     4ef:	4c 89 f3             	mov    rbx,r14
     4f2:	48 83 c3 ff          	add    rbx,0xffffffffffffffff
     4f6:	4c 89 f2             	mov    rdx,r14
     4f9:	48 c1 e2 03          	shl    rdx,0x3
     4fd:	4d 89 ec             	mov    r12,r13
     500:	49 01 d4             	add    r12,rdx
     503:	4c 89 ef             	mov    rdi,r13
     506:	48 83 c7 e8          	add    rdi,0xffffffffffffffe8
     50a:	4c 89 ee             	mov    rsi,r13
     50d:	48 b8 00 00 00 00 00 	movabs rax,0x0
     514:	00 00 00 
			50f: R_X86_64_64	memmove
     517:	4c 89 7c 24 18       	mov    QWORD PTR [rsp+0x18],r15
     51c:	ff d0                	call   rax
     51e:	4c 8b 7c 24 18       	mov    r15,QWORD PTR [rsp+0x18]
     523:	48 be 00 00 00 00 00 	movabs rsi,0x0
     52a:	00 00 00 
			525: R_X86_64_64	callback_return_addr
     52d:	bf 01 00 00 00       	mov    edi,0x1
     532:	4b 89 7c f5 f8       	mov    QWORD PTR [r13+r14*8-0x8],rdi
     537:	bf 01 00 00 00       	mov    edi,0x1
     53c:	4b 89 7c f5 f0       	mov    QWORD PTR [r13+r14*8-0x10],rdi
     541:	4b 89 74 f5 e8       	mov    QWORD PTR [r13+r14*8-0x18],rsi
     546:	48 8b b4 24 18 08 00 	mov    rsi,QWORD PTR [rsp+0x818]
     54d:	00 
     54e:	4c 89 a6 98 00 00 00 	mov    QWORD PTR [rsi+0x98],r12
     555:	4c 89 ff             	mov    rdi,r15
     558:	48 89 de             	mov    rsi,rbx
     55b:	48 b8 00 00 00 00 00 	movabs rax,0x0
     562:	00 00 00 
			55d: R_X86_64_64	apply_n
     565:	48 89 7c 24 10       	mov    QWORD PTR [rsp+0x10],rdi
     56a:	ff d0                	call   rax
     56c:	48 89 44 24 10       	mov    QWORD PTR [rsp+0x10],rax
     571:	48 8b b4 24 10 08 00 	mov    rsi,QWORD PTR [rsp+0x810]
     578:	00 
     579:	48 8b 7e 08          	mov    rdi,QWORD PTR [rsi+0x8]
     57d:	48 8b b4 24 00 08 00 	mov    rsi,QWORD PTR [rsp+0x800]
     584:	00 
     585:	48 b8 00 00 00 00 00 	movabs rax,0x0
     58c:	00 00 00 
			587: R_X86_64_64	apply1
     58f:	48 89 74 24 18       	mov    QWORD PTR [rsp+0x18],rsi
     594:	48 89 7c 24 20       	mov    QWORD PTR [rsp+0x20],rdi
     599:	ff d0                	call   rax
     59b:	48 89 c3             	mov    rbx,rax
     59e:	49 89 d6             	mov    r14,rdx
     5a1:	4d 85 f6             	test   r14,r14
     5a4:	0f 85 0d 00 00 00    	jne    5b7 <big_makeblock+0x5b7>
     5aa:	48 89 9c 24 28 01 00 	mov    QWORD PTR [rsp+0x128],rbx
     5b1:	00 
     5b2:	e9 94 00 00 00       	jmp    64b <big_makeblock+0x64b>
     5b7:	48 8b b4 24 18 08 00 	mov    rsi,QWORD PTR [rsp+0x818]
     5be:	00 
     5bf:	4c 8b ae 98 00 00 00 	mov    r13,QWORD PTR [rsi+0x98]
     5c6:	4d 89 f7             	mov    r15,r14
     5c9:	49 83 c7 ff          	add    r15,0xffffffffffffffff
     5cd:	4c 89 f2             	mov    rdx,r14
     5d0:	48 c1 e2 03          	shl    rdx,0x3
     5d4:	4d 89 ec             	mov    r12,r13
     5d7:	49 01 d4             	add    r12,rdx
     5da:	4c 89 ef             	mov    rdi,r13
     5dd:	48 83 c7 e8          	add    rdi,0xffffffffffffffe8
     5e1:	4c 89 ee             	mov    rsi,r13
     5e4:	48 b8 00 00 00 00 00 	movabs rax,0x0
     5eb:	00 00 00 
			5e6: R_X86_64_64	memmove
     5ee:	48 89 5c 24 18       	mov    QWORD PTR [rsp+0x18],rbx
     5f3:	ff d0                	call   rax
     5f5:	48 8b 5c 24 18       	mov    rbx,QWORD PTR [rsp+0x18]
     5fa:	48 be 00 00 00 00 00 	movabs rsi,0x0
     601:	00 00 00 
			5fc: R_X86_64_64	callback_return_addr
     604:	bf 01 00 00 00       	mov    edi,0x1
     609:	4b 89 7c f5 f8       	mov    QWORD PTR [r13+r14*8-0x8],rdi
     60e:	bf 01 00 00 00       	mov    edi,0x1
     613:	4b 89 7c f5 f0       	mov    QWORD PTR [r13+r14*8-0x10],rdi
     618:	4b 89 74 f5 e8       	mov    QWORD PTR [r13+r14*8-0x18],rsi
     61d:	48 8b b4 24 18 08 00 	mov    rsi,QWORD PTR [rsp+0x818]
     624:	00 
     625:	4c 89 a6 98 00 00 00 	mov    QWORD PTR [rsi+0x98],r12
     62c:	48 89 df             	mov    rdi,rbx
     62f:	4c 89 fe             	mov    rsi,r15
     632:	48 b8 00 00 00 00 00 	movabs rax,0x0
     639:	00 00 00 
			634: R_X86_64_64	apply_n
     63c:	48 89 7c 24 18       	mov    QWORD PTR [rsp+0x18],rdi
     641:	ff d0                	call   rax
     643:	48 89 84 24 28 01 00 	mov    QWORD PTR [rsp+0x128],rax
     64a:	00 
     64b:	48 8b b4 24 10 08 00 	mov    rsi,QWORD PTR [rsp+0x810]
     652:	00 
     653:	48 8b 7e 08          	mov    rdi,QWORD PTR [rsi+0x8]
     657:	48 8b b4 24 00 08 00 	mov    rsi,QWORD PTR [rsp+0x800]
     65e:	00 
     65f:	48 b8 00 00 00 00 00 	movabs rax,0x0
     666:	00 00 00 
			661: R_X86_64_64	apply1
     669:	48 89 74 24 18       	mov    QWORD PTR [rsp+0x18],rsi
     66e:	48 89 7c 24 20       	mov    QWORD PTR [rsp+0x20],rdi
     673:	ff d0                	call   rax
     675:	48 89 c3             	mov    rbx,rax
     678:	49 89 d6             	mov    r14,rdx
     67b:	4d 85 f6             	test   r14,r14
     67e:	0f 85 0a 00 00 00    	jne    68e <big_makeblock+0x68e>
     684:	48 89 5c 24 18       	mov    QWORD PTR [rsp+0x18],rbx
     689:	e9 91 00 00 00       	jmp    71f <big_makeblock+0x71f>
     68e:	48 8b b4 24 18 08 00 	mov    rsi,QWORD PTR [rsp+0x818]
     695:	00 
     696:	4c 8b ae 98 00 00 00 	mov    r13,QWORD PTR [rsi+0x98]
     69d:	4d 89 f7             	mov    r15,r14
     6a0:	49 83 c7 ff          	add    r15,0xffffffffffffffff
     6a4:	4c 89 f2             	mov    rdx,r14
     6a7:	48 c1 e2 03          	shl    rdx,0x3
     6ab:	4d 89 ec             	mov    r12,r13
     6ae:	49 01 d4             	add    r12,rdx
     6b1:	4c 89 ef             	mov    rdi,r13
     6b4:	48 83 c7 e8          	add    rdi,0xffffffffffffffe8
     6b8:	4c 89 ee             	mov    rsi,r13
     6bb:	48 b8 00 00 00 00 00 	movabs rax,0x0
     6c2:	00 00 00 
			6bd: R_X86_64_64	memmove
     6c5:	48 89 5c 24 20       	mov    QWORD PTR [rsp+0x20],rbx
     6ca:	ff d0                	call   rax
     6cc:	48 8b 5c 24 20       	mov    rbx,QWORD PTR [rsp+0x20]
     6d1:	48 be 00 00 00 00 00 	movabs rsi,0x0
     6d8:	00 00 00 
			6d3: R_X86_64_64	callback_return_addr
     6db:	bf 01 00 00 00       	mov    edi,0x1
     6e0:	4b 89 7c f5 f8       	mov    QWORD PTR [r13+r14*8-0x8],rdi
     6e5:	bf 01 00 00 00       	mov    edi,0x1
     6ea:	4b 89 7c f5 f0       	mov    QWORD PTR [r13+r14*8-0x10],rdi
     6ef:	4b 89 74 f5 e8       	mov    QWORD PTR [r13+r14*8-0x18],rsi
     6f4:	48 8b b4 24 18 08 00 	mov    rsi,QWORD PTR [rsp+0x818]
     6fb:	00 
     6fc:	4c 89 a6 98 00 00 00 	mov    QWORD PTR [rsi+0x98],r12
     703:	48 89 df             	mov    rdi,rbx
     706:	4c 89 fe             	mov    rsi,r15
     709:	48 b8 00 00 00 00 00 	movabs rax,0x0
     710:	00 00 00 
			70b: R_X86_64_64	apply_n
     713:	48 89 7c 24 18       	mov    QWORD PTR [rsp+0x18],rdi
     718:	ff d0                	call   rax
     71a:	48 89 44 24 18       	mov    QWORD PTR [rsp+0x18],rax
     71f:	48 8b b4 24 10 08 00 	mov    rsi,QWORD PTR [rsp+0x810]
     726:	00 
     727:	48 8b 7e 08          	mov    rdi,QWORD PTR [rsi+0x8]
     72b:	48 8b b4 24 00 08 00 	mov    rsi,QWORD PTR [rsp+0x800]
     732:	00 
     733:	48 b8 00 00 00 00 00 	movabs rax,0x0
     73a:	00 00 00 
			735: R_X86_64_64	apply1
     73d:	48 89 74 24 20       	mov    QWORD PTR [rsp+0x20],rsi
     742:	48 89 7c 24 28       	mov    QWORD PTR [rsp+0x28],rdi
     747:	ff d0                	call   rax
     749:	49 89 c7             	mov    r15,rax
     74c:	49 89 d6             	mov    r14,rdx
     74f:	4d 85 f6             	test   r14,r14
     752:	0f 85 0d 00 00 00    	jne    765 <big_makeblock+0x765>
     758:	4c 89 bc 24 38 01 00 	mov    QWORD PTR [rsp+0x138],r15
     75f:	00 
     760:	e9 94 00 00 00       	jmp    7f9 <big_makeblock+0x7f9>
     765:	48 8b b4 24 18 08 00 	mov    rsi,QWORD PTR [rsp+0x818]
     76c:	00 
     76d:	4c 8b ae 98 00 00 00 	mov    r13,QWORD PTR [rsi+0x98]
     774:	4c 89 f3             	mov    rbx,r14
     777:	48 83 c3 ff          	add    rbx,0xffffffffffffffff
     77b:	4c 89 f2             	mov    rdx,r14
     77e:	48 c1 e2 03          	shl    rdx,0x3
     782:	4d 89 ec             	mov    r12,r13
     785:	49 01 d4             	add    r12,rdx
     788:	4c 89 ef             	mov    rdi,r13
     78b:	48 83 c7 e8          	add    rdi,0xffffffffffffffe8
     78f:	4c 89 ee             	mov    rsi,r13
     792:	48 b8 00 00 00 00 00 	movabs rax,0x0
     799:	00 00 00 
			794: R_X86_64_64	memmove
     79c:	4c 89 7c 24 20       	mov    QWORD PTR [rsp+0x20],r15
     7a1:	ff d0                	call   rax
     7a3:	4c 8b 7c 24 20       	mov    r15,QWORD PTR [rsp+0x20]
     7a8:	48 be 00 00 00 00 00 	movabs rsi,0x0
     7af:	00 00 00 
			7aa: R_X86_64_64	callback_return_addr
     7b2:	bf 01 00 00 00       	mov    edi,0x1
     7b7:	4b 89 7c f5 f8       	mov    QWORD PTR [r13+r14*8-0x8],rdi
     7bc:	bf 01 00 00 00       	mov    edi,0x1
     7c1:	4b 89 7c f5 f0       	mov    QWORD PTR [r13+r14*8-0x10],rdi
     7c6:	4b 89 74 f5 e8       	mov    QWORD PTR [r13+r14*8-0x18],rsi
     7cb:	48 8b b4 24 18 08 00 	mov    rsi,QWORD PTR [rsp+0x818]
     7d2:	00 
     7d3:	4c 89 a6 98 00 00 00 	mov    QWORD PTR [rsi+0x98],r12
     7da:	4c 89 ff             	mov    rdi,r15
     7dd:	48 89 de             	mov    rsi,rbx
     7e0:	48 b8 00 00 00 00 00 	movabs rax,0x0
     7e7:	00 00 00 
			7e2: R_X86_64_64	apply_n
     7ea:	48 89 7c 24 20       	mov    QWORD PTR [rsp+0x20],rdi
     7ef:	ff d0                	call   rax
     7f1:	48 89 84 24 38 01 00 	mov    QWORD PTR [rsp+0x138],rax
     7f8:	00 
     7f9:	48 8b b4 24 10 08 00 	mov    rsi,QWORD PTR [rsp+0x810]
     800:	00 
     801:	48 8b 7e 08          	mov    rdi,QWORD PTR [rsi+0x8]
     805:	48 8b b4 24 00 08 00 	mov    rsi,QWORD PTR [rsp+0x800]
     80c:	00 
     80d:	48 b8 00 00 00 00 00 	movabs rax,0x0
     814:	00 00 00 
			80f: R_X86_64_64	apply1
     817:	48 89 74 24 20       	mov    QWORD PTR [rsp+0x20],rsi
     81c:	48 89 7c 24 28       	mov    QWORD PTR [rsp+0x28],rdi
     821:	ff d0                	call   rax
     823:	48 89 c3             	mov    rbx,rax
     826:	49 89 d6             	mov    r14,rdx
     829:	4d 85 f6             	test   r14,r14
     82c:	0f 85 0a 00 00 00    	jne    83c <big_makeblock+0x83c>
     832:	48 89 5c 24 20       	mov    QWORD PTR [rsp+0x20],rbx
     837:	e9 91 00 00 00       	jmp    8cd <big_makeblock+0x8cd>
     83c:	48 8b b4 24 18 08 00 	mov    rsi,QWORD PTR [rsp+0x818]
     843:	00 
     844:	4c 8b ae 98 00 00 00 	mov    r13,QWORD PTR [rsi+0x98]
     84b:	4d 89 f7             	mov    r15,r14
     84e:	49 83 c7 ff          	add    r15,0xffffffffffffffff
     852:	4c 89 f2             	mov    rdx,r14
     855:	48 c1 e2 03          	shl    rdx,0x3
     859:	4d 89 ec             	mov    r12,r13
     85c:	49 01 d4             	add    r12,rdx
     85f:	4c 89 ef             	mov    rdi,r13
     862:	48 83 c7 e8          	add    rdi,0xffffffffffffffe8
     866:	4c 89 ee             	mov    rsi,r13
     869:	48 b8 00 00 00 00 00 	movabs rax,0x0
     870:	00 00 00 
			86b: R_X86_64_64	memmove
     873:	48 89 5c 24 28       	mov    QWORD PTR [rsp+0x28],rbx
     878:	ff d0                	call   rax
     87a:	48 8b 5c 24 28       	mov    rbx,QWORD PTR [rsp+0x28]
     87f:	48 be 00 00 00 00 00 	movabs rsi,0x0
     886:	00 00 00 
			881: R_X86_64_64	callback_return_addr
     889:	bf 01 00 00 00       	mov    edi,0x1
     88e:	4b 89 7c f5 f8       	mov    QWORD PTR [r13+r14*8-0x8],rdi
     893:	bf 01 00 00 00       	mov    edi,0x1
     898:	4b 89 7c f5 f0       	mov    QWORD PTR [r13+r14*8-0x10],rdi
     89d:	4b 89 74 f5 e8       	mov    QWORD PTR [r13+r14*8-0x18],rsi
     8a2:	48 8b b4 24 18 08 00 	mov    rsi,QWORD PTR [rsp+0x818]
     8a9:	00 
     8aa:	4c 89 a6 98 00 00 00 	mov    QWORD PTR [rsi+0x98],r12
     8b1:	48 89 df             	mov    rdi,rbx
     8b4:	4c 89 fe             	mov    rsi,r15
     8b7:	48 b8 00 00 00 00 00 	movabs rax,0x0
     8be:	00 00 00 
			8b9: R_X86_64_64	apply_n
     8c1:	48 89 7c 24 20       	mov    QWORD PTR [rsp+0x20],rdi
     8c6:	ff d0                	call   rax
     8c8:	48 89 44 24 20       	mov    QWORD PTR [rsp+0x20],rax
     8cd:	48 8b b4 24 10 08 00 	mov    rsi,QWORD PTR [rsp+0x810]
     8d4:	00 
     8d5:	48 8b 7e 08          	mov    rdi,QWORD PTR [rsi+0x8]
     8d9:	48 8b b4 24 00 08 00 	mov    rsi,QWORD PTR [rsp+0x800]
     8e0:	00 
     8e1:	48 b8 00 00 00 00 00 	movabs rax,0x0
     8e8:	00 00 00 
			8e3: R_X86_64_64	apply1
     8eb:	48 89 74 24 28       	mov    QWORD PTR [rsp+0x28],rsi
     8f0:	48 89 7c 24 30       	mov    QWORD PTR [rsp+0x30],rdi
     8f5:	ff d0                	call   rax
     8f7:	48 89 c3             	mov    rbx,rax
     8fa:	49 89 d6             	mov    r14,rdx
     8fd:	4d 85 f6             	test   r14,r14
     900:	0f 85 0d 00 00 00    	jne    913 <big_makeblock+0x913>
     906:	48 89 9c 24 48 01 00 	mov    QWORD PTR [rsp+0x148],rbx
     90d:	00 
     90e:	e9 94 00 00 00       	jmp    9a7 <big_makeblock+0x9a7>
     913:	48 8b b4 24 18 08 00 	mov    rsi,QWORD PTR [rsp+0x818]
     91a:	00 
     91b:	4c 8b ae 98 00 00 00 	mov    r13,QWORD PTR [rsi+0x98]
     922:	4d 89 f7             	mov    r15,r14
     925:	49 83 c7 ff          	add    r15,0xffffffffffffffff
     929:	4c 89 f2             	mov    rdx,r14
     92c:	48 c1 e2 03          	shl    rdx,0x3
     930:	4d 89 ec             	mov    r12,r13
     933:	49 01 d4             	add    r12,rdx
     936:	4c 89 ef             	mov    rdi,r13
     939:	48 83 c7 e8          	add    rdi,0xffffffffffffffe8
     93d:	4c 89 ee             	mov    rsi,r13
     940:	48 b8 00 00 00 00 00 	movabs rax,0x0
     947:	00 00 00 
			942: R_X86_64_64	memmove
     94a:	48 89 5c 24 28       	mov    QWORD PTR [rsp+0x28],rbx
     94f:	ff d0                	call   rax
     951:	48 8b 5c 24 28       	mov    rbx,QWORD PTR [rsp+0x28]
     956:	48 be 00 00 00 00 00 	movabs rsi,0x0
     95d:	00 00 00 
			958: R_X86_64_64	callback_return_addr
     960:	bf 01 00 00 00       	mov    edi,0x1
     965:	4b 89 7c f5 f8       	mov    QWORD PTR [r13+r14*8-0x8],rdi
     96a:	bf 01 00 00 00       	mov    edi,0x1
     96f:	4b 89 7c f5 f0       	mov    QWORD PTR [r13+r14*8-0x10],rdi
     974:	4b 89 74 f5 e8       	mov    QWORD PTR [r13+r14*8-0x18],rsi
     979:	48 8b b4 24 18 08 00 	mov    rsi,QWORD PTR [rsp+0x818]
     980:	00 
     981:	4c 89 a6 98 00 00 00 	mov    QWORD PTR [rsi+0x98],r12
     988:	48 89 df             	mov    rdi,rbx
     98b:	4c 89 fe             	mov    rsi,r15
     98e:	48 b8 00 00 00 00 00 	movabs rax,0x0
     995:	00 00 00 
			990: R_X86_64_64	apply_n
     998:	48 89 7c 24 28       	mov    QWORD PTR [rsp+0x28],rdi
     99d:	ff d0                	call   rax
     99f:	48 89 84 24 48 01 00 	mov    QWORD PTR [rsp+0x148],rax
     9a6:	00 
     9a7:	48 8b b4 24 10 08 00 	mov    rsi,QWORD PTR [rsp+0x810]
     9ae:	00 
     9af:	48 8b 7e 08          	mov    rdi,QWORD PTR [rsi+0x8]
     9b3:	48 8b b4 24 00 08 00 	mov    rsi,QWORD PTR [rsp+0x800]
     9ba:	00 
     9bb:	48 b8 00 00 00 00 00 	movabs rax,0x0
     9c2:	00 00 00 
			9bd: R_X86_64_64	apply1
     9c5:	48 89 74 24 28       	mov    QWORD PTR [rsp+0x28],rsi
     9ca:	48 89 7c 24 30       	mov    QWORD PTR [rsp+0x30],rdi
     9cf:	ff d0                	call   rax
     9d1:	49 89 c7             	mov    r15,rax
     9d4:	49 89 d6             	mov    r14,rdx
     9d7:	4d 85 f6             	test   r14,r14
     9da:	0f 85 0a 00 00 00    	jne    9ea <big_makeblock+0x9ea>
     9e0:	4c 89 7c 24 28       	mov    QWORD PTR [rsp+0x28],r15
     9e5:	e9 91 00 00 00       	jmp    a7b <big_makeblock+0xa7b>
     9ea:	48 8b b4 24 18 08 00 	mov    rsi,QWORD PTR [rsp+0x818]
     9f1:	00 
     9f2:	4c 8b ae 98 00 00 00 	mov    r13,QWORD PTR [rsi+0x98]
     9f9:	4c 89 f3             	mov    rbx,r14
     9fc:	48 83 c3 ff          	add    rbx,0xffffffffffffffff
     a00:	4c 89 f2             	mov    rdx,r14
     a03:	48 c1 e2 03          	shl    rdx,0x3
     a07:	4d 89 ec             	mov    r12,r13
     a0a:	49 01 d4             	add    r12,rdx
     a0d:	4c 89 ef             	mov    rdi,r13
     a10:	48 83 c7 e8          	add    rdi,0xffffffffffffffe8
     a14:	4c 89 ee             	mov    rsi,r13
     a17:	48 b8 00 00 00 00 00 	movabs rax,0x0
     a1e:	00 00 00 
			a19: R_X86_64_64	memmove
     a21:	4c 89 7c 24 30       	mov    QWORD PTR [rsp+0x30],r15
     a26:	ff d0                	call   rax
     a28:	4c 8b 7c 24 30       	mov    r15,QWORD PTR [rsp+0x30]
     a2d:	48 be 00 00 00 00 00 	movabs rsi,0x0
     a34:	00 00 00 
			a2f: R_X86_64_64	callback_return_addr
     a37:	bf 01 00 00 00       	mov    edi,0x1
     a3c:	4b 89 7c f5 f8       	mov    QWORD PTR [r13+r14*8-0x8],rdi
     a41:	bf 01 00 00 00       	mov    edi,0x1
     a46:	4b 89 7c f5 f0       	mov    QWORD PTR [r13+r14*8-0x10],rdi
     a4b:	4b 89 74 f5 e8       	mov    QWORD PTR [r13+r14*8-0x18],rsi
     a50:	48 8b b4 24 18 08 00 	mov    rsi,QWORD PTR [rsp+0x818]
     a57:	00 
     a58:	4c 89 a6 98 00 00 00 	mov    QWORD PTR [rsi+0x98],r12
     a5f:	4c 89 ff             	mov    rdi,r15
     a62:	48 89 de             	mov    rsi,rbx
     a65:	48 b8 00 00 00 00 00 	movabs rax,0x0
     a6c:	00 00 00 
			a67: R_X86_64_64	apply_n
     a6f:	48 89 7c 24 28       	mov    QWORD PTR [rsp+0x28],rdi
     a74:	ff d0                	call   rax
     a76:	48 89 44 24 28       	mov    QWORD PTR [rsp+0x28],rax
     a7b:	48 8b b4 24 10 08 00 	mov    rsi,QWORD PTR [rsp+0x810]
     a82:	00 
     a83:	48 8b 7e 08          	mov    rdi,QWORD PTR [rsi+0x8]
     a87:	48 8b b4 24 00 08 00 	mov    rsi,QWORD PTR [rsp+0x800]
     a8e:	00 
     a8f:	48 b8 00 00 00 00 00 	movabs rax,0x0
     a96:	00 00 00 
			a91: R_X86_64_64	apply1
     a99:	48 89 74 24 30       	mov    QWORD PTR [rsp+0x30],rsi
     a9e:	48 89 7c 24 38       	mov    QWORD PTR [rsp+0x38],rdi
     aa3:	ff d0                	call   rax
     aa5:	48 89 c3             	mov    rbx,rax
     aa8:	49 89 d6             	mov    r14,rdx
     aab:	4d 85 f6             	test   r14,r14
     aae:	0f 85 0d 00 00 00    	jne    ac1 <big_makeblock+0xac1>
     ab4:	48 89 9c 24 58 01 00 	mov    QWORD PTR [rsp+0x158],rbx
     abb:	00 
     abc:	e9 94 00 00 00       	jmp    b55 <big_makeblock+0xb55>
     ac1:	48 8b b4 24 18 08 00 	mov    rsi,QWORD PTR [rsp+0x818]
     ac8:	00 
     ac9:	4c 8b ae 98 00 00 00 	mov    r13,QWORD PTR [rsi+0x98]
     ad0:	4d 89 f7             	mov    r15,r14
     ad3:	49 83 c7 ff          	add    r15,0xffffffffffffffff
     ad7:	4c 89 f2             	mov    rdx,r14
     ada:	48 c1 e2 03          	shl    rdx,0x3
     ade:	4d 89 ec             	mov    r12,r13
     ae1:	49 01 d4             	add    r12,rdx
     ae4:	4c 89 ef             	mov    rdi,r13
     ae7:	48 83 c7 e8          	add    rdi,0xffffffffffffffe8
     aeb:	4c 89 ee             	mov    rsi,r13
     aee:	48 b8 00 00 00 00 00 	movabs rax,0x0
     af5:	00 00 00 
			af0: R_X86_64_64	memmove
     af8:	48 89 5c 24 30       	mov    QWORD PTR [rsp+0x30],rbx
     afd:	ff d0                	call   rax
     aff:	48 8b 5c 24 30       	mov    rbx,QWORD PTR [rsp+0x30]
     b04:	48 be 00 00 00 00 00 	movabs rsi,0x0
     b0b:	00 00 00 
			b06: R_X86_64_64	callback_return_addr
     b0e:	bf 01 00 00 00       	mov    edi,0x1
     b13:	4b 89 7c f5 f8       	mov    QWORD PTR [r13+r14*8-0x8],rdi
     b18:	bf 01 00 00 00       	mov    edi,0x1
     b1d:	4b 89 7c f5 f0       	mov    QWORD PTR [r13+r14*8-0x10],rdi
     b22:	4b 89 74 f5 e8       	mov    QWORD PTR [r13+r14*8-0x18],rsi
     b27:	48 8b b4 24 18 08 00 	mov    rsi,QWORD PTR [rsp+0x818]
     b2e:	00 
     b2f:	4c 89 a6 98 00 00 00 	mov    QWORD PTR [rsi+0x98],r12
     b36:	48 89 df             	mov    rdi,rbx
     b39:	4c 89 fe             	mov    rsi,r15
     b3c:	48 b8 00 00 00 00 00 	movabs rax,0x0
     b43:	00 00 00 
			b3e: R_X86_64_64	apply_n
     b46:	48 89 7c 24 30       	mov    QWORD PTR [rsp+0x30],rdi
     b4b:	ff d0                	call   rax
     b4d:	48 89 84 24 58 01 00 	mov    QWORD PTR [rsp+0x158],rax
     b54:	00 
     b55:	48 8b b4 24 10 08 00 	mov    rsi,QWORD PTR [rsp+0x810]
     b5c:	00 
     b5d:	48 8b 7e 08          	mov    rdi,QWORD PTR [rsi+0x8]
     b61:	48 8b b4 24 00 08 00 	mov    rsi,QWORD PTR [rsp+0x800]
     b68:	00 
     b69:	48 b8 00 00 00 00 00 	movabs rax,0x0
     b70:	00 00 00 
			b6b: R_X86_64_64	apply1
     b73:	48 89 74 24 30       	mov    QWORD PTR [rsp+0x30],rsi
     b78:	48 89 7c 24 38       	mov    QWORD PTR [rsp+0x38],rdi
     b7d:	ff d0                	call   rax
     b7f:	48 89 c3             	mov    rbx,rax
     b82:	49 89 d6             	mov    r14,rdx
     b85:	4d 85 f6             	test   r14,r14
     b88:	0f 85 0a 00 00 00    	jne    b98 <big_makeblock+0xb98>
     b8e:	48 89 5c 24 30       	mov    QWORD PTR [rsp+0x30],rbx
     b93:	e9 91 00 00 00       	jmp    c29 <big_makeblock+0xc29>
     b98:	48 8b b4 24 18 08 00 	mov    rsi,QWORD PTR [rsp+0x818]
     b9f:	00 
     ba0:	4c 8b ae 98 00 00 00 	mov    r13,QWORD PTR [rsi+0x98]
     ba7:	4d 89 f7             	mov    r15,r14
     baa:	49 83 c7 ff          	add    r15,0xffffffffffffffff
     bae:	4c 89 f2             	mov    rdx,r14
     bb1:	48 c1 e2 03          	shl    rdx,0x3
     bb5:	4d 89 ec             	mov    r12,r13
     bb8:	49 01 d4             	add    r12,rdx
     bbb:	4c 89 ef             	mov    rdi,r13
     bbe:	48 83 c7 e8          	add    rdi,0xffffffffffffffe8
     bc2:	4c 89 ee             	mov    rsi,r13
     bc5:	48 b8 00 00 00 00 00 	movabs rax,0x0
     bcc:	00 00 00 
			bc7: R_X86_64_64	memmove
     bcf:	48 89 5c 24 38       	mov    QWORD PTR [rsp+0x38],rbx
     bd4:	ff d0                	call   rax
     bd6:	48 8b 5c 24 38       	mov    rbx,QWORD PTR [rsp+0x38]
     bdb:	48 be 00 00 00 00 00 	movabs rsi,0x0
     be2:	00 00 00 
			bdd: R_X86_64_64	callback_return_addr
     be5:	bf 01 00 00 00       	mov    edi,0x1
     bea:	4b 89 7c f5 f8       	mov    QWORD PTR [r13+r14*8-0x8],rdi
     bef:	bf 01 00 00 00       	mov    edi,0x1
     bf4:	4b 89 7c f5 f0       	mov    QWORD PTR [r13+r14*8-0x10],rdi
     bf9:	4b 89 74 f5 e8       	mov    QWORD PTR [r13+r14*8-0x18],rsi
     bfe:	48 8b b4 24 18 08 00 	mov    rsi,QWORD PTR [rsp+0x818]
     c05:	00 
     c06:	4c 89 a6 98 00 00 00 	mov    QWORD PTR [rsi+0x98],r12
     c0d:	48 89 df             	mov    rdi,rbx
     c10:	4c 89 fe             	mov    rsi,r15
     c13:	48 b8 00 00 00 00 00 	movabs rax,0x0
     c1a:	00 00 00 
			c15: R_X86_64_64	apply_n
     c1d:	48 89 7c 24 30       	mov    QWORD PTR [rsp+0x30],rdi
     c22:	ff d0                	call   rax
     c24:	48 89 44 24 30       	mov    QWORD PTR [rsp+0x30],rax
     c29:	48 8b b4 24 10 08 00 	mov    rsi,QWORD PTR [rsp+0x810]
     c30:	00 
     c31:	48 8b 7e 08          	mov    rdi,QWORD PTR [rsi+0x8]
     c35:	48 8b b4 24 00 08 00 	mov    rsi,QWORD PTR [rsp+0x800]
     c3c:	00 
     c3d:	48 b8 00 00 00 00 00 	movabs rax,0x0
     c44:	00 00 00 
			c3f: R_X86_64_64	apply1
     c47:	48 89 74 24 38       	mov    QWORD PTR [rsp+0x38],rsi
     c4c:	48 89 7c 24 40       	mov    QWORD PTR [rsp+0x40],rdi
     c51:	ff d0                	call   rax
     c53:	49 89 c7             	mov    r15,rax
     c56:	49 89 d6             	mov    r14,rdx
     c59:	4d 85 f6             	test   r14,r14
     c5c:	0f 85 0d 00 00 00    	jne    c6f <big_makeblock+0xc6f>
     c62:	4c 89 bc 24 68 01 00 	mov    QWORD PTR [rsp+0x168],r15
     c69:	00 
     c6a:	e9 94 00 00 00       	jmp    d03 <big_makeblock+0xd03>
     c6f:	48 8b b4 24 18 08 00 	mov    rsi,QWORD PTR [rsp+0x818]
     c76:	00 
     c77:	4c 8b ae 98 00 00 00 	mov    r13,QWORD PTR [rsi+0x98]
     c7e:	4c 89 f3             	mov    rbx,r14
     c81:	48 83 c3 ff          	add    rbx,0xffffffffffffffff
     c85:	4c 89 f2             	mov    rdx,r14
     c88:	48 c1 e2 03          	shl    rdx,0x3
     c8c:	4d 89 ec             	mov    r12,r13
     c8f:	49 01 d4             	add    r12,rdx
     c92:	4c 89 ef             	mov    rdi,r13
     c95:	48 83 c7 e8          	add    rdi,0xffffffffffffffe8
     c99:	4c 89 ee             	mov    rsi,r13
     c9c:	48 b8 00 00 00 00 00 	movabs rax,0x0
     ca3:	00 00 00 
			c9e: R_X86_64_64	memmove
     ca6:	4c 89 7c 24 38       	mov    QWORD PTR [rsp+0x38],r15
     cab:	ff d0                	call   rax
     cad:	4c 8b 7c 24 38       	mov    r15,QWORD PTR [rsp+0x38]
     cb2:	48 be 00 00 00 00 00 	movabs rsi,0x0
     cb9:	00 00 00 
			cb4: R_X86_64_64	callback_return_addr
     cbc:	bf 01 00 00 00       	mov    edi,0x1
     cc1:	4b 89 7c f5 f8       	mov    QWORD PTR [r13+r14*8-0x8],rdi
     cc6:	bf 01 00 00 00       	mov    edi,0x1
     ccb:	4b 89 7c f5 f0       	mov    QWORD PTR [r13+r14*8-0x10],rdi
     cd0:	4b 89 74 f5 e8       	mov    QWORD PTR [r13+r14*8-0x18],rsi
     cd5:	48 8b b4 24 18 08 00 	mov    rsi,QWORD PTR [rsp+0x818]
     cdc:	00 
     cdd:	4c 89 a6 98 00 00 00 	mov    QWORD PTR [rsi+0x98],r12
     ce4:	4c 89 ff             	mov    rdi,r15
     ce7:	48 89 de             	mov    rsi,rbx
     cea:	48 b8 00 00 00 00 00 	movabs rax,0x0
     cf1:	00 00 00 
			cec: R_X86_64_64	apply_n
     cf4:	48 89 7c 24 38       	mov    QWORD PTR [rsp+0x38],rdi
     cf9:	ff d0                	call   rax
     cfb:	48 89 84 24 68 01 00 	mov    QWORD PTR [rsp+0x168],rax
     d02:	00 
     d03:	48 8b b4 24 10 08 00 	mov    rsi,QWORD PTR [rsp+0x810]
     d0a:	00 
     d0b:	48 8b 7e 08          	mov    rdi,QWORD PTR [rsi+0x8]
     d0f:	48 8b b4 24 00 08 00 	mov    rsi,QWORD PTR [rsp+0x800]
     d16:	00 
     d17:	48 b8 00 00 00 00 00 	movabs rax,0x0
     d1e:	00 00 00 
			d19: R_X86_64_64	apply1
     d21:	48 89 74 24 38       	mov    QWORD PTR [rsp+0x38],rsi
     d26:	48 89 7c 24 40       	mov    QWORD PTR [rsp+0x40],rdi
     d2b:	ff d0                	call   rax
     d2d:	48 89 c3             	mov    rbx,rax
     d30:	49 89 d6             	mov    r14,rdx
     d33:	4d 85 f6             	test   r14,r14
     d36:	0f 85 0a 00 00 00    	jne    d46 <big_makeblock+0xd46>
     d3c:	48 89 5c 24 38       	mov    QWORD PTR [rsp+0x38],rbx
     d41:	e9 91 00 00 00       	jmp    dd7 <big_makeblock+0xdd7>
     d46:	48 8b b4 24 18 08 00 	mov    rsi,QWORD PTR [rsp+0x818]
     d4d:	00 
     d4e:	4c 8b ae 98 00 00 00 	mov    r13,QWORD PTR [rsi+0x98]
     d55:	4d 89 f7             	mov    r15,r14
     d58:	49 83 c7 ff          	add    r15,0xffffffffffffffff
     d5c:	4c 89 f2             	mov    rdx,r14
     d5f:	48 c1 e2 03          	shl    rdx,0x3
     d63:	4d 89 ec             	mov    r12,r13
     d66:	49 01 d4             	add    r12,rdx
     d69:	4c 89 ef             	mov    rdi,r13
     d6c:	48 83 c7 e8          	add    rdi,0xffffffffffffffe8
     d70:	4c 89 ee             	mov    rsi,r13
     d73:	48 b8 00 00 00 00 00 	movabs rax,0x0
     d7a:	00 00 00 
			d75: R_X86_64_64	memmove
     d7d:	48 89 5c 24 40       	mov    QWORD PTR [rsp+0x40],rbx
     d82:	ff d0                	call   rax
     d84:	48 8b 5c 24 40       	mov    rbx,QWORD PTR [rsp+0x40]
     d89:	48 be 00 00 00 00 00 	movabs rsi,0x0
     d90:	00 00 00 
			d8b: R_X86_64_64	callback_return_addr
     d93:	bf 01 00 00 00       	mov    edi,0x1
     d98:	4b 89 7c f5 f8       	mov    QWORD PTR [r13+r14*8-0x8],rdi
     d9d:	bf 01 00 00 00       	mov    edi,0x1
     da2:	4b 89 7c f5 f0       	mov    QWORD PTR [r13+r14*8-0x10],rdi
     da7:	4b 89 74 f5 e8       	mov    QWORD PTR [r13+r14*8-0x18],rsi
     dac:	48 8b b4 24 18 08 00 	mov    rsi,QWORD PTR [rsp+0x818]
     db3:	00 
     db4:	4c 89 a6 98 00 00 00 	mov    QWORD PTR [rsi+0x98],r12
     dbb:	48 89 df             	mov    rdi,rbx
     dbe:	4c 89 fe             	mov    rsi,r15
     dc1:	48 b8 00 00 00 00 00 	movabs rax,0x0
     dc8:	00 00 00 
			dc3: R_X86_64_64	apply_n
     dcb:	48 89 7c 24 38       	mov    QWORD PTR [rsp+0x38],rdi
     dd0:	ff d0                	call   rax
     dd2:	48 89 44 24 38       	mov    QWORD PTR [rsp+0x38],rax
     dd7:	48 8b b4 24 10 08 00 	mov    rsi,QWORD PTR [rsp+0x810]
     dde:	00 
     ddf:	48 8b 7e 08          	mov    rdi,QWORD PTR [rsi+0x8]
     de3:	48 8b b4 24 00 08 00 	mov    rsi,QWORD PTR [rsp+0x800]
     dea:	00 
     deb:	48 b8 00 00 00 00 00 	movabs rax,0x0
     df2:	00 00 00 
			ded: R_X86_64_64	apply1
     df5:	48 89 74 24 40       	mov    QWORD PTR [rsp+0x40],rsi
     dfa:	48 89 7c 24 48       	mov    QWORD PTR [rsp+0x48],rdi
     dff:	ff d0                	call   rax
     e01:	48 89 c3             	mov    rbx,rax
     e04:	49 89 d6             	mov    r14,rdx
     e07:	4d 85 f6             	test   r14,r14
     e0a:	0f 85 0d 00 00 00    	jne    e1d <big_makeblock+0xe1d>
     e10:	48 89 9c 24 78 01 00 	mov    QWORD PTR [rsp+0x178],rbx
     e17:	00 
     e18:	e9 94 00 00 00       	jmp    eb1 <big_makeblock+0xeb1>
     e1d:	48 8b b4 24 18 08 00 	mov    rsi,QWORD PTR [rsp+0x818]
     e24:	00 
     e25:	4c 8b ae 98 00 00 00 	mov    r13,QWORD PTR [rsi+0x98]
     e2c:	4d 89 f7             	mov    r15,r14
     e2f:	49 83 c7 ff          	add    r15,0xffffffffffffffff
     e33:	4c 89 f2             	mov    rdx,r14
     e36:	48 c1 e2 03          	shl    rdx,0x3
     e3a:	4d 89 ec             	mov    r12,r13
     e3d:	49 01 d4             	add    r12,rdx
     e40:	4c 89 ef             	mov    rdi,r13
     e43:	48 83 c7 e8          	add    rdi,0xffffffffffffffe8
     e47:	4c 89 ee             	mov    rsi,r13
     e4a:	48 b8 00 00 00 00 00 	movabs rax,0x0
     e51:	00 00 00 
			e4c: R_X86_64_64	memmove
     e54:	48 89 5c 24 40       	mov    QWORD PTR [rsp+0x40],rbx
     e59:	ff d0                	call   rax
     e5b:	48 8b 5c 24 40       	mov    rbx,QWORD PTR [rsp+0x40]
     e60:	48 be 00 00 00 00 00 	movabs rsi,0x0
     e67:	00 00 00 
			e62: R_X86_64_64	callback_return_addr
     e6a:	bf 01 00 00 00       	mov    edi,0x1
     e6f:	4b 89 7c f5 f8       	mov    QWORD PTR [r13+r14*8-0x8],rdi
     e74:	bf 01 00 00 00       	mov    edi,0x1
     e79:	4b 89 7c f5 f0       	mov    QWORD PTR [r13+r14*8-0x10],rdi
     e7e:	4b 89 74 f5 e8       	mov    QWORD PTR [r13+r14*8-0x18],rsi
     e83:	48 8b b4 24 18 08 00 	mov    rsi,QWORD PTR [rsp+0x818]
     e8a:	00 
     e8b:	4c 89 a6 98 00 00 00 	mov    QWORD PTR [rsi+0x98],r12
     e92:	48 89 df             	mov    rdi,rbx
     e95:	4c 89 fe             	mov    rsi,r15
     e98:	48 b8 00 00 00 00 00 	movabs rax,0x0
     e9f:	00 00 00 
			e9a: R_X86_64_64	apply_n
     ea2:	48 89 7c 24 40       	mov    QWORD PTR [rsp+0x40],rdi
     ea7:	ff d0                	call   rax
     ea9:	48 89 84 24 78 01 00 	mov    QWORD PTR [rsp+0x178],rax
     eb0:	00 
     eb1:	48 8b b4 24 10 08 00 	mov    rsi,QWORD PTR [rsp+0x810]
     eb8:	00 
     eb9:	48 8b 7e 08          	mov    rdi,QWORD PTR [rsi+0x8]
     ebd:	48 8b b4 24 00 08 00 	mov    rsi,QWORD PTR [rsp+0x800]
     ec4:	00 
     ec5:	48 b8 00 00 00 00 00 	movabs rax,0x0
     ecc:	00 00 00 
			ec7: R_X86_64_64	apply1
     ecf:	48 89 74 24 40       	mov    QWORD PTR [rsp+0x40],rsi
     ed4:	48 89 7c 24 48       	mov    QWORD PTR [rsp+0x48],rdi
     ed9:	ff d0                	call   rax
     edb:	49 89 c7             	mov    r15,rax
     ede:	49 89 d6             	mov    r14,rdx
     ee1:	4d 85 f6             	test   r14,r14
     ee4:	0f 85 0a 00 00 00    	jne    ef4 <big_makeblock+0xef4>
     eea:	4c 89 7c 24 40       	mov    QWORD PTR [rsp+0x40],r15
     eef:	e9 91 00 00 00       	jmp    f85 <big_makeblock+0xf85>
     ef4:	48 8b b4 24 18 08 00 	mov    rsi,QWORD PTR [rsp+0x818]
     efb:	00 
     efc:	4c 8b ae 98 00 00 00 	mov    r13,QWORD PTR [rsi+0x98]
     f03:	4c 89 f3             	mov    rbx,r14
     f06:	48 83 c3 ff          	add    rbx,0xffffffffffffffff
     f0a:	4c 89 f2             	mov    rdx,r14
     f0d:	48 c1 e2 03          	shl    rdx,0x3
     f11:	4d 89 ec             	mov    r12,r13
     f14:	49 01 d4             	add    r12,rdx
     f17:	4c 89 ef             	mov    rdi,r13
     f1a:	48 83 c7 e8          	add    rdi,0xffffffffffffffe8
     f1e:	4c 89 ee             	mov    rsi,r13
     f21:	48 b8 00 00 00 00 00 	movabs rax,0x0
     f28:	00 00 00 
			f23: R_X86_64_64	memmove
     f2b:	4c 89 7c 24 48       	mov    QWORD PTR [rsp+0x48],r15
     f30:	ff d0                	call   rax
     f32:	4c 8b 7c 24 48       	mov    r15,QWORD PTR [rsp+0x48]
     f37:	48 be 00 00 00 00 00 	movabs rsi,0x0
     f3e:	00 00 00 
			f39: R_X86_64_64	callback_return_addr
     f41:	bf 01 00 00 00       	mov    edi,0x1
     f46:	4b 89 7c f5 f8       	mov    QWORD PTR [r13+r14*8-0x8],rdi
     f4b:	bf 01 00 00 00       	mov    edi,0x1
     f50:	4b 89 7c f5 f0       	mov    QWORD PTR [r13+r14*8-0x10],rdi
     f55:	4b 89 74 f5 e8       	mov    QWORD PTR [r13+r14*8-0x18],rsi
     f5a:	48 8b b4 24 18 08 00 	mov    rsi,QWORD PTR [rsp+0x818]
     f61:	00 
     f62:	4c 89 a6 98 00 00 00 	mov    QWORD PTR [rsi+0x98],r12
     f69:	4c 89 ff             	mov    rdi,r15
     f6c:	48 89 de             	mov    rsi,rbx
     f6f:	48 b8 00 00 00 00 00 	movabs rax,0x0
     f76:	00 00 00 
			f71: R_X86_64_64	apply_n
     f79:	48 89 7c 24 40       	mov    QWORD PTR [rsp+0x40],rdi
     f7e:	ff d0                	call   rax
     f80:	48 89 44 24 40       	mov    QWORD PTR [rsp+0x40],rax
     f85:	48 8b b4 24 10 08 00 	mov    rsi,QWORD PTR [rsp+0x810]
     f8c:	00 
     f8d:	48 8b 7e 08          	mov    rdi,QWORD PTR [rsi+0x8]
     f91:	48 8b b4 24 00 08 00 	mov    rsi,QWORD PTR [rsp+0x800]
     f98:	00 
     f99:	48 b8 00 00 00 00 00 	movabs rax,0x0
     fa0:	00 00 00 
			f9b: R_X86_64_64	apply1
     fa3:	48 89 74 24 48       	mov    QWORD PTR [rsp+0x48],rsi
     fa8:	48 89 7c 24 50       	mov    QWORD PTR [rsp+0x50],rdi
     fad:	ff d0                	call   rax
     faf:	48 89 c3             	mov    rbx,rax
     fb2:	49 89 d6             	mov    r14,rdx
     fb5:	4d 85 f6             	test   r14,r14
     fb8:	0f 85 0d 00 00 00    	jne    fcb <big_makeblock+0xfcb>
     fbe:	48 89 9c 24 88 01 00 	mov    QWORD PTR [rsp+0x188],rbx
     fc5:	00 
     fc6:	e9 94 00 00 00       	jmp    105f <big_makeblock+0x105f>
     fcb:	48 8b b4 24 18 08 00 	mov    rsi,QWORD PTR [rsp+0x818]
     fd2:	00 
     fd3:	4c 8b ae 98 00 00 00 	mov    r13,QWORD PTR [rsi+0x98]
     fda:	4d 89 f7             	mov    r15,r14
     fdd:	49 83 c7 ff          	add    r15,0xffffffffffffffff
     fe1:	4c 89 f2             	mov    rdx,r14
     fe4:	48 c1 e2 03          	shl    rdx,0x3
     fe8:	4d 89 ec             	mov    r12,r13
     feb:	49 01 d4             	add    r12,rdx
     fee:	4c 89 ef             	mov    rdi,r13
     ff1:	48 83 c7 e8          	add    rdi,0xffffffffffffffe8
     ff5:	4c 89 ee             	mov    rsi,r13
     ff8:	48 b8 00 00 00 00 00 	movabs rax,0x0
     fff:	00 00 00 
			ffa: R_X86_64_64	memmove
    1002:	48 89 5c 24 48       	mov    QWORD PTR [rsp+0x48],rbx
    1007:	ff d0                	call   rax
    1009:	48 8b 5c 24 48       	mov    rbx,QWORD PTR [rsp+0x48]
    100e:	48 be 00 00 00 00 00 	movabs rsi,0x0
    1015:	00 00 00 
			1010: R_X86_64_64	callback_return_addr
    1018:	bf 01 00 00 00       	mov    edi,0x1
    101d:	4b 89 7c f5 f8       	mov    QWORD PTR [r13+r14*8-0x8],rdi
    1022:	bf 01 00 00 00       	mov    edi,0x1
    1027:	4b 89 7c f5 f0       	mov    QWORD PTR [r13+r14*8-0x10],rdi
    102c:	4b 89 74 f5 e8       	mov    QWORD PTR [r13+r14*8-0x18],rsi
    1031:	48 8b b4 24 18 08 00 	mov    rsi,QWORD PTR [rsp+0x818]
    1038:	00 
    1039:	4c 89 a6 98 00 00 00 	mov    QWORD PTR [rsi+0x98],r12
    1040:	48 89 df             	mov    rdi,rbx
    1043:	4c 89 fe             	mov    rsi,r15
    1046:	48 b8 00 00 00 00 00 	movabs rax,0x0
    104d:	00 00 00 
			1048: R_X86_64_64	apply_n
    1050:	48 89 7c 24 48       	mov    QWORD PTR [rsp+0x48],rdi
    1055:	ff d0                	call   rax
    1057:	48 89 84 24 88 01 00 	mov    QWORD PTR [rsp+0x188],rax
    105e:	00 
    105f:	48 8b b4 24 10 08 00 	mov    rsi,QWORD PTR [rsp+0x810]
    1066:	00 
    1067:	48 8b 7e 08          	mov    rdi,QWORD PTR [rsi+0x8]
    106b:	48 8b b4 24 00 08 00 	mov    rsi,QWORD PTR [rsp+0x800]
    1072:	00 
    1073:	48 b8 00 00 00 00 00 	movabs rax,0x0
    107a:	00 00 00 
			1075: R_X86_64_64	apply1
    107d:	48 89 74 24 48       	mov    QWORD PTR [rsp+0x48],rsi
    1082:	48 89 7c 24 50       	mov    QWORD PTR [rsp+0x50],rdi
    1087:	ff d0                	call   rax
    1089:	48 89 c3             	mov    rbx,rax
    108c:	49 89 d6             	mov    r14,rdx
    108f:	4d 85 f6             	test   r14,r14
    1092:	0f 85 0a 00 00 00    	jne    10a2 <big_makeblock+0x10a2>
    1098:	48 89 5c 24 48       	mov    QWORD PTR [rsp+0x48],rbx
    109d:	e9 91 00 00 00       	jmp    1133 <big_makeblock+0x1133>
    10a2:	48 8b b4 24 18 08 00 	mov    rsi,QWORD PTR [rsp+0x818]
    10a9:	00 
    10aa:	4c 8b ae 98 00 00 00 	mov    r13,QWORD PTR [rsi+0x98]
    10b1:	4d 89 f7             	mov    r15,r14
    10b4:	49 83 c7 ff          	add    r15,0xffffffffffffffff
    10b8:	4c 89 f2             	mov    rdx,r14
    10bb:	48 c1 e2 03          	shl    rdx,0x3
    10bf:	4d 89 ec             	mov    r12,r13
    10c2:	49 01 d4             	add    r12,rdx
    10c5:	4c 89 ef             	mov    rdi,r13
    10c8:	48 83 c7 e8          	add    rdi,0xffffffffffffffe8
    10cc:	4c 89 ee             	mov    rsi,r13
    10cf:	48 b8 00 00 00 00 00 	movabs rax,0x0
    10d6:	00 00 00 
			10d1: R_X86_64_64	memmove
    10d9:	48 89 5c 24 50       	mov    QWORD PTR [rsp+0x50],rbx
    10de:	ff d0                	call   rax
    10e0:	48 8b 5c 24 50       	mov    rbx,QWORD PTR [rsp+0x50]
    10e5:	48 be 00 00 00 00 00 	movabs rsi,0x0
    10ec:	00 00 00 
			10e7: R_X86_64_64	callback_return_addr
    10ef:	bf 01 00 00 00       	mov    edi,0x1
    10f4:	4b 89 7c f5 f8       	mov    QWORD PTR [r13+r14*8-0x8],rdi
    10f9:	bf 01 00 00 00       	mov    edi,0x1
    10fe:	4b 89 7c f5 f0       	mov    QWORD PTR [r13+r14*8-0x10],rdi
    1103:	4b 89 74 f5 e8       	mov    QWORD PTR [r13+r14*8-0x18],rsi
    1108:	48 8b b4 24 18 08 00 	mov    rsi,QWORD PTR [rsp+0x818]
    110f:	00 
    1110:	4c 89 a6 98 00 00 00 	mov    QWORD PTR [rsi+0x98],r12
    1117:	48 89 df             	mov    rdi,rbx
    111a:	4c 89 fe             	mov    rsi,r15
    111d:	48 b8 00 00 00 00 00 	movabs rax,0x0
    1124:	00 00 00 
			111f: R_X86_64_64	apply_n
    1127:	48 89 7c 24 48       	mov    QWORD PTR [rsp+0x48],rdi
    112c:	ff d0                	call   rax
    112e:	48 89 44 24 48       	mov    QWORD PTR [rsp+0x48],rax
    1133:	48 8b b4 24 10 08 00 	mov    rsi,QWORD PTR [rsp+0x810]
    113a:	00 
    113b:	48 8b 7e 08          	mov    rdi,QWORD PTR [rsi+0x8]
    113f:	48 8b b4 24 00 08 00 	mov    rsi,QWORD PTR [rsp+0x800]
    1146:	00 
    1147:	48 b8 00 00 00 00 00 	movabs rax,0x0
    114e:	00 00 00 
			1149: R_X86_64_64	apply1
    1151:	48 89 74 24 50       	mov    QWORD PTR [rsp+0x50],rsi
    1156:	48 89 7c 24 58       	mov    QWORD PTR [rsp+0x58],rdi
    115b:	ff d0                	call   rax
    115d:	49 89 c7             	mov    r15,rax
    1160:	49 89 d6             	mov    r14,rdx
    1163:	4d 85 f6             	test   r14,r14
    1166:	0f 85 0d 00 00 00    	jne    1179 <big_makeblock+0x1179>
    116c:	4c 89 bc 24 98 01 00 	mov    QWORD PTR [rsp+0x198],r15
    1173:	00 
    1174:	e9 94 00 00 00       	jmp    120d <big_makeblock+0x120d>
    1179:	48 8b b4 24 18 08 00 	mov    rsi,QWORD PTR [rsp+0x818]
    1180:	00 
    1181:	4c 8b ae 98 00 00 00 	mov    r13,QWORD PTR [rsi+0x98]
    1188:	4c 89 f3             	mov    rbx,r14
    118b:	48 83 c3 ff          	add    rbx,0xffffffffffffffff
    118f:	4c 89 f2             	mov    rdx,r14
    1192:	48 c1 e2 03          	shl    rdx,0x3
    1196:	4d 89 ec             	mov    r12,r13
    1199:	49 01 d4             	add    r12,rdx
    119c:	4c 89 ef             	mov    rdi,r13
    119f:	48 83 c7 e8          	add    rdi,0xffffffffffffffe8
    11a3:	4c 89 ee             	mov    rsi,r13
    11a6:	48 b8 00 00 00 00 00 	movabs rax,0x0
    11ad:	00 00 00 
			11a8: R_X86_64_64	memmove
    11b0:	4c 89 7c 24 50       	mov    QWORD PTR [rsp+0x50],r15
    11b5:	ff d0                	call   rax
    11b7:	4c 8b 7c 24 50       	mov    r15,QWORD PTR [rsp+0x50]
    11bc:	48 be 00 00 00 00 00 	movabs rsi,0x0
    11c3:	00 00 00 
			11be: R_X86_64_64	callback_return_addr
    11c6:	bf 01 00 00 00       	mov    edi,0x1
    11cb:	4b 89 7c f5 f8       	mov    QWORD PTR [r13+r14*8-0x8],rdi
    11d0:	bf 01 00 00 00       	mov    edi,0x1
    11d5:	4b 89 7c f5 f0       	mov    QWORD PTR [r13+r14*8-0x10],rdi
    11da:	4b 89 74 f5 e8       	mov    QWORD PTR [r13+r14*8-0x18],rsi
    11df:	48 8b b4 24 18 08 00 	mov    rsi,QWORD PTR [rsp+0x818]
    11e6:	00 
    11e7:	4c 89 a6 98 00 00 00 	mov    QWORD PTR [rsi+0x98],r12
    11ee:	4c 89 ff             	mov    rdi,r15
    11f1:	48 89 de             	mov    rsi,rbx
    11f4:	48 b8 00 00 00 00 00 	movabs rax,0x0
    11fb:	00 00 00 
			11f6: R_X86_64_64	apply_n
    11fe:	48 89 7c 24 50       	mov    QWORD PTR [rsp+0x50],rdi
    1203:	ff d0                	call   rax
    1205:	48 89 84 24 98 01 00 	mov    QWORD PTR [rsp+0x198],rax
    120c:	00 
    120d:	48 8b b4 24 10 08 00 	mov    rsi,QWORD PTR [rsp+0x810]
    1214:	00 
    1215:	48 8b 7e 08          	mov    rdi,QWORD PTR [rsi+0x8]
    1219:	48 8b b4 24 00 08 00 	mov    rsi,QWORD PTR [rsp+0x800]
    1220:	00 
    1221:	48 b8 00 00 00 00 00 	movabs rax,0x0
    1228:	00 00 00 
			1223: R_X86_64_64	apply1
    122b:	48 89 74 24 50       	mov    QWORD PTR [rsp+0x50],rsi
    1230:	48 89 7c 24 58       	mov    QWORD PTR [rsp+0x58],rdi
    1235:	ff d0                	call   rax
    1237:	48 89 c3             	mov    rbx,rax
    123a:	49 89 d6             	mov    r14,rdx
    123d:	4d 85 f6             	test   r14,r14
    1240:	0f 85 0a 00 00 00    	jne    1250 <big_makeblock+0x1250>
    1246:	48 89 5c 24 50       	mov    QWORD PTR [rsp+0x50],rbx
    124b:	e9 91 00 00 00       	jmp    12e1 <big_makeblock+0x12e1>
    1250:	48 8b b4 24 18 08 00 	mov    rsi,QWORD PTR [rsp+0x818]
    1257:	00 
    1258:	4c 8b ae 98 00 00 00 	mov    r13,QWORD PTR [rsi+0x98]
    125f:	4d 89 f7             	mov    r15,r14
    1262:	49 83 c7 ff          	add    r15,0xffffffffffffffff
    1266:	4c 89 f2             	mov    rdx,r14
    1269:	48 c1 e2 03          	shl    rdx,0x3
    126d:	4d 89 ec             	mov    r12,r13
    1270:	49 01 d4             	add    r12,rdx
    1273:	4c 89 ef             	mov    rdi,r13
    1276:	48 83 c7 e8          	add    rdi,0xffffffffffffffe8
    127a:	4c 89 ee             	mov    rsi,r13
    127d:	48 b8 00 00 00 00 00 	movabs rax,0x0
    1284:	00 00 00 
			127f: R_X86_64_64	memmove
    1287:	48 89 5c 24 58       	mov    QWORD PTR [rsp+0x58],rbx
    128c:	ff d0                	call   rax
    128e:	48 8b 5c 24 58       	mov    rbx,QWORD PTR [rsp+0x58]
    1293:	48 be 00 00 00 00 00 	movabs rsi,0x0
    129a:	00 00 00 
			1295: R_X86_64_64	callback_return_addr
    129d:	bf 01 00 00 00       	mov    edi,0x1
    12a2:	4b 89 7c f5 f8       	mov    QWORD PTR [r13+r14*8-0x8],rdi
    12a7:	bf 01 00 00 00       	mov    edi,0x1
    12ac:	4b 89 7c f5 f0       	mov    QWORD PTR [r13+r14*8-0x10],rdi
    12b1:	4b 89 74 f5 e8       	mov    QWORD PTR [r13+r14*8-0x18],rsi
    12b6:	48 8b b4 24 18 08 00 	mov    rsi,QWORD PTR [rsp+0x818]
    12bd:	00 
    12be:	4c 89 a6 98 00 00 00 	mov    QWORD PTR [rsi+0x98],r12
    12c5:	48 89 df             	mov    rdi,rbx
    12c8:	4c 89 fe             	mov    rsi,r15
    12cb:	48 b8 00 00 00 00 00 	movabs rax,0x0
    12d2:	00 00 00 
			12cd: R_X86_64_64	apply_n
    12d5:	48 89 7c 24 50       	mov    QWORD PTR [rsp+0x50],rdi
    12da:	ff d0                	call   rax
    12dc:	48 89 44 24 50       	mov    QWORD PTR [rsp+0x50],rax
    12e1:	48 8b b4 24 10 08 00 	mov    rsi,QWORD PTR [rsp+0x810]
    12e8:	00 
    12e9:	48 8b 7e 08          	mov    rdi,QWORD PTR [rsi+0x8]
    12ed:	48 8b b4 24 00 08 00 	mov    rsi,QWORD PTR [rsp+0x800]
    12f4:	00 
    12f5:	48 b8 00 00 00 00 00 	movabs rax,0x0
    12fc:	00 00 00 
			12f7: R_X86_64_64	apply1
    12ff:	48 89 74 24 58       	mov    QWORD PTR [rsp+0x58],rsi
    1304:	48 89 7c 24 60       	mov    QWORD PTR [rsp+0x60],rdi
    1309:	ff d0                	call   rax
    130b:	48 89 c3             	mov    rbx,rax
    130e:	49 89 d6             	mov    r14,rdx
    1311:	4d 85 f6             	test   r14,r14
    1314:	0f 85 0d 00 00 00    	jne    1327 <big_makeblock+0x1327>
    131a:	48 89 9c 24 a8 01 00 	mov    QWORD PTR [rsp+0x1a8],rbx
    1321:	00 
    1322:	e9 94 00 00 00       	jmp    13bb <big_makeblock+0x13bb>
    1327:	48 8b b4 24 18 08 00 	mov    rsi,QWORD PTR [rsp+0x818]
    132e:	00 
    132f:	4c 8b ae 98 00 00 00 	mov    r13,QWORD PTR [rsi+0x98]
    1336:	4d 89 f7             	mov    r15,r14
    1339:	49 83 c7 ff          	add    r15,0xffffffffffffffff
    133d:	4c 89 f2             	mov    rdx,r14
    1340:	48 c1 e2 03          	shl    rdx,0x3
    1344:	4d 89 ec             	mov    r12,r13
    1347:	49 01 d4             	add    r12,rdx
    134a:	4c 89 ef             	mov    rdi,r13
    134d:	48 83 c7 e8          	add    rdi,0xffffffffffffffe8
    1351:	4c 89 ee             	mov    rsi,r13
    1354:	48 b8 00 00 00 00 00 	movabs rax,0x0
    135b:	00 00 00 
			1356: R_X86_64_64	memmove
    135e:	48 89 5c 24 58       	mov    QWORD PTR [rsp+0x58],rbx
    1363:	ff d0                	call   rax
    1365:	48 8b 5c 24 58       	mov    rbx,QWORD PTR [rsp+0x58]
    136a:	48 be 00 00 00 00 00 	movabs rsi,0x0
    1371:	00 00 00 
			136c: R_X86_64_64	callback_return_addr
    1374:	bf 01 00 00 00       	mov    edi,0x1
    1379:	4b 89 7c f5 f8       	mov    QWORD PTR [r13+r14*8-0x8],rdi
    137e:	bf 01 00 00 00       	mov    edi,0x1
    1383:	4b 89 7c f5 f0       	mov    QWORD PTR [r13+r14*8-0x10],rdi
    1388:	4b 89 74 f5 e8       	mov    QWORD PTR [r13+r14*8-0x18],rsi
    138d:	48 8b b4 24 18 08 00 	mov    rsi,QWORD PTR [rsp+0x818]
    1394:	00 
    1395:	4c 89 a6 98 00 00 00 	mov    QWORD PTR [rsi+0x98],r12
    139c:	48 89 df             	mov    rdi,rbx
    139f:	4c 89 fe             	mov    rsi,r15
    13a2:	48 b8 00 00 00 00 00 	movabs rax,0x0
    13a9:	00 00 00 
			13a4: R_X86_64_64	apply_n
    13ac:	48 89 7c 24 58       	mov    QWORD PTR [rsp+0x58],rdi
    13b1:	ff d0                	call   rax
    13b3:	48 89 84 24 a8 01 00 	mov    QWORD PTR [rsp+0x1a8],rax
    13ba:	00 
    13bb:	48 8b b4 24 10 08 00 	mov    rsi,QWORD PTR [rsp+0x810]
    13c2:	00 
    13c3:	48 8b 7e 08          	mov    rdi,QWORD PTR [rsi+0x8]
    13c7:	48 8b b4 24 00 08 00 	mov    rsi,QWORD PTR [rsp+0x800]
    13ce:	00 
    13cf:	48 b8 00 00 00 00 00 	movabs rax,0x0
    13d6:	00 00 00 
			13d1: R_X86_64_64	apply1
    13d9:	48 89 74 24 58       	mov    QWORD PTR [rsp+0x58],rsi
    13de:	48 89 7c 24 60       	mov    QWORD PTR [rsp+0x60],rdi
    13e3:	ff d0                	call   rax
    13e5:	49 89 c7             	mov    r15,rax
    13e8:	49 89 d6             	mov    r14,rdx
    13eb:	4d 85 f6             	test   r14,r14
    13ee:	0f 85 0a 00 00 00    	jne    13fe <big_makeblock+0x13fe>
    13f4:	4c 89 7c 24 58       	mov    QWORD PTR [rsp+0x58],r15
    13f9:	e9 91 00 00 00       	jmp    148f <big_makeblock+0x148f>
    13fe:	48 8b b4 24 18 08 00 	mov    rsi,QWORD PTR [rsp+0x818]
    1405:	00 
    1406:	4c 8b ae 98 00 00 00 	mov    r13,QWORD PTR [rsi+0x98]
    140d:	4c 89 f3             	mov    rbx,r14
    1410:	48 83 c3 ff          	add    rbx,0xffffffffffffffff
    1414:	4c 89 f2             	mov    rdx,r14
    1417:	48 c1 e2 03          	shl    rdx,0x3
    141b:	4d 89 ec             	mov    r12,r13
    141e:	49 01 d4             	add    r12,rdx
    1421:	4c 89 ef             	mov    rdi,r13
    1424:	48 83 c7 e8          	add    rdi,0xffffffffffffffe8
    1428:	4c 89 ee             	mov    rsi,r13
    142b:	48 b8 00 00 00 00 00 	movabs rax,0x0
    1432:	00 00 00 
			142d: R_X86_64_64	memmove
    1435:	4c 89 7c 24 60       	mov    QWORD PTR [rsp+0x60],r15
    143a:	ff d0                	call   rax
    143c:	4c 8b 7c 24 60       	mov    r15,QWORD PTR [rsp+0x60]
    1441:	48 be 00 00 00 00 00 	movabs rsi,0x0
    1448:	00 00 00 
			1443: R_X86_64_64	callback_return_addr
    144b:	bf 01 00 00 00       	mov    edi,0x1
    1450:	4b 89 7c f5 f8       	mov    QWORD PTR [r13+r14*8-0x8],rdi
    1455:	bf 01 00 00 00       	mov    edi,0x1
    145a:	4b 89 7c f5 f0       	mov    QWORD PTR [r13+r14*8-0x10],rdi
    145f:	4b 89 74 f5 e8       	mov    QWORD PTR [r13+r14*8-0x18],rsi
    1464:	48 8b b4 24 18 08 00 	mov    rsi,QWORD PTR [rsp+0x818]
    146b:	00 
    146c:	4c 89 a6 98 00 00 00 	mov    QWORD PTR [rsi+0x98],r12
    1473:	4c 89 ff             	mov    rdi,r15
    1476:	48 89 de             	mov    rsi,rbx
    1479:	48 b8 00 00 00 00 00 	movabs rax,0x0
    1480:	00 00 00 
			147b: R_X86_64_64	apply_n
    1483:	48 89 7c 24 58       	mov    QWORD PTR [rsp+0x58],rdi
    1488:	ff d0                	call   rax
    148a:	48 89 44 24 58       	mov    QWORD PTR [rsp+0x58],rax
    148f:	48 8b b4 24 10 08 00 	mov    rsi,QWORD PTR [rsp+0x810]
    1496:	00 
    1497:	48 8b 7e 08          	mov    rdi,QWORD PTR [rsi+0x8]
    149b:	48 8b b4 24 00 08 00 	mov    rsi,QWORD PTR [rsp+0x800]
    14a2:	00 
    14a3:	48 b8 00 00 00 00 00 	movabs rax,0x0
    14aa:	00 00 00 
			14a5: R_X86_64_64	apply1
    14ad:	48 89 74 24 60       	mov    QWORD PTR [rsp+0x60],rsi
    14b2:	48 89 7c 24 68       	mov    QWORD PTR [rsp+0x68],rdi
    14b7:	ff d0                	call   rax
    14b9:	48 89 c3             	mov    rbx,rax
    14bc:	49 89 d6             	mov    r14,rdx
    14bf:	4d 85 f6             	test   r14,r14
    14c2:	0f 85 0d 00 00 00    	jne    14d5 <big_makeblock+0x14d5>
    14c8:	48 89 9c 24 b8 01 00 	mov    QWORD PTR [rsp+0x1b8],rbx
    14cf:	00 
    14d0:	e9 94 00 00 00       	jmp    1569 <big_makeblock+0x1569>
    14d5:	48 8b b4 24 18 08 00 	mov    rsi,QWORD PTR [rsp+0x818]
    14dc:	00 
    14dd:	4c 8b ae 98 00 00 00 	mov    r13,QWORD PTR [rsi+0x98]
    14e4:	4d 89 f7             	mov    r15,r14
    14e7:	49 83 c7 ff          	add    r15,0xffffffffffffffff
    14eb:	4c 89 f2             	mov    rdx,r14
    14ee:	48 c1 e2 03          	shl    rdx,0x3
    14f2:	4d 89 ec             	mov    r12,r13
    14f5:	49 01 d4             	add    r12,rdx
    14f8:	4c 89 ef             	mov    rdi,r13
    14fb:	48 83 c7 e8          	add    rdi,0xffffffffffffffe8
    14ff:	4c 89 ee             	mov    rsi,r13
    1502:	48 b8 00 00 00 00 00 	movabs rax,0x0
    1509:	00 00 00 
			1504: R_X86_64_64	memmove
    150c:	48 89 5c 24 60       	mov    QWORD PTR [rsp+0x60],rbx
    1511:	ff d0                	call   rax
    1513:	48 8b 5c 24 60       	mov    rbx,QWORD PTR [rsp+0x60]
    1518:	48 be 00 00 00 00 00 	movabs rsi,0x0
    151f:	00 00 00 
			151a: R_X86_64_64	callback_return_addr
    1522:	bf 01 00 00 00       	mov    edi,0x1
    1527:	4b 89 7c f5 f8       	mov    QWORD PTR [r13+r14*8-0x8],rdi
    152c:	bf 01 00 00 00       	mov    edi,0x1
    1531:	4b 89 7c f5 f0       	mov    QWORD PTR [r13+r14*8-0x10],rdi
    1536:	4b 89 74 f5 e8       	mov    QWORD PTR [r13+r14*8-0x18],rsi
    153b:	48 8b b4 24 18 08 00 	mov    rsi,QWORD PTR [rsp+0x818]
    1542:	00 
    1543:	4c 89 a6 98 00 00 00 	mov    QWORD PTR [rsi+0x98],r12
    154a:	48 89 df             	mov    rdi,rbx
    154d:	4c 89 fe             	mov    rsi,r15
    1550:	48 b8 00 00 00 00 00 	movabs rax,0x0
    1557:	00 00 00 
			1552: R_X86_64_64	apply_n
    155a:	48 89 7c 24 60       	mov    QWORD PTR [rsp+0x60],rdi
    155f:	ff d0                	call   rax
    1561:	48 89 84 24 b8 01 00 	mov    QWORD PTR [rsp+0x1b8],rax
    1568:	00 
    1569:	48 8b b4 24 10 08 00 	mov    rsi,QWORD PTR [rsp+0x810]
    1570:	00 
    1571:	48 8b 7e 08          	mov    rdi,QWORD PTR [rsi+0x8]
    1575:	48 8b b4 24 00 08 00 	mov    rsi,QWORD PTR [rsp+0x800]
    157c:	00 
    157d:	48 b8 00 00 00 00 00 	movabs rax,0x0
    1584:	00 00 00 
			157f: R_X86_64_64	apply1
    1587:	48 89 74 24 60       	mov    QWORD PTR [rsp+0x60],rsi
    158c:	48 89 7c 24 68       	mov    QWORD PTR [rsp+0x68],rdi
    1591:	ff d0                	call   rax
    1593:	48 89 c3             	mov    rbx,rax
    1596:	49 89 d6             	mov    r14,rdx
    1599:	4d 85 f6             	test   r14,r14
    159c:	0f 85 0a 00 00 00    	jne    15ac <big_makeblock+0x15ac>
    15a2:	48 89 5c 24 60       	mov    QWORD PTR [rsp+0x60],rbx
    15a7:	e9 91 00 00 00       	jmp    163d <big_makeblock+0x163d>
    15ac:	48 8b b4 24 18 08 00 	mov    rsi,QWORD PTR [rsp+0x818]
    15b3:	00 
    15b4:	4c 8b ae 98 00 00 00 	mov    r13,QWORD PTR [rsi+0x98]
    15bb:	4d 89 f7             	mov    r15,r14
    15be:	49 83 c7 ff          	add    r15,0xffffffffffffffff
    15c2:	4c 89 f2             	mov    rdx,r14
    15c5:	48 c1 e2 03          	shl    rdx,0x3
    15c9:	4d 89 ec             	mov    r12,r13
    15cc:	49 01 d4             	add    r12,rdx
    15cf:	4c 89 ef             	mov    rdi,r13
    15d2:	48 83 c7 e8          	add    rdi,0xffffffffffffffe8
    15d6:	4c 89 ee             	mov    rsi,r13
    15d9:	48 b8 00 00 00 00 00 	movabs rax,0x0
    15e0:	00 00 00 
			15db: R_X86_64_64	memmove
    15e3:	48 89 5c 24 68       	mov    QWORD PTR [rsp+0x68],rbx
    15e8:	ff d0                	call   rax
    15ea:	48 8b 5c 24 68       	mov    rbx,QWORD PTR [rsp+0x68]
    15ef:	48 be 00 00 00 00 00 	movabs rsi,0x0
    15f6:	00 00 00 
			15f1: R_X86_64_64	callback_return_addr
    15f9:	bf 01 00 00 00       	mov    edi,0x1
    15fe:	4b 89 7c f5 f8       	mov    QWORD PTR [r13+r14*8-0x8],rdi
    1603:	bf 01 00 00 00       	mov    edi,0x1
    1608:	4b 89 7c f5 f0       	mov    QWORD PTR [r13+r14*8-0x10],rdi
    160d:	4b 89 74 f5 e8       	mov    QWORD PTR [r13+r14*8-0x18],rsi
    1612:	48 8b b4 24 18 08 00 	mov    rsi,QWORD PTR [rsp+0x818]
    1619:	00 
    161a:	4c 89 a6 98 00 00 00 	mov    QWORD PTR [rsi+0x98],r12
    1621:	48 89 df             	mov    rdi,rbx
    1624:	4c 89 fe             	mov    rsi,r15
    1627:	48 b8 00 00 00 00 00 	movabs rax,0x0
    162e:	00 00 00 
			1629: R_X86_64_64	apply_n
    1631:	48 89 7c 24 60       	mov    QWORD PTR [rsp+0x60],rdi
    1636:	ff d0                	call   rax
    1638:	48 89 44 24 60       	mov    QWORD PTR [rsp+0x60],rax
    163d:	48 8b b4 24 10 08 00 	mov    rsi,QWORD PTR [rsp+0x810]
    1644:	00 
    1645:	48 8b 7e 08          	mov    rdi,QWORD PTR [rsi+0x8]
    1649:	48 8b b4 24 00 08 00 	mov    rsi,QWORD PTR [rsp+0x800]
    1650:	00 
    1651:	48 b8 00 00 00 00 00 	movabs rax,0x0
    1658:	00 00 00 
			1653: R_X86_64_64	apply1
    165b:	48 89 74 24 68       	mov    QWORD PTR [rsp+0x68],rsi
    1660:	48 89 7c 24 70       	mov    QWORD PTR [rsp+0x70],rdi
    1665:	ff d0                	call   rax
    1667:	49 89 c7             	mov    r15,rax
    166a:	49 89 d6             	mov    r14,rdx
    166d:	4d 85 f6             	test   r14,r14
    1670:	0f 85 0d 00 00 00    	jne    1683 <big_makeblock+0x1683>
    1676:	4c 89 bc 24 c8 01 00 	mov    QWORD PTR [rsp+0x1c8],r15
    167d:	00 
    167e:	e9 94 00 00 00       	jmp    1717 <big_makeblock+0x1717>
    1683:	48 8b b4 24 18 08 00 	mov    rsi,QWORD PTR [rsp+0x818]
    168a:	00 
    168b:	4c 8b ae 98 00 00 00 	mov    r13,QWORD PTR [rsi+0x98]
    1692:	4c 89 f3             	mov    rbx,r14
    1695:	48 83 c3 ff          	add    rbx,0xffffffffffffffff
    1699:	4c 89 f2             	mov    rdx,r14
    169c:	48 c1 e2 03          	shl    rdx,0x3
    16a0:	4d 89 ec             	mov    r12,r13
    16a3:	49 01 d4             	add    r12,rdx
    16a6:	4c 89 ef             	mov    rdi,r13
    16a9:	48 83 c7 e8          	add    rdi,0xffffffffffffffe8
    16ad:	4c 89 ee             	mov    rsi,r13
    16b0:	48 b8 00 00 00 00 00 	movabs rax,0x0
    16b7:	00 00 00 
			16b2: R_X86_64_64	memmove
    16ba:	4c 89 7c 24 68       	mov    QWORD PTR [rsp+0x68],r15
    16bf:	ff d0                	call   rax
    16c1:	4c 8b 7c 24 68       	mov    r15,QWORD PTR [rsp+0x68]
    16c6:	48 be 00 00 00 00 00 	movabs rsi,0x0
    16cd:	00 00 00 
			16c8: R_X86_64_64	callback_return_addr
    16d0:	bf 01 00 00 00       	mov    edi,0x1
    16d5:	4b 89 7c f5 f8       	mov    QWORD PTR [r13+r14*8-0x8],rdi
    16da:	bf 01 00 00 00       	mov    edi,0x1
    16df:	4b 89 7c f5 f0       	mov    QWORD PTR [r13+r14*8-0x10],rdi
    16e4:	4b 89 74 f5 e8       	mov    QWORD PTR [r13+r14*8-0x18],rsi
    16e9:	48 8b b4 24 18 08 00 	mov    rsi,QWORD PTR [rsp+0x818]
    16f0:	00 
    16f1:	4c 89 a6 98 00 00 00 	mov    QWORD PTR [rsi+0x98],r12
    16f8:	4c 89 ff             	mov    rdi,r15
    16fb:	48 89 de             	mov    rsi,rbx
    16fe:	48 b8 00 00 00 00 00 	movabs rax,0x0
    1705:	00 00 00 
			1700: R_X86_64_64	apply_n
    1708:	48 89 7c 24 68       	mov    QWORD PTR [rsp+0x68],rdi
    170d:	ff d0                	call   rax
    170f:	48 89 84 24 c8 01 00 	mov    QWORD PTR [rsp+0x1c8],rax
    1716:	00 
    1717:	48 8b b4 24 10 08 00 	mov    rsi,QWORD PTR [rsp+0x810]
    171e:	00 
    171f:	48 8b 7e 08          	mov    rdi,QWORD PTR [rsi+0x8]
    1723:	48 8b b4 24 00 08 00 	mov    rsi,QWORD PTR [rsp+0x800]
    172a:	00 
    172b:	48 b8 00 00 00 00 00 	movabs rax,0x0
    1732:	00 00 00 
			172d: R_X86_64_64	apply1
    1735:	48 89 74 24 68       	mov    QWORD PTR [rsp+0x68],rsi
    173a:	48 89 7c 24 70       	mov    QWORD PTR [rsp+0x70],rdi
    173f:	ff d0                	call   rax
    1741:	48 89 c3             	mov    rbx,rax
    1744:	49 89 d6             	mov    r14,rdx
    1747:	4d 85 f6             	test   r14,r14
    174a:	0f 85 0a 00 00 00    	jne    175a <big_makeblock+0x175a>
    1750:	48 89 5c 24 68       	mov    QWORD PTR [rsp+0x68],rbx
    1755:	e9 91 00 00 00       	jmp    17eb <big_makeblock+0x17eb>
    175a:	48 8b b4 24 18 08 00 	mov    rsi,QWORD PTR [rsp+0x818]
    1761:	00 
    1762:	4c 8b ae 98 00 00 00 	mov    r13,QWORD PTR [rsi+0x98]
    1769:	4d 89 f7             	mov    r15,r14
    176c:	49 83 c7 ff          	add    r15,0xffffffffffffffff
    1770:	4c 89 f2             	mov    rdx,r14
    1773:	48 c1 e2 03          	shl    rdx,0x3
    1777:	4d 89 ec             	mov    r12,r13
    177a:	49 01 d4             	add    r12,rdx
    177d:	4c 89 ef             	mov    rdi,r13
    1780:	48 83 c7 e8          	add    rdi,0xffffffffffffffe8
    1784:	4c 89 ee             	mov    rsi,r13
    1787:	48 b8 00 00 00 00 00 	movabs rax,0x0
    178e:	00 00 00 
			1789: R_X86_64_64	memmove
    1791:	48 89 5c 24 70       	mov    QWORD PTR [rsp+0x70],rbx
    1796:	ff d0                	call   rax
    1798:	48 8b 5c 24 70       	mov    rbx,QWORD PTR [rsp+0x70]
    179d:	48 be 00 00 00 00 00 	movabs rsi,0x0
    17a4:	00 00 00 
			179f: R_X86_64_64	callback_return_addr
    17a7:	bf 01 00 00 00       	mov    edi,0x1
    17ac:	4b 89 7c f5 f8       	mov    QWORD PTR [r13+r14*8-0x8],rdi
    17b1:	bf 01 00 00 00       	mov    edi,0x1
    17b6:	4b 89 7c f5 f0       	mov    QWORD PTR [r13+r14*8-0x10],rdi
    17bb:	4b 89 74 f5 e8       	mov    QWORD PTR [r13+r14*8-0x18],rsi
    17c0:	48 8b b4 24 18 08 00 	mov    rsi,QWORD PTR [rsp+0x818]
    17c7:	00 
    17c8:	4c 89 a6 98 00 00 00 	mov    QWORD PTR [rsi+0x98],r12
    17cf:	48 89 df             	mov    rdi,rbx
    17d2:	4c 89 fe             	mov    rsi,r15
    17d5:	48 b8 00 00 00 00 00 	movabs rax,0x0
    17dc:	00 00 00 
			17d7: R_X86_64_64	apply_n
    17df:	48 89 7c 24 68       	mov    QWORD PTR [rsp+0x68],rdi
    17e4:	ff d0                	call   rax
    17e6:	48 89 44 24 68       	mov    QWORD PTR [rsp+0x68],rax
    17eb:	48 8b b4 24 10 08 00 	mov    rsi,QWORD PTR [rsp+0x810]
    17f2:	00 
    17f3:	48 8b 7e 08          	mov    rdi,QWORD PTR [rsi+0x8]
    17f7:	48 8b b4 24 00 08 00 	mov    rsi,QWORD PTR [rsp+0x800]
    17fe:	00 
    17ff:	48 b8 00 00 00 00 00 	movabs rax,0x0
    1806:	00 00 00 
			1801: R_X86_64_64	apply1
    1809:	48 89 74 24 70       	mov    QWORD PTR [rsp+0x70],rsi
    180e:	48 89 7c 24 78       	mov    QWORD PTR [rsp+0x78],rdi
    1813:	ff d0                	call   rax
    1815:	48 89 c3             	mov    rbx,rax
    1818:	49 89 d6             	mov    r14,rdx
    181b:	4d 85 f6             	test   r14,r14
    181e:	0f 85 0d 00 00 00    	jne    1831 <big_makeblock+0x1831>
    1824:	48 89 9c 24 d8 01 00 	mov    QWORD PTR [rsp+0x1d8],rbx
    182b:	00 
    182c:	e9 94 00 00 00       	jmp    18c5 <big_makeblock+0x18c5>
    1831:	48 8b b4 24 18 08 00 	mov    rsi,QWORD PTR [rsp+0x818]
    1838:	00 
    1839:	4c 8b ae 98 00 00 00 	mov    r13,QWORD PTR [rsi+0x98]
    1840:	4d 89 f7             	mov    r15,r14
    1843:	49 83 c7 ff          	add    r15,0xffffffffffffffff
    1847:	4c 89 f2             	mov    rdx,r14
    184a:	48 c1 e2 03          	shl    rdx,0x3
    184e:	4d 89 ec             	mov    r12,r13
    1851:	49 01 d4             	add    r12,rdx
    1854:	4c 89 ef             	mov    rdi,r13
    1857:	48 83 c7 e8          	add    rdi,0xffffffffffffffe8
    185b:	4c 89 ee             	mov    rsi,r13
    185e:	48 b8 00 00 00 00 00 	movabs rax,0x0
    1865:	00 00 00 
			1860: R_X86_64_64	memmove
    1868:	48 89 5c 24 70       	mov    QWORD PTR [rsp+0x70],rbx
    186d:	ff d0                	call   rax
    186f:	48 8b 5c 24 70       	mov    rbx,QWORD PTR [rsp+0x70]
    1874:	48 be 00 00 00 00 00 	movabs rsi,0x0
    187b:	00 00 00 
			1876: R_X86_64_64	callback_return_addr
    187e:	bf 01 00 00 00       	mov    edi,0x1
    1883:	4b 89 7c f5 f8       	mov    QWORD PTR [r13+r14*8-0x8],rdi
    1888:	bf 01 00 00 00       	mov    edi,0x1
    188d:	4b 89 7c f5 f0       	mov    QWORD PTR [r13+r14*8-0x10],rdi
    1892:	4b 89 74 f5 e8       	mov    QWORD PTR [r13+r14*8-0x18],rsi
    1897:	48 8b b4 24 18 08 00 	mov    rsi,QWORD PTR [rsp+0x818]
    189e:	00 
    189f:	4c 89 a6 98 00 00 00 	mov    QWORD PTR [rsi+0x98],r12
    18a6:	48 89 df             	mov    rdi,rbx
    18a9:	4c 89 fe             	mov    rsi,r15
    18ac:	48 b8 00 00 00 00 00 	movabs rax,0x0
    18b3:	00 00 00 
			18ae: R_X86_64_64	apply_n
    18b6:	48 89 7c 24 70       	mov    QWORD PTR [rsp+0x70],rdi
    18bb:	ff d0                	call   rax
    18bd:	48 89 84 24 d8 01 00 	mov    QWORD PTR [rsp+0x1d8],rax
    18c4:	00 
    18c5:	48 8b b4 24 10 08 00 	mov    rsi,QWORD PTR [rsp+0x810]
    18cc:	00 
    18cd:	48 8b 7e 08          	mov    rdi,QWORD PTR [rsi+0x8]
    18d1:	48 8b b4 24 00 08 00 	mov    rsi,QWORD PTR [rsp+0x800]
    18d8:	00 
    18d9:	48 b8 00 00 00 00 00 	movabs rax,0x0
    18e0:	00 00 00 
			18db: R_X86_64_64	apply1
    18e3:	48 89 74 24 70       	mov    QWORD PTR [rsp+0x70],rsi
    18e8:	48 89 7c 24 78       	mov    QWORD PTR [rsp+0x78],rdi
    18ed:	ff d0                	call   rax
    18ef:	49 89 c7             	mov    r15,rax
    18f2:	49 89 d6             	mov    r14,rdx
    18f5:	4d 85 f6             	test   r14,r14
    18f8:	0f 85 0a 00 00 00    	jne    1908 <big_makeblock+0x1908>
    18fe:	4c 89 7c 24 70       	mov    QWORD PTR [rsp+0x70],r15
    1903:	e9 91 00 00 00       	jmp    1999 <big_makeblock+0x1999>
    1908:	48 8b b4 24 18 08 00 	mov    rsi,QWORD PTR [rsp+0x818]
    190f:	00 
    1910:	4c 8b ae 98 00 00 00 	mov    r13,QWORD PTR [rsi+0x98]
    1917:	4c 89 f3             	mov    rbx,r14
    191a:	48 83 c3 ff          	add    rbx,0xffffffffffffffff
    191e:	4c 89 f2             	mov    rdx,r14
    1921:	48 c1 e2 03          	shl    rdx,0x3
    1925:	4d 89 ec             	mov    r12,r13
    1928:	49 01 d4             	add    r12,rdx
    192b:	4c 89 ef             	mov    rdi,r13
    192e:	48 83 c7 e8          	add    rdi,0xffffffffffffffe8
    1932:	4c 89 ee             	mov    rsi,r13
    1935:	48 b8 00 00 00 00 00 	movabs rax,0x0
    193c:	00 00 00 
			1937: R_X86_64_64	memmove
    193f:	4c 89 7c 24 78       	mov    QWORD PTR [rsp+0x78],r15
    1944:	ff d0                	call   rax
    1946:	4c 8b 7c 24 78       	mov    r15,QWORD PTR [rsp+0x78]
    194b:	48 be 00 00 00 00 00 	movabs rsi,0x0
    1952:	00 00 00 
			194d: R_X86_64_64	callback_return_addr
    1955:	bf 01 00 00 00       	mov    edi,0x1
    195a:	4b 89 7c f5 f8       	mov    QWORD PTR [r13+r14*8-0x8],rdi
    195f:	bf 01 00 00 00       	mov    edi,0x1
    1964:	4b 89 7c f5 f0       	mov    QWORD PTR [r13+r14*8-0x10],rdi
    1969:	4b 89 74 f5 e8       	mov    QWORD PTR [r13+r14*8-0x18],rsi
    196e:	48 8b b4 24 18 08 00 	mov    rsi,QWORD PTR [rsp+0x818]
    1975:	00 
    1976:	4c 89 a6 98 00 00 00 	mov    QWORD PTR [rsi+0x98],r12
    197d:	4c 89 ff             	mov    rdi,r15
    1980:	48 89 de             	mov    rsi,rbx
    1983:	48 b8 00 00 00 00 00 	movabs rax,0x0
    198a:	00 00 00 
			1985: R_X86_64_64	apply_n
    198d:	48 89 7c 24 70       	mov    QWORD PTR [rsp+0x70],rdi
    1992:	ff d0                	call   rax
    1994:	48 89 44 24 70       	mov    QWORD PTR [rsp+0x70],rax
    1999:	48 8b b4 24 10 08 00 	mov    rsi,QWORD PTR [rsp+0x810]
    19a0:	00 
    19a1:	48 8b 7e 08          	mov    rdi,QWORD PTR [rsi+0x8]
    19a5:	48 8b b4 24 00 08 00 	mov    rsi,QWORD PTR [rsp+0x800]
    19ac:	00 
    19ad:	48 b8 00 00 00 00 00 	movabs rax,0x0
    19b4:	00 00 00 
			19af: R_X86_64_64	apply1
    19b7:	48 89 74 24 78       	mov    QWORD PTR [rsp+0x78],rsi
    19bc:	48 89 bc 24 80 00 00 	mov    QWORD PTR [rsp+0x80],rdi
    19c3:	00 
    19c4:	ff d0                	call   rax
    19c6:	48 89 c3             	mov    rbx,rax
    19c9:	49 89 d6             	mov    r14,rdx
    19cc:	4d 85 f6             	test   r14,r14
    19cf:	0f 85 0d 00 00 00    	jne    19e2 <big_makeblock+0x19e2>
    19d5:	48 89 9c 24 e8 01 00 	mov    QWORD PTR [rsp+0x1e8],rbx
    19dc:	00 
    19dd:	e9 94 00 00 00       	jmp    1a76 <big_makeblock+0x1a76>
    19e2:	48 8b b4 24 18 08 00 	mov    rsi,QWORD PTR [rsp+0x818]
    19e9:	00 
    19ea:	4c 8b ae 98 00 00 00 	mov    r13,QWORD PTR [rsi+0x98]
    19f1:	4d 89 f7             	mov    r15,r14
    19f4:	49 83 c7 ff          	add    r15,0xffffffffffffffff
    19f8:	4c 89 f2             	mov    rdx,r14
    19fb:	48 c1 e2 03          	shl    rdx,0x3
    19ff:	4d 89 ec             	mov    r12,r13
    1a02:	49 01 d4             	add    r12,rdx
    1a05:	4c 89 ef             	mov    rdi,r13
    1a08:	48 83 c7 e8          	add    rdi,0xffffffffffffffe8
    1a0c:	4c 89 ee             	mov    rsi,r13
    1a0f:	48 b8 00 00 00 00 00 	movabs rax,0x0
    1a16:	00 00 00 
			1a11: R_X86_64_64	memmove
    1a19:	48 89 5c 24 78       	mov    QWORD PTR [rsp+0x78],rbx
    1a1e:	ff d0                	call   rax
    1a20:	48 8b 5c 24 78       	mov    rbx,QWORD PTR [rsp+0x78]
    1a25:	48 be 00 00 00 00 00 	movabs rsi,0x0
    1a2c:	00 00 00 
			1a27: R_X86_64_64	callback_return_addr
    1a2f:	bf 01 00 00 00       	mov    edi,0x1
    1a34:	4b 89 7c f5 f8       	mov    QWORD PTR [r13+r14*8-0x8],rdi
    1a39:	bf 01 00 00 00       	mov    edi,0x1
    1a3e:	4b 89 7c f5 f0       	mov    QWORD PTR [r13+r14*8-0x10],rdi
    1a43:	4b 89 74 f5 e8       	mov    QWORD PTR [r13+r14*8-0x18],rsi
    1a48:	48 8b b4 24 18 08 00 	mov    rsi,QWORD PTR [rsp+0x818]
    1a4f:	00 
    1a50:	4c 89 a6 98 00 00 00 	mov    QWORD PTR [rsi+0x98],r12
    1a57:	48 89 df             	mov    rdi,rbx
    1a5a:	4c 89 fe             	mov    rsi,r15
    1a5d:	48 b8 00 00 00 00 00 	movabs rax,0x0
    1a64:	00 00 00 
			1a5f: R_X86_64_64	apply_n
    1a67:	48 89 7c 24 78       	mov    QWORD PTR [rsp+0x78],rdi
    1a6c:	ff d0                	call   rax
    1a6e:	48 89 84 24 e8 01 00 	mov    QWORD PTR [rsp+0x1e8],rax
    1a75:	00 
    1a76:	48 8b b4 24 10 08 00 	mov    rsi,QWORD PTR [rsp+0x810]
    1a7d:	00 
    1a7e:	48 8b 7e 08          	mov    rdi,QWORD PTR [rsi+0x8]
    1a82:	48 8b b4 24 00 08 00 	mov    rsi,QWORD PTR [rsp+0x800]
    1a89:	00 
    1a8a:	48 b8 00 00 00 00 00 	movabs rax,0x0
    1a91:	00 00 00 
			1a8c: R_X86_64_64	apply1
    1a94:	48 89 74 24 78       	mov    QWORD PTR [rsp+0x78],rsi
    1a99:	48 89 bc 24 80 00 00 	mov    QWORD PTR [rsp+0x80],rdi
    1aa0:	00 
    1aa1:	ff d0                	call   rax
    1aa3:	48 89 c3             	mov    rbx,rax
    1aa6:	49 89 d6             	mov    r14,rdx
    1aa9:	4d 85 f6             	test   r14,r14
    1aac:	0f 85 0a 00 00 00    	jne    1abc <big_makeblock+0x1abc>
    1ab2:	48 89 5c 24 78       	mov    QWORD PTR [rsp+0x78],rbx
    1ab7:	e9 97 00 00 00       	jmp    1b53 <big_makeblock+0x1b53>
    1abc:	48 8b b4 24 18 08 00 	mov    rsi,QWORD PTR [rsp+0x818]
    1ac3:	00 
    1ac4:	4c 8b ae 98 00 00 00 	mov    r13,QWORD PTR [rsi+0x98]
    1acb:	4d 89 f7             	mov    r15,r14
    1ace:	49 83 c7 ff          	add    r15,0xffffffffffffffff
    1ad2:	4c 89 f2             	mov    rdx,r14
    1ad5:	48 c1 e2 03          	shl    rdx,0x3
    1ad9:	4d 89 ec             	mov    r12,r13
    1adc:	49 01 d4             	add    r12,rdx
    1adf:	4c 89 ef             	mov    rdi,r13
    1ae2:	48 83 c7 e8          	add    rdi,0xffffffffffffffe8
    1ae6:	4c 89 ee             	mov    rsi,r13
    1ae9:	48 b8 00 00 00 00 00 	movabs rax,0x0
    1af0:	00 00 00 
			1aeb: R_X86_64_64	memmove
    1af3:	48 89 9c 24 80 00 00 	mov    QWORD PTR [rsp+0x80],rbx
    1afa:	00 
    1afb:	ff d0                	call   rax
    1afd:	48 8b 9c 24 80 00 00 	mov    rbx,QWORD PTR [rsp+0x80]
    1b04:	00 
    1b05:	48 be 00 00 00 00 00 	movabs rsi,0x0
    1b0c:	00 00 00 
			1b07: R_X86_64_64	callback_return_addr
    1b0f:	bf 01 00 00 00       	mov    edi,0x1
    1b14:	4b 89 7c f5 f8       	mov    QWORD PTR [r13+r14*8-0x8],rdi
    1b19:	bf 01 00 00 00       	mov    edi,0x1
    1b1e:	4b 89 7c f5 f0       	mov    QWORD PTR [r13+r14*8-0x10],rdi
    1b23:	4b 89 74 f5 e8       	mov    QWORD PTR [r13+r14*8-0x18],rsi
    1b28:	48 8b b4 24 18 08 00 	mov    rsi,QWORD PTR [rsp+0x818]
    1b2f:	00 
    1b30:	4c 89 a6 98 00 00 00 	mov    QWORD PTR [rsi+0x98],r12
    1b37:	48 89 df             	mov    rdi,rbx
    1b3a:	4c 89 fe             	mov    rsi,r15
    1b3d:	48 b8 00 00 00 00 00 	movabs rax,0x0
    1b44:	00 00 00 
			1b3f: R_X86_64_64	apply_n
    1b47:	48 89 7c 24 78       	mov    QWORD PTR [rsp+0x78],rdi
    1b4c:	ff d0                	call   rax
    1b4e:	48 89 44 24 78       	mov    QWORD PTR [rsp+0x78],rax
    1b53:	48 8b b4 24 10 08 00 	mov    rsi,QWORD PTR [rsp+0x810]
    1b5a:	00 
    1b5b:	48 8b 7e 08          	mov    rdi,QWORD PTR [rsi+0x8]
    1b5f:	48 8b b4 24 00 08 00 	mov    rsi,QWORD PTR [rsp+0x800]
    1b66:	00 
    1b67:	48 b8 00 00 00 00 00 	movabs rax,0x0
    1b6e:	00 00 00 
			1b69: R_X86_64_64	apply1
    1b71:	48 89 b4 24 80 00 00 	mov    QWORD PTR [rsp+0x80],rsi
    1b78:	00 
    1b79:	48 89 bc 24 88 00 00 	mov    QWORD PTR [rsp+0x88],rdi
    1b80:	00 
    1b81:	ff d0                	call   rax
    1b83:	49 89 c7             	mov    r15,rax
    1b86:	49 89 d6             	mov    r14,rdx
    1b89:	4d 85 f6             	test   r14,r14
    1b8c:	0f 85 0d 00 00 00    	jne    1b9f <big_makeblock+0x1b9f>
    1b92:	4c 89 bc 24 f8 01 00 	mov    QWORD PTR [rsp+0x1f8],r15
    1b99:	00 
    1b9a:	e9 9d 00 00 00       	jmp    1c3c <big_makeblock+0x1c3c>
    1b9f:	48 8b b4 24 18 08 00 	mov    rsi,QWORD PTR [rsp+0x818]
    1ba6:	00 
    1ba7:	4c 8b ae 98 00 00 00 	mov    r13,QWORD PTR [rsi+0x98]
    1bae:	4c 89 f3             	mov    rbx,r14
    1bb1:	48 83 c3 ff          	add    rbx,0xffffffffffffffff
    1bb5:	4c 89 f2             	mov    rdx,r14
    1bb8:	48 c1 e2 03          	shl    rdx,0x3
    1bbc:	4d 89 ec             	mov    r12,r13
    1bbf:	49 01 d4             	add    r12,rdx
    1bc2:	4c 89 ef             	mov    rdi,r13
    1bc5:	48 83 c7 e8          	add    rdi,0xffffffffffffffe8
    1bc9:	4c 89 ee             	mov    rsi,r13
    1bcc:	48 b8 00 00 00 00 00 	movabs rax,0x0
    1bd3:	00 00 00 
			1bce: R_X86_64_64	memmove
    1bd6:	4c 89 bc 24 80 00 00 	mov    QWORD PTR [rsp+0x80],r15
    1bdd:	00 
    1bde:	ff d0                	call   rax
    1be0:	4c 8b bc 24 80 00 00 	mov    r15,QWORD PTR [rsp+0x80]
    1be7:	00 
    1be8:	48 be 00 00 00 00 00 	movabs rsi,0x0
    1bef:	00 00 00 
			1bea: R_X86_64_64	callback_return_addr
    1bf2:	bf 01 00 00 00       	mov    edi,0x1
    1bf7:	4b 89 7c f5 f8       	mov    QWORD PTR [r13+r14*8-0x8],rdi
    1bfc:	bf 01 00 00 00       	mov    edi,0x1
    1c01:	4b 89 7c f5 f0       	mov    QWORD PTR [r13+r14*8-0x10],rdi
    1c06:	4b 89 74 f5 e8       	mov    QWORD PTR [r13+r14*8-0x18],rsi
    1c0b:	48 8b b4 24 18 08 00 	mov    rsi,QWORD PTR [rsp+0x818]
    1c12:	00 
    1c13:	4c 89 a6 98 00 00 00 	mov    QWORD PTR [rsi+0x98],r12
    1c1a:	4c 89 ff             	mov    rdi,r15
    1c1d:	48 89 de             	mov    rsi,rbx
    1c20:	48 b8 00 00 00 00 00 	movabs rax,0x0
    1c27:	00 00 00 
			1c22: R_X86_64_64	apply_n
    1c2a:	48 89 bc 24 80 00 00 	mov    QWORD PTR [rsp+0x80],rdi
    1c31:	00 
    1c32:	ff d0                	call   rax
    1c34:	48 89 84 24 f8 01 00 	mov    QWORD PTR [rsp+0x1f8],rax
    1c3b:	00 
    1c3c:	48 8b b4 24 10 08 00 	mov    rsi,QWORD PTR [rsp+0x810]
    1c43:	00 
    1c44:	48 8b 7e 08          	mov    rdi,QWORD PTR [rsi+0x8]
    1c48:	48 8b b4 24 00 08 00 	mov    rsi,QWORD PTR [rsp+0x800]
    1c4f:	00 
    1c50:	48 b8 00 00 00 00 00 	movabs rax,0x0
    1c57:	00 00 00 
			1c52: R_X86_64_64	apply1
    1c5a:	48 89 b4 24 80 00 00 	mov    QWORD PTR [rsp+0x80],rsi
    1c61:	00 
    1c62:	48 89 bc 24 88 00 00 	mov    QWORD PTR [rsp+0x88],rdi
    1c69:	00 
    1c6a:	ff d0                	call   rax
    1c6c:	48 89 c3             	mov    rbx,rax
    1c6f:	49 89 d6             	mov    r14,rdx
    1c72:	4d 85 f6             	test   r14,r14
    1c75:	0f 85 0d 00 00 00    	jne    1c88 <big_makeblock+0x1c88>
    1c7b:	48 89 9c 24 80 00 00 	mov    QWORD PTR [rsp+0x80],rbx
    1c82:	00 
    1c83:	e9 9d 00 00 00       	jmp    1d25 <big_makeblock+0x1d25>
    1c88:	48 8b b4 24 18 08 00 	mov    rsi,QWORD PTR [rsp+0x818]
    1c8f:	00 
    1c90:	4c 8b ae 98 00 00 00 	mov    r13,QWORD PTR [rsi+0x98]
    1c97:	4d 89 f7             	mov    r15,r14
    1c9a:	49 83 c7 ff          	add    r15,0xffffffffffffffff
    1c9e:	4c 89 f2             	mov    rdx,r14
    1ca1:	48 c1 e2 03          	shl    rdx,0x3
    1ca5:	4d 89 ec             	mov    r12,r13
    1ca8:	49 01 d4             	add    r12,rdx
    1cab:	4c 89 ef             	mov    rdi,r13
    1cae:	48 83 c7 e8          	add    rdi,0xffffffffffffffe8
    1cb2:	4c 89 ee             	mov    rsi,r13
    1cb5:	48 b8 00 00 00 00 00 	movabs rax,0x0
    1cbc:	00 00 00 
			1cb7: R_X86_64_64	memmove
    1cbf:	48 89 9c 24 88 00 00 	mov    QWORD PTR [rsp+0x88],rbx
    1cc6:	00 
    1cc7:	ff d0                	call   rax
    1cc9:	48 8b 9c 24 88 00 00 	mov    rbx,QWORD PTR [rsp+0x88]
    1cd0:	00 
    1cd1:	48 be 00 00 00 00 00 	movabs rsi,0x0
    1cd8:	00 00 00 
			1cd3: R_X86_64_64	callback_return_addr
    1cdb:	bf 01 00 00 00       	mov    edi,0x1
    1ce0:	4b 89 7c f5 f8       	mov    QWORD PTR [r13+r14*8-0x8],rdi
    1ce5:	bf 01 00 00 00       	mov    edi,0x1
    1cea:	4b 89 7c f5 f0       	mov    QWORD PTR [r13+r14*8-0x10],rdi
    1cef:	4b 89 74 f5 e8       	mov    QWORD PTR [r13+r14*8-0x18],rsi
    1cf4:	48 8b b4 24 18 08 00 	mov    rsi,QWORD PTR [rsp+0x818]
    1cfb:	00 
    1cfc:	4c 89 a6 98 00 00 00 	mov    QWORD PTR [rsi+0x98],r12
    1d03:	48 89 df             	mov    rdi,rbx
    1d06:	4c 89 fe             	mov    rsi,r15
    1d09:	48 b8 00 00 00 00 00 	movabs rax,0x0
    1d10:	00 00 00 
			1d0b: R_X86_64_64	apply_n
    1d13:	48 89 bc 24 80 00 00 	mov    QWORD PTR [rsp+0x80],rdi
    1d1a:	00 
    1d1b:	ff d0                	call   rax
    1d1d:	48 89 84 24 80 00 00 	mov    QWORD PTR [rsp+0x80],rax
    1d24:	00 
    1d25:	48 8b b4 24 10 08 00 	mov    rsi,QWORD PTR [rsp+0x810]
    1d2c:	00 
    1d2d:	48 8b 7e 08          	mov    rdi,QWORD PTR [rsi+0x8]
    1d31:	48 8b b4 24 00 08 00 	mov    rsi,QWORD PTR [rsp+0x800]
    1d38:	00 
    1d39:	48 b8 00 00 00 00 00 	movabs rax,0x0
    1d40:	00 00 00 
			1d3b: R_X86_64_64	apply1
    1d43:	48 89 b4 24 88 00 00 	mov    QWORD PTR [rsp+0x88],rsi
    1d4a:	00 
    1d4b:	48 89 bc 24 90 00 00 	mov    QWORD PTR [rsp+0x90],rdi
    1d52:	00 
    1d53:	ff d0                	call   rax
    1d55:	48 89 c3             	mov    rbx,rax
    1d58:	49 89 d6             	mov    r14,rdx
    1d5b:	4d 85 f6             	test   r14,r14
    1d5e:	0f 85 0d 00 00 00    	jne    1d71 <big_makeblock+0x1d71>
    1d64:	48 89 9c 24 08 02 00 	mov    QWORD PTR [rsp+0x208],rbx
    1d6b:	00 
    1d6c:	e9 9d 00 00 00       	jmp    1e0e <big_makeblock+0x1e0e>
    1d71:	48 8b b4 24 18 08 00 	mov    rsi,QWORD PTR [rsp+0x818]
    1d78:	00 
    1d79:	4c 8b ae 98 00 00 00 	mov    r13,QWORD PTR [rsi+0x98]
    1d80:	4d 89 f7             	mov    r15,r14
    1d83:	49 83 c7 ff          	add    r15,0xffffffffffffffff
    1d87:	4c 89 f2             	mov    rdx,r14
    1d8a:	48 c1 e2 03          	shl    rdx,0x3
    1d8e:	4d 89 ec             	mov    r12,r13
    1d91:	49 01 d4             	add    r12,rdx
    1d94:	4c 89 ef             	mov    rdi,r13
    1d97:	48 83 c7 e8          	add    rdi,0xffffffffffffffe8
    1d9b:	4c 89 ee             	mov    rsi,r13
    1d9e:	48 b8 00 00 00 00 00 	movabs rax,0x0
    1da5:	00 00 00 
			1da0: R_X86_64_64	memmove
    1da8:	48 89 9c 24 88 00 00 	mov    QWORD PTR [rsp+0x88],rbx
    1daf:	00 
    1db0:	ff d0                	call   rax
    1db2:	48 8b 9c 24 88 00 00 	mov    rbx,QWORD PTR [rsp+0x88]
    1db9:	00 
    1dba:	48 be 00 00 00 00 00 	movabs rsi,0x0
    1dc1:	00 00 00 
			1dbc: R_X86_64_64	callback_return_addr
    1dc4:	bf 01 00 00 00       	mov    edi,0x1
    1dc9:	4b 89 7c f5 f8       	mov    QWORD PTR [r13+r14*8-0x8],rdi
    1dce:	bf 01 00 00 00       	mov    edi,0x1
    1dd3:	4b 89 7c f5 f0       	mov    QWORD PTR [r13+r14*8-0x10],rdi
    1dd8:	4b 89 74 f5 e8       	mov    QWORD PTR [r13+r14*8-0x18],rsi
    1ddd:	48 8b b4 24 18 08 00 	mov    rsi,QWORD PTR [rsp+0x818]
    1de4:	00 
    1de5:	4c 89 a6 98 00 00 00 	mov    QWORD PTR [rsi+0x98],r12
    1dec:	48 89 df             	mov    rdi,rbx
    1def:	4c 89 fe             	mov    rsi,r15
    1df2:	48 b8 00 00 00 00 00 	movabs rax,0x0
    1df9:	00 00 00 
			1df4: R_X86_64_64	apply_n
    1dfc:	48 89 bc 24 88 00 00 	mov    QWORD PTR [rsp+0x88],rdi
    1e03:	00 
    1e04:	ff d0                	call   rax
    1e06:	48 89 84 24 08 02 00 	mov    QWORD PTR [rsp+0x208],rax
    1e0d:	00 
    1e0e:	48 8b b4 24 10 08 00 	mov    rsi,QWORD PTR [rsp+0x810]
    1e15:	00 
    1e16:	48 8b 7e 08          	mov    rdi,QWORD PTR [rsi+0x8]
    1e1a:	48 8b b4 24 00 08 00 	mov    rsi,QWORD PTR [rsp+0x800]
    1e21:	00 
    1e22:	48 b8 00 00 00 00 00 	movabs rax,0x0
    1e29:	00 00 00 
			1e24: R_X86_64_64	apply1
    1e2c:	48 89 b4 24 88 00 00 	mov    QWORD PTR [rsp+0x88],rsi
    1e33:	00 
    1e34:	48 89 bc 24 90 00 00 	mov    QWORD PTR [rsp+0x90],rdi
    1e3b:	00 
    1e3c:	ff d0                	call   rax
    1e3e:	49 89 c7             	mov    r15,rax
    1e41:	49 89 d6             	mov    r14,rdx
    1e44:	4d 85 f6             	test   r14,r14
    1e47:	0f 85 0d 00 00 00    	jne    1e5a <big_makeblock+0x1e5a>
    1e4d:	4c 89 bc 24 88 00 00 	mov    QWORD PTR [rsp+0x88],r15
    1e54:	00 
    1e55:	e9 9d 00 00 00       	jmp    1ef7 <big_makeblock+0x1ef7>
    1e5a:	48 8b b4 24 18 08 00 	mov    rsi,QWORD PTR [rsp+0x818]
    1e61:	00 
    1e62:	4c 8b ae 98 00 00 00 	mov    r13,QWORD PTR [rsi+0x98]
    1e69:	4c 89 f3             	mov    rbx,r14
    1e6c:	48 83 c3 ff          	add    rbx,0xffffffffffffffff
    1e70:	4c 89 f2             	mov    rdx,r14
    1e73:	48 c1 e2 03          	shl    rdx,0x3
    1e77:	4d 89 ec             	mov    r12,r13
    1e7a:	49 01 d4             	add    r12,rdx
    1e7d:	4c 89 ef             	mov    rdi,r13
    1e80:	48 83 c7 e8          	add    rdi,0xffffffffffffffe8
    1e84:	4c 89 ee             	mov    rsi,r13
    1e87:	48 b8 00 00 00 00 00 	movabs rax,0x0
    1e8e:	00 00 00 
			1e89: R_X86_64_64	memmove
    1e91:	4c 89 bc 24 90 00 00 	mov    QWORD PTR [rsp+0x90],r15
    1e98:	00 
    1e99:	ff d0                	call   rax
    1e9b:	4c 8b bc 24 90 00 00 	mov    r15,QWORD PTR [rsp+0x90]
    1ea2:	00 
    1ea3:	48 be 00 00 00 00 00 	movabs rsi,0x0
    1eaa:	00 00 00 
			1ea5: R_X86_64_64	callback_return_addr
    1ead:	bf 01 00 00 00       	mov    edi,0x1
    1eb2:	4b 89 7c f5 f8       	mov    QWORD PTR [r13+r14*8-0x8],rdi
    1eb7:	bf 01 00 00 00       	mov    edi,0x1
    1ebc:	4b 89 7c f5 f0       	mov    QWORD PTR [r13+r14*8-0x10],rdi
    1ec1:	4b 89 74 f5 e8       	mov    QWORD PTR [r13+r14*8-0x18],rsi
    1ec6:	48 8b b4 24 18 08 00 	mov    rsi,QWORD PTR [rsp+0x818]
    1ecd:	00 
    1ece:	4c 89 a6 98 00 00 00 	mov    QWORD PTR [rsi+0x98],r12
    1ed5:	4c 89 ff             	mov    rdi,r15
    1ed8:	48 89 de             	mov    rsi,rbx
    1edb:	48 b8 00 00 00 00 00 	movabs rax,0x0
    1ee2:	00 00 00 
			1edd: R_X86_64_64	apply_n
    1ee5:	48 89 bc 24 88 00 00 	mov    QWORD PTR [rsp+0x88],rdi
    1eec:	00 
    1eed:	ff d0                	call   rax
    1eef:	48 89 84 24 88 00 00 	mov    QWORD PTR [rsp+0x88],rax
    1ef6:	00 
    1ef7:	48 8b b4 24 10 08 00 	mov    rsi,QWORD PTR [rsp+0x810]
    1efe:	00 
    1eff:	48 8b 7e 08          	mov    rdi,QWORD PTR [rsi+0x8]
    1f03:	48 8b b4 24 00 08 00 	mov    rsi,QWORD PTR [rsp+0x800]
    1f0a:	00 
    1f0b:	48 b8 00 00 00 00 00 	movabs rax,0x0
    1f12:	00 00 00 
			1f0d: R_X86_64_64	apply1
    1f15:	48 89 b4 24 90 00 00 	mov    QWORD PTR [rsp+0x90],rsi
    1f1c:	00 
    1f1d:	48 89 bc 24 98 00 00 	mov    QWORD PTR [rsp+0x98],rdi
    1f24:	00 
    1f25:	ff d0                	call   rax
    1f27:	48 89 c3             	mov    rbx,rax
    1f2a:	49 89 d6             	mov    r14,rdx
    1f2d:	4d 85 f6             	test   r14,r14
    1f30:	0f 85 0d 00 00 00    	jne    1f43 <big_makeblock+0x1f43>
    1f36:	48 89 9c 24 18 02 00 	mov    QWORD PTR [rsp+0x218],rbx
    1f3d:	00 
    1f3e:	e9 9d 00 00 00       	jmp    1fe0 <big_makeblock+0x1fe0>
    1f43:	48 8b b4 24 18 08 00 	mov    rsi,QWORD PTR [rsp+0x818]
    1f4a:	00 
    1f4b:	4c 8b ae 98 00 00 00 	mov    r13,QWORD PTR [rsi+0x98]
    1f52:	4d 89 f7             	mov    r15,r14
    1f55:	49 83 c7 ff          	add    r15,0xffffffffffffffff
    1f59:	4c 89 f2             	mov    rdx,r14
    1f5c:	48 c1 e2 03          	shl    rdx,0x3
    1f60:	4d 89 ec             	mov    r12,r13
    1f63:	49 01 d4             	add    r12,rdx
    1f66:	4c 89 ef             	mov    rdi,r13
    1f69:	48 83 c7 e8          	add    rdi,0xffffffffffffffe8
    1f6d:	4c 89 ee             	mov    rsi,r13
    1f70:	48 b8 00 00 00 00 00 	movabs rax,0x0
    1f77:	00 00 00 
			1f72: R_X86_64_64	memmove
    1f7a:	48 89 9c 24 90 00 00 	mov    QWORD PTR [rsp+0x90],rbx
    1f81:	00 
    1f82:	ff d0                	call   rax
    1f84:	48 8b 9c 24 90 00 00 	mov    rbx,QWORD PTR [rsp+0x90]
    1f8b:	00 
    1f8c:	48 be 00 00 00 00 00 	movabs rsi,0x0
    1f93:	00 00 00 
			1f8e: R_X86_64_64	callback_return_addr
    1f96:	bf 01 00 00 00       	mov    edi,0x1
    1f9b:	4b 89 7c f5 f8       	mov    QWORD PTR [r13+r14*8-0x8],rdi
    1fa0:	bf 01 00 00 00       	mov    edi,0x1
    1fa5:	4b 89 7c f5 f0       	mov    QWORD PTR [r13+r14*8-0x10],rdi
    1faa:	4b 89 74 f5 e8       	mov    QWORD PTR [r13+r14*8-0x18],rsi
    1faf:	48 8b b4 24 18 08 00 	mov    rsi,QWORD PTR [rsp+0x818]
    1fb6:	00 
    1fb7:	4c 89 a6 98 00 00 00 	mov    QWORD PTR [rsi+0x98],r12
    1fbe:	48 89 df             	mov    rdi,rbx
    1fc1:	4c 89 fe             	mov    rsi,r15
    1fc4:	48 b8 00 00 00 00 00 	movabs rax,0x0
    1fcb:	00 00 00 
			1fc6: R_X86_64_64	apply_n
    1fce:	48 89 bc 24 90 00 00 	mov    QWORD PTR [rsp+0x90],rdi
    1fd5:	00 
    1fd6:	ff d0                	call   rax
    1fd8:	48 89 84 24 18 02 00 	mov    QWORD PTR [rsp+0x218],rax
    1fdf:	00 
    1fe0:	48 8b b4 24 10 08 00 	mov    rsi,QWORD PTR [rsp+0x810]
    1fe7:	00 
    1fe8:	48 8b 7e 08          	mov    rdi,QWORD PTR [rsi+0x8]
    1fec:	48 8b b4 24 00 08 00 	mov    rsi,QWORD PTR [rsp+0x800]
    1ff3:	00 
    1ff4:	48 b8 00 00 00 00 00 	movabs rax,0x0
    1ffb:	00 00 00 
			1ff6: R_X86_64_64	apply1
    1ffe:	48 89 b4 24 90 00 00 	mov    QWORD PTR [rsp+0x90],rsi
    2005:	00 
    2006:	48 89 bc 24 98 00 00 	mov    QWORD PTR [rsp+0x98],rdi
    200d:	00 
    200e:	ff d0                	call   rax
    2010:	48 89 c3             	mov    rbx,rax
    2013:	49 89 d6             	mov    r14,rdx
    2016:	4d 85 f6             	test   r14,r14
    2019:	0f 85 0d 00 00 00    	jne    202c <big_makeblock+0x202c>
    201f:	48 89 9c 24 90 00 00 	mov    QWORD PTR [rsp+0x90],rbx
    2026:	00 
    2027:	e9 9d 00 00 00       	jmp    20c9 <big_makeblock+0x20c9>
    202c:	48 8b b4 24 18 08 00 	mov    rsi,QWORD PTR [rsp+0x818]
    2033:	00 
    2034:	4c 8b ae 98 00 00 00 	mov    r13,QWORD PTR [rsi+0x98]
    203b:	4d 89 f7             	mov    r15,r14
    203e:	49 83 c7 ff          	add    r15,0xffffffffffffffff
    2042:	4c 89 f2             	mov    rdx,r14
    2045:	48 c1 e2 03          	shl    rdx,0x3
    2049:	4d 89 ec             	mov    r12,r13
    204c:	49 01 d4             	add    r12,rdx
    204f:	4c 89 ef             	mov    rdi,r13
    2052:	48 83 c7 e8          	add    rdi,0xffffffffffffffe8
    2056:	4c 89 ee             	mov    rsi,r13
    2059:	48 b8 00 00 00 00 00 	movabs rax,0x0
    2060:	00 00 00 
			205b: R_X86_64_64	memmove
    2063:	48 89 9c 24 98 00 00 	mov    QWORD PTR [rsp+0x98],rbx
    206a:	00 
    206b:	ff d0                	call   rax
    206d:	48 8b 9c 24 98 00 00 	mov    rbx,QWORD PTR [rsp+0x98]
    2074:	00 
    2075:	48 be 00 00 00 00 00 	movabs rsi,0x0
    207c:	00 00 00 
			2077: R_X86_64_64	callback_return_addr
    207f:	bf 01 00 00 00       	mov    edi,0x1
    2084:	4b 89 7c f5 f8       	mov    QWORD PTR [r13+r14*8-0x8],rdi
    2089:	bf 01 00 00 00       	mov    edi,0x1
    208e:	4b 89 7c f5 f0       	mov    QWORD PTR [r13+r14*8-0x10],rdi
    2093:	4b 89 74 f5 e8       	mov    QWORD PTR [r13+r14*8-0x18],rsi
    2098:	48 8b b4 24 18 08 00 	mov    rsi,QWORD PTR [rsp+0x818]
    209f:	00 
    20a0:	4c 89 a6 98 00 00 00 	mov    QWORD PTR [rsi+0x98],r12
    20a7:	48 89 df             	mov    rdi,rbx
    20aa:	4c 89 fe             	mov    rsi,r15
    20ad:	48 b8 00 00 00 00 00 	movabs rax,0x0
    20b4:	00 00 00 
			20af: R_X86_64_64	apply_n
    20b7:	48 89 bc 24 90 00 00 	mov    QWORD PTR [rsp+0x90],rdi
    20be:	00 
    20bf:	ff d0                	call   rax
    20c1:	48 89 84 24 90 00 00 	mov    QWORD PTR [rsp+0x90],rax
    20c8:	00 
    20c9:	48 8b b4 24 10 08 00 	mov    rsi,QWORD PTR [rsp+0x810]
    20d0:	00 
    20d1:	48 8b 7e 08          	mov    rdi,QWORD PTR [rsi+0x8]
    20d5:	48 8b b4 24 00 08 00 	mov    rsi,QWORD PTR [rsp+0x800]
    20dc:	00 
    20dd:	48 b8 00 00 00 00 00 	movabs rax,0x0
    20e4:	00 00 00 
			20df: R_X86_64_64	apply1
    20e7:	48 89 b4 24 98 00 00 	mov    QWORD PTR [rsp+0x98],rsi
    20ee:	00 
    20ef:	48 89 bc 24 a0 00 00 	mov    QWORD PTR [rsp+0xa0],rdi
    20f6:	00 
    20f7:	ff d0                	call   rax
    20f9:	49 89 c7             	mov    r15,rax
    20fc:	49 89 d6             	mov    r14,rdx
    20ff:	4d 85 f6             	test   r14,r14
    2102:	0f 85 0d 00 00 00    	jne    2115 <big_makeblock+0x2115>
    2108:	4c 89 bc 24 28 02 00 	mov    QWORD PTR [rsp+0x228],r15
    210f:	00 
    2110:	e9 9d 00 00 00       	jmp    21b2 <big_makeblock+0x21b2>
    2115:	48 8b b4 24 18 08 00 	mov    rsi,QWORD PTR [rsp+0x818]
    211c:	00 
    211d:	4c 8b ae 98 00 00 00 	mov    r13,QWORD PTR [rsi+0x98]
    2124:	4c 89 f3             	mov    rbx,r14
    2127:	48 83 c3 ff          	add    rbx,0xffffffffffffffff
    212b:	4c 89 f2             	mov    rdx,r14
    212e:	48 c1 e2 03          	shl    rdx,0x3
    2132:	4d 89 ec             	mov    r12,r13
    2135:	49 01 d4             	add    r12,rdx
    2138:	4c 89 ef             	mov    rdi,r13
    213b:	48 83 c7 e8          	add    rdi,0xffffffffffffffe8
    213f:	4c 89 ee             	mov    rsi,r13
    2142:	48 b8 00 00 00 00 00 	movabs rax,0x0
    2149:	00 00 00 
			2144: R_X86_64_64	memmove
    214c:	4c 89 bc 24 98 00 00 	mov    QWORD PTR [rsp+0x98],r15
    2153:	00 
    2154:	ff d0                	call   rax
    2156:	4c 8b bc 24 98 00 00 	mov    r15,QWORD PTR [rsp+0x98]
    215d:	00 
    215e:	48 be 00 00 00 00 00 	movabs rsi,0x0
    2165:	00 00 00 
			2160: R_X86_64_64	callback_return_addr
    2168:	bf 01 00 00 00       	mov    edi,0x1
    216d:	4b 89 7c f5 f8       	mov    QWORD PTR [r13+r14*8-0x8],rdi
    2172:	bf 01 00 00 00       	mov    edi,0x1
    2177:	4b 89 7c f5 f0       	mov    QWORD PTR [r13+r14*8-0x10],rdi
    217c:	4b 89 74 f5 e8       	mov    QWORD PTR [r13+r14*8-0x18],rsi
    2181:	48 8b b4 24 18 08 00 	mov    rsi,QWORD PTR [rsp+0x818]
    2188:	00 
    2189:	4c 89 a6 98 00 00 00 	mov    QWORD PTR [rsi+0x98],r12
    2190:	4c 89 ff             	mov    rdi,r15
    2193:	48 89 de             	mov    rsi,rbx
    2196:	48 b8 00 00 00 00 00 	movabs rax,0x0
    219d:	00 00 00 
			2198: R_X86_64_64	apply_n
    21a0:	48 89 bc 24 98 00 00 	mov    QWORD PTR [rsp+0x98],rdi
    21a7:	00 
    21a8:	ff d0                	call   rax
    21aa:	48 89 84 24 28 02 00 	mov    QWORD PTR [rsp+0x228],rax
    21b1:	00 
    21b2:	48 8b b4 24 10 08 00 	mov    rsi,QWORD PTR [rsp+0x810]
    21b9:	00 
    21ba:	48 8b 7e 08          	mov    rdi,QWORD PTR [rsi+0x8]
    21be:	48 8b b4 24 00 08 00 	mov    rsi,QWORD PTR [rsp+0x800]
    21c5:	00 
    21c6:	48 b8 00 00 00 00 00 	movabs rax,0x0
    21cd:	00 00 00 
			21c8: R_X86_64_64	apply1
    21d0:	48 89 b4 24 98 00 00 	mov    QWORD PTR [rsp+0x98],rsi
    21d7:	00 
    21d8:	48 89 bc 24 a0 00 00 	mov    QWORD PTR [rsp+0xa0],rdi
    21df:	00 
    21e0:	ff d0                	call   rax
    21e2:	48 89 c3             	mov    rbx,rax
    21e5:	49 89 d6             	mov    r14,rdx
    21e8:	4d 85 f6             	test   r14,r14
    21eb:	0f 85 0d 00 00 00    	jne    21fe <big_makeblock+0x21fe>
    21f1:	48 89 9c 24 98 00 00 	mov    QWORD PTR [rsp+0x98],rbx
    21f8:	00 
    21f9:	e9 9d 00 00 00       	jmp    229b <big_makeblock+0x229b>
    21fe:	48 8b b4 24 18 08 00 	mov    rsi,QWORD PTR [rsp+0x818]
    2205:	00 
    2206:	4c 8b ae 98 00 00 00 	mov    r13,QWORD PTR [rsi+0x98]
    220d:	4d 89 f7             	mov    r15,r14
    2210:	49 83 c7 ff          	add    r15,0xffffffffffffffff
    2214:	4c 89 f2             	mov    rdx,r14
    2217:	48 c1 e2 03          	shl    rdx,0x3
    221b:	4d 89 ec             	mov    r12,r13
    221e:	49 01 d4             	add    r12,rdx
    2221:	4c 89 ef             	mov    rdi,r13
    2224:	48 83 c7 e8          	add    rdi,0xffffffffffffffe8
    2228:	4c 89 ee             	mov    rsi,r13
    222b:	48 b8 00 00 00 00 00 	movabs rax,0x0
    2232:	00 00 00 
			222d: R_X86_64_64	memmove
    2235:	48 89 9c 24 a0 00 00 	mov    QWORD PTR [rsp+0xa0],rbx
    223c:	00 
    223d:	ff d0                	call   rax
    223f:	48 8b 9c 24 a0 00 00 	mov    rbx,QWORD PTR [rsp+0xa0]
    2246:	00 
    2247:	48 be 00 00 00 00 00 	movabs rsi,0x0
    224e:	00 00 00 
			2249: R_X86_64_64	callback_return_addr
    2251:	bf 01 00 00 00       	mov    edi,0x1
    2256:	4b 89 7c f5 f8       	mov    QWORD PTR [r13+r14*8-0x8],rdi
    225b:	bf 01 00 00 00       	mov    edi,0x1
    2260:	4b 89 7c f5 f0       	mov    QWORD PTR [r13+r14*8-0x10],rdi
    2265:	4b 89 74 f5 e8       	mov    QWORD PTR [r13+r14*8-0x18],rsi
    226a:	48 8b b4 24 18 08 00 	mov    rsi,QWORD PTR [rsp+0x818]
    2271:	00 
    2272:	4c 89 a6 98 00 00 00 	mov    QWORD PTR [rsi+0x98],r12
    2279:	48 89 df             	mov    rdi,rbx
    227c:	4c 89 fe             	mov    rsi,r15
    227f:	48 b8 00 00 00 00 00 	movabs rax,0x0
    2286:	00 00 00 
			2281: R_X86_64_64	apply_n
    2289:	48 89 bc 24 98 00 00 	mov    QWORD PTR [rsp+0x98],rdi
    2290:	00 
    2291:	ff d0                	call   rax
    2293:	48 89 84 24 98 00 00 	mov    QWORD PTR [rsp+0x98],rax
    229a:	00 
    229b:	48 8b b4 24 10 08 00 	mov    rsi,QWORD PTR [rsp+0x810]
    22a2:	00 
    22a3:	48 8b 7e 08          	mov    rdi,QWORD PTR [rsi+0x8]
    22a7:	48 8b b4 24 00 08 00 	mov    rsi,QWORD PTR [rsp+0x800]
    22ae:	00 
    22af:	48 b8 00 00 00 00 00 	movabs rax,0x0
    22b6:	00 00 00 
			22b1: R_X86_64_64	apply1
    22b9:	48 89 b4 24 a0 00 00 	mov    QWORD PTR [rsp+0xa0],rsi
    22c0:	00 
    22c1:	48 89 bc 24 a8 00 00 	mov    QWORD PTR [rsp+0xa8],rdi
    22c8:	00 
    22c9:	ff d0                	call   rax
    22cb:	48 89 c3             	mov    rbx,rax
    22ce:	49 89 d6             	mov    r14,rdx
    22d1:	4d 85 f6             	test   r14,r14
    22d4:	0f 85 0d 00 00 00    	jne    22e7 <big_makeblock+0x22e7>
    22da:	48 89 9c 24 38 02 00 	mov    QWORD PTR [rsp+0x238],rbx
    22e1:	00 
    22e2:	e9 9d 00 00 00       	jmp    2384 <big_makeblock+0x2384>
    22e7:	48 8b b4 24 18 08 00 	mov    rsi,QWORD PTR [rsp+0x818]
    22ee:	00 
    22ef:	4c 8b ae 98 00 00 00 	mov    r13,QWORD PTR [rsi+0x98]
    22f6:	4d 89 f7             	mov    r15,r14
    22f9:	49 83 c7 ff          	add    r15,0xffffffffffffffff
    22fd:	4c 89 f2             	mov    rdx,r14
    2300:	48 c1 e2 03          	shl    rdx,0x3
    2304:	4d 89 ec             	mov    r12,r13
    2307:	49 01 d4             	add    r12,rdx
    230a:	4c 89 ef             	mov    rdi,r13
    230d:	48 83 c7 e8          	add    rdi,0xffffffffffffffe8
    2311:	4c 89 ee             	mov    rsi,r13
    2314:	48 b8 00 00 00 00 00 	movabs rax,0x0
    231b:	00 00 00 
			2316: R_X86_64_64	memmove
    231e:	48 89 9c 24 a0 00 00 	mov    QWORD PTR [rsp+0xa0],rbx
    2325:	00 
    2326:	ff d0                	call   rax
    2328:	48 8b 9c 24 a0 00 00 	mov    rbx,QWORD PTR [rsp+0xa0]
    232f:	00 
    2330:	48 be 00 00 00 00 00 	movabs rsi,0x0
    2337:	00 00 00 
			2332: R_X86_64_64	callback_return_addr
    233a:	bf 01 00 00 00       	mov    edi,0x1
    233f:	4b 89 7c f5 f8       	mov    QWORD PTR [r13+r14*8-0x8],rdi
    2344:	bf 01 00 00 00       	mov    edi,0x1
    2349:	4b 89 7c f5 f0       	mov    QWORD PTR [r13+r14*8-0x10],rdi
    234e:	4b 89 74 f5 e8       	mov    QWORD PTR [r13+r14*8-0x18],rsi
    2353:	48 8b b4 24 18 08 00 	mov    rsi,QWORD PTR [rsp+0x818]
    235a:	00 
    235b:	4c 89 a6 98 00 00 00 	mov    QWORD PTR [rsi+0x98],r12
    2362:	48 89 df             	mov    rdi,rbx
    2365:	4c 89 fe             	mov    rsi,r15
    2368:	48 b8 00 00 00 00 00 	movabs rax,0x0
    236f:	00 00 00 
			236a: R_X86_64_64	apply_n
    2372:	48 89 bc 24 a0 00 00 	mov    QWORD PTR [rsp+0xa0],rdi
    2379:	00 
    237a:	ff d0                	call   rax
    237c:	48 89 84 24 38 02 00 	mov    QWORD PTR [rsp+0x238],rax
    2383:	00 
    2384:	48 8b b4 24 10 08 00 	mov    rsi,QWORD PTR [rsp+0x810]
    238b:	00 
    238c:	48 8b 7e 08          	mov    rdi,QWORD PTR [rsi+0x8]
    2390:	48 8b b4 24 00 08 00 	mov    rsi,QWORD PTR [rsp+0x800]
    2397:	00 
    2398:	48 b8 00 00 00 00 00 	movabs rax,0x0
    239f:	00 00 00 
			239a: R_X86_64_64	apply1
    23a2:	48 89 b4 24 a0 00 00 	mov    QWORD PTR [rsp+0xa0],rsi
    23a9:	00 
    23aa:	48 89 bc 24 a8 00 00 	mov    QWORD PTR [rsp+0xa8],rdi
    23b1:	00 
    23b2:	ff d0                	call   rax
    23b4:	49 89 c7             	mov    r15,rax
    23b7:	49 89 d6             	mov    r14,rdx
    23ba:	4d 85 f6             	test   r14,r14
    23bd:	0f 85 0d 00 00 00    	jne    23d0 <big_makeblock+0x23d0>
    23c3:	4c 89 bc 24 a0 00 00 	mov    QWORD PTR [rsp+0xa0],r15
    23ca:	00 
    23cb:	e9 9d 00 00 00       	jmp    246d <big_makeblock+0x246d>
    23d0:	48 8b b4 24 18 08 00 	mov    rsi,QWORD PTR [rsp+0x818]
    23d7:	00 
    23d8:	4c 8b ae 98 00 00 00 	mov    r13,QWORD PTR [rsi+0x98]
    23df:	4c 89 f3             	mov    rbx,r14
    23e2:	48 83 c3 ff          	add    rbx,0xffffffffffffffff
    23e6:	4c 89 f2             	mov    rdx,r14
    23e9:	48 c1 e2 03          	shl    rdx,0x3
    23ed:	4d 89 ec             	mov    r12,r13
    23f0:	49 01 d4             	add    r12,rdx
    23f3:	4c 89 ef             	mov    rdi,r13
    23f6:	48 83 c7 e8          	add    rdi,0xffffffffffffffe8
    23fa:	4c 89 ee             	mov    rsi,r13
    23fd:	48 b8 00 00 00 00 00 	movabs rax,0x0
    2404:	00 00 00 
			23ff: R_X86_64_64	memmove
    2407:	4c 89 bc 24 a8 00 00 	mov    QWORD PTR [rsp+0xa8],r15
    240e:	00 
    240f:	ff d0                	call   rax
    2411:	4c 8b bc 24 a8 00 00 	mov    r15,QWORD PTR [rsp+0xa8]
    2418:	00 
    2419:	48 be 00 00 00 00 00 	movabs rsi,0x0
    2420:	00 00 00 
			241b: R_X86_64_64	callback_return_addr
    2423:	bf 01 00 00 00       	mov    edi,0x1
    2428:	4b 89 7c f5 f8       	mov    QWORD PTR [r13+r14*8-0x8],rdi
    242d:	bf 01 00 00 00       	mov    edi,0x1
    2432:	4b 89 7c f5 f0       	mov    QWORD PTR [r13+r14*8-0x10],rdi
    2437:	4b 89 74 f5 e8       	mov    QWORD PTR [r13+r14*8-0x18],rsi
    243c:	48 8b b4 24 18 08 00 	mov    rsi,QWORD PTR [rsp+0x818]
    2443:	00 
    2444:	4c 89 a6 98 00 00 00 	mov    QWORD PTR [rsi+0x98],r12
    244b:	4c 89 ff             	mov    rdi,r15
    244e:	48 89 de             	mov    rsi,rbx
    2451:	48 b8 00 00 00 00 00 	movabs rax,0x0
    2458:	00 00 00 
			2453: R_X86_64_64	apply_n
    245b:	48 89 bc 24 a0 00 00 	mov    QWORD PTR [rsp+0xa0],rdi
    2462:	00 
    2463:	ff d0                	call   rax
    2465:	48 89 84 24 a0 00 00 	mov    QWORD PTR [rsp+0xa0],rax
    246c:	00 
    246d:	48 8b b4 24 10 08 00 	mov    rsi,QWORD PTR [rsp+0x810]
    2474:	00 
    2475:	48 8b 7e 08          	mov    rdi,QWORD PTR [rsi+0x8]
    2479:	48 8b b4 24 00 08 00 	mov    rsi,QWORD PTR [rsp+0x800]
    2480:	00 
    2481:	48 b8 00 00 00 00 00 	movabs rax,0x0
    2488:	00 00 00 
			2483: R_X86_64_64	apply1
    248b:	48 89 b4 24 a8 00 00 	mov    QWORD PTR [rsp+0xa8],rsi
    2492:	00 
    2493:	48 89 bc 24 b0 00 00 	mov    QWORD PTR [rsp+0xb0],rdi
    249a:	00 
    249b:	ff d0                	call   rax
    249d:	48 89 c3             	mov    rbx,rax
    24a0:	49 89 d6             	mov    r14,rdx
    24a3:	4d 85 f6             	test   r14,r14
    24a6:	0f 85 0d 00 00 00    	jne    24b9 <big_makeblock+0x24b9>
    24ac:	48 89 9c 24 48 02 00 	mov    QWORD PTR [rsp+0x248],rbx
    24b3:	00 
    24b4:	e9 9d 00 00 00       	jmp    2556 <big_makeblock+0x2556>
    24b9:	48 8b b4 24 18 08 00 	mov    rsi,QWORD PTR [rsp+0x818]
    24c0:	00 
    24c1:	4c 8b ae 98 00 00 00 	mov    r13,QWORD PTR [rsi+0x98]
    24c8:	4d 89 f7             	mov    r15,r14
    24cb:	49 83 c7 ff          	add    r15,0xffffffffffffffff
    24cf:	4c 89 f2             	mov    rdx,r14
    24d2:	48 c1 e2 03          	shl    rdx,0x3
    24d6:	4d 89 ec             	mov    r12,r13
    24d9:	49 01 d4             	add    r12,rdx
    24dc:	4c 89 ef             	mov    rdi,r13
    24df:	48 83 c7 e8          	add    rdi,0xffffffffffffffe8
    24e3:	4c 89 ee             	mov    rsi,r13
    24e6:	48 b8 00 00 00 00 00 	movabs rax,0x0
    24ed:	00 00 00 
			24e8: R_X86_64_64	memmove
    24f0:	48 89 9c 24 a8 00 00 	mov    QWORD PTR [rsp+0xa8],rbx
    24f7:	00 
    24f8:	ff d0                	call   rax
    24fa:	48 8b 9c 24 a8 00 00 	mov    rbx,QWORD PTR [rsp+0xa8]
    2501:	00 
    2502:	48 be 00 00 00 00 00 	movabs rsi,0x0
    2509:	00 00 00 
			2504: R_X86_64_64	callback_return_addr
    250c:	bf 01 00 00 00       	mov    edi,0x1
    2511:	4b 89 7c f5 f8       	mov    QWORD PTR [r13+r14*8-0x8],rdi
    2516:	bf 01 00 00 00       	mov    edi,0x1
    251b:	4b 89 7c f5 f0       	mov    QWORD PTR [r13+r14*8-0x10],rdi
    2520:	4b 89 74 f5 e8       	mov    QWORD PTR [r13+r14*8-0x18],rsi
    2525:	48 8b b4 24 18 08 00 	mov    rsi,QWORD PTR [rsp+0x818]
    252c:	00 
    252d:	4c 89 a6 98 00 00 00 	mov    QWORD PTR [rsi+0x98],r12
    2534:	48 89 df             	mov    rdi,rbx
    2537:	4c 89 fe             	mov    rsi,r15
    253a:	48 b8 00 00 00 00 00 	movabs rax,0x0
    2541:	00 00 00 
			253c: R_X86_64_64	apply_n
    2544:	48 89 bc 24 a8 00 00 	mov    QWORD PTR [rsp+0xa8],rdi
    254b:	00 
    254c:	ff d0                	call   rax
    254e:	48 89 84 24 48 02 00 	mov    QWORD PTR [rsp+0x248],rax
    2555:	00 
    2556:	48 8b b4 24 10 08 00 	mov    rsi,QWORD PTR [rsp+0x810]
    255d:	00 
    255e:	48 8b 7e 08          	mov    rdi,QWORD PTR [rsi+0x8]
    2562:	48 8b b4 24 00 08 00 	mov    rsi,QWORD PTR [rsp+0x800]
    2569:	00 
    256a:	48 b8 00 00 00 00 00 	movabs rax,0x0
    2571:	00 00 00 
			256c: R_X86_64_64	apply1
    2574:	48 89 b4 24 a8 00 00 	mov    QWORD PTR [rsp+0xa8],rsi
    257b:	00 
    257c:	48 89 bc 24 b0 00 00 	mov    QWORD PTR [rsp+0xb0],rdi
    2583:	00 
    2584:	ff d0                	call   rax
    2586:	48 89 c3             	mov    rbx,rax
    2589:	49 89 d6             	mov    r14,rdx
    258c:	4d 85 f6             	test   r14,r14
    258f:	0f 85 0d 00 00 00    	jne    25a2 <big_makeblock+0x25a2>
    2595:	48 89 9c 24 a8 00 00 	mov    QWORD PTR [rsp+0xa8],rbx
    259c:	00 
    259d:	e9 9d 00 00 00       	jmp    263f <big_makeblock+0x263f>
    25a2:	48 8b b4 24 18 08 00 	mov    rsi,QWORD PTR [rsp+0x818]
    25a9:	00 
    25aa:	4c 8b ae 98 00 00 00 	mov    r13,QWORD PTR [rsi+0x98]
    25b1:	4d 89 f7             	mov    r15,r14
    25b4:	49 83 c7 ff          	add    r15,0xffffffffffffffff
    25b8:	4c 89 f2             	mov    rdx,r14
    25bb:	48 c1 e2 03          	shl    rdx,0x3
    25bf:	4d 89 ec             	mov    r12,r13
    25c2:	49 01 d4             	add    r12,rdx
    25c5:	4c 89 ef             	mov    rdi,r13
    25c8:	48 83 c7 e8          	add    rdi,0xffffffffffffffe8
    25cc:	4c 89 ee             	mov    rsi,r13
    25cf:	48 b8 00 00 00 00 00 	movabs rax,0x0
    25d6:	00 00 00 
			25d1: R_X86_64_64	memmove
    25d9:	48 89 9c 24 b0 00 00 	mov    QWORD PTR [rsp+0xb0],rbx
    25e0:	00 
    25e1:	ff d0                	call   rax
    25e3:	48 8b 9c 24 b0 00 00 	mov    rbx,QWORD PTR [rsp+0xb0]
    25ea:	00 
    25eb:	48 be 00 00 00 00 00 	movabs rsi,0x0
    25f2:	00 00 00 
			25ed: R_X86_64_64	callback_return_addr
    25f5:	bf 01 00 00 00       	mov    edi,0x1
    25fa:	4b 89 7c f5 f8       	mov    QWORD PTR [r13+r14*8-0x8],rdi
    25ff:	bf 01 00 00 00       	mov    edi,0x1
    2604:	4b 89 7c f5 f0       	mov    QWORD PTR [r13+r14*8-0x10],rdi
    2609:	4b 89 74 f5 e8       	mov    QWORD PTR [r13+r14*8-0x18],rsi
    260e:	48 8b b4 24 18 08 00 	mov    rsi,QWORD PTR [rsp+0x818]
    2615:	00 
    2616:	4c 89 a6 98 00 00 00 	mov    QWORD PTR [rsi+0x98],r12
    261d:	48 89 df             	mov    rdi,rbx
    2620:	4c 89 fe             	mov    rsi,r15
    2623:	48 b8 00 00 00 00 00 	movabs rax,0x0
    262a:	00 00 00 
			2625: R_X86_64_64	apply_n
    262d:	48 89 bc 24 a8 00 00 	mov    QWORD PTR [rsp+0xa8],rdi
    2634:	00 
    2635:	ff d0                	call   rax
    2637:	48 89 84 24 a8 00 00 	mov    QWORD PTR [rsp+0xa8],rax
    263e:	00 
    263f:	48 8b b4 24 10 08 00 	mov    rsi,QWORD PTR [rsp+0x810]
    2646:	00 
    2647:	48 8b 7e 08          	mov    rdi,QWORD PTR [rsi+0x8]
    264b:	48 8b b4 24 00 08 00 	mov    rsi,QWORD PTR [rsp+0x800]
    2652:	00 
    2653:	48 b8 00 00 00 00 00 	movabs rax,0x0
    265a:	00 00 00 
			2655: R_X86_64_64	apply1
    265d:	48 89 b4 24 b0 00 00 	mov    QWORD PTR [rsp+0xb0],rsi
    2664:	00 
    2665:	48 89 bc 24 b8 00 00 	mov    QWORD PTR [rsp+0xb8],rdi
    266c:	00 
    266d:	ff d0                	call   rax
    266f:	49 89 c7             	mov    r15,rax
    2672:	49 89 d6             	mov    r14,rdx
    2675:	4d 85 f6             	test   r14,r14
    2678:	0f 85 0d 00 00 00    	jne    268b <big_makeblock+0x268b>
    267e:	4c 89 bc 24 58 02 00 	mov    QWORD PTR [rsp+0x258],r15
    2685:	00 
    2686:	e9 9d 00 00 00       	jmp    2728 <big_makeblock+0x2728>
    268b:	48 8b b4 24 18 08 00 	mov    rsi,QWORD PTR [rsp+0x818]
    2692:	00 
    2693:	4c 8b ae 98 00 00 00 	mov    r13,QWORD PTR [rsi+0x98]
    269a:	4c 89 f3             	mov    rbx,r14
    269d:	48 83 c3 ff          	add    rbx,0xffffffffffffffff
    26a1:	4c 89 f2             	mov    rdx,r14
    26a4:	48 c1 e2 03          	shl    rdx,0x3
    26a8:	4d 89 ec             	mov    r12,r13
    26ab:	49 01 d4             	add    r12,rdx
    26ae:	4c 89 ef             	mov    rdi,r13
    26b1:	48 83 c7 e8          	add    rdi,0xffffffffffffffe8
    26b5:	4c 89 ee             	mov    rsi,r13
    26b8:	48 b8 00 00 00 00 00 	movabs rax,0x0
    26bf:	00 00 00 
			26ba: R_X86_64_64	memmove
    26c2:	4c 89 bc 24 b0 00 00 	mov    QWORD PTR [rsp+0xb0],r15
    26c9:	00 
    26ca:	ff d0                	call   rax
    26cc:	4c 8b bc 24 b0 00 00 	mov    r15,QWORD PTR [rsp+0xb0]
    26d3:	00 
    26d4:	48 be 00 00 00 00 00 	movabs rsi,0x0
    26db:	00 00 00 
			26d6: R_X86_64_64	callback_return_addr
    26de:	bf 01 00 00 00       	mov    edi,0x1
    26e3:	4b 89 7c f5 f8       	mov    QWORD PTR [r13+r14*8-0x8],rdi
    26e8:	bf 01 00 00 00       	mov    edi,0x1
    26ed:	4b 89 7c f5 f0       	mov    QWORD PTR [r13+r14*8-0x10],rdi
    26f2:	4b 89 74 f5 e8       	mov    QWORD PTR [r13+r14*8-0x18],rsi
    26f7:	48 8b b4 24 18 08 00 	mov    rsi,QWORD PTR [rsp+0x818]
    26fe:	00 
    26ff:	4c 89 a6 98 00 00 00 	mov    QWORD PTR [rsi+0x98],r12
    2706:	4c 89 ff             	mov    rdi,r15
    2709:	48 89 de             	mov    rsi,rbx
    270c:	48 b8 00 00 00 00 00 	movabs rax,0x0
    2713:	00 00 00 
			270e: R_X86_64_64	apply_n
    2716:	48 89 bc 24 b0 00 00 	mov    QWORD PTR [rsp+0xb0],rdi
    271d:	00 
    271e:	ff d0                	call   rax
    2720:	48 89 84 24 58 02 00 	mov    QWORD PTR [rsp+0x258],rax
    2727:	00 
    2728:	48 8b b4 24 10 08 00 	mov    rsi,QWORD PTR [rsp+0x810]
    272f:	00 
    2730:	48 8b 7e 08          	mov    rdi,QWORD PTR [rsi+0x8]
    2734:	48 8b b4 24 00 08 00 	mov    rsi,QWORD PTR [rsp+0x800]
    273b:	00 
    273c:	48 b8 00 00 00 00 00 	movabs rax,0x0
    2743:	00 00 00 
			273e: R_X86_64_64	apply1
    2746:	48 89 b4 24 b0 00 00 	mov    QWORD PTR [rsp+0xb0],rsi
    274d:	00 
    274e:	48 89 bc 24 b8 00 00 	mov    QWORD PTR [rsp+0xb8],rdi
    2755:	00 
    2756:	ff d0                	call   rax
    2758:	48 89 c3             	mov    rbx,rax
    275b:	49 89 d6             	mov    r14,rdx
    275e:	4d 85 f6             	test   r14,r14
    2761:	0f 85 0d 00 00 00    	jne    2774 <big_makeblock+0x2774>
    2767:	48 89 9c 24 b0 00 00 	mov    QWORD PTR [rsp+0xb0],rbx
    276e:	00 
    276f:	e9 9d 00 00 00       	jmp    2811 <big_makeblock+0x2811>
    2774:	48 8b b4 24 18 08 00 	mov    rsi,QWORD PTR [rsp+0x818]
    277b:	00 
    277c:	4c 8b ae 98 00 00 00 	mov    r13,QWORD PTR [rsi+0x98]
    2783:	4d 89 f7             	mov    r15,r14
    2786:	49 83 c7 ff          	add    r15,0xffffffffffffffff
    278a:	4c 89 f2             	mov    rdx,r14
    278d:	48 c1 e2 03          	shl    rdx,0x3
    2791:	4d 89 ec             	mov    r12,r13
    2794:	49 01 d4             	add    r12,rdx
    2797:	4c 89 ef             	mov    rdi,r13
    279a:	48 83 c7 e8          	add    rdi,0xffffffffffffffe8
    279e:	4c 89 ee             	mov    rsi,r13
    27a1:	48 b8 00 00 00 00 00 	movabs rax,0x0
    27a8:	00 00 00 
			27a3: R_X86_64_64	memmove
    27ab:	48 89 9c 24 b8 00 00 	mov    QWORD PTR [rsp+0xb8],rbx
    27b2:	00 
    27b3:	ff d0                	call   rax
    27b5:	48 8b 9c 24 b8 00 00 	mov    rbx,QWORD PTR [rsp+0xb8]
    27bc:	00 
    27bd:	48 be 00 00 00 00 00 	movabs rsi,0x0
    27c4:	00 00 00 
			27bf: R_X86_64_64	callback_return_addr
    27c7:	bf 01 00 00 00       	mov    edi,0x1
    27cc:	4b 89 7c f5 f8       	mov    QWORD PTR [r13+r14*8-0x8],rdi
    27d1:	bf 01 00 00 00       	mov    edi,0x1
    27d6:	4b 89 7c f5 f0       	mov    QWORD PTR [r13+r14*8-0x10],rdi
    27db:	4b 89 74 f5 e8       	mov    QWORD PTR [r13+r14*8-0x18],rsi
    27e0:	48 8b b4 24 18 08 00 	mov    rsi,QWORD PTR [rsp+0x818]
    27e7:	00 
    27e8:	4c 89 a6 98 00 00 00 	mov    QWORD PTR [rsi+0x98],r12
    27ef:	48 89 df             	mov    rdi,rbx
    27f2:	4c 89 fe             	mov    rsi,r15
    27f5:	48 b8 00 00 00 00 00 	movabs rax,0x0
    27fc:	00 00 00 
			27f7: R_X86_64_64	apply_n
    27ff:	48 89 bc 24 b0 00 00 	mov    QWORD PTR [rsp+0xb0],rdi
    2806:	00 
    2807:	ff d0                	call   rax
    2809:	48 89 84 24 b0 00 00 	mov    QWORD PTR [rsp+0xb0],rax
    2810:	00 
    2811:	48 8b b4 24 10 08 00 	mov    rsi,QWORD PTR [rsp+0x810]
    2818:	00 
    2819:	48 8b 7e 08          	mov    rdi,QWORD PTR [rsi+0x8]
    281d:	48 8b b4 24 00 08 00 	mov    rsi,QWORD PTR [rsp+0x800]
    2824:	00 
    2825:	48 b8 00 00 00 00 00 	movabs rax,0x0
    282c:	00 00 00 
			2827: R_X86_64_64	apply1
    282f:	48 89 b4 24 b8 00 00 	mov    QWORD PTR [rsp+0xb8],rsi
    2836:	00 
    2837:	48 89 bc 24 c0 00 00 	mov    QWORD PTR [rsp+0xc0],rdi
    283e:	00 
    283f:	ff d0                	call   rax
    2841:	48 89 c3             	mov    rbx,rax
    2844:	49 89 d6             	mov    r14,rdx
    2847:	4d 85 f6             	test   r14,r14
    284a:	0f 85 0d 00 00 00    	jne    285d <big_makeblock+0x285d>
    2850:	48 89 9c 24 68 02 00 	mov    QWORD PTR [rsp+0x268],rbx
    2857:	00 
    2858:	e9 9d 00 00 00       	jmp    28fa <big_makeblock+0x28fa>
    285d:	48 8b b4 24 18 08 00 	mov    rsi,QWORD PTR [rsp+0x818]
    2864:	00 
    2865:	4c 8b ae 98 00 00 00 	mov    r13,QWORD PTR [rsi+0x98]
    286c:	4d 89 f7             	mov    r15,r14
    286f:	49 83 c7 ff          	add    r15,0xffffffffffffffff
    2873:	4c 89 f2             	mov    rdx,r14
    2876:	48 c1 e2 03          	shl    rdx,0x3
    287a:	4d 89 ec             	mov    r12,r13
    287d:	49 01 d4             	add    r12,rdx
    2880:	4c 89 ef             	mov    rdi,r13
    2883:	48 83 c7 e8          	add    rdi,0xffffffffffffffe8
    2887:	4c 89 ee             	mov    rsi,r13
    288a:	48 b8 00 00 00 00 00 	movabs rax,0x0
    2891:	00 00 00 
			288c: R_X86_64_64	memmove
    2894:	48 89 9c 24 b8 00 00 	mov    QWORD PTR [rsp+0xb8],rbx
    289b:	00 
    289c:	ff d0                	call   rax
    289e:	48 8b 9c 24 b8 00 00 	mov    rbx,QWORD PTR [rsp+0xb8]
    28a5:	00 
    28a6:	48 be 00 00 00 00 00 	movabs rsi,0x0
    28ad:	00 00 00 
			28a8: R_X86_64_64	callback_return_addr
    28b0:	bf 01 00 00 00       	mov    edi,0x1
    28b5:	4b 89 7c f5 f8       	mov    QWORD PTR [r13+r14*8-0x8],rdi
    28ba:	bf 01 00 00 00       	mov    edi,0x1
    28bf:	4b 89 7c f5 f0       	mov    QWORD PTR [r13+r14*8-0x10],rdi
    28c4:	4b 89 74 f5 e8       	mov    QWORD PTR [r13+r14*8-0x18],rsi
    28c9:	48 8b b4 24 18 08 00 	mov    rsi,QWORD PTR [rsp+0x818]
    28d0:	00 
    28d1:	4c 89 a6 98 00 00 00 	mov    QWORD PTR [rsi+0x98],r12
    28d8:	48 89 df             	mov    rdi,rbx
    28db:	4c 89 fe             	mov    rsi,r15
    28de:	48 b8 00 00 00 00 00 	movabs rax,0x0
    28e5:	00 00 00 
			28e0: R_X86_64_64	apply_n
    28e8:	48 89 bc 24 b8 00 00 	mov    QWORD PTR [rsp+0xb8],rdi
    28ef:	00 
    28f0:	ff d0                	call   rax
    28f2:	48 89 84 24 68 02 00 	mov    QWORD PTR [rsp+0x268],rax
    28f9:	00 
    28fa:	48 8b b4 24 10 08 00 	mov    rsi,QWORD PTR [rsp+0x810]
    2901:	00 
    2902:	48 8b 7e 08          	mov    rdi,QWORD PTR [rsi+0x8]
    2906:	48 8b b4 24 00 08 00 	mov    rsi,QWORD PTR [rsp+0x800]
    290d:	00 
    290e:	48 b8 00 00 00 00 00 	movabs rax,0x0
    2915:	00 00 00 
			2910: R_X86_64_64	apply1
    2918:	48 89 b4 24 b8 00 00 	mov    QWORD PTR [rsp+0xb8],rsi
    291f:	00 
    2920:	48 89 bc 24 c0 00 00 	mov    QWORD PTR [rsp+0xc0],rdi
    2927:	00 
    2928:	ff d0                	call   rax
    292a:	49 89 c7             	mov    r15,rax
    292d:	49 89 d6             	mov    r14,rdx
    2930:	4d 85 f6             	test   r14,r14
    2933:	0f 85 0d 00 00 00    	jne    2946 <big_makeblock+0x2946>
    2939:	4c 89 bc 24 b8 00 00 	mov    QWORD PTR [rsp+0xb8],r15
    2940:	00 
    2941:	e9 9d 00 00 00       	jmp    29e3 <big_makeblock+0x29e3>
    2946:	48 8b b4 24 18 08 00 	mov    rsi,QWORD PTR [rsp+0x818]
    294d:	00 
    294e:	4c 8b ae 98 00 00 00 	mov    r13,QWORD PTR [rsi+0x98]
    2955:	4c 89 f3             	mov    rbx,r14
    2958:	48 83 c3 ff          	add    rbx,0xffffffffffffffff
    295c:	4c 89 f2             	mov    rdx,r14
    295f:	48 c1 e2 03          	shl    rdx,0x3
    2963:	4d 89 ec             	mov    r12,r13
    2966:	49 01 d4             	add    r12,rdx
    2969:	4c 89 ef             	mov    rdi,r13
    296c:	48 83 c7 e8          	add    rdi,0xffffffffffffffe8
    2970:	4c 89 ee             	mov    rsi,r13
    2973:	48 b8 00 00 00 00 00 	movabs rax,0x0
    297a:	00 00 00 
			2975: R_X86_64_64	memmove
    297d:	4c 89 bc 24 c0 00 00 	mov    QWORD PTR [rsp+0xc0],r15
    2984:	00 
    2985:	ff d0                	call   rax
    2987:	4c 8b bc 24 c0 00 00 	mov    r15,QWORD PTR [rsp+0xc0]
    298e:	00 
    298f:	48 be 00 00 00 00 00 	movabs rsi,0x0
    2996:	00 00 00 
			2991: R_X86_64_64	callback_return_addr
    2999:	bf 01 00 00 00       	mov    edi,0x1
    299e:	4b 89 7c f5 f8       	mov    QWORD PTR [r13+r14*8-0x8],rdi
    29a3:	bf 01 00 00 00       	mov    edi,0x1
    29a8:	4b 89 7c f5 f0       	mov    QWORD PTR [r13+r14*8-0x10],rdi
    29ad:	4b 89 74 f5 e8       	mov    QWORD PTR [r13+r14*8-0x18],rsi
    29b2:	48 8b b4 24 18 08 00 	mov    rsi,QWORD PTR [rsp+0x818]
    29b9:	00 
    29ba:	4c 89 a6 98 00 00 00 	mov    QWORD PTR [rsi+0x98],r12
    29c1:	4c 89 ff             	mov    rdi,r15
    29c4:	48 89 de             	mov    rsi,rbx
    29c7:	48 b8 00 00 00 00 00 	movabs rax,0x0
    29ce:	00 00 00 
			29c9: R_X86_64_64	apply_n
    29d1:	48 89 bc 24 b8 00 00 	mov    QWORD PTR [rsp+0xb8],rdi
    29d8:	00 
    29d9:	ff d0                	call   rax
    29db:	48 89 84 24 b8 00 00 	mov    QWORD PTR [rsp+0xb8],rax
    29e2:	00 
    29e3:	48 8b b4 24 10 08 00 	mov    rsi,QWORD PTR [rsp+0x810]
    29ea:	00 
    29eb:	48 8b 7e 08          	mov    rdi,QWORD PTR [rsi+0x8]
    29ef:	48 8b b4 24 00 08 00 	mov    rsi,QWORD PTR [rsp+0x800]
    29f6:	00 
    29f7:	48 b8 00 00 00 00 00 	movabs rax,0x0
    29fe:	00 00 00 
			29f9: R_X86_64_64	apply1
    2a01:	48 89 b4 24 c0 00 00 	mov    QWORD PTR [rsp+0xc0],rsi
    2a08:	00 
    2a09:	48 89 bc 24 c8 00 00 	mov    QWORD PTR [rsp+0xc8],rdi
    2a10:	00 
    2a11:	ff d0                	call   rax
    2a13:	48 89 c3             	mov    rbx,rax
    2a16:	49 89 d6             	mov    r14,rdx
    2a19:	4d 85 f6             	test   r14,r14
    2a1c:	0f 85 0d 00 00 00    	jne    2a2f <big_makeblock+0x2a2f>
    2a22:	48 89 9c 24 78 02 00 	mov    QWORD PTR [rsp+0x278],rbx
    2a29:	00 
    2a2a:	e9 9d 00 00 00       	jmp    2acc <big_makeblock+0x2acc>
    2a2f:	48 8b b4 24 18 08 00 	mov    rsi,QWORD PTR [rsp+0x818]
    2a36:	00 
    2a37:	4c 8b ae 98 00 00 00 	mov    r13,QWORD PTR [rsi+0x98]
    2a3e:	4d 89 f7             	mov    r15,r14
    2a41:	49 83 c7 ff          	add    r15,0xffffffffffffffff
    2a45:	4c 89 f2             	mov    rdx,r14
    2a48:	48 c1 e2 03          	shl    rdx,0x3
    2a4c:	4d 89 ec             	mov    r12,r13
    2a4f:	49 01 d4             	add    r12,rdx
    2a52:	4c 89 ef             	mov    rdi,r13
    2a55:	48 83 c7 e8          	add    rdi,0xffffffffffffffe8
    2a59:	4c 89 ee             	mov    rsi,r13
    2a5c:	48 b8 00 00 00 00 00 	movabs rax,0x0
    2a63:	00 00 00 
			2a5e: R_X86_64_64	memmove
    2a66:	48 89 9c 24 c0 00 00 	mov    QWORD PTR [rsp+0xc0],rbx
    2a6d:	00 
    2a6e:	ff d0                	call   rax
    2a70:	48 8b 9c 24 c0 00 00 	mov    rbx,QWORD PTR [rsp+0xc0]
    2a77:	00 
    2a78:	48 be 00 00 00 00 00 	movabs rsi,0x0
    2a7f:	00 00 00 
			2a7a: R_X86_64_64	callback_return_addr
    2a82:	bf 01 00 00 00       	mov    edi,0x1
    2a87:	4b 89 7c f5 f8       	mov    QWORD PTR [r13+r14*8-0x8],rdi
    2a8c:	bf 01 00 00 00       	mov    edi,0x1
    2a91:	4b 89 7c f5 f0       	mov    QWORD PTR [r13+r14*8-0x10],rdi
    2a96:	4b 89 74 f5 e8       	mov    QWORD PTR [r13+r14*8-0x18],rsi
    2a9b:	48 8b b4 24 18 08 00 	mov    rsi,QWORD PTR [rsp+0x818]
    2aa2:	00 
    2aa3:	4c 89 a6 98 00 00 00 	mov    QWORD PTR [rsi+0x98],r12
    2aaa:	48 89 df             	mov    rdi,rbx
    2aad:	4c 89 fe             	mov    rsi,r15
    2ab0:	48 b8 00 00 00 00 00 	movabs rax,0x0
    2ab7:	00 00 00 
			2ab2: R_X86_64_64	apply_n
    2aba:	48 89 bc 24 c0 00 00 	mov    QWORD PTR [rsp+0xc0],rdi
    2ac1:	00 
    2ac2:	ff d0                	call   rax
    2ac4:	48 89 84 24 78 02 00 	mov    QWORD PTR [rsp+0x278],rax
    2acb:	00 
    2acc:	48 8b b4 24 10 08 00 	mov    rsi,QWORD PTR [rsp+0x810]
    2ad3:	00 
    2ad4:	48 8b 7e 08          	mov    rdi,QWORD PTR [rsi+0x8]
    2ad8:	48 8b b4 24 00 08 00 	mov    rsi,QWORD PTR [rsp+0x800]
    2adf:	00 
    2ae0:	48 b8 00 00 00 00 00 	movabs rax,0x0
    2ae7:	00 00 00 
			2ae2: R_X86_64_64	apply1
    2aea:	48 89 b4 24 c0 00 00 	mov    QWORD PTR [rsp+0xc0],rsi
    2af1:	00 
    2af2:	48 89 bc 24 c8 00 00 	mov    QWORD PTR [rsp+0xc8],rdi
    2af9:	00 
    2afa:	ff d0                	call   rax
    2afc:	48 89 c3             	mov    rbx,rax
    2aff:	49 89 d6             	mov    r14,rdx
    2b02:	4d 85 f6             	test   r14,r14
    2b05:	0f 85 0d 00 00 00    	jne    2b18 <big_makeblock+0x2b18>
    2b0b:	48 89 9c 24 c0 00 00 	mov    QWORD PTR [rsp+0xc0],rbx
    2b12:	00 
    2b13:	e9 9d 00 00 00       	jmp    2bb5 <big_makeblock+0x2bb5>
    2b18:	48 8b b4 24 18 08 00 	mov    rsi,QWORD PTR [rsp+0x818]
    2b1f:	00 
    2b20:	4c 8b ae 98 00 00 00 	mov    r13,QWORD PTR [rsi+0x98]
    2b27:	4d 89 f7             	mov    r15,r14
    2b2a:	49 83 c7 ff          	add    r15,0xffffffffffffffff
    2b2e:	4c 89 f2             	mov    rdx,r14
    2b31:	48 c1 e2 03          	shl    rdx,0x3
    2b35:	4d 89 ec             	mov    r12,r13
    2b38:	49 01 d4             	add    r12,rdx
    2b3b:	4c 89 ef             	mov    rdi,r13
    2b3e:	48 83 c7 e8          	add    rdi,0xffffffffffffffe8
    2b42:	4c 89 ee             	mov    rsi,r13
    2b45:	48 b8 00 00 00 00 00 	movabs rax,0x0
    2b4c:	00 00 00 
			2b47: R_X86_64_64	memmove
    2b4f:	48 89 9c 24 c8 00 00 	mov    QWORD PTR [rsp+0xc8],rbx
    2b56:	00 
    2b57:	ff d0                	call   rax
    2b59:	48 8b 9c 24 c8 00 00 	mov    rbx,QWORD PTR [rsp+0xc8]
    2b60:	00 
    2b61:	48 be 00 00 00 00 00 	movabs rsi,0x0
    2b68:	00 00 00 
			2b63: R_X86_64_64	callback_return_addr
    2b6b:	bf 01 00 00 00       	mov    edi,0x1
    2b70:	4b 89 7c f5 f8       	mov    QWORD PTR [r13+r14*8-0x8],rdi
    2b75:	bf 01 00 00 00       	mov    edi,0x1
    2b7a:	4b 89 7c f5 f0       	mov    QWORD PTR [r13+r14*8-0x10],rdi
    2b7f:	4b 89 74 f5 e8       	mov    QWORD PTR [r13+r14*8-0x18],rsi
    2b84:	48 8b b4 24 18 08 00 	mov    rsi,QWORD PTR [rsp+0x818]
    2b8b:	00 
    2b8c:	4c 89 a6 98 00 00 00 	mov    QWORD PTR [rsi+0x98],r12
    2b93:	48 89 df             	mov    rdi,rbx
    2b96:	4c 89 fe             	mov    rsi,r15
    2b99:	48 b8 00 00 00 00 00 	movabs rax,0x0
    2ba0:	00 00 00 
			2b9b: R_X86_64_64	apply_n
    2ba3:	48 89 bc 24 c0 00 00 	mov    QWORD PTR [rsp+0xc0],rdi
    2baa:	00 
    2bab:	ff d0                	call   rax
    2bad:	48 89 84 24 c0 00 00 	mov    QWORD PTR [rsp+0xc0],rax
    2bb4:	00 
    2bb5:	48 8b b4 24 10 08 00 	mov    rsi,QWORD PTR [rsp+0x810]
    2bbc:	00 
    2bbd:	48 8b 7e 08          	mov    rdi,QWORD PTR [rsi+0x8]
    2bc1:	48 8b b4 24 00 08 00 	mov    rsi,QWORD PTR [rsp+0x800]
    2bc8:	00 
    2bc9:	48 b8 00 00 00 00 00 	movabs rax,0x0
    2bd0:	00 00 00 
			2bcb: R_X86_64_64	apply1
    2bd3:	48 89 b4 24 c8 00 00 	mov    QWORD PTR [rsp+0xc8],rsi
    2bda:	00 
    2bdb:	48 89 bc 24 d0 00 00 	mov    QWORD PTR [rsp+0xd0],rdi
    2be2:	00 
    2be3:	ff d0                	call   rax
    2be5:	49 89 c7             	mov    r15,rax
    2be8:	49 89 d6             	mov    r14,rdx
    2beb:	4d 85 f6             	test   r14,r14
    2bee:	0f 85 0d 00 00 00    	jne    2c01 <big_makeblock+0x2c01>
    2bf4:	4c 89 bc 24 88 02 00 	mov    QWORD PTR [rsp+0x288],r15
    2bfb:	00 
    2bfc:	e9 9d 00 00 00       	jmp    2c9e <big_makeblock+0x2c9e>
    2c01:	48 8b b4 24 18 08 00 	mov    rsi,QWORD PTR [rsp+0x818]
    2c08:	00 
    2c09:	4c 8b ae 98 00 00 00 	mov    r13,QWORD PTR [rsi+0x98]
    2c10:	4c 89 f3             	mov    rbx,r14
    2c13:	48 83 c3 ff          	add    rbx,0xffffffffffffffff
    2c17:	4c 89 f2             	mov    rdx,r14
    2c1a:	48 c1 e2 03          	shl    rdx,0x3
    2c1e:	4d 89 ec             	mov    r12,r13
    2c21:	49 01 d4             	add    r12,rdx
    2c24:	4c 89 ef             	mov    rdi,r13
    2c27:	48 83 c7 e8          	add    rdi,0xffffffffffffffe8
    2c2b:	4c 89 ee             	mov    rsi,r13
    2c2e:	48 b8 00 00 00 00 00 	movabs rax,0x0
    2c35:	00 00 00 
			2c30: R_X86_64_64	memmove
    2c38:	4c 89 bc 24 c8 00 00 	mov    QWORD PTR [rsp+0xc8],r15
    2c3f:	00 
    2c40:	ff d0                	call   rax
    2c42:	4c 8b bc 24 c8 00 00 	mov    r15,QWORD PTR [rsp+0xc8]
    2c49:	00 
    2c4a:	48 be 00 00 00 00 00 	movabs rsi,0x0
    2c51:	00 00 00 
			2c4c: R_X86_64_64	callback_return_addr
    2c54:	bf 01 00 00 00       	mov    edi,0x1
    2c59:	4b 89 7c f5 f8       	mov    QWORD PTR [r13+r14*8-0x8],rdi
    2c5e:	bf 01 00 00 00       	mov    edi,0x1
    2c63:	4b 89 7c f5 f0       	mov    QWORD PTR [r13+r14*8-0x10],rdi
    2c68:	4b 89 74 f5 e8       	mov    QWORD PTR [r13+r14*8-0x18],rsi
    2c6d:	48 8b b4 24 18 08 00 	mov    rsi,QWORD PTR [rsp+0x818]
    2c74:	00 
    2c75:	4c 89 a6 98 00 00 00 	mov    QWORD PTR [rsi+0x98],r12
    2c7c:	4c 89 ff             	mov    rdi,r15
    2c7f:	48 89 de             	mov    rsi,rbx
    2c82:	48 b8 00 00 00 00 00 	movabs rax,0x0
    2c89:	00 00 00 
			2c84: R_X86_64_64	apply_n
    2c8c:	48 89 bc 24 c8 00 00 	mov    QWORD PTR [rsp+0xc8],rdi
    2c93:	00 
    2c94:	ff d0                	call   rax
    2c96:	48 89 84 24 88 02 00 	mov    QWORD PTR [rsp+0x288],rax
    2c9d:	00 
    2c9e:	48 8b b4 24 10 08 00 	mov    rsi,QWORD PTR [rsp+0x810]
    2ca5:	00 
    2ca6:	48 8b 7e 08          	mov    rdi,QWORD PTR [rsi+0x8]
    2caa:	48 8b b4 24 00 08 00 	mov    rsi,QWORD PTR [rsp+0x800]
    2cb1:	00 
    2cb2:	48 b8 00 00 00 00 00 	movabs rax,0x0
    2cb9:	00 00 00 
			2cb4: R_X86_64_64	apply1
    2cbc:	48 89 b4 24 c8 00 00 	mov    QWORD PTR [rsp+0xc8],rsi
    2cc3:	00 
    2cc4:	48 89 bc 24 d0 00 00 	mov    QWORD PTR [rsp+0xd0],rdi
    2ccb:	00 
    2ccc:	ff d0                	call   rax
    2cce:	48 89 c3             	mov    rbx,rax
    2cd1:	49 89 d6             	mov    r14,rdx
    2cd4:	4d 85 f6             	test   r14,r14
    2cd7:	0f 85 0d 00 00 00    	jne    2cea <big_makeblock+0x2cea>
    2cdd:	48 89 9c 24 c8 00 00 	mov    QWORD PTR [rsp+0xc8],rbx
    2ce4:	00 
    2ce5:	e9 9d 00 00 00       	jmp    2d87 <big_makeblock+0x2d87>
    2cea:	48 8b b4 24 18 08 00 	mov    rsi,QWORD PTR [rsp+0x818]
    2cf1:	00 
    2cf2:	4c 8b ae 98 00 00 00 	mov    r13,QWORD PTR [rsi+0x98]
    2cf9:	4d 89 f7             	mov    r15,r14
    2cfc:	49 83 c7 ff          	add    r15,0xffffffffffffffff
    2d00:	4c 89 f2             	mov    rdx,r14
    2d03:	48 c1 e2 03          	shl    rdx,0x3
    2d07:	4d 89 ec             	mov    r12,r13
    2d0a:	49 01 d4             	add    r12,rdx
    2d0d:	4c 89 ef             	mov    rdi,r13
    2d10:	48 83 c7 e8          	add    rdi,0xffffffffffffffe8
    2d14:	4c 89 ee             	mov    rsi,r13
    2d17:	48 b8 00 00 00 00 00 	movabs rax,0x0
    2d1e:	00 00 00 
			2d19: R_X86_64_64	memmove
    2d21:	48 89 9c 24 d0 00 00 	mov    QWORD PTR [rsp+0xd0],rbx
    2d28:	00 
    2d29:	ff d0                	call   rax
    2d2b:	48 8b 9c 24 d0 00 00 	mov    rbx,QWORD PTR [rsp+0xd0]
    2d32:	00 
    2d33:	48 be 00 00 00 00 00 	movabs rsi,0x0
    2d3a:	00 00 00 
			2d35: R_X86_64_64	callback_return_addr
    2d3d:	bf 01 00 00 00       	mov    edi,0x1
    2d42:	4b 89 7c f5 f8       	mov    QWORD PTR [r13+r14*8-0x8],rdi
    2d47:	bf 01 00 00 00       	mov    edi,0x1
    2d4c:	4b 89 7c f5 f0       	mov    QWORD PTR [r13+r14*8-0x10],rdi
    2d51:	4b 89 74 f5 e8       	mov    QWORD PTR [r13+r14*8-0x18],rsi
    2d56:	48 8b b4 24 18 08 00 	mov    rsi,QWORD PTR [rsp+0x818]
    2d5d:	00 
    2d5e:	4c 89 a6 98 00 00 00 	mov    QWORD PTR [rsi+0x98],r12
    2d65:	48 89 df             	mov    rdi,rbx
    2d68:	4c 89 fe             	mov    rsi,r15
    2d6b:	48 b8 00 00 00 00 00 	movabs rax,0x0
    2d72:	00 00 00 
			2d6d: R_X86_64_64	apply_n
    2d75:	48 89 bc 24 c8 00 00 	mov    QWORD PTR [rsp+0xc8],rdi
    2d7c:	00 
    2d7d:	ff d0                	call   rax
    2d7f:	48 89 84 24 c8 00 00 	mov    QWORD PTR [rsp+0xc8],rax
    2d86:	00 
    2d87:	48 8b b4 24 10 08 00 	mov    rsi,QWORD PTR [rsp+0x810]
    2d8e:	00 
    2d8f:	48 8b 7e 08          	mov    rdi,QWORD PTR [rsi+0x8]
    2d93:	48 8b b4 24 00 08 00 	mov    rsi,QWORD PTR [rsp+0x800]
    2d9a:	00 
    2d9b:	48 b8 00 00 00 00 00 	movabs rax,0x0
    2da2:	00 00 00 
			2d9d: R_X86_64_64	apply1
    2da5:	48 89 b4 24 d0 00 00 	mov    QWORD PTR [rsp+0xd0],rsi
    2dac:	00 
    2dad:	48 89 bc 24 d8 00 00 	mov    QWORD PTR [rsp+0xd8],rdi
    2db4:	00 
    2db5:	ff d0                	call   rax
    2db7:	48 89 c3             	mov    rbx,rax
    2dba:	49 89 d6             	mov    r14,rdx
    2dbd:	4d 85 f6             	test   r14,r14
    2dc0:	0f 85 0d 00 00 00    	jne    2dd3 <big_makeblock+0x2dd3>
    2dc6:	48 89 9c 24 98 02 00 	mov    QWORD PTR [rsp+0x298],rbx
    2dcd:	00 
    2dce:	e9 9d 00 00 00       	jmp    2e70 <big_makeblock+0x2e70>
    2dd3:	48 8b b4 24 18 08 00 	mov    rsi,QWORD PTR [rsp+0x818]
    2dda:	00 
    2ddb:	4c 8b ae 98 00 00 00 	mov    r13,QWORD PTR [rsi+0x98]
    2de2:	4d 89 f7             	mov    r15,r14
    2de5:	49 83 c7 ff          	add    r15,0xffffffffffffffff
    2de9:	4c 89 f2             	mov    rdx,r14
    2dec:	48 c1 e2 03          	shl    rdx,0x3
    2df0:	4d 89 ec             	mov    r12,r13
    2df3:	49 01 d4             	add    r12,rdx
    2df6:	4c 89 ef             	mov    rdi,r13
    2df9:	48 83 c7 e8          	add    rdi,0xffffffffffffffe8
    2dfd:	4c 89 ee             	mov    rsi,r13
    2e00:	48 b8 00 00 00 00 00 	movabs rax,0x0
    2e07:	00 00 00 
			2e02: R_X86_64_64	memmove
    2e0a:	48 89 9c 24 d0 00 00 	mov    QWORD PTR [rsp+0xd0],rbx
    2e11:	00 
    2e12:	ff d0                	call   rax
    2e14:	48 8b 9c 24 d0 00 00 	mov    rbx,QWORD PTR [rsp+0xd0]
    2e1b:	00 
    2e1c:	48 be 00 00 00 00 00 	movabs rsi,0x0
    2e23:	00 00 00 
			2e1e: R_X86_64_64	callback_return_addr
    2e26:	bf 01 00 00 00       	mov    edi,0x1
    2e2b:	4b 89 7c f5 f8       	mov    QWORD PTR [r13+r14*8-0x8],rdi
    2e30:	bf 01 00 00 00       	mov    edi,0x1
    2e35:	4b 89 7c f5 f0       	mov    QWORD PTR [r13+r14*8-0x10],rdi
    2e3a:	4b 89 74 f5 e8       	mov    QWORD PTR [r13+r14*8-0x18],rsi
    2e3f:	48 8b b4 24 18 08 00 	mov    rsi,QWORD PTR [rsp+0x818]
    2e46:	00 
    2e47:	4c 89 a6 98 00 00 00 	mov    QWORD PTR [rsi+0x98],r12
    2e4e:	48 89 df             	mov    rdi,rbx
    2e51:	4c 89 fe             	mov    rsi,r15
    2e54:	48 b8 00 00 00 00 00 	movabs rax,0x0
    2e5b:	00 00 00 
			2e56: R_X86_64_64	apply_n
    2e5e:	48 89 bc 24 d0 00 00 	mov    QWORD PTR [rsp+0xd0],rdi
    2e65:	00 
    2e66:	ff d0                	call   rax
    2e68:	48 89 84 24 98 02 00 	mov    QWORD PTR [rsp+0x298],rax
    2e6f:	00 
    2e70:	48 8b b4 24 10 08 00 	mov    rsi,QWORD PTR [rsp+0x810]
    2e77:	00 
    2e78:	48 8b 7e 08          	mov    rdi,QWORD PTR [rsi+0x8]
    2e7c:	48 8b b4 24 00 08 00 	mov    rsi,QWORD PTR [rsp+0x800]
    2e83:	00 
    2e84:	48 b8 00 00 00 00 00 	movabs rax,0x0
    2e8b:	00 00 00 
			2e86: R_X86_64_64	apply1
    2e8e:	48 89 b4 24 d0 00 00 	mov    QWORD PTR [rsp+0xd0],rsi
    2e95:	00 
    2e96:	48 89 bc 24 d8 00 00 	mov    QWORD PTR [rsp+0xd8],rdi
    2e9d:	00 
    2e9e:	ff d0                	call   rax
    2ea0:	49 89 c7             	mov    r15,rax
    2ea3:	49 89 d6             	mov    r14,rdx
    2ea6:	4d 85 f6             	test   r14,r14
    2ea9:	0f 85 0d 00 00 00    	jne    2ebc <big_makeblock+0x2ebc>
    2eaf:	4c 89 bc 24 d0 00 00 	mov    QWORD PTR [rsp+0xd0],r15
    2eb6:	00 
    2eb7:	e9 9d 00 00 00       	jmp    2f59 <big_makeblock+0x2f59>
    2ebc:	48 8b b4 24 18 08 00 	mov    rsi,QWORD PTR [rsp+0x818]
    2ec3:	00 
    2ec4:	4c 8b ae 98 00 00 00 	mov    r13,QWORD PTR [rsi+0x98]
    2ecb:	4c 89 f3             	mov    rbx,r14
    2ece:	48 83 c3 ff          	add    rbx,0xffffffffffffffff
    2ed2:	4c 89 f2             	mov    rdx,r14
    2ed5:	48 c1 e2 03          	shl    rdx,0x3
    2ed9:	4d 89 ec             	mov    r12,r13
    2edc:	49 01 d4             	add    r12,rdx
    2edf:	4c 89 ef             	mov    rdi,r13
    2ee2:	48 83 c7 e8          	add    rdi,0xffffffffffffffe8
    2ee6:	4c 89 ee             	mov    rsi,r13
    2ee9:	48 b8 00 00 00 00 00 	movabs rax,0x0
    2ef0:	00 00 00 
			2eeb: R_X86_64_64	memmove
    2ef3:	4c 89 bc 24 d8 00 00 	mov    QWORD PTR [rsp+0xd8],r15
    2efa:	00 
    2efb:	ff d0                	call   rax
    2efd:	4c 8b bc 24 d8 00 00 	mov    r15,QWORD PTR [rsp+0xd8]
    2f04:	00 
    2f05:	48 be 00 00 00 00 00 	movabs rsi,0x0
    2f0c:	00 00 00 
			2f07: R_X86_64_64	callback_return_addr
    2f0f:	bf 01 00 00 00       	mov    edi,0x1
    2f14:	4b 89 7c f5 f8       	mov    QWORD PTR [r13+r14*8-0x8],rdi
    2f19:	bf 01 00 00 00       	mov    edi,0x1
    2f1e:	4b 89 7c f5 f0       	mov    QWORD PTR [r13+r14*8-0x10],rdi
    2f23:	4b 89 74 f5 e8       	mov    QWORD PTR [r13+r14*8-0x18],rsi
    2f28:	48 8b b4 24 18 08 00 	mov    rsi,QWORD PTR [rsp+0x818]
    2f2f:	00 
    2f30:	4c 89 a6 98 00 00 00 	mov    QWORD PTR [rsi+0x98],r12
    2f37:	4c 89 ff             	mov    rdi,r15
    2f3a:	48 89 de             	mov    rsi,rbx
    2f3d:	48 b8 00 00 00 00 00 	movabs rax,0x0
    2f44:	00 00 00 
			2f3f: R_X86_64_64	apply_n
    2f47:	48 89 bc 24 d0 00 00 	mov    QWORD PTR [rsp+0xd0],rdi
    2f4e:	00 
    2f4f:	ff d0                	call   rax
    2f51:	48 89 84 24 d0 00 00 	mov    QWORD PTR [rsp+0xd0],rax
    2f58:	00 
    2f59:	48 8b b4 24 10 08 00 	mov    rsi,QWORD PTR [rsp+0x810]
    2f60:	00 
    2f61:	48 8b 7e 08          	mov    rdi,QWORD PTR [rsi+0x8]
    2f65:	48 8b b4 24 00 08 00 	mov    rsi,QWORD PTR [rsp+0x800]
    2f6c:	00 
    2f6d:	48 b8 00 00 00 00 00 	movabs rax,0x0
    2f74:	00 00 00 
			2f6f: R_X86_64_64	apply1
    2f77:	48 89 b4 24 d8 00 00 	mov    QWORD PTR [rsp+0xd8],rsi
    2f7e:	00 
    2f7f:	48 89 bc 24 e0 00 00 	mov    QWORD PTR [rsp+0xe0],rdi
    2f86:	00 
    2f87:	ff d0                	call   rax
    2f89:	48 89 c3             	mov    rbx,rax
    2f8c:	49 89 d6             	mov    r14,rdx
    2f8f:	4d 85 f6             	test   r14,r14
    2f92:	0f 85 0d 00 00 00    	jne    2fa5 <big_makeblock+0x2fa5>
    2f98:	48 89 9c 24 a8 02 00 	mov    QWORD PTR [rsp+0x2a8],rbx
    2f9f:	00 
    2fa0:	e9 9d 00 00 00       	jmp    3042 <big_makeblock+0x3042>
    2fa5:	48 8b b4 24 18 08 00 	mov    rsi,QWORD PTR [rsp+0x818]
    2fac:	00 
    2fad:	4c 8b ae 98 00 00 00 	mov    r13,QWORD PTR [rsi+0x98]
    2fb4:	4d 89 f7             	mov    r15,r14
    2fb7:	49 83 c7 ff          	add    r15,0xffffffffffffffff
    2fbb:	4c 89 f2             	mov    rdx,r14
    2fbe:	48 c1 e2 03          	shl    rdx,0x3
    2fc2:	4d 89 ec             	mov    r12,r13
    2fc5:	49 01 d4             	add    r12,rdx
    2fc8:	4c 89 ef             	mov    rdi,r13
    2fcb:	48 83 c7 e8          	add    rdi,0xffffffffffffffe8
    2fcf:	4c 89 ee             	mov    rsi,r13
    2fd2:	48 b8 00 00 00 00 00 	movabs rax,0x0
    2fd9:	00 00 00 
			2fd4: R_X86_64_64	memmove
    2fdc:	48 89 9c 24 d8 00 00 	mov    QWORD PTR [rsp+0xd8],rbx
    2fe3:	00 
    2fe4:	ff d0                	call   rax
    2fe6:	48 8b 9c 24 d8 00 00 	mov    rbx,QWORD PTR [rsp+0xd8]
    2fed:	00 
    2fee:	48 be 00 00 00 00 00 	movabs rsi,0x0
    2ff5:	00 00 00 
			2ff0: R_X86_64_64	callback_return_addr
    2ff8:	bf 01 00 00 00       	mov    edi,0x1
    2ffd:	4b 89 7c f5 f8       	mov    QWORD PTR [r13+r14*8-0x8],rdi
    3002:	bf 01 00 00 00       	mov    edi,0x1
    3007:	4b 89 7c f5 f0       	mov    QWORD PTR [r13+r14*8-0x10],rdi
    300c:	4b 89 74 f5 e8       	mov    QWORD PTR [r13+r14*8-0x18],rsi
    3011:	48 8b b4 24 18 08 00 	mov    rsi,QWORD PTR [rsp+0x818]
    3018:	00 
    3019:	4c 89 a6 98 00 00 00 	mov    QWORD PTR [rsi+0x98],r12
    3020:	48 89 df             	mov    rdi,rbx
    3023:	4c 89 fe             	mov    rsi,r15
    3026:	48 b8 00 00 00 00 00 	movabs rax,0x0
    302d:	00 00 00 
			3028: R_X86_64_64	apply_n
    3030:	48 89 bc 24 d8 00 00 	mov    QWORD PTR [rsp+0xd8],rdi
    3037:	00 
    3038:	ff d0                	call   rax
    303a:	48 89 84 24 a8 02 00 	mov    QWORD PTR [rsp+0x2a8],rax
    3041:	00 
    3042:	48 8b b4 24 10 08 00 	mov    rsi,QWORD PTR [rsp+0x810]
    3049:	00 
    304a:	48 8b 7e 08          	mov    rdi,QWORD PTR [rsi+0x8]
    304e:	48 8b b4 24 00 08 00 	mov    rsi,QWORD PTR [rsp+0x800]
    3055:	00 
    3056:	48 b8 00 00 00 00 00 	movabs rax,0x0
    305d:	00 00 00 
			3058: R_X86_64_64	apply1
    3060:	48 89 b4 24 d8 00 00 	mov    QWORD PTR [rsp+0xd8],rsi
    3067:	00 
    3068:	48 89 bc 24 e0 00 00 	mov    QWORD PTR [rsp+0xe0],rdi
    306f:	00 
    3070:	ff d0                	call   rax
    3072:	48 89 c3             	mov    rbx,rax
    3075:	49 89 d6             	mov    r14,rdx
    3078:	4d 85 f6             	test   r14,r14
    307b:	0f 85 0d 00 00 00    	jne    308e <big_makeblock+0x308e>
    3081:	48 89 9c 24 d8 00 00 	mov    QWORD PTR [rsp+0xd8],rbx
    3088:	00 
    3089:	e9 9d 00 00 00       	jmp    312b <big_makeblock+0x312b>
    308e:	48 8b b4 24 18 08 00 	mov    rsi,QWORD PTR [rsp+0x818]
    3095:	00 
    3096:	4c 8b ae 98 00 00 00 	mov    r13,QWORD PTR [rsi+0x98]
    309d:	4d 89 f7             	mov    r15,r14
    30a0:	49 83 c7 ff          	add    r15,0xffffffffffffffff
    30a4:	4c 89 f2             	mov    rdx,r14
    30a7:	48 c1 e2 03          	shl    rdx,0x3
    30ab:	4d 89 ec             	mov    r12,r13
    30ae:	49 01 d4             	add    r12,rdx
    30b1:	4c 89 ef             	mov    rdi,r13
    30b4:	48 83 c7 e8          	add    rdi,0xffffffffffffffe8
    30b8:	4c 89 ee             	mov    rsi,r13
    30bb:	48 b8 00 00 00 00 00 	movabs rax,0x0
    30c2:	00 00 00 
			30bd: R_X86_64_64	memmove
    30c5:	48 89 9c 24 e0 00 00 	mov    QWORD PTR [rsp+0xe0],rbx
    30cc:	00 
    30cd:	ff d0                	call   rax
    30cf:	48 8b 9c 24 e0 00 00 	mov    rbx,QWORD PTR [rsp+0xe0]
    30d6:	00 
    30d7:	48 be 00 00 00 00 00 	movabs rsi,0x0
    30de:	00 00 00 
			30d9: R_X86_64_64	callback_return_addr
    30e1:	bf 01 00 00 00       	mov    edi,0x1
    30e6:	4b 89 7c f5 f8       	mov    QWORD PTR [r13+r14*8-0x8],rdi
    30eb:	bf 01 00 00 00       	mov    edi,0x1
    30f0:	4b 89 7c f5 f0       	mov    QWORD PTR [r13+r14*8-0x10],rdi
    30f5:	4b 89 74 f5 e8       	mov    QWORD PTR [r13+r14*8-0x18],rsi
    30fa:	48 8b b4 24 18 08 00 	mov    rsi,QWORD PTR [rsp+0x818]
    3101:	00 
    3102:	4c 89 a6 98 00 00 00 	mov    QWORD PTR [rsi+0x98],r12
    3109:	48 89 df             	mov    rdi,rbx
    310c:	4c 89 fe             	mov    rsi,r15
    310f:	48 b8 00 00 00 00 00 	movabs rax,0x0
    3116:	00 00 00 
			3111: R_X86_64_64	apply_n
    3119:	48 89 bc 24 d8 00 00 	mov    QWORD PTR [rsp+0xd8],rdi
    3120:	00 
    3121:	ff d0                	call   rax
    3123:	48 89 84 24 d8 00 00 	mov    QWORD PTR [rsp+0xd8],rax
    312a:	00 
    312b:	48 8b b4 24 10 08 00 	mov    rsi,QWORD PTR [rsp+0x810]
    3132:	00 
    3133:	48 8b 7e 08          	mov    rdi,QWORD PTR [rsi+0x8]
    3137:	48 8b b4 24 00 08 00 	mov    rsi,QWORD PTR [rsp+0x800]
    313e:	00 
    313f:	48 b8 00 00 00 00 00 	movabs rax,0x0
    3146:	00 00 00 
			3141: R_X86_64_64	apply1
    3149:	48 89 b4 24 e0 00 00 	mov    QWORD PTR [rsp+0xe0],rsi
    3150:	00 
    3151:	48 89 bc 24 e8 00 00 	mov    QWORD PTR [rsp+0xe8],rdi
    3158:	00 
    3159:	ff d0                	call   rax
    315b:	49 89 c7             	mov    r15,rax
    315e:	49 89 d6             	mov    r14,rdx
    3161:	4d 85 f6             	test   r14,r14
    3164:	0f 85 0d 00 00 00    	jne    3177 <big_makeblock+0x3177>
    316a:	4c 89 bc 24 b8 02 00 	mov    QWORD PTR [rsp+0x2b8],r15
    3171:	00 
    3172:	e9 9d 00 00 00       	jmp    3214 <big_makeblock+0x3214>
    3177:	48 8b b4 24 18 08 00 	mov    rsi,QWORD PTR [rsp+0x818]
    317e:	00 
    317f:	4c 8b ae 98 00 00 00 	mov    r13,QWORD PTR [rsi+0x98]
    3186:	4c 89 f3             	mov    rbx,r14
    3189:	48 83 c3 ff          	add    rbx,0xffffffffffffffff
    318d:	4c 89 f2             	mov    rdx,r14
    3190:	48 c1 e2 03          	shl    rdx,0x3
    3194:	4d 89 ec             	mov    r12,r13
    3197:	49 01 d4             	add    r12,rdx
    319a:	4c 89 ef             	mov    rdi,r13
    319d:	48 83 c7 e8          	add    rdi,0xffffffffffffffe8
    31a1:	4c 89 ee             	mov    rsi,r13
    31a4:	48 b8 00 00 00 00 00 	movabs rax,0x0
    31ab:	00 00 00 
			31a6: R_X86_64_64	memmove
    31ae:	4c 89 bc 24 e0 00 00 	mov    QWORD PTR [rsp+0xe0],r15
    31b5:	00 
    31b6:	ff d0                	call   rax
    31b8:	4c 8b bc 24 e0 00 00 	mov    r15,QWORD PTR [rsp+0xe0]
    31bf:	00 
    31c0:	48 be 00 00 00 00 00 	movabs rsi,0x0
    31c7:	00 00 00 
			31c2: R_X86_64_64	callback_return_addr
    31ca:	bf 01 00 00 00       	mov    edi,0x1
    31cf:	4b 89 7c f5 f8       	mov    QWORD PTR [r13+r14*8-0x8],rdi
    31d4:	bf 01 00 00 00       	mov    edi,0x1
    31d9:	4b 89 7c f5 f0       	mov    QWORD PTR [r13+r14*8-0x10],rdi
    31de:	4b 89 74 f5 e8       	mov    QWORD PTR [r13+r14*8-0x18],rsi
    31e3:	48 8b b4 24 18 08 00 	mov    rsi,QWORD PTR [rsp+0x818]
    31ea:	00 
    31eb:	4c 89 a6 98 00 00 00 	mov    QWORD PTR [rsi+0x98],r12
    31f2:	4c 89 ff             	mov    rdi,r15
    31f5:	48 89 de             	mov    rsi,rbx
    31f8:	48 b8 00 00 00 00 00 	movabs rax,0x0
    31ff:	00 00 00 
			31fa: R_X86_64_64	apply_n
    3202:	48 89 bc 24 e0 00 00 	mov    QWORD PTR [rsp+0xe0],rdi
    3209:	00 
    320a:	ff d0                	call   rax
    320c:	48 89 84 24 b8 02 00 	mov    QWORD PTR [rsp+0x2b8],rax
    3213:	00 
    3214:	48 8b b4 24 10 08 00 	mov    rsi,QWORD PTR [rsp+0x810]
    321b:	00 
    321c:	48 8b 7e 08          	mov    rdi,QWORD PTR [rsi+0x8]
    3220:	48 8b b4 24 00 08 00 	mov    rsi,QWORD PTR [rsp+0x800]
    3227:	00 
    3228:	48 b8 00 00 00 00 00 	movabs rax,0x0
    322f:	00 00 00 
			322a: R_X86_64_64	apply1
    3232:	48 89 b4 24 e0 00 00 	mov    QWORD PTR [rsp+0xe0],rsi
    3239:	00 
    323a:	48 89 bc 24 e8 00 00 	mov    QWORD PTR [rsp+0xe8],rdi
    3241:	00 
    3242:	ff d0                	call   rax
    3244:	48 89 c3             	mov    rbx,rax
    3247:	49 89 d6             	mov    r14,rdx
    324a:	4d 85 f6             	test   r14,r14
    324d:	0f 85 0d 00 00 00    	jne    3260 <big_makeblock+0x3260>
    3253:	48 89 9c 24 e0 00 00 	mov    QWORD PTR [rsp+0xe0],rbx
    325a:	00 
    325b:	e9 9d 00 00 00       	jmp    32fd <big_makeblock+0x32fd>
    3260:	48 8b b4 24 18 08 00 	mov    rsi,QWORD PTR [rsp+0x818]
    3267:	00 
    3268:	4c 8b ae 98 00 00 00 	mov    r13,QWORD PTR [rsi+0x98]
    326f:	4d 89 f7             	mov    r15,r14
    3272:	49 83 c7 ff          	add    r15,0xffffffffffffffff
    3276:	4c 89 f2             	mov    rdx,r14
    3279:	48 c1 e2 03          	shl    rdx,0x3
    327d:	4d 89 ec             	mov    r12,r13
    3280:	49 01 d4             	add    r12,rdx
    3283:	4c 89 ef             	mov    rdi,r13
    3286:	48 83 c7 e8          	add    rdi,0xffffffffffffffe8
    328a:	4c 89 ee             	mov    rsi,r13
    328d:	48 b8 00 00 00 00 00 	movabs rax,0x0
    3294:	00 00 00 
			328f: R_X86_64_64	memmove
    3297:	48 89 9c 24 e8 00 00 	mov    QWORD PTR [rsp+0xe8],rbx
    329e:	00 
    329f:	ff d0                	call   rax
    32a1:	48 8b 9c 24 e8 00 00 	mov    rbx,QWORD PTR [rsp+0xe8]
    32a8:	00 
    32a9:	48 be 00 00 00 00 00 	movabs rsi,0x0
    32b0:	00 00 00 
			32ab: R_X86_64_64	callback_return_addr
    32b3:	bf 01 00 00 00       	mov    edi,0x1
    32b8:	4b 89 7c f5 f8       	mov    QWORD PTR [r13+r14*8-0x8],rdi
    32bd:	bf 01 00 00 00       	mov    edi,0x1
    32c2:	4b 89 7c f5 f0       	mov    QWORD PTR [r13+r14*8-0x10],rdi
    32c7:	4b 89 74 f5 e8       	mov    QWORD PTR [r13+r14*8-0x18],rsi
    32cc:	48 8b b4 24 18 08 00 	mov    rsi,QWORD PTR [rsp+0x818]
    32d3:	00 
    32d4:	4c 89 a6 98 00 00 00 	mov    QWORD PTR [rsi+0x98],r12
    32db:	48 89 df             	mov    rdi,rbx
    32de:	4c 89 fe             	mov    rsi,r15
    32e1:	48 b8 00 00 00 00 00 	movabs rax,0x0
    32e8:	00 00 00 
			32e3: R_X86_64_64	apply_n
    32eb:	48 89 bc 24 e0 00 00 	mov    QWORD PTR [rsp+0xe0],rdi
    32f2:	00 
    32f3:	ff d0                	call   rax
    32f5:	48 89 84 24 e0 00 00 	mov    QWORD PTR [rsp+0xe0],rax
    32fc:	00 
    32fd:	48 8b b4 24 10 08 00 	mov    rsi,QWORD PTR [rsp+0x810]
    3304:	00 
    3305:	48 8b 7e 08          	mov    rdi,QWORD PTR [rsi+0x8]
    3309:	48 8b b4 24 00 08 00 	mov    rsi,QWORD PTR [rsp+0x800]
    3310:	00 
    3311:	48 b8 00 00 00 00 00 	movabs rax,0x0
    3318:	00 00 00 
			3313: R_X86_64_64	apply1
    331b:	48 89 b4 24 e8 00 00 	mov    QWORD PTR [rsp+0xe8],rsi
    3322:	00 
    3323:	48 89 bc 24 f0 00 00 	mov    QWORD PTR [rsp+0xf0],rdi
    332a:	00 
    332b:	ff d0                	call   rax
    332d:	48 89 c3             	mov    rbx,rax
    3330:	49 89 d6             	mov    r14,rdx
    3333:	4d 85 f6             	test   r14,r14
    3336:	0f 85 0d 00 00 00    	jne    3349 <big_makeblock+0x3349>
    333c:	48 89 9c 24 c8 02 00 	mov    QWORD PTR [rsp+0x2c8],rbx
    3343:	00 
    3344:	e9 9d 00 00 00       	jmp    33e6 <big_makeblock+0x33e6>
    3349:	48 8b b4 24 18 08 00 	mov    rsi,QWORD PTR [rsp+0x818]
    3350:	00 
    3351:	4c 8b ae 98 00 00 00 	mov    r13,QWORD PTR [rsi+0x98]
    3358:	4d 89 f7             	mov    r15,r14
    335b:	49 83 c7 ff          	add    r15,0xffffffffffffffff
    335f:	4c 89 f2             	mov    rdx,r14
    3362:	48 c1 e2 03          	shl    rdx,0x3
    3366:	4d 89 ec             	mov    r12,r13
    3369:	49 01 d4             	add    r12,rdx
    336c:	4c 89 ef             	mov    rdi,r13
    336f:	48 83 c7 e8          	add    rdi,0xffffffffffffffe8
    3373:	4c 89 ee             	mov    rsi,r13
    3376:	48 b8 00 00 00 00 00 	movabs rax,0x0
    337d:	00 00 00 
			3378: R_X86_64_64	memmove
    3380:	48 89 9c 24 e8 00 00 	mov    QWORD PTR [rsp+0xe8],rbx
    3387:	00 
    3388:	ff d0                	call   rax
    338a:	48 8b 9c 24 e8 00 00 	mov    rbx,QWORD PTR [rsp+0xe8]
    3391:	00 
    3392:	48 be 00 00 00 00 00 	movabs rsi,0x0
    3399:	00 00 00 
			3394: R_X86_64_64	callback_return_addr
    339c:	bf 01 00 00 00       	mov    edi,0x1
    33a1:	4b 89 7c f5 f8       	mov    QWORD PTR [r13+r14*8-0x8],rdi
    33a6:	bf 01 00 00 00       	mov    edi,0x1
    33ab:	4b 89 7c f5 f0       	mov    QWORD PTR [r13+r14*8-0x10],rdi
    33b0:	4b 89 74 f5 e8       	mov    QWORD PTR [r13+r14*8-0x18],rsi
    33b5:	48 8b b4 24 18 08 00 	mov    rsi,QWORD PTR [rsp+0x818]
    33bc:	00 
    33bd:	4c 89 a6 98 00 00 00 	mov    QWORD PTR [rsi+0x98],r12
    33c4:	48 89 df             	mov    rdi,rbx
    33c7:	4c 89 fe             	mov    rsi,r15
    33ca:	48 b8 00 00 00 00 00 	movabs rax,0x0
    33d1:	00 00 00 
			33cc: R_X86_64_64	apply_n
    33d4:	48 89 bc 24 e8 00 00 	mov    QWORD PTR [rsp+0xe8],rdi
    33db:	00 
    33dc:	ff d0                	call   rax
    33de:	48 89 84 24 c8 02 00 	mov    QWORD PTR [rsp+0x2c8],rax
    33e5:	00 
    33e6:	48 8b b4 24 10 08 00 	mov    rsi,QWORD PTR [rsp+0x810]
    33ed:	00 
    33ee:	48 8b 7e 08          	mov    rdi,QWORD PTR [rsi+0x8]
    33f2:	48 8b b4 24 00 08 00 	mov    rsi,QWORD PTR [rsp+0x800]
    33f9:	00 
    33fa:	48 b8 00 00 00 00 00 	movabs rax,0x0
    3401:	00 00 00 
			33fc: R_X86_64_64	apply1
    3404:	48 89 b4 24 e8 00 00 	mov    QWORD PTR [rsp+0xe8],rsi
    340b:	00 
    340c:	48 89 bc 24 f0 00 00 	mov    QWORD PTR [rsp+0xf0],rdi
    3413:	00 
    3414:	ff d0                	call   rax
    3416:	49 89 c7             	mov    r15,rax
    3419:	49 89 d6             	mov    r14,rdx
    341c:	4d 85 f6             	test   r14,r14
    341f:	0f 85 0d 00 00 00    	jne    3432 <big_makeblock+0x3432>
    3425:	4c 89 bc 24 e8 00 00 	mov    QWORD PTR [rsp+0xe8],r15
    342c:	00 
    342d:	e9 9d 00 00 00       	jmp    34cf <big_makeblock+0x34cf>
    3432:	48 8b b4 24 18 08 00 	mov    rsi,QWORD PTR [rsp+0x818]
    3439:	00 
    343a:	4c 8b ae 98 00 00 00 	mov    r13,QWORD PTR [rsi+0x98]
    3441:	4c 89 f3             	mov    rbx,r14
    3444:	48 83 c3 ff          	add    rbx,0xffffffffffffffff
    3448:	4c 89 f2             	mov    rdx,r14
    344b:	48 c1 e2 03          	shl    rdx,0x3
    344f:	4d 89 ec             	mov    r12,r13
    3452:	49 01 d4             	add    r12,rdx
    3455:	4c 89 ef             	mov    rdi,r13
    3458:	48 83 c7 e8          	add    rdi,0xffffffffffffffe8
    345c:	4c 89 ee             	mov    rsi,r13
    345f:	48 b8 00 00 00 00 00 	movabs rax,0x0
    3466:	00 00 00 
			3461: R_X86_64_64	memmove
    3469:	4c 89 bc 24 f0 00 00 	mov    QWORD PTR [rsp+0xf0],r15
    3470:	00 
    3471:	ff d0                	call   rax
    3473:	4c 8b bc 24 f0 00 00 	mov    r15,QWORD PTR [rsp+0xf0]
    347a:	00 
    347b:	48 be 00 00 00 00 00 	movabs rsi,0x0
    3482:	00 00 00 
			347d: R_X86_64_64	callback_return_addr
    3485:	bf 01 00 00 00       	mov    edi,0x1
    348a:	4b 89 7c f5 f8       	mov    QWORD PTR [r13+r14*8-0x8],rdi
    348f:	bf 01 00 00 00       	mov    edi,0x1
    3494:	4b 89 7c f5 f0       	mov    QWORD PTR [r13+r14*8-0x10],rdi
    3499:	4b 89 74 f5 e8       	mov    QWORD PTR [r13+r14*8-0x18],rsi
    349e:	48 8b b4 24 18 08 00 	mov    rsi,QWORD PTR [rsp+0x818]
    34a5:	00 
    34a6:	4c 89 a6 98 00 00 00 	mov    QWORD PTR [rsi+0x98],r12
    34ad:	4c 89 ff             	mov    rdi,r15
    34b0:	48 89 de             	mov    rsi,rbx
    34b3:	48 b8 00 00 00 00 00 	movabs rax,0x0
    34ba:	00 00 00 
			34b5: R_X86_64_64	apply_n
    34bd:	48 89 bc 24 e8 00 00 	mov    QWORD PTR [rsp+0xe8],rdi
    34c4:	00 
    34c5:	ff d0                	call   rax
    34c7:	48 89 84 24 e8 00 00 	mov    QWORD PTR [rsp+0xe8],rax
    34ce:	00 
    34cf:	48 8b b4 24 10 08 00 	mov    rsi,QWORD PTR [rsp+0x810]
    34d6:	00 
    34d7:	48 8b 7e 08          	mov    rdi,QWORD PTR [rsi+0x8]
    34db:	48 8b b4 24 00 08 00 	mov    rsi,QWORD PTR [rsp+0x800]
    34e2:	00 
    34e3:	48 b8 00 00 00 00 00 	movabs rax,0x0
    34ea:	00 00 00 
			34e5: R_X86_64_64	apply1
    34ed:	48 89 b4 24 f0 00 00 	mov    QWORD PTR [rsp+0xf0],rsi
    34f4:	00 
    34f5:	48 89 bc 24 00 01 00 	mov    QWORD PTR [rsp+0x100],rdi
    34fc:	00 
    34fd:	ff d0                	call   rax
    34ff:	48 89 c3             	mov    rbx,rax
    3502:	49 89 d6             	mov    r14,rdx
    3505:	4d 85 f6             	test   r14,r14
    3508:	0f 85 0d 00 00 00    	jne    351b <big_makeblock+0x351b>
    350e:	48 89 9c 24 d8 02 00 	mov    QWORD PTR [rsp+0x2d8],rbx
    3515:	00 
    3516:	e9 9d 00 00 00       	jmp    35b8 <big_makeblock+0x35b8>
    351b:	48 8b b4 24 18 08 00 	mov    rsi,QWORD PTR [rsp+0x818]
    3522:	00 
    3523:	4c 8b ae 98 00 00 00 	mov    r13,QWORD PTR [rsi+0x98]
    352a:	4d 89 f7             	mov    r15,r14
    352d:	49 83 c7 ff          	add    r15,0xffffffffffffffff
    3531:	4c 89 f2             	mov    rdx,r14
    3534:	48 c1 e2 03          	shl    rdx,0x3
    3538:	4d 89 ec             	mov    r12,r13
    353b:	49 01 d4             	add    r12,rdx
    353e:	4c 89 ef             	mov    rdi,r13
    3541:	48 83 c7 e8          	add    rdi,0xffffffffffffffe8
    3545:	4c 89 ee             	mov    rsi,r13
    3548:	48 b8 00 00 00 00 00 	movabs rax,0x0
    354f:	00 00 00 
			354a: R_X86_64_64	memmove
    3552:	48 89 9c 24 f0 00 00 	mov    QWORD PTR [rsp+0xf0],rbx
    3559:	00 
    355a:	ff d0                	call   rax
    355c:	48 8b 9c 24 f0 00 00 	mov    rbx,QWORD PTR [rsp+0xf0]
    3563:	00 
    3564:	48 be 00 00 00 00 00 	movabs rsi,0x0
    356b:	00 00 00 
			3566: R_X86_64_64	callback_return_addr
    356e:	bf 01 00 00 00       	mov    edi,0x1
    3573:	4b 89 7c f5 f8       	mov    QWORD PTR [r13+r14*8-0x8],rdi
    3578:	bf 01 00 00 00       	mov    edi,0x1
    357d:	4b 89 7c f5 f0       	mov    QWORD PTR [r13+r14*8-0x10],rdi
    3582:	4b 89 74 f5 e8       	mov    QWORD PTR [r13+r14*8-0x18],rsi
    3587:	48 8b b4 24 18 08 00 	mov    rsi,QWORD PTR [rsp+0x818]
    358e:	00 
    358f:	4c 89 a6 98 00 00 00 	mov    QWORD PTR [rsi+0x98],r12
    3596:	48 89 df             	mov    rdi,rbx
    3599:	4c 89 fe             	mov    rsi,r15
    359c:	48 b8 00 00 00 00 00 	movabs rax,0x0
    35a3:	00 00 00 
			359e: R_X86_64_64	apply_n
    35a6:	48 89 bc 24 f0 00 00 	mov    QWORD PTR [rsp+0xf0],rdi
    35ad:	00 
    35ae:	ff d0                	call   rax
    35b0:	48 89 84 24 d8 02 00 	mov    QWORD PTR [rsp+0x2d8],rax
    35b7:	00 
    35b8:	48 8b b4 24 10 08 00 	mov    rsi,QWORD PTR [rsp+0x810]
    35bf:	00 
    35c0:	48 8b 7e 08          	mov    rdi,QWORD PTR [rsi+0x8]
    35c4:	48 8b b4 24 00 08 00 	mov    rsi,QWORD PTR [rsp+0x800]
    35cb:	00 
    35cc:	48 b8 00 00 00 00 00 	movabs rax,0x0
    35d3:	00 00 00 
			35ce: R_X86_64_64	apply1
    35d6:	48 89 b4 24 f0 00 00 	mov    QWORD PTR [rsp+0xf0],rsi
    35dd:	00 
    35de:	48 89 bc 24 00 01 00 	mov    QWORD PTR [rsp+0x100],rdi
    35e5:	00 
    35e6:	ff d0                	call   rax
    35e8:	48 89 c3             	mov    rbx,rax
    35eb:	49 89 d6             	mov    r14,rdx
    35ee:	4d 85 f6             	test   r14,r14
    35f1:	0f 85 0d 00 00 00    	jne    3604 <big_makeblock+0x3604>
    35f7:	48 89 9c 24 f0 00 00 	mov    QWORD PTR [rsp+0xf0],rbx
    35fe:	00 
    35ff:	e9 9d 00 00 00       	jmp    36a1 <big_makeblock+0x36a1>
    3604:	48 8b b4 24 18 08 00 	mov    rsi,QWORD PTR [rsp+0x818]
    360b:	00 
    360c:	4c 8b ae 98 00 00 00 	mov    r13,QWORD PTR [rsi+0x98]
    3613:	4d 89 f7             	mov    r15,r14
    3616:	49 83 c7 ff          	add    r15,0xffffffffffffffff
    361a:	4c 89 f2             	mov    rdx,r14
    361d:	48 c1 e2 03          	shl    rdx,0x3
    3621:	4d 89 ec             	mov    r12,r13
    3624:	49 01 d4             	add    r12,rdx
    3627:	4c 89 ef             	mov    rdi,r13
    362a:	48 83 c7 e8          	add    rdi,0xffffffffffffffe8
    362e:	4c 89 ee             	mov    rsi,r13
    3631:	48 b8 00 00 00 00 00 	movabs rax,0x0
    3638:	00 00 00 
			3633: R_X86_64_64	memmove
    363b:	48 89 9c 24 00 01 00 	mov    QWORD PTR [rsp+0x100],rbx
    3642:	00 
    3643:	ff d0                	call   rax
    3645:	48 8b 9c 24 00 01 00 	mov    rbx,QWORD PTR [rsp+0x100]
    364c:	00 
    364d:	48 be 00 00 00 00 00 	movabs rsi,0x0
    3654:	00 00 00 
			364f: R_X86_64_64	callback_return_addr
    3657:	bf 01 00 00 00       	mov    edi,0x1
    365c:	4b 89 7c f5 f8       	mov    QWORD PTR [r13+r14*8-0x8],rdi
    3661:	bf 01 00 00 00       	mov    edi,0x1
    3666:	4b 89 7c f5 f0       	mov    QWORD PTR [r13+r14*8-0x10],rdi
    366b:	4b 89 74 f5 e8       	mov    QWORD PTR [r13+r14*8-0x18],rsi
    3670:	48 8b b4 24 18 08 00 	mov    rsi,QWORD PTR [rsp+0x818]
    3677:	00 
    3678:	4c 89 a6 98 00 00 00 	mov    QWORD PTR [rsi+0x98],r12
    367f:	48 89 df             	mov    rdi,rbx
    3682:	4c 89 fe             	mov    rsi,r15
    3685:	48 b8 00 00 00 00 00 	movabs rax,0x0
    368c:	00 00 00 
			3687: R_X86_64_64	apply_n
    368f:	48 89 bc 24 f0 00 00 	mov    QWORD PTR [rsp+0xf0],rdi
    3696:	00 
    3697:	ff d0                	call   rax
    3699:	48 89 84 24 f0 00 00 	mov    QWORD PTR [rsp+0xf0],rax
    36a0:	00 
    36a1:	48 8b b4 24 10 08 00 	mov    rsi,QWORD PTR [rsp+0x810]
    36a8:	00 
    36a9:	48 8b 7e 08          	mov    rdi,QWORD PTR [rsi+0x8]
    36ad:	48 8b b4 24 00 08 00 	mov    rsi,QWORD PTR [rsp+0x800]
    36b4:	00 
    36b5:	48 b8 00 00 00 00 00 	movabs rax,0x0
    36bc:	00 00 00 
			36b7: R_X86_64_64	apply1
    36bf:	48 89 b4 24 00 01 00 	mov    QWORD PTR [rsp+0x100],rsi
    36c6:	00 
    36c7:	48 89 bc 24 10 01 00 	mov    QWORD PTR [rsp+0x110],rdi
    36ce:	00 
    36cf:	ff d0                	call   rax
    36d1:	49 89 c7             	mov    r15,rax
    36d4:	49 89 d6             	mov    r14,rdx
    36d7:	4d 85 f6             	test   r14,r14
    36da:	0f 85 0d 00 00 00    	jne    36ed <big_makeblock+0x36ed>
    36e0:	4c 89 bc 24 e8 02 00 	mov    QWORD PTR [rsp+0x2e8],r15
    36e7:	00 
    36e8:	e9 9d 00 00 00       	jmp    378a <big_makeblock+0x378a>
    36ed:	48 8b b4 24 18 08 00 	mov    rsi,QWORD PTR [rsp+0x818]
    36f4:	00 
    36f5:	4c 8b ae 98 00 00 00 	mov    r13,QWORD PTR [rsi+0x98]
    36fc:	4c 89 f3             	mov    rbx,r14
    36ff:	48 83 c3 ff          	add    rbx,0xffffffffffffffff
    3703:	4c 89 f2             	mov    rdx,r14
    3706:	48 c1 e2 03          	shl    rdx,0x3
    370a:	4d 89 ec             	mov    r12,r13
    370d:	49 01 d4             	add    r12,rdx
    3710:	4c 89 ef             	mov    rdi,r13
    3713:	48 83 c7 e8          	add    rdi,0xffffffffffffffe8
    3717:	4c 89 ee             	mov    rsi,r13
    371a:	48 b8 00 00 00 00 00 	movabs rax,0x0
    3721:	00 00 00 
			371c: R_X86_64_64	memmove
    3724:	4c 89 bc 24 00 01 00 	mov    QWORD PTR [rsp+0x100],r15
    372b:	00 
    372c:	ff d0                	call   rax
    372e:	4c 8b bc 24 00 01 00 	mov    r15,QWORD PTR [rsp+0x100]
    3735:	00 
    3736:	48 be 00 00 00 00 00 	movabs rsi,0x0
    373d:	00 00 00 
			3738: R_X86_64_64	callback_return_addr
    3740:	bf 01 00 00 00       	mov    edi,0x1
    3745:	4b 89 7c f5 f8       	mov    QWORD PTR [r13+r14*8-0x8],rdi
    374a:	bf 01 00 00 00       	mov    edi,0x1
    374f:	4b 89 7c f5 f0       	mov    QWORD PTR [r13+r14*8-0x10],rdi
    3754:	4b 89 74 f5 e8       	mov    QWORD PTR [r13+r14*8-0x18],rsi
    3759:	48 8b b4 24 18 08 00 	mov    rsi,QWORD PTR [rsp+0x818]
    3760:	00 
    3761:	4c 89 a6 98 00 00 00 	mov    QWORD PTR [rsi+0x98],r12
    3768:	4c 89 ff             	mov    rdi,r15
    376b:	48 89 de             	mov    rsi,rbx
    376e:	48 b8 00 00 00 00 00 	movabs rax,0x0
    3775:	00 00 00 
			3770: R_X86_64_64	apply_n
    3778:	48 89 bc 24 00 01 00 	mov    QWORD PTR [rsp+0x100],rdi
    377f:	00 
    3780:	ff d0                	call   rax
    3782:	48 89 84 24 e8 02 00 	mov    QWORD PTR [rsp+0x2e8],rax
    3789:	00 
    378a:	48 8b b4 24 10 08 00 	mov    rsi,QWORD PTR [rsp+0x810]
    3791:	00 
    3792:	48 8b 7e 08          	mov    rdi,QWORD PTR [rsi+0x8]
    3796:	48 8b b4 24 00 08 00 	mov    rsi,QWORD PTR [rsp+0x800]
    379d:	00 
    379e:	48 b8 00 00 00 00 00 	movabs rax,0x0
    37a5:	00 00 00 
			37a0: R_X86_64_64	apply1
    37a8:	48 89 b4 24 00 01 00 	mov    QWORD PTR [rsp+0x100],rsi
    37af:	00 
    37b0:	48 89 bc 24 10 01 00 	mov    QWORD PTR [rsp+0x110],rdi
    37b7:	00 
    37b8:	ff d0                	call   rax
    37ba:	48 89 c3             	mov    rbx,rax
    37bd:	49 89 d6             	mov    r14,rdx
    37c0:	4d 85 f6             	test   r14,r14
    37c3:	0f 85 0d 00 00 00    	jne    37d6 <big_makeblock+0x37d6>
    37c9:	48 89 9c 24 00 01 00 	mov    QWORD PTR [rsp+0x100],rbx
    37d0:	00 
    37d1:	e9 9d 00 00 00       	jmp    3873 <big_makeblock+0x3873>
    37d6:	48 8b b4 24 18 08 00 	mov    rsi,QWORD PTR [rsp+0x818]
    37dd:	00 
    37de:	4c 8b ae 98 00 00 00 	mov    r13,QWORD PTR [rsi+0x98]
    37e5:	4d 89 f7             	mov    r15,r14
    37e8:	49 83 c7 ff          	add    r15,0xffffffffffffffff
    37ec:	4c 89 f2             	mov    rdx,r14
    37ef:	48 c1 e2 03          	shl    rdx,0x3
    37f3:	4d 89 ec             	mov    r12,r13
    37f6:	49 01 d4             	add    r12,rdx
    37f9:	4c 89 ef             	mov    rdi,r13
    37fc:	48 83 c7 e8          	add    rdi,0xffffffffffffffe8
    3800:	4c 89 ee             	mov    rsi,r13
    3803:	48 b8 00 00 00 00 00 	movabs rax,0x0
    380a:	00 00 00 
			3805: R_X86_64_64	memmove
    380d:	48 89 9c 24 10 01 00 	mov    QWORD PTR [rsp+0x110],rbx
    3814:	00 
    3815:	ff d0                	call   rax
    3817:	48 8b 9c 24 10 01 00 	mov    rbx,QWORD PTR [rsp+0x110]
    381e:	00 
    381f:	48 be 00 00 00 00 00 	movabs rsi,0x0
    3826:	00 00 00 
			3821: R_X86_64_64	callback_return_addr
    3829:	bf 01 00 00 00       	mov    edi,0x1
    382e:	4b 89 7c f5 f8       	mov    QWORD PTR [r13+r14*8-0x8],rdi
    3833:	bf 01 00 00 00       	mov    edi,0x1
    3838:	4b 89 7c f5 f0       	mov    QWORD PTR [r13+r14*8-0x10],rdi
    383d:	4b 89 74 f5 e8       	mov    QWORD PTR [r13+r14*8-0x18],rsi
    3842:	48 8b b4 24 18 08 00 	mov    rsi,QWORD PTR [rsp+0x818]
    3849:	00 
    384a:	4c 89 a6 98 00 00 00 	mov    QWORD PTR [rsi+0x98],r12
    3851:	48 89 df             	mov    rdi,rbx
    3854:	4c 89 fe             	mov    rsi,r15
    3857:	48 b8 00 00 00 00 00 	movabs rax,0x0
    385e:	00 00 00 
			3859: R_X86_64_64	apply_n
    3861:	48 89 bc 24 00 01 00 	mov    QWORD PTR [rsp+0x100],rdi
    3868:	00 
    3869:	ff d0                	call   rax
    386b:	48 89 84 24 00 01 00 	mov    QWORD PTR [rsp+0x100],rax
    3872:	00 
    3873:	48 8b b4 24 10 08 00 	mov    rsi,QWORD PTR [rsp+0x810]
    387a:	00 
    387b:	48 8b 7e 08          	mov    rdi,QWORD PTR [rsi+0x8]
    387f:	48 8b b4 24 00 08 00 	mov    rsi,QWORD PTR [rsp+0x800]
    3886:	00 
    3887:	48 b8 00 00 00 00 00 	movabs rax,0x0
    388e:	00 00 00 
			3889: R_X86_64_64	apply1
    3891:	48 89 b4 24 10 01 00 	mov    QWORD PTR [rsp+0x110],rsi
    3898:	00 
    3899:	48 89 bc 24 20 01 00 	mov    QWORD PTR [rsp+0x120],rdi
    38a0:	00 
    38a1:	ff d0                	call   rax
    38a3:	48 89 c3             	mov    rbx,rax
    38a6:	49 89 d6             	mov    r14,rdx
    38a9:	4d 85 f6             	test   r14,r14
    38ac:	0f 85 0d 00 00 00    	jne    38bf <big_makeblock+0x38bf>
    38b2:	48 89 9c 24 f8 02 00 	mov    QWORD PTR [rsp+0x2f8],rbx
    38b9:	00 
    38ba:	e9 9d 00 00 00       	jmp    395c <big_makeblock+0x395c>
    38bf:	48 8b b4 24 18 08 00 	mov    rsi,QWORD PTR [rsp+0x818]
    38c6:	00 
    38c7:	4c 8b ae 98 00 00 00 	mov    r13,QWORD PTR [rsi+0x98]
    38ce:	4d 89 f7             	mov    r15,r14
    38d1:	49 83 c7 ff          	add    r15,0xffffffffffffffff
    38d5:	4c 89 f2             	mov    rdx,r14
    38d8:	48 c1 e2 03          	shl    rdx,0x3
    38dc:	4d 89 ec             	mov    r12,r13
    38df:	49 01 d4             	add    r12,rdx
    38e2:	4c 89 ef             	mov    rdi,r13
    38e5:	48 83 c7 e8          	add    rdi,0xffffffffffffffe8
    38e9:	4c 89 ee             	mov    rsi,r13
    38ec:	48 b8 00 00 00 00 00 	movabs rax,0x0
    38f3:	00 00 00 
			38ee: R_X86_64_64	memmove
    38f6:	48 89 9c 24 10 01 00 	mov    QWORD PTR [rsp+0x110],rbx
    38fd:	00 
    38fe:	ff d0                	call   rax
    3900:	48 8b 9c 24 10 01 00 	mov    rbx,QWORD PTR [rsp+0x110]
    3907:	00 
    3908:	48 be 00 00 00 00 00 	movabs rsi,0x0
    390f:	00 00 00 
			390a: R_X86_64_64	callback_return_addr
    3912:	bf 01 00 00 00       	mov    edi,0x1
    3917:	4b 89 7c f5 f8       	mov    QWORD PTR [r13+r14*8-0x8],rdi
    391c:	bf 01 00 00 00       	mov    edi,0x1
    3921:	4b 89 7c f5 f0       	mov    QWORD PTR [r13+r14*8-0x10],rdi
    3926:	4b 89 74 f5 e8       	mov    QWORD PTR [r13+r14*8-0x18],rsi
    392b:	48 8b b4 24 18 08 00 	mov    rsi,QWORD PTR [rsp+0x818]
    3932:	00 
    3933:	4c 89 a6 98 00 00 00 	mov    QWORD PTR [rsi+0x98],r12
    393a:	48 89 df             	mov    rdi,rbx
    393d:	4c 89 fe             	mov    rsi,r15
    3940:	48 b8 00 00 00 00 00 	movabs rax,0x0
    3947:	00 00 00 
			3942: R_X86_64_64	apply_n
    394a:	48 89 bc 24 10 01 00 	mov    QWORD PTR [rsp+0x110],rdi
    3951:	00 
    3952:	ff d0                	call   rax
    3954:	48 89 84 24 f8 02 00 	mov    QWORD PTR [rsp+0x2f8],rax
    395b:	00 
    395c:	48 8b b4 24 10 08 00 	mov    rsi,QWORD PTR [rsp+0x810]
    3963:	00 
    3964:	48 8b 7e 08          	mov    rdi,QWORD PTR [rsi+0x8]
    3968:	48 8b b4 24 00 08 00 	mov    rsi,QWORD PTR [rsp+0x800]
    396f:	00 
    3970:	48 b8 00 00 00 00 00 	movabs rax,0x0
    3977:	00 00 00 
			3972: R_X86_64_64	apply1
    397a:	48 89 b4 24 10 01 00 	mov    QWORD PTR [rsp+0x110],rsi
    3981:	00 
    3982:	48 89 bc 24 20 01 00 	mov    QWORD PTR [rsp+0x120],rdi
    3989:	00 
    398a:	ff d0                	call   rax
    398c:	49 89 c7             	mov    r15,rax
    398f:	49 89 d6             	mov    r14,rdx
    3992:	4d 85 f6             	test   r14,r14
    3995:	0f 85 0d 00 00 00    	jne    39a8 <big_makeblock+0x39a8>
    399b:	4c 89 bc 24 10 01 00 	mov    QWORD PTR [rsp+0x110],r15
    39a2:	00 
    39a3:	e9 9d 00 00 00       	jmp    3a45 <big_makeblock+0x3a45>
    39a8:	48 8b b4 24 18 08 00 	mov    rsi,QWORD PTR [rsp+0x818]
    39af:	00 
    39b0:	4c 8b ae 98 00 00 00 	mov    r13,QWORD PTR [rsi+0x98]
    39b7:	4c 89 f3             	mov    rbx,r14
    39ba:	48 83 c3 ff          	add    rbx,0xffffffffffffffff
    39be:	4c 89 f2             	mov    rdx,r14
    39c1:	48 c1 e2 03          	shl    rdx,0x3
    39c5:	4d 89 ec             	mov    r12,r13
    39c8:	49 01 d4             	add    r12,rdx
    39cb:	4c 89 ef             	mov    rdi,r13
    39ce:	48 83 c7 e8          	add    rdi,0xffffffffffffffe8
    39d2:	4c 89 ee             	mov    rsi,r13
    39d5:	48 b8 00 00 00 00 00 	movabs rax,0x0
    39dc:	00 00 00 
			39d7: R_X86_64_64	memmove
    39df:	4c 89 bc 24 20 01 00 	mov    QWORD PTR [rsp+0x120],r15
    39e6:	00 
    39e7:	ff d0                	call   rax
    39e9:	4c 8b bc 24 20 01 00 	mov    r15,QWORD PTR [rsp+0x120]
    39f0:	00 
    39f1:	48 be 00 00 00 00 00 	movabs rsi,0x0
    39f8:	00 00 00 
			39f3: R_X86_64_64	callback_return_addr
    39fb:	bf 01 00 00 00       	mov    edi,0x1
    3a00:	4b 89 7c f5 f8       	mov    QWORD PTR [r13+r14*8-0x8],rdi
    3a05:	bf 01 00 00 00       	mov    edi,0x1
    3a0a:	4b 89 7c f5 f0       	mov    QWORD PTR [r13+r14*8-0x10],rdi
    3a0f:	4b 89 74 f5 e8       	mov    QWORD PTR [r13+r14*8-0x18],rsi
    3a14:	48 8b b4 24 18 08 00 	mov    rsi,QWORD PTR [rsp+0x818]
    3a1b:	00 
    3a1c:	4c 89 a6 98 00 00 00 	mov    QWORD PTR [rsi+0x98],r12
    3a23:	4c 89 ff             	mov    rdi,r15
    3a26:	48 89 de             	mov    rsi,rbx
    3a29:	48 b8 00 00 00 00 00 	movabs rax,0x0
    3a30:	00 00 00 
			3a2b: R_X86_64_64	apply_n
    3a33:	48 89 bc 24 10 01 00 	mov    QWORD PTR [rsp+0x110],rdi
    3a3a:	00 
    3a3b:	ff d0                	call   rax
    3a3d:	48 89 84 24 10 01 00 	mov    QWORD PTR [rsp+0x110],rax
    3a44:	00 
    3a45:	48 8b b4 24 10 08 00 	mov    rsi,QWORD PTR [rsp+0x810]
    3a4c:	00 
    3a4d:	48 8b 7e 08          	mov    rdi,QWORD PTR [rsi+0x8]
    3a51:	48 8b b4 24 00 08 00 	mov    rsi,QWORD PTR [rsp+0x800]
    3a58:	00 
    3a59:	48 b8 00 00 00 00 00 	movabs rax,0x0
    3a60:	00 00 00 
			3a5b: R_X86_64_64	apply1
    3a63:	48 89 b4 24 20 01 00 	mov    QWORD PTR [rsp+0x120],rsi
    3a6a:	00 
    3a6b:	48 89 bc 24 30 01 00 	mov    QWORD PTR [rsp+0x130],rdi
    3a72:	00 
    3a73:	ff d0                	call   rax
    3a75:	48 89 c3             	mov    rbx,rax
    3a78:	49 89 d6             	mov    r14,rdx
    3a7b:	4d 85 f6             	test   r14,r14
    3a7e:	0f 85 0d 00 00 00    	jne    3a91 <big_makeblock+0x3a91>
    3a84:	48 89 9c 24 08 03 00 	mov    QWORD PTR [rsp+0x308],rbx
    3a8b:	00 
    3a8c:	e9 9d 00 00 00       	jmp    3b2e <big_makeblock+0x3b2e>
    3a91:	48 8b b4 24 18 08 00 	mov    rsi,QWORD PTR [rsp+0x818]
    3a98:	00 
    3a99:	4c 8b ae 98 00 00 00 	mov    r13,QWORD PTR [rsi+0x98]
    3aa0:	4d 89 f7             	mov    r15,r14
    3aa3:	49 83 c7 ff          	add    r15,0xffffffffffffffff
    3aa7:	4c 89 f2             	mov    rdx,r14
    3aaa:	48 c1 e2 03          	shl    rdx,0x3
    3aae:	4d 89 ec             	mov    r12,r13
    3ab1:	49 01 d4             	add    r12,rdx
    3ab4:	4c 89 ef             	mov    rdi,r13
    3ab7:	48 83 c7 e8          	add    rdi,0xffffffffffffffe8
    3abb:	4c 89 ee             	mov    rsi,r13
    3abe:	48 b8 00 00 00 00 00 	movabs rax,0x0
    3ac5:	00 00 00 
			3ac0: R_X86_64_64	memmove
    3ac8:	48 89 9c 24 20 01 00 	mov    QWORD PTR [rsp+0x120],rbx
    3acf:	00 
    3ad0:	ff d0                	call   rax
    3ad2:	48 8b 9c 24 20 01 00 	mov    rbx,QWORD PTR [rsp+0x120]
    3ad9:	00 
    3ada:	48 be 00 00 00 00 00 	movabs rsi,0x0
    3ae1:	00 00 00 
			3adc: R_X86_64_64	callback_return_addr
    3ae4:	bf 01 00 00 00       	mov    edi,0x1
    3ae9:	4b 89 7c f5 f8       	mov    QWORD PTR [r13+r14*8-0x8],rdi
    3aee:	bf 01 00 00 00       	mov    edi,0x1
    3af3:	4b 89 7c f5 f0       	mov    QWORD PTR [r13+r14*8-0x10],rdi
    3af8:	4b 89 74 f5 e8       	mov    QWORD PTR [r13+r14*8-0x18],rsi
    3afd:	48 8b b4 24 18 08 00 	mov    rsi,QWORD PTR [rsp+0x818]
    3b04:	00 
    3b05:	4c 89 a6 98 00 00 00 	mov    QWORD PTR [rsi+0x98],r12
    3b0c:	48 89 df             	mov    rdi,rbx
    3b0f:	4c 89 fe             	mov    rsi,r15
    3b12:	48 b8 00 00 00 00 00 	movabs rax,0x0
    3b19:	00 00 00 
			3b14: R_X86_64_64	apply_n
    3b1c:	48 89 bc 24 20 01 00 	mov    QWORD PTR [rsp+0x120],rdi
    3b23:	00 
    3b24:	ff d0                	call   rax
    3b26:	48 89 84 24 08 03 00 	mov    QWORD PTR [rsp+0x308],rax
    3b2d:	00 
    3b2e:	48 8b b4 24 10 08 00 	mov    rsi,QWORD PTR [rsp+0x810]
    3b35:	00 
    3b36:	48 8b 7e 08          	mov    rdi,QWORD PTR [rsi+0x8]
    3b3a:	48 8b b4 24 00 08 00 	mov    rsi,QWORD PTR [rsp+0x800]
    3b41:	00 
    3b42:	48 b8 00 00 00 00 00 	movabs rax,0x0
    3b49:	00 00 00 
			3b44: R_X86_64_64	apply1
    3b4c:	48 89 b4 24 20 01 00 	mov    QWORD PTR [rsp+0x120],rsi
    3b53:	00 
    3b54:	48 89 bc 24 30 01 00 	mov    QWORD PTR [rsp+0x130],rdi
    3b5b:	00 
    3b5c:	ff d0                	call   rax
    3b5e:	48 89 c3             	mov    rbx,rax
    3b61:	49 89 d6             	mov    r14,rdx
    3b64:	4d 85 f6             	test   r14,r14
    3b67:	0f 85 0d 00 00 00    	jne    3b7a <big_makeblock+0x3b7a>
    3b6d:	48 89 9c 24 20 01 00 	mov    QWORD PTR [rsp+0x120],rbx
    3b74:	00 
    3b75:	e9 9d 00 00 00       	jmp    3c17 <big_makeblock+0x3c17>
    3b7a:	48 8b b4 24 18 08 00 	mov    rsi,QWORD PTR [rsp+0x818]
    3b81:	00 
    3b82:	4c 8b ae 98 00 00 00 	mov    r13,QWORD PTR [rsi+0x98]
    3b89:	4d 89 f7             	mov    r15,r14
    3b8c:	49 83 c7 ff          	add    r15,0xffffffffffffffff
    3b90:	4c 89 f2             	mov    rdx,r14
    3b93:	48 c1 e2 03          	shl    rdx,0x3
    3b97:	4d 89 ec             	mov    r12,r13
    3b9a:	49 01 d4             	add    r12,rdx
    3b9d:	4c 89 ef             	mov    rdi,r13
    3ba0:	48 83 c7 e8          	add    rdi,0xffffffffffffffe8
    3ba4:	4c 89 ee             	mov    rsi,r13
    3ba7:	48 b8 00 00 00 00 00 	movabs rax,0x0
    3bae:	00 00 00 
			3ba9: R_X86_64_64	memmove
    3bb1:	48 89 9c 24 30 01 00 	mov    QWORD PTR [rsp+0x130],rbx
    3bb8:	00 
    3bb9:	ff d0                	call   rax
    3bbb:	48 8b 9c 24 30 01 00 	mov    rbx,QWORD PTR [rsp+0x130]
    3bc2:	00 
    3bc3:	48 be 00 00 00 00 00 	movabs rsi,0x0
    3bca:	00 00 00 
			3bc5: R_X86_64_64	callback_return_addr
    3bcd:	bf 01 00 00 00       	mov    edi,0x1
    3bd2:	4b 89 7c f5 f8       	mov    QWORD PTR [r13+r14*8-0x8],rdi
    3bd7:	bf 01 00 00 00       	mov    edi,0x1
    3bdc:	4b 89 7c f5 f0       	mov    QWORD PTR [r13+r14*8-0x10],rdi
    3be1:	4b 89 74 f5 e8       	mov    QWORD PTR [r13+r14*8-0x18],rsi
    3be6:	48 8b b4 24 18 08 00 	mov    rsi,QWORD PTR [rsp+0x818]
    3bed:	00 
    3bee:	4c 89 a6 98 00 00 00 	mov    QWORD PTR [rsi+0x98],r12
    3bf5:	48 89 df             	mov    rdi,rbx
    3bf8:	4c 89 fe             	mov    rsi,r15
    3bfb:	48 b8 00 00 00 00 00 	movabs rax,0x0
    3c02:	00 00 00 
			3bfd: R_X86_64_64	apply_n
    3c05:	48 89 bc 24 20 01 00 	mov    QWORD PTR [rsp+0x120],rdi
    3c0c:	00 
    3c0d:	ff d0                	call   rax
    3c0f:	48 89 84 24 20 01 00 	mov    QWORD PTR [rsp+0x120],rax
    3c16:	00 
    3c17:	48 8b b4 24 10 08 00 	mov    rsi,QWORD PTR [rsp+0x810]
    3c1e:	00 
    3c1f:	48 8b 7e 08          	mov    rdi,QWORD PTR [rsi+0x8]
    3c23:	48 8b b4 24 00 08 00 	mov    rsi,QWORD PTR [rsp+0x800]
    3c2a:	00 
    3c2b:	48 b8 00 00 00 00 00 	movabs rax,0x0
    3c32:	00 00 00 
			3c2d: R_X86_64_64	apply1
    3c35:	48 89 b4 24 30 01 00 	mov    QWORD PTR [rsp+0x130],rsi
    3c3c:	00 
    3c3d:	48 89 bc 24 40 01 00 	mov    QWORD PTR [rsp+0x140],rdi
    3c44:	00 
    3c45:	ff d0                	call   rax
    3c47:	49 89 c7             	mov    r15,rax
    3c4a:	49 89 d6             	mov    r14,rdx
    3c4d:	4d 85 f6             	test   r14,r14
    3c50:	0f 85 0d 00 00 00    	jne    3c63 <big_makeblock+0x3c63>
    3c56:	4c 89 bc 24 18 03 00 	mov    QWORD PTR [rsp+0x318],r15
    3c5d:	00 
    3c5e:	e9 9d 00 00 00       	jmp    3d00 <big_makeblock+0x3d00>
    3c63:	48 8b b4 24 18 08 00 	mov    rsi,QWORD PTR [rsp+0x818]
    3c6a:	00 
    3c6b:	4c 8b ae 98 00 00 00 	mov    r13,QWORD PTR [rsi+0x98]
    3c72:	4c 89 f3             	mov    rbx,r14
    3c75:	48 83 c3 ff          	add    rbx,0xffffffffffffffff
    3c79:	4c 89 f2             	mov    rdx,r14
    3c7c:	48 c1 e2 03          	shl    rdx,0x3
    3c80:	4d 89 ec             	mov    r12,r13
    3c83:	49 01 d4             	add    r12,rdx
    3c86:	4c 89 ef             	mov    rdi,r13
    3c89:	48 83 c7 e8          	add    rdi,0xffffffffffffffe8
    3c8d:	4c 89 ee             	mov    rsi,r13
    3c90:	48 b8 00 00 00 00 00 	movabs rax,0x0
    3c97:	00 00 00 
			3c92: R_X86_64_64	memmove
    3c9a:	4c 89 bc 24 30 01 00 	mov    QWORD PTR [rsp+0x130],r15
    3ca1:	00 
    3ca2:	ff d0                	call   rax
    3ca4:	4c 8b bc 24 30 01 00 	mov    r15,QWORD PTR [rsp+0x130]
    3cab:	00 
    3cac:	48 be 00 00 00 00 00 	movabs rsi,0x0
    3cb3:	00 00 00 
			3cae: R_X86_64_64	callback_return_addr
    3cb6:	bf 01 00 00 00       	mov    edi,0x1
    3cbb:	4b 89 7c f5 f8       	mov    QWORD PTR [r13+r14*8-0x8],rdi
    3cc0:	bf 01 00 00 00       	mov    edi,0x1
    3cc5:	4b 89 7c f5 f0       	mov    QWORD PTR [r13+r14*8-0x10],rdi
    3cca:	4b 89 74 f5 e8       	mov    QWORD PTR [r13+r14*8-0x18],rsi
    3ccf:	48 8b b4 24 18 08 00 	mov    rsi,QWORD PTR [rsp+0x818]
    3cd6:	00 
    3cd7:	4c 89 a6 98 00 00 00 	mov    QWORD PTR [rsi+0x98],r12
    3cde:	4c 89 ff             	mov    rdi,r15
    3ce1:	48 89 de             	mov    rsi,rbx
    3ce4:	48 b8 00 00 00 00 00 	movabs rax,0x0
    3ceb:	00 00 00 
			3ce6: R_X86_64_64	apply_n
    3cee:	48 89 bc 24 30 01 00 	mov    QWORD PTR [rsp+0x130],rdi
    3cf5:	00 
    3cf6:	ff d0                	call   rax
    3cf8:	48 89 84 24 18 03 00 	mov    QWORD PTR [rsp+0x318],rax
    3cff:	00 
    3d00:	48 8b b4 24 10 08 00 	mov    rsi,QWORD PTR [rsp+0x810]
    3d07:	00 
    3d08:	48 8b 7e 08          	mov    rdi,QWORD PTR [rsi+0x8]
    3d0c:	48 8b b4 24 00 08 00 	mov    rsi,QWORD PTR [rsp+0x800]
    3d13:	00 
    3d14:	48 b8 00 00 00 00 00 	movabs rax,0x0
    3d1b:	00 00 00 
			3d16: R_X86_64_64	apply1
    3d1e:	48 89 b4 24 30 01 00 	mov    QWORD PTR [rsp+0x130],rsi
    3d25:	00 
    3d26:	48 89 bc 24 40 01 00 	mov    QWORD PTR [rsp+0x140],rdi
    3d2d:	00 
    3d2e:	ff d0                	call   rax
    3d30:	48 89 c3             	mov    rbx,rax
    3d33:	49 89 d6             	mov    r14,rdx
    3d36:	4d 85 f6             	test   r14,r14
    3d39:	0f 85 0d 00 00 00    	jne    3d4c <big_makeblock+0x3d4c>
    3d3f:	48 89 9c 24 30 01 00 	mov    QWORD PTR [rsp+0x130],rbx
    3d46:	00 
    3d47:	e9 9d 00 00 00       	jmp    3de9 <big_makeblock+0x3de9>
    3d4c:	48 8b b4 24 18 08 00 	mov    rsi,QWORD PTR [rsp+0x818]
    3d53:	00 
    3d54:	4c 8b ae 98 00 00 00 	mov    r13,QWORD PTR [rsi+0x98]
    3d5b:	4d 89 f7             	mov    r15,r14
    3d5e:	49 83 c7 ff          	add    r15,0xffffffffffffffff
    3d62:	4c 89 f2             	mov    rdx,r14
    3d65:	48 c1 e2 03          	shl    rdx,0x3
    3d69:	4d 89 ec             	mov    r12,r13
    3d6c:	49 01 d4             	add    r12,rdx
    3d6f:	4c 89 ef             	mov    rdi,r13
    3d72:	48 83 c7 e8          	add    rdi,0xffffffffffffffe8
    3d76:	4c 89 ee             	mov    rsi,r13
    3d79:	48 b8 00 00 00 00 00 	movabs rax,0x0
    3d80:	00 00 00 
			3d7b: R_X86_64_64	memmove
    3d83:	48 89 9c 24 40 01 00 	mov    QWORD PTR [rsp+0x140],rbx
    3d8a:	00 
    3d8b:	ff d0                	call   rax
    3d8d:	48 8b 9c 24 40 01 00 	mov    rbx,QWORD PTR [rsp+0x140]
    3d94:	00 
    3d95:	48 be 00 00 00 00 00 	movabs rsi,0x0
    3d9c:	00 00 00 
			3d97: R_X86_64_64	callback_return_addr
    3d9f:	bf 01 00 00 00       	mov    edi,0x1
    3da4:	4b 89 7c f5 f8       	mov    QWORD PTR [r13+r14*8-0x8],rdi
    3da9:	bf 01 00 00 00       	mov    edi,0x1
    3dae:	4b 89 7c f5 f0       	mov    QWORD PTR [r13+r14*8-0x10],rdi
    3db3:	4b 89 74 f5 e8       	mov    QWORD PTR [r13+r14*8-0x18],rsi
    3db8:	48 8b b4 24 18 08 00 	mov    rsi,QWORD PTR [rsp+0x818]
    3dbf:	00 
    3dc0:	4c 89 a6 98 00 00 00 	mov    QWORD PTR [rsi+0x98],r12
    3dc7:	48 89 df             	mov    rdi,rbx
    3dca:	4c 89 fe             	mov    rsi,r15
    3dcd:	48 b8 00 00 00 00 00 	movabs rax,0x0
    3dd4:	00 00 00 
			3dcf: R_X86_64_64	apply_n
    3dd7:	48 89 bc 24 30 01 00 	mov    QWORD PTR [rsp+0x130],rdi
    3dde:	00 
    3ddf:	ff d0                	call   rax
    3de1:	48 89 84 24 30 01 00 	mov    QWORD PTR [rsp+0x130],rax
    3de8:	00 
    3de9:	48 8b b4 24 10 08 00 	mov    rsi,QWORD PTR [rsp+0x810]
    3df0:	00 
    3df1:	48 8b 7e 08          	mov    rdi,QWORD PTR [rsi+0x8]
    3df5:	48 8b b4 24 00 08 00 	mov    rsi,QWORD PTR [rsp+0x800]
    3dfc:	00 
    3dfd:	48 b8 00 00 00 00 00 	movabs rax,0x0
    3e04:	00 00 00 
			3dff: R_X86_64_64	apply1
    3e07:	48 89 b4 24 40 01 00 	mov    QWORD PTR [rsp+0x140],rsi
    3e0e:	00 
    3e0f:	48 89 bc 24 50 01 00 	mov    QWORD PTR [rsp+0x150],rdi
    3e16:	00 
    3e17:	ff d0                	call   rax
    3e19:	48 89 c3             	mov    rbx,rax
    3e1c:	49 89 d6             	mov    r14,rdx
    3e1f:	4d 85 f6             	test   r14,r14
    3e22:	0f 85 0d 00 00 00    	jne    3e35 <big_makeblock+0x3e35>
    3e28:	48 89 9c 24 28 03 00 	mov    QWORD PTR [rsp+0x328],rbx
    3e2f:	00 
    3e30:	e9 9d 00 00 00       	jmp    3ed2 <big_makeblock+0x3ed2>
    3e35:	48 8b b4 24 18 08 00 	mov    rsi,QWORD PTR [rsp+0x818]
    3e3c:	00 
    3e3d:	4c 8b ae 98 00 00 00 	mov    r13,QWORD PTR [rsi+0x98]
    3e44:	4d 89 f7             	mov    r15,r14
    3e47:	49 83 c7 ff          	add    r15,0xffffffffffffffff
    3e4b:	4c 89 f2             	mov    rdx,r14
    3e4e:	48 c1 e2 03          	shl    rdx,0x3
    3e52:	4d 89 ec             	mov    r12,r13
    3e55:	49 01 d4             	add    r12,rdx
    3e58:	4c 89 ef             	mov    rdi,r13
    3e5b:	48 83 c7 e8          	add    rdi,0xffffffffffffffe8
    3e5f:	4c 89 ee             	mov    rsi,r13
    3e62:	48 b8 00 00 00 00 00 	movabs rax,0x0
    3e69:	00 00 00 
			3e64: R_X86_64_64	memmove
    3e6c:	48 89 9c 24 40 01 00 	mov    QWORD PTR [rsp+0x140],rbx
    3e73:	00 
    3e74:	ff d0                	call   rax
    3e76:	48 8b 9c 24 40 01 00 	mov    rbx,QWORD PTR [rsp+0x140]
    3e7d:	00 
    3e7e:	48 be 00 00 00 00 00 	movabs rsi,0x0
    3e85:	00 00 00 
			3e80: R_X86_64_64	callback_return_addr
    3e88:	bf 01 00 00 00       	mov    edi,0x1
    3e8d:	4b 89 7c f5 f8       	mov    QWORD PTR [r13+r14*8-0x8],rdi
    3e92:	bf 01 00 00 00       	mov    edi,0x1
    3e97:	4b 89 7c f5 f0       	mov    QWORD PTR [r13+r14*8-0x10],rdi
    3e9c:	4b 89 74 f5 e8       	mov    QWORD PTR [r13+r14*8-0x18],rsi
    3ea1:	48 8b b4 24 18 08 00 	mov    rsi,QWORD PTR [rsp+0x818]
    3ea8:	00 
    3ea9:	4c 89 a6 98 00 00 00 	mov    QWORD PTR [rsi+0x98],r12
    3eb0:	48 89 df             	mov    rdi,rbx
    3eb3:	4c 89 fe             	mov    rsi,r15
    3eb6:	48 b8 00 00 00 00 00 	movabs rax,0x0
    3ebd:	00 00 00 
			3eb8: R_X86_64_64	apply_n
    3ec0:	48 89 bc 24 40 01 00 	mov    QWORD PTR [rsp+0x140],rdi
    3ec7:	00 
    3ec8:	ff d0                	call   rax
    3eca:	48 89 84 24 28 03 00 	mov    QWORD PTR [rsp+0x328],rax
    3ed1:	00 
    3ed2:	48 8b b4 24 10 08 00 	mov    rsi,QWORD PTR [rsp+0x810]
    3ed9:	00 
    3eda:	48 8b 7e 08          	mov    rdi,QWORD PTR [rsi+0x8]
    3ede:	48 8b b4 24 00 08 00 	mov    rsi,QWORD PTR [rsp+0x800]
    3ee5:	00 
    3ee6:	48 b8 00 00 00 00 00 	movabs rax,0x0
    3eed:	00 00 00 
			3ee8: R_X86_64_64	apply1
    3ef0:	48 89 b4 24 40 01 00 	mov    QWORD PTR [rsp+0x140],rsi
    3ef7:	00 
    3ef8:	48 89 bc 24 50 01 00 	mov    QWORD PTR [rsp+0x150],rdi
    3eff:	00 
    3f00:	ff d0                	call   rax
    3f02:	49 89 c7             	mov    r15,rax
    3f05:	49 89 d6             	mov    r14,rdx
    3f08:	4d 85 f6             	test   r14,r14
    3f0b:	0f 85 0d 00 00 00    	jne    3f1e <big_makeblock+0x3f1e>
    3f11:	4c 89 bc 24 40 01 00 	mov    QWORD PTR [rsp+0x140],r15
    3f18:	00 
    3f19:	e9 9d 00 00 00       	jmp    3fbb <big_makeblock+0x3fbb>
    3f1e:	48 8b b4 24 18 08 00 	mov    rsi,QWORD PTR [rsp+0x818]
    3f25:	00 
    3f26:	4c 8b ae 98 00 00 00 	mov    r13,QWORD PTR [rsi+0x98]
    3f2d:	4c 89 f3             	mov    rbx,r14
    3f30:	48 83 c3 ff          	add    rbx,0xffffffffffffffff
    3f34:	4c 89 f2             	mov    rdx,r14
    3f37:	48 c1 e2 03          	shl    rdx,0x3
    3f3b:	4d 89 ec             	mov    r12,r13
    3f3e:	49 01 d4             	add    r12,rdx
    3f41:	4c 89 ef             	mov    rdi,r13
    3f44:	48 83 c7 e8          	add    rdi,0xffffffffffffffe8
    3f48:	4c 89 ee             	mov    rsi,r13
    3f4b:	48 b8 00 00 00 00 00 	movabs rax,0x0
    3f52:	00 00 00 
			3f4d: R_X86_64_64	memmove
    3f55:	4c 89 bc 24 50 01 00 	mov    QWORD PTR [rsp+0x150],r15
    3f5c:	00 
    3f5d:	ff d0                	call   rax
    3f5f:	4c 8b bc 24 50 01 00 	mov    r15,QWORD PTR [rsp+0x150]
    3f66:	00 
    3f67:	48 be 00 00 00 00 00 	movabs rsi,0x0
    3f6e:	00 00 00 
			3f69: R_X86_64_64	callback_return_addr
    3f71:	bf 01 00 00 00       	mov    edi,0x1
    3f76:	4b 89 7c f5 f8       	mov    QWORD PTR [r13+r14*8-0x8],rdi
    3f7b:	bf 01 00 00 00       	mov    edi,0x1
    3f80:	4b 89 7c f5 f0       	mov    QWORD PTR [r13+r14*8-0x10],rdi
    3f85:	4b 89 74 f5 e8       	mov    QWORD PTR [r13+r14*8-0x18],rsi
    3f8a:	48 8b b4 24 18 08 00 	mov    rsi,QWORD PTR [rsp+0x818]
    3f91:	00 
    3f92:	4c 89 a6 98 00 00 00 	mov    QWORD PTR [rsi+0x98],r12
    3f99:	4c 89 ff             	mov    rdi,r15
    3f9c:	48 89 de             	mov    rsi,rbx
    3f9f:	48 b8 00 00 00 00 00 	movabs rax,0x0
    3fa6:	00 00 00 
			3fa1: R_X86_64_64	apply_n
    3fa9:	48 89 bc 24 40 01 00 	mov    QWORD PTR [rsp+0x140],rdi
    3fb0:	00 
    3fb1:	ff d0                	call   rax
    3fb3:	48 89 84 24 40 01 00 	mov    QWORD PTR [rsp+0x140],rax
    3fba:	00 
    3fbb:	48 8b b4 24 10 08 00 	mov    rsi,QWORD PTR [rsp+0x810]
    3fc2:	00 
    3fc3:	48 8b 7e 08          	mov    rdi,QWORD PTR [rsi+0x8]
    3fc7:	48 8b b4 24 00 08 00 	mov    rsi,QWORD PTR [rsp+0x800]
    3fce:	00 
    3fcf:	48 b8 00 00 00 00 00 	movabs rax,0x0
    3fd6:	00 00 00 
			3fd1: R_X86_64_64	apply1
    3fd9:	48 89 b4 24 50 01 00 	mov    QWORD PTR [rsp+0x150],rsi
    3fe0:	00 
    3fe1:	48 89 bc 24 60 01 00 	mov    QWORD PTR [rsp+0x160],rdi
    3fe8:	00 
    3fe9:	ff d0                	call   rax
    3feb:	48 89 c3             	mov    rbx,rax
    3fee:	49 89 d6             	mov    r14,rdx
    3ff1:	4d 85 f6             	test   r14,r14
    3ff4:	0f 85 0d 00 00 00    	jne    4007 <big_makeblock+0x4007>
    3ffa:	48 89 9c 24 38 03 00 	mov    QWORD PTR [rsp+0x338],rbx
    4001:	00 
    4002:	e9 9d 00 00 00       	jmp    40a4 <big_makeblock+0x40a4>
    4007:	48 8b b4 24 18 08 00 	mov    rsi,QWORD PTR [rsp+0x818]
    400e:	00 
    400f:	4c 8b ae 98 00 00 00 	mov    r13,QWORD PTR [rsi+0x98]
    4016:	4d 89 f7             	mov    r15,r14
    4019:	49 83 c7 ff          	add    r15,0xffffffffffffffff
    401d:	4c 89 f2             	mov    rdx,r14
    4020:	48 c1 e2 03          	shl    rdx,0x3
    4024:	4d 89 ec             	mov    r12,r13
    4027:	49 01 d4             	add    r12,rdx
    402a:	4c 89 ef             	mov    rdi,r13
    402d:	48 83 c7 e8          	add    rdi,0xffffffffffffffe8
    4031:	4c 89 ee             	mov    rsi,r13
    4034:	48 b8 00 00 00 00 00 	movabs rax,0x0
    403b:	00 00 00 
			4036: R_X86_64_64	memmove
    403e:	48 89 9c 24 50 01 00 	mov    QWORD PTR [rsp+0x150],rbx
    4045:	00 
    4046:	ff d0                	call   rax
    4048:	48 8b 9c 24 50 01 00 	mov    rbx,QWORD PTR [rsp+0x150]
    404f:	00 
    4050:	48 be 00 00 00 00 00 	movabs rsi,0x0
    4057:	00 00 00 
			4052: R_X86_64_64	callback_return_addr
    405a:	bf 01 00 00 00       	mov    edi,0x1
    405f:	4b 89 7c f5 f8       	mov    QWORD PTR [r13+r14*8-0x8],rdi
    4064:	bf 01 00 00 00       	mov    edi,0x1
    4069:	4b 89 7c f5 f0       	mov    QWORD PTR [r13+r14*8-0x10],rdi
    406e:	4b 89 74 f5 e8       	mov    QWORD PTR [r13+r14*8-0x18],rsi
    4073:	48 8b b4 24 18 08 00 	mov    rsi,QWORD PTR [rsp+0x818]
    407a:	00 
    407b:	4c 89 a6 98 00 00 00 	mov    QWORD PTR [rsi+0x98],r12
    4082:	48 89 df             	mov    rdi,rbx
    4085:	4c 89 fe             	mov    rsi,r15
    4088:	48 b8 00 00 00 00 00 	movabs rax,0x0
    408f:	00 00 00 
			408a: R_X86_64_64	apply_n
    4092:	48 89 bc 24 50 01 00 	mov    QWORD PTR [rsp+0x150],rdi
    4099:	00 
    409a:	ff d0                	call   rax
    409c:	48 89 84 24 38 03 00 	mov    QWORD PTR [rsp+0x338],rax
    40a3:	00 
    40a4:	48 8b b4 24 10 08 00 	mov    rsi,QWORD PTR [rsp+0x810]
    40ab:	00 
    40ac:	48 8b 7e 08          	mov    rdi,QWORD PTR [rsi+0x8]
    40b0:	48 8b b4 24 00 08 00 	mov    rsi,QWORD PTR [rsp+0x800]
    40b7:	00 
    40b8:	48 b8 00 00 00 00 00 	movabs rax,0x0
    40bf:	00 00 00 
			40ba: R_X86_64_64	apply1
    40c2:	48 89 b4 24 50 01 00 	mov    QWORD PTR [rsp+0x150],rsi
    40c9:	00 
    40ca:	48 89 bc 24 60 01 00 	mov    QWORD PTR [rsp+0x160],rdi
    40d1:	00 
    40d2:	ff d0                	call   rax
    40d4:	48 89 c3             	mov    rbx,rax
    40d7:	49 89 d6             	mov    r14,rdx
    40da:	4d 85 f6             	test   r14,r14
    40dd:	0f 85 0d 00 00 00    	jne    40f0 <big_makeblock+0x40f0>
    40e3:	48 89 9c 24 50 01 00 	mov    QWORD PTR [rsp+0x150],rbx
    40ea:	00 
    40eb:	e9 9d 00 00 00       	jmp    418d <big_makeblock+0x418d>
    40f0:	48 8b b4 24 18 08 00 	mov    rsi,QWORD PTR [rsp+0x818]
    40f7:	00 
    40f8:	4c 8b ae 98 00 00 00 	mov    r13,QWORD PTR [rsi+0x98]
    40ff:	4d 89 f7             	mov    r15,r14
    4102:	49 83 c7 ff          	add    r15,0xffffffffffffffff
    4106:	4c 89 f2             	mov    rdx,r14
    4109:	48 c1 e2 03          	shl    rdx,0x3
    410d:	4d 89 ec             	mov    r12,r13
    4110:	49 01 d4             	add    r12,rdx
    4113:	4c 89 ef             	mov    rdi,r13
    4116:	48 83 c7 e8          	add    rdi,0xffffffffffffffe8
    411a:	4c 89 ee             	mov    rsi,r13
    411d:	48 b8 00 00 00 00 00 	movabs rax,0x0
    4124:	00 00 00 
			411f: R_X86_64_64	memmove
    4127:	48 89 9c 24 60 01 00 	mov    QWORD PTR [rsp+0x160],rbx
    412e:	00 
    412f:	ff d0                	call   rax
    4131:	48 8b 9c 24 60 01 00 	mov    rbx,QWORD PTR [rsp+0x160]
    4138:	00 
    4139:	48 be 00 00 00 00 00 	movabs rsi,0x0
    4140:	00 00 00 
			413b: R_X86_64_64	callback_return_addr
    4143:	bf 01 00 00 00       	mov    edi,0x1
    4148:	4b 89 7c f5 f8       	mov    QWORD PTR [r13+r14*8-0x8],rdi
    414d:	bf 01 00 00 00       	mov    edi,0x1
    4152:	4b 89 7c f5 f0       	mov    QWORD PTR [r13+r14*8-0x10],rdi
    4157:	4b 89 74 f5 e8       	mov    QWORD PTR [r13+r14*8-0x18],rsi
    415c:	48 8b b4 24 18 08 00 	mov    rsi,QWORD PTR [rsp+0x818]
    4163:	00 
    4164:	4c 89 a6 98 00 00 00 	mov    QWORD PTR [rsi+0x98],r12
    416b:	48 89 df             	mov    rdi,rbx
    416e:	4c 89 fe             	mov    rsi,r15
    4171:	48 b8 00 00 00 00 00 	movabs rax,0x0
    4178:	00 00 00 
			4173: R_X86_64_64	apply_n
    417b:	48 89 bc 24 50 01 00 	mov    QWORD PTR [rsp+0x150],rdi
    4182:	00 
    4183:	ff d0                	call   rax
    4185:	48 89 84 24 50 01 00 	mov    QWORD PTR [rsp+0x150],rax
    418c:	00 
    418d:	48 8b b4 24 10 08 00 	mov    rsi,QWORD PTR [rsp+0x810]
    4194:	00 
    4195:	48 8b 7e 08          	mov    rdi,QWORD PTR [rsi+0x8]
    4199:	48 8b b4 24 00 08 00 	mov    rsi,QWORD PTR [rsp+0x800]
    41a0:	00 
    41a1:	48 b8 00 00 00 00 00 	movabs rax,0x0
    41a8:	00 00 00 
			41a3: R_X86_64_64	apply1
    41ab:	48 89 b4 24 60 01 00 	mov    QWORD PTR [rsp+0x160],rsi
    41b2:	00 
    41b3:	48 89 bc 24 70 01 00 	mov    QWORD PTR [rsp+0x170],rdi
    41ba:	00 
    41bb:	ff d0                	call   rax
    41bd:	49 89 c7             	mov    r15,rax
    41c0:	49 89 d6             	mov    r14,rdx
    41c3:	4d 85 f6             	test   r14,r14
    41c6:	0f 85 0d 00 00 00    	jne    41d9 <big_makeblock+0x41d9>
    41cc:	4c 89 bc 24 48 03 00 	mov    QWORD PTR [rsp+0x348],r15
    41d3:	00 
    41d4:	e9 9d 00 00 00       	jmp    4276 <big_makeblock+0x4276>
    41d9:	48 8b b4 24 18 08 00 	mov    rsi,QWORD PTR [rsp+0x818]
    41e0:	00 
    41e1:	4c 8b ae 98 00 00 00 	mov    r13,QWORD PTR [rsi+0x98]
    41e8:	4c 89 f3             	mov    rbx,r14
    41eb:	48 83 c3 ff          	add    rbx,0xffffffffffffffff
    41ef:	4c 89 f2             	mov    rdx,r14
    41f2:	48 c1 e2 03          	shl    rdx,0x3
    41f6:	4d 89 ec             	mov    r12,r13
    41f9:	49 01 d4             	add    r12,rdx
    41fc:	4c 89 ef             	mov    rdi,r13
    41ff:	48 83 c7 e8          	add    rdi,0xffffffffffffffe8
    4203:	4c 89 ee             	mov    rsi,r13
    4206:	48 b8 00 00 00 00 00 	movabs rax,0x0
    420d:	00 00 00 
			4208: R_X86_64_64	memmove
    4210:	4c 89 bc 24 60 01 00 	mov    QWORD PTR [rsp+0x160],r15
    4217:	00 
    4218:	ff d0                	call   rax
    421a:	4c 8b bc 24 60 01 00 	mov    r15,QWORD PTR [rsp+0x160]
    4221:	00 
    4222:	48 be 00 00 00 00 00 	movabs rsi,0x0
    4229:	00 00 00 
			4224: R_X86_64_64	callback_return_addr
    422c:	bf 01 00 00 00       	mov    edi,0x1
    4231:	4b 89 7c f5 f8       	mov    QWORD PTR [r13+r14*8-0x8],rdi
    4236:	bf 01 00 00 00       	mov    edi,0x1
    423b:	4b 89 7c f5 f0       	mov    QWORD PTR [r13+r14*8-0x10],rdi
    4240:	4b 89 74 f5 e8       	mov    QWORD PTR [r13+r14*8-0x18],rsi
    4245:	48 8b b4 24 18 08 00 	mov    rsi,QWORD PTR [rsp+0x818]
    424c:	00 
    424d:	4c 89 a6 98 00 00 00 	mov    QWORD PTR [rsi+0x98],r12
    4254:	4c 89 ff             	mov    rdi,r15
    4257:	48 89 de             	mov    rsi,rbx
    425a:	48 b8 00 00 00 00 00 	movabs rax,0x0
    4261:	00 00 00 
			425c: R_X86_64_64	apply_n
    4264:	48 89 bc 24 60 01 00 	mov    QWORD PTR [rsp+0x160],rdi
    426b:	00 
    426c:	ff d0                	call   rax
    426e:	48 89 84 24 48 03 00 	mov    QWORD PTR [rsp+0x348],rax
    4275:	00 
    4276:	48 8b b4 24 10 08 00 	mov    rsi,QWORD PTR [rsp+0x810]
    427d:	00 
    427e:	48 8b 7e 08          	mov    rdi,QWORD PTR [rsi+0x8]
    4282:	48 8b b4 24 00 08 00 	mov    rsi,QWORD PTR [rsp+0x800]
    4289:	00 
    428a:	48 b8 00 00 00 00 00 	movabs rax,0x0
    4291:	00 00 00 
			428c: R_X86_64_64	apply1
    4294:	48 89 b4 24 60 01 00 	mov    QWORD PTR [rsp+0x160],rsi
    429b:	00 
    429c:	48 89 bc 24 70 01 00 	mov    QWORD PTR [rsp+0x170],rdi
    42a3:	00 
    42a4:	ff d0                	call   rax
    42a6:	48 89 c3             	mov    rbx,rax
    42a9:	49 89 d6             	mov    r14,rdx
    42ac:	4d 85 f6             	test   r14,r14
    42af:	0f 85 0d 00 00 00    	jne    42c2 <big_makeblock+0x42c2>
    42b5:	48 89 9c 24 60 01 00 	mov    QWORD PTR [rsp+0x160],rbx
    42bc:	00 
    42bd:	e9 9d 00 00 00       	jmp    435f <big_makeblock+0x435f>
    42c2:	48 8b b4 24 18 08 00 	mov    rsi,QWORD PTR [rsp+0x818]
    42c9:	00 
    42ca:	4c 8b ae 98 00 00 00 	mov    r13,QWORD PTR [rsi+0x98]
    42d1:	4d 89 f7             	mov    r15,r14
    42d4:	49 83 c7 ff          	add    r15,0xffffffffffffffff
    42d8:	4c 89 f2             	mov    rdx,r14
    42db:	48 c1 e2 03          	shl    rdx,0x3
    42df:	4d 89 ec             	mov    r12,r13
    42e2:	49 01 d4             	add    r12,rdx
    42e5:	4c 89 ef             	mov    rdi,r13
    42e8:	48 83 c7 e8          	add    rdi,0xffffffffffffffe8
    42ec:	4c 89 ee             	mov    rsi,r13
    42ef:	48 b8 00 00 00 00 00 	movabs rax,0x0
    42f6:	00 00 00 
			42f1: R_X86_64_64	memmove
    42f9:	48 89 9c 24 70 01 00 	mov    QWORD PTR [rsp+0x170],rbx
    4300:	00 
    4301:	ff d0                	call   rax
    4303:	48 8b 9c 24 70 01 00 	mov    rbx,QWORD PTR [rsp+0x170]
    430a:	00 
    430b:	48 be 00 00 00 00 00 	movabs rsi,0x0
    4312:	00 00 00 
			430d: R_X86_64_64	callback_return_addr
    4315:	bf 01 00 00 00       	mov    edi,0x1
    431a:	4b 89 7c f5 f8       	mov    QWORD PTR [r13+r14*8-0x8],rdi
    431f:	bf 01 00 00 00       	mov    edi,0x1
    4324:	4b 89 7c f5 f0       	mov    QWORD PTR [r13+r14*8-0x10],rdi
    4329:	4b 89 74 f5 e8       	mov    QWORD PTR [r13+r14*8-0x18],rsi
    432e:	48 8b b4 24 18 08 00 	mov    rsi,QWORD PTR [rsp+0x818]
    4335:	00 
    4336:	4c 89 a6 98 00 00 00 	mov    QWORD PTR [rsi+0x98],r12
    433d:	48 89 df             	mov    rdi,rbx
    4340:	4c 89 fe             	mov    rsi,r15
    4343:	48 b8 00 00 00 00 00 	movabs rax,0x0
    434a:	00 00 00 
			4345: R_X86_64_64	apply_n
    434d:	48 89 bc 24 60 01 00 	mov    QWORD PTR [rsp+0x160],rdi
    4354:	00 
    4355:	ff d0                	call   rax
    4357:	48 89 84 24 60 01 00 	mov    QWORD PTR [rsp+0x160],rax
    435e:	00 
    435f:	48 8b b4 24 10 08 00 	mov    rsi,QWORD PTR [rsp+0x810]
    4366:	00 
    4367:	48 8b 7e 08          	mov    rdi,QWORD PTR [rsi+0x8]
    436b:	48 8b b4 24 00 08 00 	mov    rsi,QWORD PTR [rsp+0x800]
    4372:	00 
    4373:	48 b8 00 00 00 00 00 	movabs rax,0x0
    437a:	00 00 00 
			4375: R_X86_64_64	apply1
    437d:	48 89 b4 24 70 01 00 	mov    QWORD PTR [rsp+0x170],rsi
    4384:	00 
    4385:	48 89 bc 24 80 01 00 	mov    QWORD PTR [rsp+0x180],rdi
    438c:	00 
    438d:	ff d0                	call   rax
    438f:	48 89 c3             	mov    rbx,rax
    4392:	49 89 d6             	mov    r14,rdx
    4395:	4d 85 f6             	test   r14,r14
    4398:	0f 85 0d 00 00 00    	jne    43ab <big_makeblock+0x43ab>
    439e:	48 89 9c 24 58 03 00 	mov    QWORD PTR [rsp+0x358],rbx
    43a5:	00 
    43a6:	e9 9d 00 00 00       	jmp    4448 <big_makeblock+0x4448>
    43ab:	48 8b b4 24 18 08 00 	mov    rsi,QWORD PTR [rsp+0x818]
    43b2:	00 
    43b3:	4c 8b ae 98 00 00 00 	mov    r13,QWORD PTR [rsi+0x98]
    43ba:	4d 89 f7             	mov    r15,r14
    43bd:	49 83 c7 ff          	add    r15,0xffffffffffffffff
    43c1:	4c 89 f2             	mov    rdx,r14
    43c4:	48 c1 e2 03          	shl    rdx,0x3
    43c8:	4d 89 ec             	mov    r12,r13
    43cb:	49 01 d4             	add    r12,rdx
    43ce:	4c 89 ef             	mov    rdi,r13
    43d1:	48 83 c7 e8          	add    rdi,0xffffffffffffffe8
    43d5:	4c 89 ee             	mov    rsi,r13
    43d8:	48 b8 00 00 00 00 00 	movabs rax,0x0
    43df:	00 00 00 
			43da: R_X86_64_64	memmove
    43e2:	48 89 9c 24 70 01 00 	mov    QWORD PTR [rsp+0x170],rbx
    43e9:	00 
    43ea:	ff d0                	call   rax
    43ec:	48 8b 9c 24 70 01 00 	mov    rbx,QWORD PTR [rsp+0x170]
    43f3:	00 
    43f4:	48 be 00 00 00 00 00 	movabs rsi,0x0
    43fb:	00 00 00 
			43f6: R_X86_64_64	callback_return_addr
    43fe:	bf 01 00 00 00       	mov    edi,0x1
    4403:	4b 89 7c f5 f8       	mov    QWORD PTR [r13+r14*8-0x8],rdi
    4408:	bf 01 00 00 00       	mov    edi,0x1
    440d:	4b 89 7c f5 f0       	mov    QWORD PTR [r13+r14*8-0x10],rdi
    4412:	4b 89 74 f5 e8       	mov    QWORD PTR [r13+r14*8-0x18],rsi
    4417:	48 8b b4 24 18 08 00 	mov    rsi,QWORD PTR [rsp+0x818]
    441e:	00 
    441f:	4c 89 a6 98 00 00 00 	mov    QWORD PTR [rsi+0x98],r12
    4426:	48 89 df             	mov    rdi,rbx
    4429:	4c 89 fe             	mov    rsi,r15
    442c:	48 b8 00 00 00 00 00 	movabs rax,0x0
    4433:	00 00 00 
			442e: R_X86_64_64	apply_n
    4436:	48 89 bc 24 70 01 00 	mov    QWORD PTR [rsp+0x170],rdi
    443d:	00 
    443e:	ff d0                	call   rax
    4440:	48 89 84 24 58 03 00 	mov    QWORD PTR [rsp+0x358],rax
    4447:	00 
    4448:	48 8b b4 24 10 08 00 	mov    rsi,QWORD PTR [rsp+0x810]
    444f:	00 
    4450:	48 8b 7e 08          	mov    rdi,QWORD PTR [rsi+0x8]
    4454:	48 8b b4 24 00 08 00 	mov    rsi,QWORD PTR [rsp+0x800]
    445b:	00 
    445c:	48 b8 00 00 00 00 00 	movabs rax,0x0
    4463:	00 00 00 
			445e: R_X86_64_64	apply1
    4466:	48 89 b4 24 70 01 00 	mov    QWORD PTR [rsp+0x170],rsi
    446d:	00 
    446e:	48 89 bc 24 80 01 00 	mov    QWORD PTR [rsp+0x180],rdi
    4475:	00 
    4476:	ff d0                	call   rax
    4478:	49 89 c7             	mov    r15,rax
    447b:	49 89 d6             	mov    r14,rdx
    447e:	4d 85 f6             	test   r14,r14
    4481:	0f 85 0d 00 00 00    	jne    4494 <big_makeblock+0x4494>
    4487:	4c 89 bc 24 70 01 00 	mov    QWORD PTR [rsp+0x170],r15
    448e:	00 
    448f:	e9 9d 00 00 00       	jmp    4531 <big_makeblock+0x4531>
    4494:	48 8b b4 24 18 08 00 	mov    rsi,QWORD PTR [rsp+0x818]
    449b:	00 
    449c:	4c 8b ae 98 00 00 00 	mov    r13,QWORD PTR [rsi+0x98]
    44a3:	4c 89 f3             	mov    rbx,r14
    44a6:	48 83 c3 ff          	add    rbx,0xffffffffffffffff
    44aa:	4c 89 f2             	mov    rdx,r14
    44ad:	48 c1 e2 03          	shl    rdx,0x3
    44b1:	4d 89 ec             	mov    r12,r13
    44b4:	49 01 d4             	add    r12,rdx
    44b7:	4c 89 ef             	mov    rdi,r13
    44ba:	48 83 c7 e8          	add    rdi,0xffffffffffffffe8
    44be:	4c 89 ee             	mov    rsi,r13
    44c1:	48 b8 00 00 00 00 00 	movabs rax,0x0
    44c8:	00 00 00 
			44c3: R_X86_64_64	memmove
    44cb:	4c 89 bc 24 80 01 00 	mov    QWORD PTR [rsp+0x180],r15
    44d2:	00 
    44d3:	ff d0                	call   rax
    44d5:	4c 8b bc 24 80 01 00 	mov    r15,QWORD PTR [rsp+0x180]
    44dc:	00 
    44dd:	48 be 00 00 00 00 00 	movabs rsi,0x0
    44e4:	00 00 00 
			44df: R_X86_64_64	callback_return_addr
    44e7:	bf 01 00 00 00       	mov    edi,0x1
    44ec:	4b 89 7c f5 f8       	mov    QWORD PTR [r13+r14*8-0x8],rdi
    44f1:	bf 01 00 00 00       	mov    edi,0x1
    44f6:	4b 89 7c f5 f0       	mov    QWORD PTR [r13+r14*8-0x10],rdi
    44fb:	4b 89 74 f5 e8       	mov    QWORD PTR [r13+r14*8-0x18],rsi
    4500:	48 8b b4 24 18 08 00 	mov    rsi,QWORD PTR [rsp+0x818]
    4507:	00 
    4508:	4c 89 a6 98 00 00 00 	mov    QWORD PTR [rsi+0x98],r12
    450f:	4c 89 ff             	mov    rdi,r15
    4512:	48 89 de             	mov    rsi,rbx
    4515:	48 b8 00 00 00 00 00 	movabs rax,0x0
    451c:	00 00 00 
			4517: R_X86_64_64	apply_n
    451f:	48 89 bc 24 70 01 00 	mov    QWORD PTR [rsp+0x170],rdi
    4526:	00 
    4527:	ff d0                	call   rax
    4529:	48 89 84 24 70 01 00 	mov    QWORD PTR [rsp+0x170],rax
    4530:	00 
    4531:	48 8b b4 24 10 08 00 	mov    rsi,QWORD PTR [rsp+0x810]
    4538:	00 
    4539:	48 8b 7e 08          	mov    rdi,QWORD PTR [rsi+0x8]
    453d:	48 8b b4 24 00 08 00 	mov    rsi,QWORD PTR [rsp+0x800]
    4544:	00 
    4545:	48 b8 00 00 00 00 00 	movabs rax,0x0
    454c:	00 00 00 
			4547: R_X86_64_64	apply1
    454f:	48 89 b4 24 80 01 00 	mov    QWORD PTR [rsp+0x180],rsi
    4556:	00 
    4557:	48 89 bc 24 90 01 00 	mov    QWORD PTR [rsp+0x190],rdi
    455e:	00 
    455f:	ff d0                	call   rax
    4561:	48 89 c3             	mov    rbx,rax
    4564:	49 89 d6             	mov    r14,rdx
    4567:	4d 85 f6             	test   r14,r14
    456a:	0f 85 0d 00 00 00    	jne    457d <big_makeblock+0x457d>
    4570:	48 89 9c 24 68 03 00 	mov    QWORD PTR [rsp+0x368],rbx
    4577:	00 
    4578:	e9 9d 00 00 00       	jmp    461a <big_makeblock+0x461a>
    457d:	48 8b b4 24 18 08 00 	mov    rsi,QWORD PTR [rsp+0x818]
    4584:	00 
    4585:	4c 8b ae 98 00 00 00 	mov    r13,QWORD PTR [rsi+0x98]
    458c:	4d 89 f7             	mov    r15,r14
    458f:	49 83 c7 ff          	add    r15,0xffffffffffffffff
    4593:	4c 89 f2             	mov    rdx,r14
    4596:	48 c1 e2 03          	shl    rdx,0x3
    459a:	4d 89 ec             	mov    r12,r13
    459d:	49 01 d4             	add    r12,rdx
    45a0:	4c 89 ef             	mov    rdi,r13
    45a3:	48 83 c7 e8          	add    rdi,0xffffffffffffffe8
    45a7:	4c 89 ee             	mov    rsi,r13
    45aa:	48 b8 00 00 00 00 00 	movabs rax,0x0
    45b1:	00 00 00 
			45ac: R_X86_64_64	memmove
    45b4:	48 89 9c 24 80 01 00 	mov    QWORD PTR [rsp+0x180],rbx
    45bb:	00 
    45bc:	ff d0                	call   rax
    45be:	48 8b 9c 24 80 01 00 	mov    rbx,QWORD PTR [rsp+0x180]
    45c5:	00 
    45c6:	48 be 00 00 00 00 00 	movabs rsi,0x0
    45cd:	00 00 00 
			45c8: R_X86_64_64	callback_return_addr
    45d0:	bf 01 00 00 00       	mov    edi,0x1
    45d5:	4b 89 7c f5 f8       	mov    QWORD PTR [r13+r14*8-0x8],rdi
    45da:	bf 01 00 00 00       	mov    edi,0x1
    45df:	4b 89 7c f5 f0       	mov    QWORD PTR [r13+r14*8-0x10],rdi
    45e4:	4b 89 74 f5 e8       	mov    QWORD PTR [r13+r14*8-0x18],rsi
    45e9:	48 8b b4 24 18 08 00 	mov    rsi,QWORD PTR [rsp+0x818]
    45f0:	00 
    45f1:	4c 89 a6 98 00 00 00 	mov    QWORD PTR [rsi+0x98],r12
    45f8:	48 89 df             	mov    rdi,rbx
    45fb:	4c 89 fe             	mov    rsi,r15
    45fe:	48 b8 00 00 00 00 00 	movabs rax,0x0
    4605:	00 00 00 
			4600: R_X86_64_64	apply_n
    4608:	48 89 bc 24 80 01 00 	mov    QWORD PTR [rsp+0x180],rdi
    460f:	00 
    4610:	ff d0                	call   rax
    4612:	48 89 84 24 68 03 00 	mov    QWORD PTR [rsp+0x368],rax
    4619:	00 
    461a:	48 8b b4 24 10 08 00 	mov    rsi,QWORD PTR [rsp+0x810]
    4621:	00 
    4622:	48 8b 7e 08          	mov    rdi,QWORD PTR [rsi+0x8]
    4626:	48 8b b4 24 00 08 00 	mov    rsi,QWORD PTR [rsp+0x800]
    462d:	00 
    462e:	48 b8 00 00 00 00 00 	movabs rax,0x0
    4635:	00 00 00 
			4630: R_X86_64_64	apply1
    4638:	48 89 b4 24 80 01 00 	mov    QWORD PTR [rsp+0x180],rsi
    463f:	00 
    4640:	48 89 bc 24 90 01 00 	mov    QWORD PTR [rsp+0x190],rdi
    4647:	00 
    4648:	ff d0                	call   rax
    464a:	48 89 c3             	mov    rbx,rax
    464d:	49 89 d6             	mov    r14,rdx
    4650:	4d 85 f6             	test   r14,r14
    4653:	0f 85 0d 00 00 00    	jne    4666 <big_makeblock+0x4666>
    4659:	48 89 9c 24 80 01 00 	mov    QWORD PTR [rsp+0x180],rbx
    4660:	00 
    4661:	e9 9d 00 00 00       	jmp    4703 <big_makeblock+0x4703>
    4666:	48 8b b4 24 18 08 00 	mov    rsi,QWORD PTR [rsp+0x818]
    466d:	00 
    466e:	4c 8b ae 98 00 00 00 	mov    r13,QWORD PTR [rsi+0x98]
    4675:	4d 89 f7             	mov    r15,r14
    4678:	49 83 c7 ff          	add    r15,0xffffffffffffffff
    467c:	4c 89 f2             	mov    rdx,r14
    467f:	48 c1 e2 03          	shl    rdx,0x3
    4683:	4d 89 ec             	mov    r12,r13
    4686:	49 01 d4             	add    r12,rdx
    4689:	4c 89 ef             	mov    rdi,r13
    468c:	48 83 c7 e8          	add    rdi,0xffffffffffffffe8
    4690:	4c 89 ee             	mov    rsi,r13
    4693:	48 b8 00 00 00 00 00 	movabs rax,0x0
    469a:	00 00 00 
			4695: R_X86_64_64	memmove
    469d:	48 89 9c 24 90 01 00 	mov    QWORD PTR [rsp+0x190],rbx
    46a4:	00 
    46a5:	ff d0                	call   rax
    46a7:	48 8b 9c 24 90 01 00 	mov    rbx,QWORD PTR [rsp+0x190]
    46ae:	00 
    46af:	48 be 00 00 00 00 00 	movabs rsi,0x0
    46b6:	00 00 00 
			46b1: R_X86_64_64	callback_return_addr
    46b9:	bf 01 00 00 00       	mov    edi,0x1
    46be:	4b 89 7c f5 f8       	mov    QWORD PTR [r13+r14*8-0x8],rdi
    46c3:	bf 01 00 00 00       	mov    edi,0x1
    46c8:	4b 89 7c f5 f0       	mov    QWORD PTR [r13+r14*8-0x10],rdi
    46cd:	4b 89 74 f5 e8       	mov    QWORD PTR [r13+r14*8-0x18],rsi
    46d2:	48 8b b4 24 18 08 00 	mov    rsi,QWORD PTR [rsp+0x818]
    46d9:	00 
    46da:	4c 89 a6 98 00 00 00 	mov    QWORD PTR [rsi+0x98],r12
    46e1:	48 89 df             	mov    rdi,rbx
    46e4:	4c 89 fe             	mov    rsi,r15
    46e7:	48 b8 00 00 00 00 00 	movabs rax,0x0
    46ee:	00 00 00 
			46e9: R_X86_64_64	apply_n
    46f1:	48 89 bc 24 80 01 00 	mov    QWORD PTR [rsp+0x180],rdi
    46f8:	00 
    46f9:	ff d0                	call   rax
    46fb:	48 89 84 24 80 01 00 	mov    QWORD PTR [rsp+0x180],rax
    4702:	00 
    4703:	48 8b b4 24 10 08 00 	mov    rsi,QWORD PTR [rsp+0x810]
    470a:	00 
    470b:	48 8b 7e 08          	mov    rdi,QWORD PTR [rsi+0x8]
    470f:	48 8b b4 24 00 08 00 	mov    rsi,QWORD PTR [rsp+0x800]
    4716:	00 
    4717:	48 b8 00 00 00 00 00 	movabs rax,0x0
    471e:	00 00 00 
			4719: R_X86_64_64	apply1
    4721:	48 89 b4 24 90 01 00 	mov    QWORD PTR [rsp+0x190],rsi
    4728:	00 
    4729:	48 89 bc 24 a0 01 00 	mov    QWORD PTR [rsp+0x1a0],rdi
    4730:	00 
    4731:	ff d0                	call   rax
    4733:	49 89 c7             	mov    r15,rax
    4736:	49 89 d6             	mov    r14,rdx
    4739:	4d 85 f6             	test   r14,r14
    473c:	0f 85 0d 00 00 00    	jne    474f <big_makeblock+0x474f>
    4742:	4c 89 bc 24 78 03 00 	mov    QWORD PTR [rsp+0x378],r15
    4749:	00 
    474a:	e9 9d 00 00 00       	jmp    47ec <big_makeblock+0x47ec>
    474f:	48 8b b4 24 18 08 00 	mov    rsi,QWORD PTR [rsp+0x818]
    4756:	00 
    4757:	4c 8b ae 98 00 00 00 	mov    r13,QWORD PTR [rsi+0x98]
    475e:	4c 89 f3             	mov    rbx,r14
    4761:	48 83 c3 ff          	add    rbx,0xffffffffffffffff
    4765:	4c 89 f2             	mov    rdx,r14
    4768:	48 c1 e2 03          	shl    rdx,0x3
    476c:	4d 89 ec             	mov    r12,r13
    476f:	49 01 d4             	add    r12,rdx
    4772:	4c 89 ef             	mov    rdi,r13
    4775:	48 83 c7 e8          	add    rdi,0xffffffffffffffe8
    4779:	4c 89 ee             	mov    rsi,r13
    477c:	48 b8 00 00 00 00 00 	movabs rax,0x0
    4783:	00 00 00 
			477e: R_X86_64_64	memmove
    4786:	4c 89 bc 24 90 01 00 	mov    QWORD PTR [rsp+0x190],r15
    478d:	00 
    478e:	ff d0                	call   rax
    4790:	4c 8b bc 24 90 01 00 	mov    r15,QWORD PTR [rsp+0x190]
    4797:	00 
    4798:	48 be 00 00 00 00 00 	movabs rsi,0x0
    479f:	00 00 00 
			479a: R_X86_64_64	callback_return_addr
    47a2:	bf 01 00 00 00       	mov    edi,0x1
    47a7:	4b 89 7c f5 f8       	mov    QWORD PTR [r13+r14*8-0x8],rdi
    47ac:	bf 01 00 00 00       	mov    edi,0x1
    47b1:	4b 89 7c f5 f0       	mov    QWORD PTR [r13+r14*8-0x10],rdi
    47b6:	4b 89 74 f5 e8       	mov    QWORD PTR [r13+r14*8-0x18],rsi
    47bb:	48 8b b4 24 18 08 00 	mov    rsi,QWORD PTR [rsp+0x818]
    47c2:	00 
    47c3:	4c 89 a6 98 00 00 00 	mov    QWORD PTR [rsi+0x98],r12
    47ca:	4c 89 ff             	mov    rdi,r15
    47cd:	48 89 de             	mov    rsi,rbx
    47d0:	48 b8 00 00 00 00 00 	movabs rax,0x0
    47d7:	00 00 00 
			47d2: R_X86_64_64	apply_n
    47da:	48 89 bc 24 90 01 00 	mov    QWORD PTR [rsp+0x190],rdi
    47e1:	00 
    47e2:	ff d0                	call   rax
    47e4:	48 89 84 24 78 03 00 	mov    QWORD PTR [rsp+0x378],rax
    47eb:	00 
    47ec:	48 8b b4 24 10 08 00 	mov    rsi,QWORD PTR [rsp+0x810]
    47f3:	00 
    47f4:	48 8b 7e 08          	mov    rdi,QWORD PTR [rsi+0x8]
    47f8:	48 8b b4 24 00 08 00 	mov    rsi,QWORD PTR [rsp+0x800]
    47ff:	00 
    4800:	48 b8 00 00 00 00 00 	movabs rax,0x0
    4807:	00 00 00 
			4802: R_X86_64_64	apply1
    480a:	48 89 b4 24 90 01 00 	mov    QWORD PTR [rsp+0x190],rsi
    4811:	00 
    4812:	48 89 bc 24 a0 01 00 	mov    QWORD PTR [rsp+0x1a0],rdi
    4819:	00 
    481a:	ff d0                	call   rax
    481c:	48 89 c3             	mov    rbx,rax
    481f:	49 89 d6             	mov    r14,rdx
    4822:	4d 85 f6             	test   r14,r14
    4825:	0f 85 0d 00 00 00    	jne    4838 <big_makeblock+0x4838>
    482b:	48 89 9c 24 90 01 00 	mov    QWORD PTR [rsp+0x190],rbx
    4832:	00 
    4833:	e9 9d 00 00 00       	jmp    48d5 <big_makeblock+0x48d5>
    4838:	48 8b b4 24 18 08 00 	mov    rsi,QWORD PTR [rsp+0x818]
    483f:	00 
    4840:	4c 8b ae 98 00 00 00 	mov    r13,QWORD PTR [rsi+0x98]
    4847:	4d 89 f7             	mov    r15,r14
    484a:	49 83 c7 ff          	add    r15,0xffffffffffffffff
    484e:	4c 89 f2             	mov    rdx,r14
    4851:	48 c1 e2 03          	shl    rdx,0x3
    4855:	4d 89 ec             	mov    r12,r13
    4858:	49 01 d4             	add    r12,rdx
    485b:	4c 89 ef             	mov    rdi,r13
    485e:	48 83 c7 e8          	add    rdi,0xffffffffffffffe8
    4862:	4c 89 ee             	mov    rsi,r13
    4865:	48 b8 00 00 00 00 00 	movabs rax,0x0
    486c:	00 00 00 
			4867: R_X86_64_64	memmove
    486f:	48 89 9c 24 a0 01 00 	mov    QWORD PTR [rsp+0x1a0],rbx
    4876:	00 
    4877:	ff d0                	call   rax
    4879:	48 8b 9c 24 a0 01 00 	mov    rbx,QWORD PTR [rsp+0x1a0]
    4880:	00 
    4881:	48 be 00 00 00 00 00 	movabs rsi,0x0
    4888:	00 00 00 
			4883: R_X86_64_64	callback_return_addr
    488b:	bf 01 00 00 00       	mov    edi,0x1
    4890:	4b 89 7c f5 f8       	mov    QWORD PTR [r13+r14*8-0x8],rdi
    4895:	bf 01 00 00 00       	mov    edi,0x1
    489a:	4b 89 7c f5 f0       	mov    QWORD PTR [r13+r14*8-0x10],rdi
    489f:	4b 89 74 f5 e8       	mov    QWORD PTR [r13+r14*8-0x18],rsi
    48a4:	48 8b b4 24 18 08 00 	mov    rsi,QWORD PTR [rsp+0x818]
    48ab:	00 
    48ac:	4c 89 a6 98 00 00 00 	mov    QWORD PTR [rsi+0x98],r12
    48b3:	48 89 df             	mov    rdi,rbx
    48b6:	4c 89 fe             	mov    rsi,r15
    48b9:	48 b8 00 00 00 00 00 	movabs rax,0x0
    48c0:	00 00 00 
			48bb: R_X86_64_64	apply_n
    48c3:	48 89 bc 24 90 01 00 	mov    QWORD PTR [rsp+0x190],rdi
    48ca:	00 
    48cb:	ff d0                	call   rax
    48cd:	48 89 84 24 90 01 00 	mov    QWORD PTR [rsp+0x190],rax
    48d4:	00 
    48d5:	48 8b b4 24 10 08 00 	mov    rsi,QWORD PTR [rsp+0x810]
    48dc:	00 
    48dd:	48 8b 7e 08          	mov    rdi,QWORD PTR [rsi+0x8]
    48e1:	48 8b b4 24 00 08 00 	mov    rsi,QWORD PTR [rsp+0x800]
    48e8:	00 
    48e9:	48 b8 00 00 00 00 00 	movabs rax,0x0
    48f0:	00 00 00 
			48eb: R_X86_64_64	apply1
    48f3:	48 89 b4 24 a0 01 00 	mov    QWORD PTR [rsp+0x1a0],rsi
    48fa:	00 
    48fb:	48 89 bc 24 b0 01 00 	mov    QWORD PTR [rsp+0x1b0],rdi
    4902:	00 
    4903:	ff d0                	call   rax
    4905:	48 89 c3             	mov    rbx,rax
    4908:	49 89 d6             	mov    r14,rdx
    490b:	4d 85 f6             	test   r14,r14
    490e:	0f 85 0d 00 00 00    	jne    4921 <big_makeblock+0x4921>
    4914:	48 89 9c 24 88 03 00 	mov    QWORD PTR [rsp+0x388],rbx
    491b:	00 
    491c:	e9 9d 00 00 00       	jmp    49be <big_makeblock+0x49be>
    4921:	48 8b b4 24 18 08 00 	mov    rsi,QWORD PTR [rsp+0x818]
    4928:	00 
    4929:	4c 8b ae 98 00 00 00 	mov    r13,QWORD PTR [rsi+0x98]
    4930:	4d 89 f7             	mov    r15,r14
    4933:	49 83 c7 ff          	add    r15,0xffffffffffffffff
    4937:	4c 89 f2             	mov    rdx,r14
    493a:	48 c1 e2 03          	shl    rdx,0x3
    493e:	4d 89 ec             	mov    r12,r13
    4941:	49 01 d4             	add    r12,rdx
    4944:	4c 89 ef             	mov    rdi,r13
    4947:	48 83 c7 e8          	add    rdi,0xffffffffffffffe8
    494b:	4c 89 ee             	mov    rsi,r13
    494e:	48 b8 00 00 00 00 00 	movabs rax,0x0
    4955:	00 00 00 
			4950: R_X86_64_64	memmove
    4958:	48 89 9c 24 a0 01 00 	mov    QWORD PTR [rsp+0x1a0],rbx
    495f:	00 
    4960:	ff d0                	call   rax
    4962:	48 8b 9c 24 a0 01 00 	mov    rbx,QWORD PTR [rsp+0x1a0]
    4969:	00 
    496a:	48 be 00 00 00 00 00 	movabs rsi,0x0
    4971:	00 00 00 
			496c: R_X86_64_64	callback_return_addr
    4974:	bf 01 00 00 00       	mov    edi,0x1
    4979:	4b 89 7c f5 f8       	mov    QWORD PTR [r13+r14*8-0x8],rdi
    497e:	bf 01 00 00 00       	mov    edi,0x1
    4983:	4b 89 7c f5 f0       	mov    QWORD PTR [r13+r14*8-0x10],rdi
    4988:	4b 89 74 f5 e8       	mov    QWORD PTR [r13+r14*8-0x18],rsi
    498d:	48 8b b4 24 18 08 00 	mov    rsi,QWORD PTR [rsp+0x818]
    4994:	00 
    4995:	4c 89 a6 98 00 00 00 	mov    QWORD PTR [rsi+0x98],r12
    499c:	48 89 df             	mov    rdi,rbx
    499f:	4c 89 fe             	mov    rsi,r15
    49a2:	48 b8 00 00 00 00 00 	movabs rax,0x0
    49a9:	00 00 00 
			49a4: R_X86_64_64	apply_n
    49ac:	48 89 bc 24 a0 01 00 	mov    QWORD PTR [rsp+0x1a0],rdi
    49b3:	00 
    49b4:	ff d0                	call   rax
    49b6:	48 89 84 24 88 03 00 	mov    QWORD PTR [rsp+0x388],rax
    49bd:	00 
    49be:	48 8b b4 24 10 08 00 	mov    rsi,QWORD PTR [rsp+0x810]
    49c5:	00 
    49c6:	48 8b 7e 08          	mov    rdi,QWORD PTR [rsi+0x8]
    49ca:	48 8b b4 24 00 08 00 	mov    rsi,QWORD PTR [rsp+0x800]
    49d1:	00 
    49d2:	48 b8 00 00 00 00 00 	movabs rax,0x0
    49d9:	00 00 00 
			49d4: R_X86_64_64	apply1
    49dc:	48 89 b4 24 a0 01 00 	mov    QWORD PTR [rsp+0x1a0],rsi
    49e3:	00 
    49e4:	48 89 bc 24 b0 01 00 	mov    QWORD PTR [rsp+0x1b0],rdi
    49eb:	00 
    49ec:	ff d0                	call   rax
    49ee:	49 89 c7             	mov    r15,rax
    49f1:	49 89 d6             	mov    r14,rdx
    49f4:	4d 85 f6             	test   r14,r14
    49f7:	0f 85 0d 00 00 00    	jne    4a0a <big_makeblock+0x4a0a>
    49fd:	4c 89 bc 24 a0 01 00 	mov    QWORD PTR [rsp+0x1a0],r15
    4a04:	00 
    4a05:	e9 9d 00 00 00       	jmp    4aa7 <big_makeblock+0x4aa7>
    4a0a:	48 8b b4 24 18 08 00 	mov    rsi,QWORD PTR [rsp+0x818]
    4a11:	00 
    4a12:	4c 8b ae 98 00 00 00 	mov    r13,QWORD PTR [rsi+0x98]
    4a19:	4c 89 f3             	mov    rbx,r14
    4a1c:	48 83 c3 ff          	add    rbx,0xffffffffffffffff
    4a20:	4c 89 f2             	mov    rdx,r14
    4a23:	48 c1 e2 03          	shl    rdx,0x3
    4a27:	4d 89 ec             	mov    r12,r13
    4a2a:	49 01 d4             	add    r12,rdx
    4a2d:	4c 89 ef             	mov    rdi,r13
    4a30:	48 83 c7 e8          	add    rdi,0xffffffffffffffe8
    4a34:	4c 89 ee             	mov    rsi,r13
    4a37:	48 b8 00 00 00 00 00 	movabs rax,0x0
    4a3e:	00 00 00 
			4a39: R_X86_64_64	memmove
    4a41:	4c 89 bc 24 b0 01 00 	mov    QWORD PTR [rsp+0x1b0],r15
    4a48:	00 
    4a49:	ff d0                	call   rax
    4a4b:	4c 8b bc 24 b0 01 00 	mov    r15,QWORD PTR [rsp+0x1b0]
    4a52:	00 
    4a53:	48 be 00 00 00 00 00 	movabs rsi,0x0
    4a5a:	00 00 00 
			4a55: R_X86_64_64	callback_return_addr
    4a5d:	bf 01 00 00 00       	mov    edi,0x1
    4a62:	4b 89 7c f5 f8       	mov    QWORD PTR [r13+r14*8-0x8],rdi
    4a67:	bf 01 00 00 00       	mov    edi,0x1
    4a6c:	4b 89 7c f5 f0       	mov    QWORD PTR [r13+r14*8-0x10],rdi
    4a71:	4b 89 74 f5 e8       	mov    QWORD PTR [r13+r14*8-0x18],rsi
    4a76:	48 8b b4 24 18 08 00 	mov    rsi,QWORD PTR [rsp+0x818]
    4a7d:	00 
    4a7e:	4c 89 a6 98 00 00 00 	mov    QWORD PTR [rsi+0x98],r12
    4a85:	4c 89 ff             	mov    rdi,r15
    4a88:	48 89 de             	mov    rsi,rbx
    4a8b:	48 b8 00 00 00 00 00 	movabs rax,0x0
    4a92:	00 00 00 
			4a8d: R_X86_64_64	apply_n
    4a95:	48 89 bc 24 a0 01 00 	mov    QWORD PTR [rsp+0x1a0],rdi
    4a9c:	00 
    4a9d:	ff d0                	call   rax
    4a9f:	48 89 84 24 a0 01 00 	mov    QWORD PTR [rsp+0x1a0],rax
    4aa6:	00 
    4aa7:	48 8b b4 24 10 08 00 	mov    rsi,QWORD PTR [rsp+0x810]
    4aae:	00 
    4aaf:	48 8b 7e 08          	mov    rdi,QWORD PTR [rsi+0x8]
    4ab3:	48 8b b4 24 00 08 00 	mov    rsi,QWORD PTR [rsp+0x800]
    4aba:	00 
    4abb:	48 b8 00 00 00 00 00 	movabs rax,0x0
    4ac2:	00 00 00 
			4abd: R_X86_64_64	apply1
    4ac5:	48 89 b4 24 b0 01 00 	mov    QWORD PTR [rsp+0x1b0],rsi
    4acc:	00 
    4acd:	48 89 bc 24 c0 01 00 	mov    QWORD PTR [rsp+0x1c0],rdi
    4ad4:	00 
    4ad5:	ff d0                	call   rax
    4ad7:	48 89 c3             	mov    rbx,rax
    4ada:	49 89 d6             	mov    r14,rdx
    4add:	4d 85 f6             	test   r14,r14
    4ae0:	0f 85 0d 00 00 00    	jne    4af3 <big_makeblock+0x4af3>
    4ae6:	48 89 9c 24 98 03 00 	mov    QWORD PTR [rsp+0x398],rbx
    4aed:	00 
    4aee:	e9 9d 00 00 00       	jmp    4b90 <big_makeblock+0x4b90>
    4af3:	48 8b b4 24 18 08 00 	mov    rsi,QWORD PTR [rsp+0x818]
    4afa:	00 
    4afb:	4c 8b ae 98 00 00 00 	mov    r13,QWORD PTR [rsi+0x98]
    4b02:	4d 89 f7             	mov    r15,r14
    4b05:	49 83 c7 ff          	add    r15,0xffffffffffffffff
    4b09:	4c 89 f2             	mov    rdx,r14
    4b0c:	48 c1 e2 03          	shl    rdx,0x3
    4b10:	4d 89 ec             	mov    r12,r13
    4b13:	49 01 d4             	add    r12,rdx
    4b16:	4c 89 ef             	mov    rdi,r13
    4b19:	48 83 c7 e8          	add    rdi,0xffffffffffffffe8
    4b1d:	4c 89 ee             	mov    rsi,r13
    4b20:	48 b8 00 00 00 00 00 	movabs rax,0x0
    4b27:	00 00 00 
			4b22: R_X86_64_64	memmove
    4b2a:	48 89 9c 24 b0 01 00 	mov    QWORD PTR [rsp+0x1b0],rbx
    4b31:	00 
    4b32:	ff d0                	call   rax
    4b34:	48 8b 9c 24 b0 01 00 	mov    rbx,QWORD PTR [rsp+0x1b0]
    4b3b:	00 
    4b3c:	48 be 00 00 00 00 00 	movabs rsi,0x0
    4b43:	00 00 00 
			4b3e: R_X86_64_64	callback_return_addr
    4b46:	bf 01 00 00 00       	mov    edi,0x1
    4b4b:	4b 89 7c f5 f8       	mov    QWORD PTR [r13+r14*8-0x8],rdi
    4b50:	bf 01 00 00 00       	mov    edi,0x1
    4b55:	4b 89 7c f5 f0       	mov    QWORD PTR [r13+r14*8-0x10],rdi
    4b5a:	4b 89 74 f5 e8       	mov    QWORD PTR [r13+r14*8-0x18],rsi
    4b5f:	48 8b b4 24 18 08 00 	mov    rsi,QWORD PTR [rsp+0x818]
    4b66:	00 
    4b67:	4c 89 a6 98 00 00 00 	mov    QWORD PTR [rsi+0x98],r12
    4b6e:	48 89 df             	mov    rdi,rbx
    4b71:	4c 89 fe             	mov    rsi,r15
    4b74:	48 b8 00 00 00 00 00 	movabs rax,0x0
    4b7b:	00 00 00 
			4b76: R_X86_64_64	apply_n
    4b7e:	48 89 bc 24 b0 01 00 	mov    QWORD PTR [rsp+0x1b0],rdi
    4b85:	00 
    4b86:	ff d0                	call   rax
    4b88:	48 89 84 24 98 03 00 	mov    QWORD PTR [rsp+0x398],rax
    4b8f:	00 
    4b90:	48 8b b4 24 10 08 00 	mov    rsi,QWORD PTR [rsp+0x810]
    4b97:	00 
    4b98:	48 8b 7e 08          	mov    rdi,QWORD PTR [rsi+0x8]
    4b9c:	48 8b b4 24 00 08 00 	mov    rsi,QWORD PTR [rsp+0x800]
    4ba3:	00 
    4ba4:	48 b8 00 00 00 00 00 	movabs rax,0x0
    4bab:	00 00 00 
			4ba6: R_X86_64_64	apply1
    4bae:	48 89 b4 24 b0 01 00 	mov    QWORD PTR [rsp+0x1b0],rsi
    4bb5:	00 
    4bb6:	48 89 bc 24 c0 01 00 	mov    QWORD PTR [rsp+0x1c0],rdi
    4bbd:	00 
    4bbe:	ff d0                	call   rax
    4bc0:	48 89 c3             	mov    rbx,rax
    4bc3:	49 89 d6             	mov    r14,rdx
    4bc6:	4d 85 f6             	test   r14,r14
    4bc9:	0f 85 0d 00 00 00    	jne    4bdc <big_makeblock+0x4bdc>
    4bcf:	48 89 9c 24 b0 01 00 	mov    QWORD PTR [rsp+0x1b0],rbx
    4bd6:	00 
    4bd7:	e9 9d 00 00 00       	jmp    4c79 <big_makeblock+0x4c79>
    4bdc:	48 8b b4 24 18 08 00 	mov    rsi,QWORD PTR [rsp+0x818]
    4be3:	00 
    4be4:	4c 8b ae 98 00 00 00 	mov    r13,QWORD PTR [rsi+0x98]
    4beb:	4d 89 f7             	mov    r15,r14
    4bee:	49 83 c7 ff          	add    r15,0xffffffffffffffff
    4bf2:	4c 89 f2             	mov    rdx,r14
    4bf5:	48 c1 e2 03          	shl    rdx,0x3
    4bf9:	4d 89 ec             	mov    r12,r13
    4bfc:	49 01 d4             	add    r12,rdx
    4bff:	4c 89 ef             	mov    rdi,r13
    4c02:	48 83 c7 e8          	add    rdi,0xffffffffffffffe8
    4c06:	4c 89 ee             	mov    rsi,r13
    4c09:	48 b8 00 00 00 00 00 	movabs rax,0x0
    4c10:	00 00 00 
			4c0b: R_X86_64_64	memmove
    4c13:	48 89 9c 24 c0 01 00 	mov    QWORD PTR [rsp+0x1c0],rbx
    4c1a:	00 
    4c1b:	ff d0                	call   rax
    4c1d:	48 8b 9c 24 c0 01 00 	mov    rbx,QWORD PTR [rsp+0x1c0]
    4c24:	00 
    4c25:	48 be 00 00 00 00 00 	movabs rsi,0x0
    4c2c:	00 00 00 
			4c27: R_X86_64_64	callback_return_addr
    4c2f:	bf 01 00 00 00       	mov    edi,0x1
    4c34:	4b 89 7c f5 f8       	mov    QWORD PTR [r13+r14*8-0x8],rdi
    4c39:	bf 01 00 00 00       	mov    edi,0x1
    4c3e:	4b 89 7c f5 f0       	mov    QWORD PTR [r13+r14*8-0x10],rdi
    4c43:	4b 89 74 f5 e8       	mov    QWORD PTR [r13+r14*8-0x18],rsi
    4c48:	48 8b b4 24 18 08 00 	mov    rsi,QWORD PTR [rsp+0x818]
    4c4f:	00 
    4c50:	4c 89 a6 98 00 00 00 	mov    QWORD PTR [rsi+0x98],r12
    4c57:	48 89 df             	mov    rdi,rbx
    4c5a:	4c 89 fe             	mov    rsi,r15
    4c5d:	48 b8 00 00 00 00 00 	movabs rax,0x0
    4c64:	00 00 00 
			4c5f: R_X86_64_64	apply_n
    4c67:	48 89 bc 24 b0 01 00 	mov    QWORD PTR [rsp+0x1b0],rdi
    4c6e:	00 
    4c6f:	ff d0                	call   rax
    4c71:	48 89 84 24 b0 01 00 	mov    QWORD PTR [rsp+0x1b0],rax
    4c78:	00 
    4c79:	48 8b b4 24 10 08 00 	mov    rsi,QWORD PTR [rsp+0x810]
    4c80:	00 
    4c81:	48 8b 7e 08          	mov    rdi,QWORD PTR [rsi+0x8]
    4c85:	48 8b b4 24 00 08 00 	mov    rsi,QWORD PTR [rsp+0x800]
    4c8c:	00 
    4c8d:	48 b8 00 00 00 00 00 	movabs rax,0x0
    4c94:	00 00 00 
			4c8f: R_X86_64_64	apply1
    4c97:	48 89 b4 24 c0 01 00 	mov    QWORD PTR [rsp+0x1c0],rsi
    4c9e:	00 
    4c9f:	48 89 bc 24 d0 01 00 	mov    QWORD PTR [rsp+0x1d0],rdi
    4ca6:	00 
    4ca7:	ff d0                	call   rax
    4ca9:	49 89 c7             	mov    r15,rax
    4cac:	49 89 d6             	mov    r14,rdx
    4caf:	4d 85 f6             	test   r14,r14
    4cb2:	0f 85 0d 00 00 00    	jne    4cc5 <big_makeblock+0x4cc5>
    4cb8:	4c 89 bc 24 a8 03 00 	mov    QWORD PTR [rsp+0x3a8],r15
    4cbf:	00 
    4cc0:	e9 9d 00 00 00       	jmp    4d62 <big_makeblock+0x4d62>
    4cc5:	48 8b b4 24 18 08 00 	mov    rsi,QWORD PTR [rsp+0x818]
    4ccc:	00 
    4ccd:	4c 8b ae 98 00 00 00 	mov    r13,QWORD PTR [rsi+0x98]
    4cd4:	4c 89 f3             	mov    rbx,r14
    4cd7:	48 83 c3 ff          	add    rbx,0xffffffffffffffff
    4cdb:	4c 89 f2             	mov    rdx,r14
    4cde:	48 c1 e2 03          	shl    rdx,0x3
    4ce2:	4d 89 ec             	mov    r12,r13
    4ce5:	49 01 d4             	add    r12,rdx
    4ce8:	4c 89 ef             	mov    rdi,r13
    4ceb:	48 83 c7 e8          	add    rdi,0xffffffffffffffe8
    4cef:	4c 89 ee             	mov    rsi,r13
    4cf2:	48 b8 00 00 00 00 00 	movabs rax,0x0
    4cf9:	00 00 00 
			4cf4: R_X86_64_64	memmove
    4cfc:	4c 89 bc 24 c0 01 00 	mov    QWORD PTR [rsp+0x1c0],r15
    4d03:	00 
    4d04:	ff d0                	call   rax
    4d06:	4c 8b bc 24 c0 01 00 	mov    r15,QWORD PTR [rsp+0x1c0]
    4d0d:	00 
    4d0e:	48 be 00 00 00 00 00 	movabs rsi,0x0
    4d15:	00 00 00 
			4d10: R_X86_64_64	callback_return_addr
    4d18:	bf 01 00 00 00       	mov    edi,0x1
    4d1d:	4b 89 7c f5 f8       	mov    QWORD PTR [r13+r14*8-0x8],rdi
    4d22:	bf 01 00 00 00       	mov    edi,0x1
    4d27:	4b 89 7c f5 f0       	mov    QWORD PTR [r13+r14*8-0x10],rdi
    4d2c:	4b 89 74 f5 e8       	mov    QWORD PTR [r13+r14*8-0x18],rsi
    4d31:	48 8b b4 24 18 08 00 	mov    rsi,QWORD PTR [rsp+0x818]
    4d38:	00 
    4d39:	4c 89 a6 98 00 00 00 	mov    QWORD PTR [rsi+0x98],r12
    4d40:	4c 89 ff             	mov    rdi,r15
    4d43:	48 89 de             	mov    rsi,rbx
    4d46:	48 b8 00 00 00 00 00 	movabs rax,0x0
    4d4d:	00 00 00 
			4d48: R_X86_64_64	apply_n
    4d50:	48 89 bc 24 c0 01 00 	mov    QWORD PTR [rsp+0x1c0],rdi
    4d57:	00 
    4d58:	ff d0                	call   rax
    4d5a:	48 89 84 24 a8 03 00 	mov    QWORD PTR [rsp+0x3a8],rax
    4d61:	00 
    4d62:	48 8b b4 24 10 08 00 	mov    rsi,QWORD PTR [rsp+0x810]
    4d69:	00 
    4d6a:	48 8b 7e 08          	mov    rdi,QWORD PTR [rsi+0x8]
    4d6e:	48 8b b4 24 00 08 00 	mov    rsi,QWORD PTR [rsp+0x800]
    4d75:	00 
    4d76:	48 b8 00 00 00 00 00 	movabs rax,0x0
    4d7d:	00 00 00 
			4d78: R_X86_64_64	apply1
    4d80:	48 89 b4 24 c0 01 00 	mov    QWORD PTR [rsp+0x1c0],rsi
    4d87:	00 
    4d88:	48 89 bc 24 d0 01 00 	mov    QWORD PTR [rsp+0x1d0],rdi
    4d8f:	00 
    4d90:	ff d0                	call   rax
    4d92:	48 89 c3             	mov    rbx,rax
    4d95:	49 89 d6             	mov    r14,rdx
    4d98:	4d 85 f6             	test   r14,r14
    4d9b:	0f 85 0d 00 00 00    	jne    4dae <big_makeblock+0x4dae>
    4da1:	48 89 9c 24 c0 01 00 	mov    QWORD PTR [rsp+0x1c0],rbx
    4da8:	00 
    4da9:	e9 9d 00 00 00       	jmp    4e4b <big_makeblock+0x4e4b>
    4dae:	48 8b b4 24 18 08 00 	mov    rsi,QWORD PTR [rsp+0x818]
    4db5:	00 
    4db6:	4c 8b ae 98 00 00 00 	mov    r13,QWORD PTR [rsi+0x98]
    4dbd:	4d 89 f7             	mov    r15,r14
    4dc0:	49 83 c7 ff          	add    r15,0xffffffffffffffff
    4dc4:	4c 89 f2             	mov    rdx,r14
    4dc7:	48 c1 e2 03          	shl    rdx,0x3
    4dcb:	4d 89 ec             	mov    r12,r13
    4dce:	49 01 d4             	add    r12,rdx
    4dd1:	4c 89 ef             	mov    rdi,r13
    4dd4:	48 83 c7 e8          	add    rdi,0xffffffffffffffe8
    4dd8:	4c 89 ee             	mov    rsi,r13
    4ddb:	48 b8 00 00 00 00 00 	movabs rax,0x0
    4de2:	00 00 00 
			4ddd: R_X86_64_64	memmove
    4de5:	48 89 9c 24 d0 01 00 	mov    QWORD PTR [rsp+0x1d0],rbx
    4dec:	00 
    4ded:	ff d0                	call   rax
    4def:	48 8b 9c 24 d0 01 00 	mov    rbx,QWORD PTR [rsp+0x1d0]
    4df6:	00 
    4df7:	48 be 00 00 00 00 00 	movabs rsi,0x0
    4dfe:	00 00 00 
			4df9: R_X86_64_64	callback_return_addr
    4e01:	bf 01 00 00 00       	mov    edi,0x1
    4e06:	4b 89 7c f5 f8       	mov    QWORD PTR [r13+r14*8-0x8],rdi
    4e0b:	bf 01 00 00 00       	mov    edi,0x1
    4e10:	4b 89 7c f5 f0       	mov    QWORD PTR [r13+r14*8-0x10],rdi
    4e15:	4b 89 74 f5 e8       	mov    QWORD PTR [r13+r14*8-0x18],rsi
    4e1a:	48 8b b4 24 18 08 00 	mov    rsi,QWORD PTR [rsp+0x818]
    4e21:	00 
    4e22:	4c 89 a6 98 00 00 00 	mov    QWORD PTR [rsi+0x98],r12
    4e29:	48 89 df             	mov    rdi,rbx
    4e2c:	4c 89 fe             	mov    rsi,r15
    4e2f:	48 b8 00 00 00 00 00 	movabs rax,0x0
    4e36:	00 00 00 
			4e31: R_X86_64_64	apply_n
    4e39:	48 89 bc 24 c0 01 00 	mov    QWORD PTR [rsp+0x1c0],rdi
    4e40:	00 
    4e41:	ff d0                	call   rax
    4e43:	48 89 84 24 c0 01 00 	mov    QWORD PTR [rsp+0x1c0],rax
    4e4a:	00 
    4e4b:	48 8b b4 24 10 08 00 	mov    rsi,QWORD PTR [rsp+0x810]
    4e52:	00 
    4e53:	48 8b 7e 08          	mov    rdi,QWORD PTR [rsi+0x8]
    4e57:	48 8b b4 24 00 08 00 	mov    rsi,QWORD PTR [rsp+0x800]
    4e5e:	00 
    4e5f:	48 b8 00 00 00 00 00 	movabs rax,0x0
    4e66:	00 00 00 
			4e61: R_X86_64_64	apply1
    4e69:	48 89 b4 24 d0 01 00 	mov    QWORD PTR [rsp+0x1d0],rsi
    4e70:	00 
    4e71:	48 89 bc 24 e0 01 00 	mov    QWORD PTR [rsp+0x1e0],rdi
    4e78:	00 
    4e79:	ff d0                	call   rax
    4e7b:	48 89 c3             	mov    rbx,rax
    4e7e:	49 89 d6             	mov    r14,rdx
    4e81:	4d 85 f6             	test   r14,r14
    4e84:	0f 85 0d 00 00 00    	jne    4e97 <big_makeblock+0x4e97>
    4e8a:	48 89 9c 24 b8 03 00 	mov    QWORD PTR [rsp+0x3b8],rbx
    4e91:	00 
    4e92:	e9 9d 00 00 00       	jmp    4f34 <big_makeblock+0x4f34>
    4e97:	48 8b b4 24 18 08 00 	mov    rsi,QWORD PTR [rsp+0x818]
    4e9e:	00 
    4e9f:	4c 8b ae 98 00 00 00 	mov    r13,QWORD PTR [rsi+0x98]
    4ea6:	4d 89 f7             	mov    r15,r14
    4ea9:	49 83 c7 ff          	add    r15,0xffffffffffffffff
    4ead:	4c 89 f2             	mov    rdx,r14
    4eb0:	48 c1 e2 03          	shl    rdx,0x3
    4eb4:	4d 89 ec             	mov    r12,r13
    4eb7:	49 01 d4             	add    r12,rdx
    4eba:	4c 89 ef             	mov    rdi,r13
    4ebd:	48 83 c7 e8          	add    rdi,0xffffffffffffffe8
    4ec1:	4c 89 ee             	mov    rsi,r13
    4ec4:	48 b8 00 00 00 00 00 	movabs rax,0x0
    4ecb:	00 00 00 
			4ec6: R_X86_64_64	memmove
    4ece:	48 89 9c 24 d0 01 00 	mov    QWORD PTR [rsp+0x1d0],rbx
    4ed5:	00 
    4ed6:	ff d0                	call   rax
    4ed8:	48 8b 9c 24 d0 01 00 	mov    rbx,QWORD PTR [rsp+0x1d0]
    4edf:	00 
    4ee0:	48 be 00 00 00 00 00 	movabs rsi,0x0
    4ee7:	00 00 00 
			4ee2: R_X86_64_64	callback_return_addr
    4eea:	bf 01 00 00 00       	mov    edi,0x1
    4eef:	4b 89 7c f5 f8       	mov    QWORD PTR [r13+r14*8-0x8],rdi
    4ef4:	bf 01 00 00 00       	mov    edi,0x1
    4ef9:	4b 89 7c f5 f0       	mov    QWORD PTR [r13+r14*8-0x10],rdi
    4efe:	4b 89 74 f5 e8       	mov    QWORD PTR [r13+r14*8-0x18],rsi
    4f03:	48 8b b4 24 18 08 00 	mov    rsi,QWORD PTR [rsp+0x818]
    4f0a:	00 
    4f0b:	4c 89 a6 98 00 00 00 	mov    QWORD PTR [rsi+0x98],r12
    4f12:	48 89 df             	mov    rdi,rbx
    4f15:	4c 89 fe             	mov    rsi,r15
    4f18:	48 b8 00 00 00 00 00 	movabs rax,0x0
    4f1f:	00 00 00 
			4f1a: R_X86_64_64	apply_n
    4f22:	48 89 bc 24 d0 01 00 	mov    QWORD PTR [rsp+0x1d0],rdi
    4f29:	00 
    4f2a:	ff d0                	call   rax
    4f2c:	48 89 84 24 b8 03 00 	mov    QWORD PTR [rsp+0x3b8],rax
    4f33:	00 
    4f34:	48 8b b4 24 10 08 00 	mov    rsi,QWORD PTR [rsp+0x810]
    4f3b:	00 
    4f3c:	48 8b 7e 08          	mov    rdi,QWORD PTR [rsi+0x8]
    4f40:	48 8b b4 24 00 08 00 	mov    rsi,QWORD PTR [rsp+0x800]
    4f47:	00 
    4f48:	48 b8 00 00 00 00 00 	movabs rax,0x0
    4f4f:	00 00 00 
			4f4a: R_X86_64_64	apply1
    4f52:	48 89 b4 24 d0 01 00 	mov    QWORD PTR [rsp+0x1d0],rsi
    4f59:	00 
    4f5a:	48 89 bc 24 e0 01 00 	mov    QWORD PTR [rsp+0x1e0],rdi
    4f61:	00 
    4f62:	ff d0                	call   rax
    4f64:	49 89 c7             	mov    r15,rax
    4f67:	49 89 d6             	mov    r14,rdx
    4f6a:	4d 85 f6             	test   r14,r14
    4f6d:	0f 85 0d 00 00 00    	jne    4f80 <big_makeblock+0x4f80>
    4f73:	4c 89 bc 24 d0 01 00 	mov    QWORD PTR [rsp+0x1d0],r15
    4f7a:	00 
    4f7b:	e9 9d 00 00 00       	jmp    501d <big_makeblock+0x501d>
    4f80:	48 8b b4 24 18 08 00 	mov    rsi,QWORD PTR [rsp+0x818]
    4f87:	00 
    4f88:	4c 8b ae 98 00 00 00 	mov    r13,QWORD PTR [rsi+0x98]
    4f8f:	4c 89 f3             	mov    rbx,r14
    4f92:	48 83 c3 ff          	add    rbx,0xffffffffffffffff
    4f96:	4c 89 f2             	mov    rdx,r14
    4f99:	48 c1 e2 03          	shl    rdx,0x3
    4f9d:	4d 89 ec             	mov    r12,r13
    4fa0:	49 01 d4             	add    r12,rdx
    4fa3:	4c 89 ef             	mov    rdi,r13
    4fa6:	48 83 c7 e8          	add    rdi,0xffffffffffffffe8
    4faa:	4c 89 ee             	mov    rsi,r13
    4fad:	48 b8 00 00 00 00 00 	movabs rax,0x0
    4fb4:	00 00 00 
			4faf: R_X86_64_64	memmove
    4fb7:	4c 89 bc 24 e0 01 00 	mov    QWORD PTR [rsp+0x1e0],r15
    4fbe:	00 
    4fbf:	ff d0                	call   rax
    4fc1:	4c 8b bc 24 e0 01 00 	mov    r15,QWORD PTR [rsp+0x1e0]
    4fc8:	00 
    4fc9:	48 be 00 00 00 00 00 	movabs rsi,0x0
    4fd0:	00 00 00 
			4fcb: R_X86_64_64	callback_return_addr
    4fd3:	bf 01 00 00 00       	mov    edi,0x1
    4fd8:	4b 89 7c f5 f8       	mov    QWORD PTR [r13+r14*8-0x8],rdi
    4fdd:	bf 01 00 00 00       	mov    edi,0x1
    4fe2:	4b 89 7c f5 f0       	mov    QWORD PTR [r13+r14*8-0x10],rdi
    4fe7:	4b 89 74 f5 e8       	mov    QWORD PTR [r13+r14*8-0x18],rsi
    4fec:	48 8b b4 24 18 08 00 	mov    rsi,QWORD PTR [rsp+0x818]
    4ff3:	00 
    4ff4:	4c 89 a6 98 00 00 00 	mov    QWORD PTR [rsi+0x98],r12
    4ffb:	4c 89 ff             	mov    rdi,r15
    4ffe:	48 89 de             	mov    rsi,rbx
    5001:	48 b8 00 00 00 00 00 	movabs rax,0x0
    5008:	00 00 00 
			5003: R_X86_64_64	apply_n
    500b:	48 89 bc 24 d0 01 00 	mov    QWORD PTR [rsp+0x1d0],rdi
    5012:	00 
    5013:	ff d0                	call   rax
    5015:	48 89 84 24 d0 01 00 	mov    QWORD PTR [rsp+0x1d0],rax
    501c:	00 
    501d:	48 8b b4 24 10 08 00 	mov    rsi,QWORD PTR [rsp+0x810]
    5024:	00 
    5025:	48 8b 7e 08          	mov    rdi,QWORD PTR [rsi+0x8]
    5029:	48 8b b4 24 00 08 00 	mov    rsi,QWORD PTR [rsp+0x800]
    5030:	00 
    5031:	48 b8 00 00 00 00 00 	movabs rax,0x0
    5038:	00 00 00 
			5033: R_X86_64_64	apply1
    503b:	48 89 b4 24 e0 01 00 	mov    QWORD PTR [rsp+0x1e0],rsi
    5042:	00 
    5043:	48 89 bc 24 f0 01 00 	mov    QWORD PTR [rsp+0x1f0],rdi
    504a:	00 
    504b:	ff d0                	call   rax
    504d:	48 89 c3             	mov    rbx,rax
    5050:	49 89 d6             	mov    r14,rdx
    5053:	4d 85 f6             	test   r14,r14
    5056:	0f 85 0d 00 00 00    	jne    5069 <big_makeblock+0x5069>
    505c:	48 89 9c 24 c8 03 00 	mov    QWORD PTR [rsp+0x3c8],rbx
    5063:	00 
    5064:	e9 9d 00 00 00       	jmp    5106 <big_makeblock+0x5106>
    5069:	48 8b b4 24 18 08 00 	mov    rsi,QWORD PTR [rsp+0x818]
    5070:	00 
    5071:	4c 8b ae 98 00 00 00 	mov    r13,QWORD PTR [rsi+0x98]
    5078:	4d 89 f7             	mov    r15,r14
    507b:	49 83 c7 ff          	add    r15,0xffffffffffffffff
    507f:	4c 89 f2             	mov    rdx,r14
    5082:	48 c1 e2 03          	shl    rdx,0x3
    5086:	4d 89 ec             	mov    r12,r13
    5089:	49 01 d4             	add    r12,rdx
    508c:	4c 89 ef             	mov    rdi,r13
    508f:	48 83 c7 e8          	add    rdi,0xffffffffffffffe8
    5093:	4c 89 ee             	mov    rsi,r13
    5096:	48 b8 00 00 00 00 00 	movabs rax,0x0
    509d:	00 00 00 
			5098: R_X86_64_64	memmove
    50a0:	48 89 9c 24 e0 01 00 	mov    QWORD PTR [rsp+0x1e0],rbx
    50a7:	00 
    50a8:	ff d0                	call   rax
    50aa:	48 8b 9c 24 e0 01 00 	mov    rbx,QWORD PTR [rsp+0x1e0]
    50b1:	00 
    50b2:	48 be 00 00 00 00 00 	movabs rsi,0x0
    50b9:	00 00 00 
			50b4: R_X86_64_64	callback_return_addr
    50bc:	bf 01 00 00 00       	mov    edi,0x1
    50c1:	4b 89 7c f5 f8       	mov    QWORD PTR [r13+r14*8-0x8],rdi
    50c6:	bf 01 00 00 00       	mov    edi,0x1
    50cb:	4b 89 7c f5 f0       	mov    QWORD PTR [r13+r14*8-0x10],rdi
    50d0:	4b 89 74 f5 e8       	mov    QWORD PTR [r13+r14*8-0x18],rsi
    50d5:	48 8b b4 24 18 08 00 	mov    rsi,QWORD PTR [rsp+0x818]
    50dc:	00 
    50dd:	4c 89 a6 98 00 00 00 	mov    QWORD PTR [rsi+0x98],r12
    50e4:	48 89 df             	mov    rdi,rbx
    50e7:	4c 89 fe             	mov    rsi,r15
    50ea:	48 b8 00 00 00 00 00 	movabs rax,0x0
    50f1:	00 00 00 
			50ec: R_X86_64_64	apply_n
    50f4:	48 89 bc 24 e0 01 00 	mov    QWORD PTR [rsp+0x1e0],rdi
    50fb:	00 
    50fc:	ff d0                	call   rax
    50fe:	48 89 84 24 c8 03 00 	mov    QWORD PTR [rsp+0x3c8],rax
    5105:	00 
    5106:	48 8b b4 24 10 08 00 	mov    rsi,QWORD PTR [rsp+0x810]
    510d:	00 
    510e:	48 8b 7e 08          	mov    rdi,QWORD PTR [rsi+0x8]
    5112:	48 8b b4 24 00 08 00 	mov    rsi,QWORD PTR [rsp+0x800]
    5119:	00 
    511a:	48 b8 00 00 00 00 00 	movabs rax,0x0
    5121:	00 00 00 
			511c: R_X86_64_64	apply1
    5124:	48 89 b4 24 e0 01 00 	mov    QWORD PTR [rsp+0x1e0],rsi
    512b:	00 
    512c:	48 89 bc 24 f0 01 00 	mov    QWORD PTR [rsp+0x1f0],rdi
    5133:	00 
    5134:	ff d0                	call   rax
    5136:	48 89 c3             	mov    rbx,rax
    5139:	49 89 d6             	mov    r14,rdx
    513c:	4d 85 f6             	test   r14,r14
    513f:	0f 85 0d 00 00 00    	jne    5152 <big_makeblock+0x5152>
    5145:	48 89 9c 24 e0 01 00 	mov    QWORD PTR [rsp+0x1e0],rbx
    514c:	00 
    514d:	e9 9d 00 00 00       	jmp    51ef <big_makeblock+0x51ef>
    5152:	48 8b b4 24 18 08 00 	mov    rsi,QWORD PTR [rsp+0x818]
    5159:	00 
    515a:	4c 8b ae 98 00 00 00 	mov    r13,QWORD PTR [rsi+0x98]
    5161:	4d 89 f7             	mov    r15,r14
    5164:	49 83 c7 ff          	add    r15,0xffffffffffffffff
    5168:	4c 89 f2             	mov    rdx,r14
    516b:	48 c1 e2 03          	shl    rdx,0x3
    516f:	4d 89 ec             	mov    r12,r13
    5172:	49 01 d4             	add    r12,rdx
    5175:	4c 89 ef             	mov    rdi,r13
    5178:	48 83 c7 e8          	add    rdi,0xffffffffffffffe8
    517c:	4c 89 ee             	mov    rsi,r13
    517f:	48 b8 00 00 00 00 00 	movabs rax,0x0
    5186:	00 00 00 
			5181: R_X86_64_64	memmove
    5189:	48 89 9c 24 f0 01 00 	mov    QWORD PTR [rsp+0x1f0],rbx
    5190:	00 
    5191:	ff d0                	call   rax
    5193:	48 8b 9c 24 f0 01 00 	mov    rbx,QWORD PTR [rsp+0x1f0]
    519a:	00 
    519b:	48 be 00 00 00 00 00 	movabs rsi,0x0
    51a2:	00 00 00 
			519d: R_X86_64_64	callback_return_addr
    51a5:	bf 01 00 00 00       	mov    edi,0x1
    51aa:	4b 89 7c f5 f8       	mov    QWORD PTR [r13+r14*8-0x8],rdi
    51af:	bf 01 00 00 00       	mov    edi,0x1
    51b4:	4b 89 7c f5 f0       	mov    QWORD PTR [r13+r14*8-0x10],rdi
    51b9:	4b 89 74 f5 e8       	mov    QWORD PTR [r13+r14*8-0x18],rsi
    51be:	48 8b b4 24 18 08 00 	mov    rsi,QWORD PTR [rsp+0x818]
    51c5:	00 
    51c6:	4c 89 a6 98 00 00 00 	mov    QWORD PTR [rsi+0x98],r12
    51cd:	48 89 df             	mov    rdi,rbx
    51d0:	4c 89 fe             	mov    rsi,r15
    51d3:	48 b8 00 00 00 00 00 	movabs rax,0x0
    51da:	00 00 00 
			51d5: R_X86_64_64	apply_n
    51dd:	48 89 bc 24 e0 01 00 	mov    QWORD PTR [rsp+0x1e0],rdi
    51e4:	00 
    51e5:	ff d0                	call   rax
    51e7:	48 89 84 24 e0 01 00 	mov    QWORD PTR [rsp+0x1e0],rax
    51ee:	00 
    51ef:	48 8b b4 24 10 08 00 	mov    rsi,QWORD PTR [rsp+0x810]
    51f6:	00 
    51f7:	48 8b 7e 08          	mov    rdi,QWORD PTR [rsi+0x8]
    51fb:	48 8b b4 24 00 08 00 	mov    rsi,QWORD PTR [rsp+0x800]
    5202:	00 
    5203:	48 b8 00 00 00 00 00 	movabs rax,0x0
    520a:	00 00 00 
			5205: R_X86_64_64	apply1
    520d:	48 89 b4 24 f0 01 00 	mov    QWORD PTR [rsp+0x1f0],rsi
    5214:	00 
    5215:	48 89 bc 24 00 02 00 	mov    QWORD PTR [rsp+0x200],rdi
    521c:	00 
    521d:	ff d0                	call   rax
    521f:	49 89 c7             	mov    r15,rax
    5222:	49 89 d6             	mov    r14,rdx
    5225:	4d 85 f6             	test   r14,r14
    5228:	0f 85 0d 00 00 00    	jne    523b <big_makeblock+0x523b>
    522e:	4c 89 bc 24 d8 03 00 	mov    QWORD PTR [rsp+0x3d8],r15
    5235:	00 
    5236:	e9 9d 00 00 00       	jmp    52d8 <big_makeblock+0x52d8>
    523b:	48 8b b4 24 18 08 00 	mov    rsi,QWORD PTR [rsp+0x818]
    5242:	00 
    5243:	4c 8b ae 98 00 00 00 	mov    r13,QWORD PTR [rsi+0x98]
    524a:	4c 89 f3             	mov    rbx,r14
    524d:	48 83 c3 ff          	add    rbx,0xffffffffffffffff
    5251:	4c 89 f2             	mov    rdx,r14
    5254:	48 c1 e2 03          	shl    rdx,0x3
    5258:	4d 89 ec             	mov    r12,r13
    525b:	49 01 d4             	add    r12,rdx
    525e:	4c 89 ef             	mov    rdi,r13
    5261:	48 83 c7 e8          	add    rdi,0xffffffffffffffe8
    5265:	4c 89 ee             	mov    rsi,r13
    5268:	48 b8 00 00 00 00 00 	movabs rax,0x0
    526f:	00 00 00 
			526a: R_X86_64_64	memmove
    5272:	4c 89 bc 24 f0 01 00 	mov    QWORD PTR [rsp+0x1f0],r15
    5279:	00 
    527a:	ff d0                	call   rax
    527c:	4c 8b bc 24 f0 01 00 	mov    r15,QWORD PTR [rsp+0x1f0]
    5283:	00 
    5284:	48 be 00 00 00 00 00 	movabs rsi,0x0
    528b:	00 00 00 
			5286: R_X86_64_64	callback_return_addr
    528e:	bf 01 00 00 00       	mov    edi,0x1
    5293:	4b 89 7c f5 f8       	mov    QWORD PTR [r13+r14*8-0x8],rdi
    5298:	bf 01 00 00 00       	mov    edi,0x1
    529d:	4b 89 7c f5 f0       	mov    QWORD PTR [r13+r14*8-0x10],rdi
    52a2:	4b 89 74 f5 e8       	mov    QWORD PTR [r13+r14*8-0x18],rsi
    52a7:	48 8b b4 24 18 08 00 	mov    rsi,QWORD PTR [rsp+0x818]
    52ae:	00 
    52af:	4c 89 a6 98 00 00 00 	mov    QWORD PTR [rsi+0x98],r12
    52b6:	4c 89 ff             	mov    rdi,r15
    52b9:	48 89 de             	mov    rsi,rbx
    52bc:	48 b8 00 00 00 00 00 	movabs rax,0x0
    52c3:	00 00 00 
			52be: R_X86_64_64	apply_n
    52c6:	48 89 bc 24 f0 01 00 	mov    QWORD PTR [rsp+0x1f0],rdi
    52cd:	00 
    52ce:	ff d0                	call   rax
    52d0:	48 89 84 24 d8 03 00 	mov    QWORD PTR [rsp+0x3d8],rax
    52d7:	00 
    52d8:	48 8b b4 24 10 08 00 	mov    rsi,QWORD PTR [rsp+0x810]
    52df:	00 
    52e0:	48 8b 7e 08          	mov    rdi,QWORD PTR [rsi+0x8]
    52e4:	48 8b b4 24 00 08 00 	mov    rsi,QWORD PTR [rsp+0x800]
    52eb:	00 
    52ec:	48 b8 00 00 00 00 00 	movabs rax,0x0
    52f3:	00 00 00 
			52ee: R_X86_64_64	apply1
    52f6:	48 89 b4 24 f0 01 00 	mov    QWORD PTR [rsp+0x1f0],rsi
    52fd:	00 
    52fe:	48 89 bc 24 00 02 00 	mov    QWORD PTR [rsp+0x200],rdi
    5305:	00 
    5306:	ff d0                	call   rax
    5308:	48 89 c3             	mov    rbx,rax
    530b:	49 89 d6             	mov    r14,rdx
    530e:	4d 85 f6             	test   r14,r14
    5311:	0f 85 0d 00 00 00    	jne    5324 <big_makeblock+0x5324>
    5317:	48 89 9c 24 f0 01 00 	mov    QWORD PTR [rsp+0x1f0],rbx
    531e:	00 
    531f:	e9 9d 00 00 00       	jmp    53c1 <big_makeblock+0x53c1>
    5324:	48 8b b4 24 18 08 00 	mov    rsi,QWORD PTR [rsp+0x818]
    532b:	00 
    532c:	4c 8b ae 98 00 00 00 	mov    r13,QWORD PTR [rsi+0x98]
    5333:	4d 89 f7             	mov    r15,r14
    5336:	49 83 c7 ff          	add    r15,0xffffffffffffffff
    533a:	4c 89 f2             	mov    rdx,r14
    533d:	48 c1 e2 03          	shl    rdx,0x3
    5341:	4d 89 ec             	mov    r12,r13
    5344:	49 01 d4             	add    r12,rdx
    5347:	4c 89 ef             	mov    rdi,r13
    534a:	48 83 c7 e8          	add    rdi,0xffffffffffffffe8
    534e:	4c 89 ee             	mov    rsi,r13
    5351:	48 b8 00 00 00 00 00 	movabs rax,0x0
    5358:	00 00 00 
			5353: R_X86_64_64	memmove
    535b:	48 89 9c 24 00 02 00 	mov    QWORD PTR [rsp+0x200],rbx
    5362:	00 
    5363:	ff d0                	call   rax
    5365:	48 8b 9c 24 00 02 00 	mov    rbx,QWORD PTR [rsp+0x200]
    536c:	00 
    536d:	48 be 00 00 00 00 00 	movabs rsi,0x0
    5374:	00 00 00 
			536f: R_X86_64_64	callback_return_addr
    5377:	bf 01 00 00 00       	mov    edi,0x1
    537c:	4b 89 7c f5 f8       	mov    QWORD PTR [r13+r14*8-0x8],rdi
    5381:	bf 01 00 00 00       	mov    edi,0x1
    5386:	4b 89 7c f5 f0       	mov    QWORD PTR [r13+r14*8-0x10],rdi
    538b:	4b 89 74 f5 e8       	mov    QWORD PTR [r13+r14*8-0x18],rsi
    5390:	48 8b b4 24 18 08 00 	mov    rsi,QWORD PTR [rsp+0x818]
    5397:	00 
    5398:	4c 89 a6 98 00 00 00 	mov    QWORD PTR [rsi+0x98],r12
    539f:	48 89 df             	mov    rdi,rbx
    53a2:	4c 89 fe             	mov    rsi,r15
    53a5:	48 b8 00 00 00 00 00 	movabs rax,0x0
    53ac:	00 00 00 
			53a7: R_X86_64_64	apply_n
    53af:	48 89 bc 24 f0 01 00 	mov    QWORD PTR [rsp+0x1f0],rdi
    53b6:	00 
    53b7:	ff d0                	call   rax
    53b9:	48 89 84 24 f0 01 00 	mov    QWORD PTR [rsp+0x1f0],rax
    53c0:	00 
    53c1:	48 8b b4 24 10 08 00 	mov    rsi,QWORD PTR [rsp+0x810]
    53c8:	00 
    53c9:	48 8b 7e 08          	mov    rdi,QWORD PTR [rsi+0x8]
    53cd:	48 8b b4 24 00 08 00 	mov    rsi,QWORD PTR [rsp+0x800]
    53d4:	00 
    53d5:	48 b8 00 00 00 00 00 	movabs rax,0x0
    53dc:	00 00 00 
			53d7: R_X86_64_64	apply1
    53df:	48 89 b4 24 00 02 00 	mov    QWORD PTR [rsp+0x200],rsi
    53e6:	00 
    53e7:	48 89 bc 24 10 02 00 	mov    QWORD PTR [rsp+0x210],rdi
    53ee:	00 
    53ef:	ff d0                	call   rax
    53f1:	48 89 c3             	mov    rbx,rax
    53f4:	49 89 d6             	mov    r14,rdx
    53f7:	4d 85 f6             	test   r14,r14
    53fa:	0f 85 0d 00 00 00    	jne    540d <big_makeblock+0x540d>
    5400:	48 89 9c 24 e8 03 00 	mov    QWORD PTR [rsp+0x3e8],rbx
    5407:	00 
    5408:	e9 9d 00 00 00       	jmp    54aa <big_makeblock+0x54aa>
    540d:	48 8b b4 24 18 08 00 	mov    rsi,QWORD PTR [rsp+0x818]
    5414:	00 
    5415:	4c 8b ae 98 00 00 00 	mov    r13,QWORD PTR [rsi+0x98]
    541c:	4d 89 f7             	mov    r15,r14
    541f:	49 83 c7 ff          	add    r15,0xffffffffffffffff
    5423:	4c 89 f2             	mov    rdx,r14
    5426:	48 c1 e2 03          	shl    rdx,0x3
    542a:	4d 89 ec             	mov    r12,r13
    542d:	49 01 d4             	add    r12,rdx
    5430:	4c 89 ef             	mov    rdi,r13
    5433:	48 83 c7 e8          	add    rdi,0xffffffffffffffe8
    5437:	4c 89 ee             	mov    rsi,r13
    543a:	48 b8 00 00 00 00 00 	movabs rax,0x0
    5441:	00 00 00 
			543c: R_X86_64_64	memmove
    5444:	48 89 9c 24 00 02 00 	mov    QWORD PTR [rsp+0x200],rbx
    544b:	00 
    544c:	ff d0                	call   rax
    544e:	48 8b 9c 24 00 02 00 	mov    rbx,QWORD PTR [rsp+0x200]
    5455:	00 
    5456:	48 be 00 00 00 00 00 	movabs rsi,0x0
    545d:	00 00 00 
			5458: R_X86_64_64	callback_return_addr
    5460:	bf 01 00 00 00       	mov    edi,0x1
    5465:	4b 89 7c f5 f8       	mov    QWORD PTR [r13+r14*8-0x8],rdi
    546a:	bf 01 00 00 00       	mov    edi,0x1
    546f:	4b 89 7c f5 f0       	mov    QWORD PTR [r13+r14*8-0x10],rdi
    5474:	4b 89 74 f5 e8       	mov    QWORD PTR [r13+r14*8-0x18],rsi
    5479:	48 8b b4 24 18 08 00 	mov    rsi,QWORD PTR [rsp+0x818]
    5480:	00 
    5481:	4c 89 a6 98 00 00 00 	mov    QWORD PTR [rsi+0x98],r12
    5488:	48 89 df             	mov    rdi,rbx
    548b:	4c 89 fe             	mov    rsi,r15
    548e:	48 b8 00 00 00 00 00 	movabs rax,0x0
    5495:	00 00 00 
			5490: R_X86_64_64	apply_n
    5498:	48 89 bc 24 00 02 00 	mov    QWORD PTR [rsp+0x200],rdi
    549f:	00 
    54a0:	ff d0                	call   rax
    54a2:	48 89 84 24 e8 03 00 	mov    QWORD PTR [rsp+0x3e8],rax
    54a9:	00 
    54aa:	48 8b b4 24 10 08 00 	mov    rsi,QWORD PTR [rsp+0x810]
    54b1:	00 
    54b2:	48 8b 7e 08          	mov    rdi,QWORD PTR [rsi+0x8]
    54b6:	48 8b b4 24 00 08 00 	mov    rsi,QWORD PTR [rsp+0x800]
    54bd:	00 
    54be:	48 b8 00 00 00 00 00 	movabs rax,0x0
    54c5:	00 00 00 
			54c0: R_X86_64_64	apply1
    54c8:	48 89 b4 24 00 02 00 	mov    QWORD PTR [rsp+0x200],rsi
    54cf:	00 
    54d0:	48 89 bc 24 10 02 00 	mov    QWORD PTR [rsp+0x210],rdi
    54d7:	00 
    54d8:	ff d0                	call   rax
    54da:	49 89 c7             	mov    r15,rax
    54dd:	49 89 d6             	mov    r14,rdx
    54e0:	4d 85 f6             	test   r14,r14
    54e3:	0f 85 0d 00 00 00    	jne    54f6 <big_makeblock+0x54f6>
    54e9:	4c 89 bc 24 00 02 00 	mov    QWORD PTR [rsp+0x200],r15
    54f0:	00 
    54f1:	e9 9d 00 00 00       	jmp    5593 <big_makeblock+0x5593>
    54f6:	48 8b b4 24 18 08 00 	mov    rsi,QWORD PTR [rsp+0x818]
    54fd:	00 
    54fe:	4c 8b ae 98 00 00 00 	mov    r13,QWORD PTR [rsi+0x98]
    5505:	4c 89 f3             	mov    rbx,r14
    5508:	48 83 c3 ff          	add    rbx,0xffffffffffffffff
    550c:	4c 89 f2             	mov    rdx,r14
    550f:	48 c1 e2 03          	shl    rdx,0x3
    5513:	4d 89 ec             	mov    r12,r13
    5516:	49 01 d4             	add    r12,rdx
    5519:	4c 89 ef             	mov    rdi,r13
    551c:	48 83 c7 e8          	add    rdi,0xffffffffffffffe8
    5520:	4c 89 ee             	mov    rsi,r13
    5523:	48 b8 00 00 00 00 00 	movabs rax,0x0
    552a:	00 00 00 
			5525: R_X86_64_64	memmove
    552d:	4c 89 bc 24 10 02 00 	mov    QWORD PTR [rsp+0x210],r15
    5534:	00 
    5535:	ff d0                	call   rax
    5537:	4c 8b bc 24 10 02 00 	mov    r15,QWORD PTR [rsp+0x210]
    553e:	00 
    553f:	48 be 00 00 00 00 00 	movabs rsi,0x0
    5546:	00 00 00 
			5541: R_X86_64_64	callback_return_addr
    5549:	bf 01 00 00 00       	mov    edi,0x1
    554e:	4b 89 7c f5 f8       	mov    QWORD PTR [r13+r14*8-0x8],rdi
    5553:	bf 01 00 00 00       	mov    edi,0x1
    5558:	4b 89 7c f5 f0       	mov    QWORD PTR [r13+r14*8-0x10],rdi
    555d:	4b 89 74 f5 e8       	mov    QWORD PTR [r13+r14*8-0x18],rsi
    5562:	48 8b b4 24 18 08 00 	mov    rsi,QWORD PTR [rsp+0x818]
    5569:	00 
    556a:	4c 89 a6 98 00 00 00 	mov    QWORD PTR [rsi+0x98],r12
    5571:	4c 89 ff             	mov    rdi,r15
    5574:	48 89 de             	mov    rsi,rbx
    5577:	48 b8 00 00 00 00 00 	movabs rax,0x0
    557e:	00 00 00 
			5579: R_X86_64_64	apply_n
    5581:	48 89 bc 24 00 02 00 	mov    QWORD PTR [rsp+0x200],rdi
    5588:	00 
    5589:	ff d0                	call   rax
    558b:	48 89 84 24 00 02 00 	mov    QWORD PTR [rsp+0x200],rax
    5592:	00 
    5593:	48 8b b4 24 10 08 00 	mov    rsi,QWORD PTR [rsp+0x810]
    559a:	00 
    559b:	48 8b 7e 08          	mov    rdi,QWORD PTR [rsi+0x8]
    559f:	48 8b b4 24 00 08 00 	mov    rsi,QWORD PTR [rsp+0x800]
    55a6:	00 
    55a7:	48 b8 00 00 00 00 00 	movabs rax,0x0
    55ae:	00 00 00 
			55a9: R_X86_64_64	apply1
    55b1:	48 89 b4 24 10 02 00 	mov    QWORD PTR [rsp+0x210],rsi
    55b8:	00 
    55b9:	48 89 bc 24 20 02 00 	mov    QWORD PTR [rsp+0x220],rdi
    55c0:	00 
    55c1:	ff d0                	call   rax
    55c3:	48 89 c3             	mov    rbx,rax
    55c6:	49 89 d6             	mov    r14,rdx
    55c9:	4d 85 f6             	test   r14,r14
    55cc:	0f 85 0d 00 00 00    	jne    55df <big_makeblock+0x55df>
    55d2:	48 89 9c 24 f8 03 00 	mov    QWORD PTR [rsp+0x3f8],rbx
    55d9:	00 
    55da:	e9 9d 00 00 00       	jmp    567c <big_makeblock+0x567c>
    55df:	48 8b b4 24 18 08 00 	mov    rsi,QWORD PTR [rsp+0x818]
    55e6:	00 
    55e7:	4c 8b ae 98 00 00 00 	mov    r13,QWORD PTR [rsi+0x98]
    55ee:	4d 89 f7             	mov    r15,r14
    55f1:	49 83 c7 ff          	add    r15,0xffffffffffffffff
    55f5:	4c 89 f2             	mov    rdx,r14
    55f8:	48 c1 e2 03          	shl    rdx,0x3
    55fc:	4d 89 ec             	mov    r12,r13
    55ff:	49 01 d4             	add    r12,rdx
    5602:	4c 89 ef             	mov    rdi,r13
    5605:	48 83 c7 e8          	add    rdi,0xffffffffffffffe8
    5609:	4c 89 ee             	mov    rsi,r13
    560c:	48 b8 00 00 00 00 00 	movabs rax,0x0
    5613:	00 00 00 
			560e: R_X86_64_64	memmove
    5616:	48 89 9c 24 10 02 00 	mov    QWORD PTR [rsp+0x210],rbx
    561d:	00 
    561e:	ff d0                	call   rax
    5620:	48 8b 9c 24 10 02 00 	mov    rbx,QWORD PTR [rsp+0x210]
    5627:	00 
    5628:	48 be 00 00 00 00 00 	movabs rsi,0x0
    562f:	00 00 00 
			562a: R_X86_64_64	callback_return_addr
    5632:	bf 01 00 00 00       	mov    edi,0x1
    5637:	4b 89 7c f5 f8       	mov    QWORD PTR [r13+r14*8-0x8],rdi
    563c:	bf 01 00 00 00       	mov    edi,0x1
    5641:	4b 89 7c f5 f0       	mov    QWORD PTR [r13+r14*8-0x10],rdi
    5646:	4b 89 74 f5 e8       	mov    QWORD PTR [r13+r14*8-0x18],rsi
    564b:	48 8b b4 24 18 08 00 	mov    rsi,QWORD PTR [rsp+0x818]
    5652:	00 
    5653:	4c 89 a6 98 00 00 00 	mov    QWORD PTR [rsi+0x98],r12
    565a:	48 89 df             	mov    rdi,rbx
    565d:	4c 89 fe             	mov    rsi,r15
    5660:	48 b8 00 00 00 00 00 	movabs rax,0x0
    5667:	00 00 00 
			5662: R_X86_64_64	apply_n
    566a:	48 89 bc 24 10 02 00 	mov    QWORD PTR [rsp+0x210],rdi
    5671:	00 
    5672:	ff d0                	call   rax
    5674:	48 89 84 24 f8 03 00 	mov    QWORD PTR [rsp+0x3f8],rax
    567b:	00 
    567c:	48 8b b4 24 10 08 00 	mov    rsi,QWORD PTR [rsp+0x810]
    5683:	00 
    5684:	48 8b 7e 08          	mov    rdi,QWORD PTR [rsi+0x8]
    5688:	48 8b b4 24 00 08 00 	mov    rsi,QWORD PTR [rsp+0x800]
    568f:	00 
    5690:	48 b8 00 00 00 00 00 	movabs rax,0x0
    5697:	00 00 00 
			5692: R_X86_64_64	apply1
    569a:	48 89 b4 24 10 02 00 	mov    QWORD PTR [rsp+0x210],rsi
    56a1:	00 
    56a2:	48 89 bc 24 20 02 00 	mov    QWORD PTR [rsp+0x220],rdi
    56a9:	00 
    56aa:	ff d0                	call   rax
    56ac:	48 89 c3             	mov    rbx,rax
    56af:	49 89 d6             	mov    r14,rdx
    56b2:	4d 85 f6             	test   r14,r14
    56b5:	0f 85 0d 00 00 00    	jne    56c8 <big_makeblock+0x56c8>
    56bb:	48 89 9c 24 10 02 00 	mov    QWORD PTR [rsp+0x210],rbx
    56c2:	00 
    56c3:	e9 9d 00 00 00       	jmp    5765 <big_makeblock+0x5765>
    56c8:	48 8b b4 24 18 08 00 	mov    rsi,QWORD PTR [rsp+0x818]
    56cf:	00 
    56d0:	4c 8b ae 98 00 00 00 	mov    r13,QWORD PTR [rsi+0x98]
    56d7:	4d 89 f7             	mov    r15,r14
    56da:	49 83 c7 ff          	add    r15,0xffffffffffffffff
    56de:	4c 89 f2             	mov    rdx,r14
    56e1:	48 c1 e2 03          	shl    rdx,0x3
    56e5:	4d 89 ec             	mov    r12,r13
    56e8:	49 01 d4             	add    r12,rdx
    56eb:	4c 89 ef             	mov    rdi,r13
    56ee:	48 83 c7 e8          	add    rdi,0xffffffffffffffe8
    56f2:	4c 89 ee             	mov    rsi,r13
    56f5:	48 b8 00 00 00 00 00 	movabs rax,0x0
    56fc:	00 00 00 
			56f7: R_X86_64_64	memmove
    56ff:	48 89 9c 24 20 02 00 	mov    QWORD PTR [rsp+0x220],rbx
    5706:	00 
    5707:	ff d0                	call   rax
    5709:	48 8b 9c 24 20 02 00 	mov    rbx,QWORD PTR [rsp+0x220]
    5710:	00 
    5711:	48 be 00 00 00 00 00 	movabs rsi,0x0
    5718:	00 00 00 
			5713: R_X86_64_64	callback_return_addr
    571b:	bf 01 00 00 00       	mov    edi,0x1
    5720:	4b 89 7c f5 f8       	mov    QWORD PTR [r13+r14*8-0x8],rdi
    5725:	bf 01 00 00 00       	mov    edi,0x1
    572a:	4b 89 7c f5 f0       	mov    QWORD PTR [r13+r14*8-0x10],rdi
    572f:	4b 89 74 f5 e8       	mov    QWORD PTR [r13+r14*8-0x18],rsi
    5734:	48 8b b4 24 18 08 00 	mov    rsi,QWORD PTR [rsp+0x818]
    573b:	00 
    573c:	4c 89 a6 98 00 00 00 	mov    QWORD PTR [rsi+0x98],r12
    5743:	48 89 df             	mov    rdi,rbx
    5746:	4c 89 fe             	mov    rsi,r15
    5749:	48 b8 00 00 00 00 00 	movabs rax,0x0
    5750:	00 00 00 
			574b: R_X86_64_64	apply_n
    5753:	48 89 bc 24 10 02 00 	mov    QWORD PTR [rsp+0x210],rdi
    575a:	00 
    575b:	ff d0                	call   rax
    575d:	48 89 84 24 10 02 00 	mov    QWORD PTR [rsp+0x210],rax
    5764:	00 
    5765:	48 8b b4 24 10 08 00 	mov    rsi,QWORD PTR [rsp+0x810]
    576c:	00 
    576d:	48 8b 7e 08          	mov    rdi,QWORD PTR [rsi+0x8]
    5771:	48 8b b4 24 00 08 00 	mov    rsi,QWORD PTR [rsp+0x800]
    5778:	00 
    5779:	48 b8 00 00 00 00 00 	movabs rax,0x0
    5780:	00 00 00 
			577b: R_X86_64_64	apply1
    5783:	48 89 b4 24 20 02 00 	mov    QWORD PTR [rsp+0x220],rsi
    578a:	00 
    578b:	48 89 bc 24 30 02 00 	mov    QWORD PTR [rsp+0x230],rdi
    5792:	00 
    5793:	ff d0                	call   rax
    5795:	49 89 c7             	mov    r15,rax
    5798:	49 89 d6             	mov    r14,rdx
    579b:	4d 85 f6             	test   r14,r14
    579e:	0f 85 0d 00 00 00    	jne    57b1 <big_makeblock+0x57b1>
    57a4:	4c 89 bc 24 08 04 00 	mov    QWORD PTR [rsp+0x408],r15
    57ab:	00 
    57ac:	e9 9d 00 00 00       	jmp    584e <big_makeblock+0x584e>
    57b1:	48 8b b4 24 18 08 00 	mov    rsi,QWORD PTR [rsp+0x818]
    57b8:	00 
    57b9:	4c 8b ae 98 00 00 00 	mov    r13,QWORD PTR [rsi+0x98]
    57c0:	4c 89 f3             	mov    rbx,r14
    57c3:	48 83 c3 ff          	add    rbx,0xffffffffffffffff
    57c7:	4c 89 f2             	mov    rdx,r14
    57ca:	48 c1 e2 03          	shl    rdx,0x3
    57ce:	4d 89 ec             	mov    r12,r13
    57d1:	49 01 d4             	add    r12,rdx
    57d4:	4c 89 ef             	mov    rdi,r13
    57d7:	48 83 c7 e8          	add    rdi,0xffffffffffffffe8
    57db:	4c 89 ee             	mov    rsi,r13
    57de:	48 b8 00 00 00 00 00 	movabs rax,0x0
    57e5:	00 00 00 
			57e0: R_X86_64_64	memmove
    57e8:	4c 89 bc 24 20 02 00 	mov    QWORD PTR [rsp+0x220],r15
    57ef:	00 
    57f0:	ff d0                	call   rax
    57f2:	4c 8b bc 24 20 02 00 	mov    r15,QWORD PTR [rsp+0x220]
    57f9:	00 
    57fa:	48 be 00 00 00 00 00 	movabs rsi,0x0
    5801:	00 00 00 
			57fc: R_X86_64_64	callback_return_addr
    5804:	bf 01 00 00 00       	mov    edi,0x1
    5809:	4b 89 7c f5 f8       	mov    QWORD PTR [r13+r14*8-0x8],rdi
    580e:	bf 01 00 00 00       	mov    edi,0x1
    5813:	4b 89 7c f5 f0       	mov    QWORD PTR [r13+r14*8-0x10],rdi
    5818:	4b 89 74 f5 e8       	mov    QWORD PTR [r13+r14*8-0x18],rsi
    581d:	48 8b b4 24 18 08 00 	mov    rsi,QWORD PTR [rsp+0x818]
    5824:	00 
    5825:	4c 89 a6 98 00 00 00 	mov    QWORD PTR [rsi+0x98],r12
    582c:	4c 89 ff             	mov    rdi,r15
    582f:	48 89 de             	mov    rsi,rbx
    5832:	48 b8 00 00 00 00 00 	movabs rax,0x0
    5839:	00 00 00 
			5834: R_X86_64_64	apply_n
    583c:	48 89 bc 24 20 02 00 	mov    QWORD PTR [rsp+0x220],rdi
    5843:	00 
    5844:	ff d0                	call   rax
    5846:	48 89 84 24 08 04 00 	mov    QWORD PTR [rsp+0x408],rax
    584d:	00 
    584e:	48 8b b4 24 10 08 00 	mov    rsi,QWORD PTR [rsp+0x810]
    5855:	00 
    5856:	48 8b 7e 08          	mov    rdi,QWORD PTR [rsi+0x8]
    585a:	48 8b b4 24 00 08 00 	mov    rsi,QWORD PTR [rsp+0x800]
    5861:	00 
    5862:	48 b8 00 00 00 00 00 	movabs rax,0x0
    5869:	00 00 00 
			5864: R_X86_64_64	apply1
    586c:	48 89 b4 24 20 02 00 	mov    QWORD PTR [rsp+0x220],rsi
    5873:	00 
    5874:	48 89 bc 24 30 02 00 	mov    QWORD PTR [rsp+0x230],rdi
    587b:	00 
    587c:	ff d0                	call   rax
    587e:	48 89 c3             	mov    rbx,rax
    5881:	49 89 d6             	mov    r14,rdx
    5884:	4d 85 f6             	test   r14,r14
    5887:	0f 85 0d 00 00 00    	jne    589a <big_makeblock+0x589a>
    588d:	48 89 9c 24 20 02 00 	mov    QWORD PTR [rsp+0x220],rbx
    5894:	00 
    5895:	e9 9d 00 00 00       	jmp    5937 <big_makeblock+0x5937>
    589a:	48 8b b4 24 18 08 00 	mov    rsi,QWORD PTR [rsp+0x818]
    58a1:	00 
    58a2:	4c 8b ae 98 00 00 00 	mov    r13,QWORD PTR [rsi+0x98]
    58a9:	4d 89 f7             	mov    r15,r14
    58ac:	49 83 c7 ff          	add    r15,0xffffffffffffffff
    58b0:	4c 89 f2             	mov    rdx,r14
    58b3:	48 c1 e2 03          	shl    rdx,0x3
    58b7:	4d 89 ec             	mov    r12,r13
    58ba:	49 01 d4             	add    r12,rdx
    58bd:	4c 89 ef             	mov    rdi,r13
    58c0:	48 83 c7 e8          	add    rdi,0xffffffffffffffe8
    58c4:	4c 89 ee             	mov    rsi,r13
    58c7:	48 b8 00 00 00 00 00 	movabs rax,0x0
    58ce:	00 00 00 
			58c9: R_X86_64_64	memmove
    58d1:	48 89 9c 24 30 02 00 	mov    QWORD PTR [rsp+0x230],rbx
    58d8:	00 
    58d9:	ff d0                	call   rax
    58db:	48 8b 9c 24 30 02 00 	mov    rbx,QWORD PTR [rsp+0x230]
    58e2:	00 
    58e3:	48 be 00 00 00 00 00 	movabs rsi,0x0
    58ea:	00 00 00 
			58e5: R_X86_64_64	callback_return_addr
    58ed:	bf 01 00 00 00       	mov    edi,0x1
    58f2:	4b 89 7c f5 f8       	mov    QWORD PTR [r13+r14*8-0x8],rdi
    58f7:	bf 01 00 00 00       	mov    edi,0x1
    58fc:	4b 89 7c f5 f0       	mov    QWORD PTR [r13+r14*8-0x10],rdi
    5901:	4b 89 74 f5 e8       	mov    QWORD PTR [r13+r14*8-0x18],rsi
    5906:	48 8b b4 24 18 08 00 	mov    rsi,QWORD PTR [rsp+0x818]
    590d:	00 
    590e:	4c 89 a6 98 00 00 00 	mov    QWORD PTR [rsi+0x98],r12
    5915:	48 89 df             	mov    rdi,rbx
    5918:	4c 89 fe             	mov    rsi,r15
    591b:	48 b8 00 00 00 00 00 	movabs rax,0x0
    5922:	00 00 00 
			591d: R_X86_64_64	apply_n
    5925:	48 89 bc 24 20 02 00 	mov    QWORD PTR [rsp+0x220],rdi
    592c:	00 
    592d:	ff d0                	call   rax
    592f:	48 89 84 24 20 02 00 	mov    QWORD PTR [rsp+0x220],rax
    5936:	00 
    5937:	48 8b b4 24 10 08 00 	mov    rsi,QWORD PTR [rsp+0x810]
    593e:	00 
    593f:	48 8b 7e 08          	mov    rdi,QWORD PTR [rsi+0x8]
    5943:	48 8b b4 24 00 08 00 	mov    rsi,QWORD PTR [rsp+0x800]
    594a:	00 
    594b:	48 b8 00 00 00 00 00 	movabs rax,0x0
    5952:	00 00 00 
			594d: R_X86_64_64	apply1
    5955:	48 89 b4 24 30 02 00 	mov    QWORD PTR [rsp+0x230],rsi
    595c:	00 
    595d:	48 89 bc 24 40 02 00 	mov    QWORD PTR [rsp+0x240],rdi
    5964:	00 
    5965:	ff d0                	call   rax
    5967:	48 89 c3             	mov    rbx,rax
    596a:	49 89 d6             	mov    r14,rdx
    596d:	4d 85 f6             	test   r14,r14
    5970:	0f 85 0d 00 00 00    	jne    5983 <big_makeblock+0x5983>
    5976:	48 89 9c 24 18 04 00 	mov    QWORD PTR [rsp+0x418],rbx
    597d:	00 
    597e:	e9 9d 00 00 00       	jmp    5a20 <big_makeblock+0x5a20>
    5983:	48 8b b4 24 18 08 00 	mov    rsi,QWORD PTR [rsp+0x818]
    598a:	00 
    598b:	4c 8b ae 98 00 00 00 	mov    r13,QWORD PTR [rsi+0x98]
    5992:	4d 89 f7             	mov    r15,r14
    5995:	49 83 c7 ff          	add    r15,0xffffffffffffffff
    5999:	4c 89 f2             	mov    rdx,r14
    599c:	48 c1 e2 03          	shl    rdx,0x3
    59a0:	4d 89 ec             	mov    r12,r13
    59a3:	49 01 d4             	add    r12,rdx
    59a6:	4c 89 ef             	mov    rdi,r13
    59a9:	48 83 c7 e8          	add    rdi,0xffffffffffffffe8
    59ad:	4c 89 ee             	mov    rsi,r13
    59b0:	48 b8 00 00 00 00 00 	movabs rax,0x0
    59b7:	00 00 00 
			59b2: R_X86_64_64	memmove
    59ba:	48 89 9c 24 30 02 00 	mov    QWORD PTR [rsp+0x230],rbx
    59c1:	00 
    59c2:	ff d0                	call   rax
    59c4:	48 8b 9c 24 30 02 00 	mov    rbx,QWORD PTR [rsp+0x230]
    59cb:	00 
    59cc:	48 be 00 00 00 00 00 	movabs rsi,0x0
    59d3:	00 00 00 
			59ce: R_X86_64_64	callback_return_addr
    59d6:	bf 01 00 00 00       	mov    edi,0x1
    59db:	4b 89 7c f5 f8       	mov    QWORD PTR [r13+r14*8-0x8],rdi
    59e0:	bf 01 00 00 00       	mov    edi,0x1
    59e5:	4b 89 7c f5 f0       	mov    QWORD PTR [r13+r14*8-0x10],rdi
    59ea:	4b 89 74 f5 e8       	mov    QWORD PTR [r13+r14*8-0x18],rsi
    59ef:	48 8b b4 24 18 08 00 	mov    rsi,QWORD PTR [rsp+0x818]
    59f6:	00 
    59f7:	4c 89 a6 98 00 00 00 	mov    QWORD PTR [rsi+0x98],r12
    59fe:	48 89 df             	mov    rdi,rbx
    5a01:	4c 89 fe             	mov    rsi,r15
    5a04:	48 b8 00 00 00 00 00 	movabs rax,0x0
    5a0b:	00 00 00 
			5a06: R_X86_64_64	apply_n
    5a0e:	48 89 bc 24 30 02 00 	mov    QWORD PTR [rsp+0x230],rdi
    5a15:	00 
    5a16:	ff d0                	call   rax
    5a18:	48 89 84 24 18 04 00 	mov    QWORD PTR [rsp+0x418],rax
    5a1f:	00 
    5a20:	48 8b b4 24 10 08 00 	mov    rsi,QWORD PTR [rsp+0x810]
    5a27:	00 
    5a28:	48 8b 7e 08          	mov    rdi,QWORD PTR [rsi+0x8]
    5a2c:	48 8b b4 24 00 08 00 	mov    rsi,QWORD PTR [rsp+0x800]
    5a33:	00 
    5a34:	48 b8 00 00 00 00 00 	movabs rax,0x0
    5a3b:	00 00 00 
			5a36: R_X86_64_64	apply1
    5a3e:	48 89 b4 24 30 02 00 	mov    QWORD PTR [rsp+0x230],rsi
    5a45:	00 
    5a46:	48 89 bc 24 40 02 00 	mov    QWORD PTR [rsp+0x240],rdi
    5a4d:	00 
    5a4e:	ff d0                	call   rax
    5a50:	49 89 c7             	mov    r15,rax
    5a53:	49 89 d6             	mov    r14,rdx
    5a56:	4d 85 f6             	test   r14,r14
    5a59:	0f 85 0d 00 00 00    	jne    5a6c <big_makeblock+0x5a6c>
    5a5f:	4c 89 bc 24 30 02 00 	mov    QWORD PTR [rsp+0x230],r15
    5a66:	00 
    5a67:	e9 9d 00 00 00       	jmp    5b09 <big_makeblock+0x5b09>
    5a6c:	48 8b b4 24 18 08 00 	mov    rsi,QWORD PTR [rsp+0x818]
    5a73:	00 
    5a74:	4c 8b ae 98 00 00 00 	mov    r13,QWORD PTR [rsi+0x98]
    5a7b:	4c 89 f3             	mov    rbx,r14
    5a7e:	48 83 c3 ff          	add    rbx,0xffffffffffffffff
    5a82:	4c 89 f2             	mov    rdx,r14
    5a85:	48 c1 e2 03          	shl    rdx,0x3
    5a89:	4d 89 ec             	mov    r12,r13
    5a8c:	49 01 d4             	add    r12,rdx
    5a8f:	4c 89 ef             	mov    rdi,r13
    5a92:	48 83 c7 e8          	add    rdi,0xffffffffffffffe8
    5a96:	4c 89 ee             	mov    rsi,r13
    5a99:	48 b8 00 00 00 00 00 	movabs rax,0x0
    5aa0:	00 00 00 
			5a9b: R_X86_64_64	memmove
    5aa3:	4c 89 bc 24 40 02 00 	mov    QWORD PTR [rsp+0x240],r15
    5aaa:	00 
    5aab:	ff d0                	call   rax
    5aad:	4c 8b bc 24 40 02 00 	mov    r15,QWORD PTR [rsp+0x240]
    5ab4:	00 
    5ab5:	48 be 00 00 00 00 00 	movabs rsi,0x0
    5abc:	00 00 00 
			5ab7: R_X86_64_64	callback_return_addr
    5abf:	bf 01 00 00 00       	mov    edi,0x1
    5ac4:	4b 89 7c f5 f8       	mov    QWORD PTR [r13+r14*8-0x8],rdi
    5ac9:	bf 01 00 00 00       	mov    edi,0x1
    5ace:	4b 89 7c f5 f0       	mov    QWORD PTR [r13+r14*8-0x10],rdi
    5ad3:	4b 89 74 f5 e8       	mov    QWORD PTR [r13+r14*8-0x18],rsi
    5ad8:	48 8b b4 24 18 08 00 	mov    rsi,QWORD PTR [rsp+0x818]
    5adf:	00 
    5ae0:	4c 89 a6 98 00 00 00 	mov    QWORD PTR [rsi+0x98],r12
    5ae7:	4c 89 ff             	mov    rdi,r15
    5aea:	48 89 de             	mov    rsi,rbx
    5aed:	48 b8 00 00 00 00 00 	movabs rax,0x0
    5af4:	00 00 00 
			5aef: R_X86_64_64	apply_n
    5af7:	48 89 bc 24 30 02 00 	mov    QWORD PTR [rsp+0x230],rdi
    5afe:	00 
    5aff:	ff d0                	call   rax
    5b01:	48 89 84 24 30 02 00 	mov    QWORD PTR [rsp+0x230],rax
    5b08:	00 
    5b09:	48 8b b4 24 10 08 00 	mov    rsi,QWORD PTR [rsp+0x810]
    5b10:	00 
    5b11:	48 8b 7e 08          	mov    rdi,QWORD PTR [rsi+0x8]
    5b15:	48 8b b4 24 00 08 00 	mov    rsi,QWORD PTR [rsp+0x800]
    5b1c:	00 
    5b1d:	48 b8 00 00 00 00 00 	movabs rax,0x0
    5b24:	00 00 00 
			5b1f: R_X86_64_64	apply1
    5b27:	48 89 b4 24 40 02 00 	mov    QWORD PTR [rsp+0x240],rsi
    5b2e:	00 
    5b2f:	48 89 bc 24 50 02 00 	mov    QWORD PTR [rsp+0x250],rdi
    5b36:	00 
    5b37:	ff d0                	call   rax
    5b39:	48 89 c3             	mov    rbx,rax
    5b3c:	49 89 d6             	mov    r14,rdx
    5b3f:	4d 85 f6             	test   r14,r14
    5b42:	0f 85 0d 00 00 00    	jne    5b55 <big_makeblock+0x5b55>
    5b48:	48 89 9c 24 28 04 00 	mov    QWORD PTR [rsp+0x428],rbx
    5b4f:	00 
    5b50:	e9 9d 00 00 00       	jmp    5bf2 <big_makeblock+0x5bf2>
    5b55:	48 8b b4 24 18 08 00 	mov    rsi,QWORD PTR [rsp+0x818]
    5b5c:	00 
    5b5d:	4c 8b ae 98 00 00 00 	mov    r13,QWORD PTR [rsi+0x98]
    5b64:	4d 89 f7             	mov    r15,r14
    5b67:	49 83 c7 ff          	add    r15,0xffffffffffffffff
    5b6b:	4c 89 f2             	mov    rdx,r14
    5b6e:	48 c1 e2 03          	shl    rdx,0x3
    5b72:	4d 89 ec             	mov    r12,r13
    5b75:	49 01 d4             	add    r12,rdx
    5b78:	4c 89 ef             	mov    rdi,r13
    5b7b:	48 83 c7 e8          	add    rdi,0xffffffffffffffe8
    5b7f:	4c 89 ee             	mov    rsi,r13
    5b82:	48 b8 00 00 00 00 00 	movabs rax,0x0
    5b89:	00 00 00 
			5b84: R_X86_64_64	memmove
    5b8c:	48 89 9c 24 40 02 00 	mov    QWORD PTR [rsp+0x240],rbx
    5b93:	00 
    5b94:	ff d0                	call   rax
    5b96:	48 8b 9c 24 40 02 00 	mov    rbx,QWORD PTR [rsp+0x240]
    5b9d:	00 
    5b9e:	48 be 00 00 00 00 00 	movabs rsi,0x0
    5ba5:	00 00 00 
			5ba0: R_X86_64_64	callback_return_addr
    5ba8:	bf 01 00 00 00       	mov    edi,0x1
    5bad:	4b 89 7c f5 f8       	mov    QWORD PTR [r13+r14*8-0x8],rdi
    5bb2:	bf 01 00 00 00       	mov    edi,0x1
    5bb7:	4b 89 7c f5 f0       	mov    QWORD PTR [r13+r14*8-0x10],rdi
    5bbc:	4b 89 74 f5 e8       	mov    QWORD PTR [r13+r14*8-0x18],rsi
    5bc1:	48 8b b4 24 18 08 00 	mov    rsi,QWORD PTR [rsp+0x818]
    5bc8:	00 
    5bc9:	4c 89 a6 98 00 00 00 	mov    QWORD PTR [rsi+0x98],r12
    5bd0:	48 89 df             	mov    rdi,rbx
    5bd3:	4c 89 fe             	mov    rsi,r15
    5bd6:	48 b8 00 00 00 00 00 	movabs rax,0x0
    5bdd:	00 00 00 
			5bd8: R_X86_64_64	apply_n
    5be0:	48 89 bc 24 40 02 00 	mov    QWORD PTR [rsp+0x240],rdi
    5be7:	00 
    5be8:	ff d0                	call   rax
    5bea:	48 89 84 24 28 04 00 	mov    QWORD PTR [rsp+0x428],rax
    5bf1:	00 
    5bf2:	48 8b b4 24 10 08 00 	mov    rsi,QWORD PTR [rsp+0x810]
    5bf9:	00 
    5bfa:	48 8b 7e 08          	mov    rdi,QWORD PTR [rsi+0x8]
    5bfe:	48 8b b4 24 00 08 00 	mov    rsi,QWORD PTR [rsp+0x800]
    5c05:	00 
    5c06:	48 b8 00 00 00 00 00 	movabs rax,0x0
    5c0d:	00 00 00 
			5c08: R_X86_64_64	apply1
    5c10:	48 89 b4 24 40 02 00 	mov    QWORD PTR [rsp+0x240],rsi
    5c17:	00 
    5c18:	48 89 bc 24 50 02 00 	mov    QWORD PTR [rsp+0x250],rdi
    5c1f:	00 
    5c20:	ff d0                	call   rax
    5c22:	48 89 c3             	mov    rbx,rax
    5c25:	49 89 d6             	mov    r14,rdx
    5c28:	4d 85 f6             	test   r14,r14
    5c2b:	0f 85 0d 00 00 00    	jne    5c3e <big_makeblock+0x5c3e>
    5c31:	48 89 9c 24 40 02 00 	mov    QWORD PTR [rsp+0x240],rbx
    5c38:	00 
    5c39:	e9 9d 00 00 00       	jmp    5cdb <big_makeblock+0x5cdb>
    5c3e:	48 8b b4 24 18 08 00 	mov    rsi,QWORD PTR [rsp+0x818]
    5c45:	00 
    5c46:	4c 8b ae 98 00 00 00 	mov    r13,QWORD PTR [rsi+0x98]
    5c4d:	4d 89 f7             	mov    r15,r14
    5c50:	49 83 c7 ff          	add    r15,0xffffffffffffffff
    5c54:	4c 89 f2             	mov    rdx,r14
    5c57:	48 c1 e2 03          	shl    rdx,0x3
    5c5b:	4d 89 ec             	mov    r12,r13
    5c5e:	49 01 d4             	add    r12,rdx
    5c61:	4c 89 ef             	mov    rdi,r13
    5c64:	48 83 c7 e8          	add    rdi,0xffffffffffffffe8
    5c68:	4c 89 ee             	mov    rsi,r13
    5c6b:	48 b8 00 00 00 00 00 	movabs rax,0x0
    5c72:	00 00 00 
			5c6d: R_X86_64_64	memmove
    5c75:	48 89 9c 24 50 02 00 	mov    QWORD PTR [rsp+0x250],rbx
    5c7c:	00 
    5c7d:	ff d0                	call   rax
    5c7f:	48 8b 9c 24 50 02 00 	mov    rbx,QWORD PTR [rsp+0x250]
    5c86:	00 
    5c87:	48 be 00 00 00 00 00 	movabs rsi,0x0
    5c8e:	00 00 00 
			5c89: R_X86_64_64	callback_return_addr
    5c91:	bf 01 00 00 00       	mov    edi,0x1
    5c96:	4b 89 7c f5 f8       	mov    QWORD PTR [r13+r14*8-0x8],rdi
    5c9b:	bf 01 00 00 00       	mov    edi,0x1
    5ca0:	4b 89 7c f5 f0       	mov    QWORD PTR [r13+r14*8-0x10],rdi
    5ca5:	4b 89 74 f5 e8       	mov    QWORD PTR [r13+r14*8-0x18],rsi
    5caa:	48 8b b4 24 18 08 00 	mov    rsi,QWORD PTR [rsp+0x818]
    5cb1:	00 
    5cb2:	4c 89 a6 98 00 00 00 	mov    QWORD PTR [rsi+0x98],r12
    5cb9:	48 89 df             	mov    rdi,rbx
    5cbc:	4c 89 fe             	mov    rsi,r15
    5cbf:	48 b8 00 00 00 00 00 	movabs rax,0x0
    5cc6:	00 00 00 
			5cc1: R_X86_64_64	apply_n
    5cc9:	48 89 bc 24 40 02 00 	mov    QWORD PTR [rsp+0x240],rdi
    5cd0:	00 
    5cd1:	ff d0                	call   rax
    5cd3:	48 89 84 24 40 02 00 	mov    QWORD PTR [rsp+0x240],rax
    5cda:	00 
    5cdb:	48 8b b4 24 10 08 00 	mov    rsi,QWORD PTR [rsp+0x810]
    5ce2:	00 
    5ce3:	48 8b 7e 08          	mov    rdi,QWORD PTR [rsi+0x8]
    5ce7:	48 8b b4 24 00 08 00 	mov    rsi,QWORD PTR [rsp+0x800]
    5cee:	00 
    5cef:	48 b8 00 00 00 00 00 	movabs rax,0x0
    5cf6:	00 00 00 
			5cf1: R_X86_64_64	apply1
    5cf9:	48 89 b4 24 50 02 00 	mov    QWORD PTR [rsp+0x250],rsi
    5d00:	00 
    5d01:	48 89 bc 24 60 02 00 	mov    QWORD PTR [rsp+0x260],rdi
    5d08:	00 
    5d09:	ff d0                	call   rax
    5d0b:	49 89 c7             	mov    r15,rax
    5d0e:	49 89 d6             	mov    r14,rdx
    5d11:	4d 85 f6             	test   r14,r14
    5d14:	0f 85 0d 00 00 00    	jne    5d27 <big_makeblock+0x5d27>
    5d1a:	4c 89 bc 24 38 04 00 	mov    QWORD PTR [rsp+0x438],r15
    5d21:	00 
    5d22:	e9 9d 00 00 00       	jmp    5dc4 <big_makeblock+0x5dc4>
    5d27:	48 8b b4 24 18 08 00 	mov    rsi,QWORD PTR [rsp+0x818]
    5d2e:	00 
    5d2f:	4c 8b ae 98 00 00 00 	mov    r13,QWORD PTR [rsi+0x98]
    5d36:	4c 89 f3             	mov    rbx,r14
    5d39:	48 83 c3 ff          	add    rbx,0xffffffffffffffff
    5d3d:	4c 89 f2             	mov    rdx,r14
    5d40:	48 c1 e2 03          	shl    rdx,0x3
    5d44:	4d 89 ec             	mov    r12,r13
    5d47:	49 01 d4             	add    r12,rdx
    5d4a:	4c 89 ef             	mov    rdi,r13
    5d4d:	48 83 c7 e8          	add    rdi,0xffffffffffffffe8
    5d51:	4c 89 ee             	mov    rsi,r13
    5d54:	48 b8 00 00 00 00 00 	movabs rax,0x0
    5d5b:	00 00 00 
			5d56: R_X86_64_64	memmove
    5d5e:	4c 89 bc 24 50 02 00 	mov    QWORD PTR [rsp+0x250],r15
    5d65:	00 
    5d66:	ff d0                	call   rax
    5d68:	4c 8b bc 24 50 02 00 	mov    r15,QWORD PTR [rsp+0x250]
    5d6f:	00 
    5d70:	48 be 00 00 00 00 00 	movabs rsi,0x0
    5d77:	00 00 00 
			5d72: R_X86_64_64	callback_return_addr
    5d7a:	bf 01 00 00 00       	mov    edi,0x1
    5d7f:	4b 89 7c f5 f8       	mov    QWORD PTR [r13+r14*8-0x8],rdi
    5d84:	bf 01 00 00 00       	mov    edi,0x1
    5d89:	4b 89 7c f5 f0       	mov    QWORD PTR [r13+r14*8-0x10],rdi
    5d8e:	4b 89 74 f5 e8       	mov    QWORD PTR [r13+r14*8-0x18],rsi
    5d93:	48 8b b4 24 18 08 00 	mov    rsi,QWORD PTR [rsp+0x818]
    5d9a:	00 
    5d9b:	4c 89 a6 98 00 00 00 	mov    QWORD PTR [rsi+0x98],r12
    5da2:	4c 89 ff             	mov    rdi,r15
    5da5:	48 89 de             	mov    rsi,rbx
    5da8:	48 b8 00 00 00 00 00 	movabs rax,0x0
    5daf:	00 00 00 
			5daa: R_X86_64_64	apply_n
    5db2:	48 89 bc 24 50 02 00 	mov    QWORD PTR [rsp+0x250],rdi
    5db9:	00 
    5dba:	ff d0                	call   rax
    5dbc:	48 89 84 24 38 04 00 	mov    QWORD PTR [rsp+0x438],rax
    5dc3:	00 
    5dc4:	48 8b b4 24 10 08 00 	mov    rsi,QWORD PTR [rsp+0x810]
    5dcb:	00 
    5dcc:	48 8b 7e 08          	mov    rdi,QWORD PTR [rsi+0x8]
    5dd0:	48 8b b4 24 00 08 00 	mov    rsi,QWORD PTR [rsp+0x800]
    5dd7:	00 
    5dd8:	48 b8 00 00 00 00 00 	movabs rax,0x0
    5ddf:	00 00 00 
			5dda: R_X86_64_64	apply1
    5de2:	48 89 b4 24 50 02 00 	mov    QWORD PTR [rsp+0x250],rsi
    5de9:	00 
    5dea:	48 89 bc 24 60 02 00 	mov    QWORD PTR [rsp+0x260],rdi
    5df1:	00 
    5df2:	ff d0                	call   rax
    5df4:	48 89 c3             	mov    rbx,rax
    5df7:	49 89 d6             	mov    r14,rdx
    5dfa:	4d 85 f6             	test   r14,r14
    5dfd:	0f 85 0d 00 00 00    	jne    5e10 <big_makeblock+0x5e10>
    5e03:	48 89 9c 24 50 02 00 	mov    QWORD PTR [rsp+0x250],rbx
    5e0a:	00 
    5e0b:	e9 9d 00 00 00       	jmp    5ead <big_makeblock+0x5ead>
    5e10:	48 8b b4 24 18 08 00 	mov    rsi,QWORD PTR [rsp+0x818]
    5e17:	00 
    5e18:	4c 8b ae 98 00 00 00 	mov    r13,QWORD PTR [rsi+0x98]
    5e1f:	4d 89 f7             	mov    r15,r14
    5e22:	49 83 c7 ff          	add    r15,0xffffffffffffffff
    5e26:	4c 89 f2             	mov    rdx,r14
    5e29:	48 c1 e2 03          	shl    rdx,0x3
    5e2d:	4d 89 ec             	mov    r12,r13
    5e30:	49 01 d4             	add    r12,rdx
    5e33:	4c 89 ef             	mov    rdi,r13
    5e36:	48 83 c7 e8          	add    rdi,0xffffffffffffffe8
    5e3a:	4c 89 ee             	mov    rsi,r13
    5e3d:	48 b8 00 00 00 00 00 	movabs rax,0x0
    5e44:	00 00 00 
			5e3f: R_X86_64_64	memmove
    5e47:	48 89 9c 24 60 02 00 	mov    QWORD PTR [rsp+0x260],rbx
    5e4e:	00 
    5e4f:	ff d0                	call   rax
    5e51:	48 8b 9c 24 60 02 00 	mov    rbx,QWORD PTR [rsp+0x260]
    5e58:	00 
    5e59:	48 be 00 00 00 00 00 	movabs rsi,0x0
    5e60:	00 00 00 
			5e5b: R_X86_64_64	callback_return_addr
    5e63:	bf 01 00 00 00       	mov    edi,0x1
    5e68:	4b 89 7c f5 f8       	mov    QWORD PTR [r13+r14*8-0x8],rdi
    5e6d:	bf 01 00 00 00       	mov    edi,0x1
    5e72:	4b 89 7c f5 f0       	mov    QWORD PTR [r13+r14*8-0x10],rdi
    5e77:	4b 89 74 f5 e8       	mov    QWORD PTR [r13+r14*8-0x18],rsi
    5e7c:	48 8b b4 24 18 08 00 	mov    rsi,QWORD PTR [rsp+0x818]
    5e83:	00 
    5e84:	4c 89 a6 98 00 00 00 	mov    QWORD PTR [rsi+0x98],r12
    5e8b:	48 89 df             	mov    rdi,rbx
    5e8e:	4c 89 fe             	mov    rsi,r15
    5e91:	48 b8 00 00 00 00 00 	movabs rax,0x0
    5e98:	00 00 00 
			5e93: R_X86_64_64	apply_n
    5e9b:	48 89 bc 24 50 02 00 	mov    QWORD PTR [rsp+0x250],rdi
    5ea2:	00 
    5ea3:	ff d0                	call   rax
    5ea5:	48 89 84 24 50 02 00 	mov    QWORD PTR [rsp+0x250],rax
    5eac:	00 
    5ead:	48 8b b4 24 10 08 00 	mov    rsi,QWORD PTR [rsp+0x810]
    5eb4:	00 
    5eb5:	48 8b 7e 08          	mov    rdi,QWORD PTR [rsi+0x8]
    5eb9:	48 8b b4 24 00 08 00 	mov    rsi,QWORD PTR [rsp+0x800]
    5ec0:	00 
    5ec1:	48 b8 00 00 00 00 00 	movabs rax,0x0
    5ec8:	00 00 00 
			5ec3: R_X86_64_64	apply1
    5ecb:	48 89 b4 24 60 02 00 	mov    QWORD PTR [rsp+0x260],rsi
    5ed2:	00 
    5ed3:	48 89 bc 24 70 02 00 	mov    QWORD PTR [rsp+0x270],rdi
    5eda:	00 
    5edb:	ff d0                	call   rax
    5edd:	48 89 c3             	mov    rbx,rax
    5ee0:	49 89 d6             	mov    r14,rdx
    5ee3:	4d 85 f6             	test   r14,r14
    5ee6:	0f 85 0d 00 00 00    	jne    5ef9 <big_makeblock+0x5ef9>
    5eec:	48 89 9c 24 48 04 00 	mov    QWORD PTR [rsp+0x448],rbx
    5ef3:	00 
    5ef4:	e9 9d 00 00 00       	jmp    5f96 <big_makeblock+0x5f96>
    5ef9:	48 8b b4 24 18 08 00 	mov    rsi,QWORD PTR [rsp+0x818]
    5f00:	00 
    5f01:	4c 8b ae 98 00 00 00 	mov    r13,QWORD PTR [rsi+0x98]
    5f08:	4d 89 f7             	mov    r15,r14
    5f0b:	49 83 c7 ff          	add    r15,0xffffffffffffffff
    5f0f:	4c 89 f2             	mov    rdx,r14
    5f12:	48 c1 e2 03          	shl    rdx,0x3
    5f16:	4d 89 ec             	mov    r12,r13
    5f19:	49 01 d4             	add    r12,rdx
    5f1c:	4c 89 ef             	mov    rdi,r13
    5f1f:	48 83 c7 e8          	add    rdi,0xffffffffffffffe8
    5f23:	4c 89 ee             	mov    rsi,r13
    5f26:	48 b8 00 00 00 00 00 	movabs rax,0x0
    5f2d:	00 00 00 
			5f28: R_X86_64_64	memmove
    5f30:	48 89 9c 24 60 02 00 	mov    QWORD PTR [rsp+0x260],rbx
    5f37:	00 
    5f38:	ff d0                	call   rax
    5f3a:	48 8b 9c 24 60 02 00 	mov    rbx,QWORD PTR [rsp+0x260]
    5f41:	00 
    5f42:	48 be 00 00 00 00 00 	movabs rsi,0x0
    5f49:	00 00 00 
			5f44: R_X86_64_64	callback_return_addr
    5f4c:	bf 01 00 00 00       	mov    edi,0x1
    5f51:	4b 89 7c f5 f8       	mov    QWORD PTR [r13+r14*8-0x8],rdi
    5f56:	bf 01 00 00 00       	mov    edi,0x1
    5f5b:	4b 89 7c f5 f0       	mov    QWORD PTR [r13+r14*8-0x10],rdi
    5f60:	4b 89 74 f5 e8       	mov    QWORD PTR [r13+r14*8-0x18],rsi
    5f65:	48 8b b4 24 18 08 00 	mov    rsi,QWORD PTR [rsp+0x818]
    5f6c:	00 
    5f6d:	4c 89 a6 98 00 00 00 	mov    QWORD PTR [rsi+0x98],r12
    5f74:	48 89 df             	mov    rdi,rbx
    5f77:	4c 89 fe             	mov    rsi,r15
    5f7a:	48 b8 00 00 00 00 00 	movabs rax,0x0
    5f81:	00 00 00 
			5f7c: R_X86_64_64	apply_n
    5f84:	48 89 bc 24 60 02 00 	mov    QWORD PTR [rsp+0x260],rdi
    5f8b:	00 
    5f8c:	ff d0                	call   rax
    5f8e:	48 89 84 24 48 04 00 	mov    QWORD PTR [rsp+0x448],rax
    5f95:	00 
    5f96:	48 8b b4 24 10 08 00 	mov    rsi,QWORD PTR [rsp+0x810]
    5f9d:	00 
    5f9e:	48 8b 7e 08          	mov    rdi,QWORD PTR [rsi+0x8]
    5fa2:	48 8b b4 24 00 08 00 	mov    rsi,QWORD PTR [rsp+0x800]
    5fa9:	00 
    5faa:	48 b8 00 00 00 00 00 	movabs rax,0x0
    5fb1:	00 00 00 
			5fac: R_X86_64_64	apply1
    5fb4:	48 89 b4 24 60 02 00 	mov    QWORD PTR [rsp+0x260],rsi
    5fbb:	00 
    5fbc:	48 89 bc 24 70 02 00 	mov    QWORD PTR [rsp+0x270],rdi
    5fc3:	00 
    5fc4:	ff d0                	call   rax
    5fc6:	49 89 c7             	mov    r15,rax
    5fc9:	49 89 d6             	mov    r14,rdx
    5fcc:	4d 85 f6             	test   r14,r14
    5fcf:	0f 85 0d 00 00 00    	jne    5fe2 <big_makeblock+0x5fe2>
    5fd5:	4c 89 bc 24 60 02 00 	mov    QWORD PTR [rsp+0x260],r15
    5fdc:	00 
    5fdd:	e9 9d 00 00 00       	jmp    607f <big_makeblock+0x607f>
    5fe2:	48 8b b4 24 18 08 00 	mov    rsi,QWORD PTR [rsp+0x818]
    5fe9:	00 
    5fea:	4c 8b ae 98 00 00 00 	mov    r13,QWORD PTR [rsi+0x98]
    5ff1:	4c 89 f3             	mov    rbx,r14
    5ff4:	48 83 c3 ff          	add    rbx,0xffffffffffffffff
    5ff8:	4c 89 f2             	mov    rdx,r14
    5ffb:	48 c1 e2 03          	shl    rdx,0x3
    5fff:	4d 89 ec             	mov    r12,r13
    6002:	49 01 d4             	add    r12,rdx
    6005:	4c 89 ef             	mov    rdi,r13
    6008:	48 83 c7 e8          	add    rdi,0xffffffffffffffe8
    600c:	4c 89 ee             	mov    rsi,r13
    600f:	48 b8 00 00 00 00 00 	movabs rax,0x0
    6016:	00 00 00 
			6011: R_X86_64_64	memmove
    6019:	4c 89 bc 24 70 02 00 	mov    QWORD PTR [rsp+0x270],r15
    6020:	00 
    6021:	ff d0                	call   rax
    6023:	4c 8b bc 24 70 02 00 	mov    r15,QWORD PTR [rsp+0x270]
    602a:	00 
    602b:	48 be 00 00 00 00 00 	movabs rsi,0x0
    6032:	00 00 00 
			602d: R_X86_64_64	callback_return_addr
    6035:	bf 01 00 00 00       	mov    edi,0x1
    603a:	4b 89 7c f5 f8       	mov    QWORD PTR [r13+r14*8-0x8],rdi
    603f:	bf 01 00 00 00       	mov    edi,0x1
    6044:	4b 89 7c f5 f0       	mov    QWORD PTR [r13+r14*8-0x10],rdi
    6049:	4b 89 74 f5 e8       	mov    QWORD PTR [r13+r14*8-0x18],rsi
    604e:	48 8b b4 24 18 08 00 	mov    rsi,QWORD PTR [rsp+0x818]
    6055:	00 
    6056:	4c 89 a6 98 00 00 00 	mov    QWORD PTR [rsi+0x98],r12
    605d:	4c 89 ff             	mov    rdi,r15
    6060:	48 89 de             	mov    rsi,rbx
    6063:	48 b8 00 00 00 00 00 	movabs rax,0x0
    606a:	00 00 00 
			6065: R_X86_64_64	apply_n
    606d:	48 89 bc 24 60 02 00 	mov    QWORD PTR [rsp+0x260],rdi
    6074:	00 
    6075:	ff d0                	call   rax
    6077:	48 89 84 24 60 02 00 	mov    QWORD PTR [rsp+0x260],rax
    607e:	00 
    607f:	48 8b b4 24 10 08 00 	mov    rsi,QWORD PTR [rsp+0x810]
    6086:	00 
    6087:	48 8b 7e 08          	mov    rdi,QWORD PTR [rsi+0x8]
    608b:	48 8b b4 24 00 08 00 	mov    rsi,QWORD PTR [rsp+0x800]
    6092:	00 
    6093:	48 b8 00 00 00 00 00 	movabs rax,0x0
    609a:	00 00 00 
			6095: R_X86_64_64	apply1
    609d:	48 89 b4 24 70 02 00 	mov    QWORD PTR [rsp+0x270],rsi
    60a4:	00 
    60a5:	48 89 bc 24 80 02 00 	mov    QWORD PTR [rsp+0x280],rdi
    60ac:	00 
    60ad:	ff d0                	call   rax
    60af:	48 89 c3             	mov    rbx,rax
    60b2:	49 89 d6             	mov    r14,rdx
    60b5:	4d 85 f6             	test   r14,r14
    60b8:	0f 85 0d 00 00 00    	jne    60cb <big_makeblock+0x60cb>
    60be:	48 89 9c 24 58 04 00 	mov    QWORD PTR [rsp+0x458],rbx
    60c5:	00 
    60c6:	e9 9d 00 00 00       	jmp    6168 <big_makeblock+0x6168>
    60cb:	48 8b b4 24 18 08 00 	mov    rsi,QWORD PTR [rsp+0x818]
    60d2:	00 
    60d3:	4c 8b ae 98 00 00 00 	mov    r13,QWORD PTR [rsi+0x98]
    60da:	4d 89 f7             	mov    r15,r14
    60dd:	49 83 c7 ff          	add    r15,0xffffffffffffffff
    60e1:	4c 89 f2             	mov    rdx,r14
    60e4:	48 c1 e2 03          	shl    rdx,0x3
    60e8:	4d 89 ec             	mov    r12,r13
    60eb:	49 01 d4             	add    r12,rdx
    60ee:	4c 89 ef             	mov    rdi,r13
    60f1:	48 83 c7 e8          	add    rdi,0xffffffffffffffe8
    60f5:	4c 89 ee             	mov    rsi,r13
    60f8:	48 b8 00 00 00 00 00 	movabs rax,0x0
    60ff:	00 00 00 
			60fa: R_X86_64_64	memmove
    6102:	48 89 9c 24 70 02 00 	mov    QWORD PTR [rsp+0x270],rbx
    6109:	00 
    610a:	ff d0                	call   rax
    610c:	48 8b 9c 24 70 02 00 	mov    rbx,QWORD PTR [rsp+0x270]
    6113:	00 
    6114:	48 be 00 00 00 00 00 	movabs rsi,0x0
    611b:	00 00 00 
			6116: R_X86_64_64	callback_return_addr
    611e:	bf 01 00 00 00       	mov    edi,0x1
    6123:	4b 89 7c f5 f8       	mov    QWORD PTR [r13+r14*8-0x8],rdi
    6128:	bf 01 00 00 00       	mov    edi,0x1
    612d:	4b 89 7c f5 f0       	mov    QWORD PTR [r13+r14*8-0x10],rdi
    6132:	4b 89 74 f5 e8       	mov    QWORD PTR [r13+r14*8-0x18],rsi
    6137:	48 8b b4 24 18 08 00 	mov    rsi,QWORD PTR [rsp+0x818]
    613e:	00 
    613f:	4c 89 a6 98 00 00 00 	mov    QWORD PTR [rsi+0x98],r12
    6146:	48 89 df             	mov    rdi,rbx
    6149:	4c 89 fe             	mov    rsi,r15
    614c:	48 b8 00 00 00 00 00 	movabs rax,0x0
    6153:	00 00 00 
			614e: R_X86_64_64	apply_n
    6156:	48 89 bc 24 70 02 00 	mov    QWORD PTR [rsp+0x270],rdi
    615d:	00 
    615e:	ff d0                	call   rax
    6160:	48 89 84 24 58 04 00 	mov    QWORD PTR [rsp+0x458],rax
    6167:	00 
    6168:	48 8b b4 24 10 08 00 	mov    rsi,QWORD PTR [rsp+0x810]
    616f:	00 
    6170:	48 8b 7e 08          	mov    rdi,QWORD PTR [rsi+0x8]
    6174:	48 8b b4 24 00 08 00 	mov    rsi,QWORD PTR [rsp+0x800]
    617b:	00 
    617c:	48 b8 00 00 00 00 00 	movabs rax,0x0
    6183:	00 00 00 
			617e: R_X86_64_64	apply1
    6186:	48 89 b4 24 70 02 00 	mov    QWORD PTR [rsp+0x270],rsi
    618d:	00 
    618e:	48 89 bc 24 80 02 00 	mov    QWORD PTR [rsp+0x280],rdi
    6195:	00 
    6196:	ff d0                	call   rax
    6198:	48 89 c3             	mov    rbx,rax
    619b:	49 89 d6             	mov    r14,rdx
    619e:	4d 85 f6             	test   r14,r14
    61a1:	0f 85 0d 00 00 00    	jne    61b4 <big_makeblock+0x61b4>
    61a7:	48 89 9c 24 70 02 00 	mov    QWORD PTR [rsp+0x270],rbx
    61ae:	00 
    61af:	e9 9d 00 00 00       	jmp    6251 <big_makeblock+0x6251>
    61b4:	48 8b b4 24 18 08 00 	mov    rsi,QWORD PTR [rsp+0x818]
    61bb:	00 
    61bc:	4c 8b ae 98 00 00 00 	mov    r13,QWORD PTR [rsi+0x98]
    61c3:	4d 89 f7             	mov    r15,r14
    61c6:	49 83 c7 ff          	add    r15,0xffffffffffffffff
    61ca:	4c 89 f2             	mov    rdx,r14
    61cd:	48 c1 e2 03          	shl    rdx,0x3
    61d1:	4d 89 ec             	mov    r12,r13
    61d4:	49 01 d4             	add    r12,rdx
    61d7:	4c 89 ef             	mov    rdi,r13
    61da:	48 83 c7 e8          	add    rdi,0xffffffffffffffe8
    61de:	4c 89 ee             	mov    rsi,r13
    61e1:	48 b8 00 00 00 00 00 	movabs rax,0x0
    61e8:	00 00 00 
			61e3: R_X86_64_64	memmove
    61eb:	48 89 9c 24 80 02 00 	mov    QWORD PTR [rsp+0x280],rbx
    61f2:	00 
    61f3:	ff d0                	call   rax
    61f5:	48 8b 9c 24 80 02 00 	mov    rbx,QWORD PTR [rsp+0x280]
    61fc:	00 
    61fd:	48 be 00 00 00 00 00 	movabs rsi,0x0
    6204:	00 00 00 
			61ff: R_X86_64_64	callback_return_addr
    6207:	bf 01 00 00 00       	mov    edi,0x1
    620c:	4b 89 7c f5 f8       	mov    QWORD PTR [r13+r14*8-0x8],rdi
    6211:	bf 01 00 00 00       	mov    edi,0x1
    6216:	4b 89 7c f5 f0       	mov    QWORD PTR [r13+r14*8-0x10],rdi
    621b:	4b 89 74 f5 e8       	mov    QWORD PTR [r13+r14*8-0x18],rsi
    6220:	48 8b b4 24 18 08 00 	mov    rsi,QWORD PTR [rsp+0x818]
    6227:	00 
    6228:	4c 89 a6 98 00 00 00 	mov    QWORD PTR [rsi+0x98],r12
    622f:	48 89 df             	mov    rdi,rbx
    6232:	4c 89 fe             	mov    rsi,r15
    6235:	48 b8 00 00 00 00 00 	movabs rax,0x0
    623c:	00 00 00 
			6237: R_X86_64_64	apply_n
    623f:	48 89 bc 24 70 02 00 	mov    QWORD PTR [rsp+0x270],rdi
    6246:	00 
    6247:	ff d0                	call   rax
    6249:	48 89 84 24 70 02 00 	mov    QWORD PTR [rsp+0x270],rax
    6250:	00 
    6251:	48 8b b4 24 10 08 00 	mov    rsi,QWORD PTR [rsp+0x810]
    6258:	00 
    6259:	48 8b 7e 08          	mov    rdi,QWORD PTR [rsi+0x8]
    625d:	48 8b b4 24 00 08 00 	mov    rsi,QWORD PTR [rsp+0x800]
    6264:	00 
    6265:	48 b8 00 00 00 00 00 	movabs rax,0x0
    626c:	00 00 00 
			6267: R_X86_64_64	apply1
    626f:	48 89 b4 24 80 02 00 	mov    QWORD PTR [rsp+0x280],rsi
    6276:	00 
    6277:	48 89 bc 24 90 02 00 	mov    QWORD PTR [rsp+0x290],rdi
    627e:	00 
    627f:	ff d0                	call   rax
    6281:	49 89 c7             	mov    r15,rax
    6284:	49 89 d6             	mov    r14,rdx
    6287:	4d 85 f6             	test   r14,r14
    628a:	0f 85 0d 00 00 00    	jne    629d <big_makeblock+0x629d>
    6290:	4c 89 bc 24 68 04 00 	mov    QWORD PTR [rsp+0x468],r15
    6297:	00 
    6298:	e9 9d 00 00 00       	jmp    633a <big_makeblock+0x633a>
    629d:	48 8b b4 24 18 08 00 	mov    rsi,QWORD PTR [rsp+0x818]
    62a4:	00 
    62a5:	4c 8b ae 98 00 00 00 	mov    r13,QWORD PTR [rsi+0x98]
    62ac:	4c 89 f3             	mov    rbx,r14
    62af:	48 83 c3 ff          	add    rbx,0xffffffffffffffff
    62b3:	4c 89 f2             	mov    rdx,r14
    62b6:	48 c1 e2 03          	shl    rdx,0x3
    62ba:	4d 89 ec             	mov    r12,r13
    62bd:	49 01 d4             	add    r12,rdx
    62c0:	4c 89 ef             	mov    rdi,r13
    62c3:	48 83 c7 e8          	add    rdi,0xffffffffffffffe8
    62c7:	4c 89 ee             	mov    rsi,r13
    62ca:	48 b8 00 00 00 00 00 	movabs rax,0x0
    62d1:	00 00 00 
			62cc: R_X86_64_64	memmove
    62d4:	4c 89 bc 24 80 02 00 	mov    QWORD PTR [rsp+0x280],r15
    62db:	00 
    62dc:	ff d0                	call   rax
    62de:	4c 8b bc 24 80 02 00 	mov    r15,QWORD PTR [rsp+0x280]
    62e5:	00 
    62e6:	48 be 00 00 00 00 00 	movabs rsi,0x0
    62ed:	00 00 00 
			62e8: R_X86_64_64	callback_return_addr
    62f0:	bf 01 00 00 00       	mov    edi,0x1
    62f5:	4b 89 7c f5 f8       	mov    QWORD PTR [r13+r14*8-0x8],rdi
    62fa:	bf 01 00 00 00       	mov    edi,0x1
    62ff:	4b 89 7c f5 f0       	mov    QWORD PTR [r13+r14*8-0x10],rdi
    6304:	4b 89 74 f5 e8       	mov    QWORD PTR [r13+r14*8-0x18],rsi
    6309:	48 8b b4 24 18 08 00 	mov    rsi,QWORD PTR [rsp+0x818]
    6310:	00 
    6311:	4c 89 a6 98 00 00 00 	mov    QWORD PTR [rsi+0x98],r12
    6318:	4c 89 ff             	mov    rdi,r15
    631b:	48 89 de             	mov    rsi,rbx
    631e:	48 b8 00 00 00 00 00 	movabs rax,0x0
    6325:	00 00 00 
			6320: R_X86_64_64	apply_n
    6328:	48 89 bc 24 80 02 00 	mov    QWORD PTR [rsp+0x280],rdi
    632f:	00 
    6330:	ff d0                	call   rax
    6332:	48 89 84 24 68 04 00 	mov    QWORD PTR [rsp+0x468],rax
    6339:	00 
    633a:	48 8b b4 24 10 08 00 	mov    rsi,QWORD PTR [rsp+0x810]
    6341:	00 
    6342:	48 8b 7e 08          	mov    rdi,QWORD PTR [rsi+0x8]
    6346:	48 8b b4 24 00 08 00 	mov    rsi,QWORD PTR [rsp+0x800]
    634d:	00 
    634e:	48 b8 00 00 00 00 00 	movabs rax,0x0
    6355:	00 00 00 
			6350: R_X86_64_64	apply1
    6358:	48 89 b4 24 80 02 00 	mov    QWORD PTR [rsp+0x280],rsi
    635f:	00 
    6360:	48 89 bc 24 90 02 00 	mov    QWORD PTR [rsp+0x290],rdi
    6367:	00 
    6368:	ff d0                	call   rax
    636a:	48 89 c3             	mov    rbx,rax
    636d:	49 89 d6             	mov    r14,rdx
    6370:	4d 85 f6             	test   r14,r14
    6373:	0f 85 0d 00 00 00    	jne    6386 <big_makeblock+0x6386>
    6379:	48 89 9c 24 80 02 00 	mov    QWORD PTR [rsp+0x280],rbx
    6380:	00 
    6381:	e9 9d 00 00 00       	jmp    6423 <big_makeblock+0x6423>
    6386:	48 8b b4 24 18 08 00 	mov    rsi,QWORD PTR [rsp+0x818]
    638d:	00 
    638e:	4c 8b ae 98 00 00 00 	mov    r13,QWORD PTR [rsi+0x98]
    6395:	4d 89 f7             	mov    r15,r14
    6398:	49 83 c7 ff          	add    r15,0xffffffffffffffff
    639c:	4c 89 f2             	mov    rdx,r14
    639f:	48 c1 e2 03          	shl    rdx,0x3
    63a3:	4d 89 ec             	mov    r12,r13
    63a6:	49 01 d4             	add    r12,rdx
    63a9:	4c 89 ef             	mov    rdi,r13
    63ac:	48 83 c7 e8          	add    rdi,0xffffffffffffffe8
    63b0:	4c 89 ee             	mov    rsi,r13
    63b3:	48 b8 00 00 00 00 00 	movabs rax,0x0
    63ba:	00 00 00 
			63b5: R_X86_64_64	memmove
    63bd:	48 89 9c 24 90 02 00 	mov    QWORD PTR [rsp+0x290],rbx
    63c4:	00 
    63c5:	ff d0                	call   rax
    63c7:	48 8b 9c 24 90 02 00 	mov    rbx,QWORD PTR [rsp+0x290]
    63ce:	00 
    63cf:	48 be 00 00 00 00 00 	movabs rsi,0x0
    63d6:	00 00 00 
			63d1: R_X86_64_64	callback_return_addr
    63d9:	bf 01 00 00 00       	mov    edi,0x1
    63de:	4b 89 7c f5 f8       	mov    QWORD PTR [r13+r14*8-0x8],rdi
    63e3:	bf 01 00 00 00       	mov    edi,0x1
    63e8:	4b 89 7c f5 f0       	mov    QWORD PTR [r13+r14*8-0x10],rdi
    63ed:	4b 89 74 f5 e8       	mov    QWORD PTR [r13+r14*8-0x18],rsi
    63f2:	48 8b b4 24 18 08 00 	mov    rsi,QWORD PTR [rsp+0x818]
    63f9:	00 
    63fa:	4c 89 a6 98 00 00 00 	mov    QWORD PTR [rsi+0x98],r12
    6401:	48 89 df             	mov    rdi,rbx
    6404:	4c 89 fe             	mov    rsi,r15
    6407:	48 b8 00 00 00 00 00 	movabs rax,0x0
    640e:	00 00 00 
			6409: R_X86_64_64	apply_n
    6411:	48 89 bc 24 80 02 00 	mov    QWORD PTR [rsp+0x280],rdi
    6418:	00 
    6419:	ff d0                	call   rax
    641b:	48 89 84 24 80 02 00 	mov    QWORD PTR [rsp+0x280],rax
    6422:	00 
    6423:	48 8b b4 24 10 08 00 	mov    rsi,QWORD PTR [rsp+0x810]
    642a:	00 
    642b:	48 8b 7e 08          	mov    rdi,QWORD PTR [rsi+0x8]
    642f:	48 8b b4 24 00 08 00 	mov    rsi,QWORD PTR [rsp+0x800]
    6436:	00 
    6437:	48 b8 00 00 00 00 00 	movabs rax,0x0
    643e:	00 00 00 
			6439: R_X86_64_64	apply1
    6441:	48 89 b4 24 90 02 00 	mov    QWORD PTR [rsp+0x290],rsi
    6448:	00 
    6449:	48 89 bc 24 a0 02 00 	mov    QWORD PTR [rsp+0x2a0],rdi
    6450:	00 
    6451:	ff d0                	call   rax
    6453:	48 89 c3             	mov    rbx,rax
    6456:	49 89 d6             	mov    r14,rdx
    6459:	4d 85 f6             	test   r14,r14
    645c:	0f 85 0d 00 00 00    	jne    646f <big_makeblock+0x646f>
    6462:	48 89 9c 24 78 04 00 	mov    QWORD PTR [rsp+0x478],rbx
    6469:	00 
    646a:	e9 9d 00 00 00       	jmp    650c <big_makeblock+0x650c>
    646f:	48 8b b4 24 18 08 00 	mov    rsi,QWORD PTR [rsp+0x818]
    6476:	00 
    6477:	4c 8b ae 98 00 00 00 	mov    r13,QWORD PTR [rsi+0x98]
    647e:	4d 89 f7             	mov    r15,r14
    6481:	49 83 c7 ff          	add    r15,0xffffffffffffffff
    6485:	4c 89 f2             	mov    rdx,r14
    6488:	48 c1 e2 03          	shl    rdx,0x3
    648c:	4d 89 ec             	mov    r12,r13
    648f:	49 01 d4             	add    r12,rdx
    6492:	4c 89 ef             	mov    rdi,r13
    6495:	48 83 c7 e8          	add    rdi,0xffffffffffffffe8
    6499:	4c 89 ee             	mov    rsi,r13
    649c:	48 b8 00 00 00 00 00 	movabs rax,0x0
    64a3:	00 00 00 
			649e: R_X86_64_64	memmove
    64a6:	48 89 9c 24 90 02 00 	mov    QWORD PTR [rsp+0x290],rbx
    64ad:	00 
    64ae:	ff d0                	call   rax
    64b0:	48 8b 9c 24 90 02 00 	mov    rbx,QWORD PTR [rsp+0x290]
    64b7:	00 
    64b8:	48 be 00 00 00 00 00 	movabs rsi,0x0
    64bf:	00 00 00 
			64ba: R_X86_64_64	callback_return_addr
    64c2:	bf 01 00 00 00       	mov    edi,0x1
    64c7:	4b 89 7c f5 f8       	mov    QWORD PTR [r13+r14*8-0x8],rdi
    64cc:	bf 01 00 00 00       	mov    edi,0x1
    64d1:	4b 89 7c f5 f0       	mov    QWORD PTR [r13+r14*8-0x10],rdi
    64d6:	4b 89 74 f5 e8       	mov    QWORD PTR [r13+r14*8-0x18],rsi
    64db:	48 8b b4 24 18 08 00 	mov    rsi,QWORD PTR [rsp+0x818]
    64e2:	00 
    64e3:	4c 89 a6 98 00 00 00 	mov    QWORD PTR [rsi+0x98],r12
    64ea:	48 89 df             	mov    rdi,rbx
    64ed:	4c 89 fe             	mov    rsi,r15
    64f0:	48 b8 00 00 00 00 00 	movabs rax,0x0
    64f7:	00 00 00 
			64f2: R_X86_64_64	apply_n
    64fa:	48 89 bc 24 90 02 00 	mov    QWORD PTR [rsp+0x290],rdi
    6501:	00 
    6502:	ff d0                	call   rax
    6504:	48 89 84 24 78 04 00 	mov    QWORD PTR [rsp+0x478],rax
    650b:	00 
    650c:	48 8b b4 24 10 08 00 	mov    rsi,QWORD PTR [rsp+0x810]
    6513:	00 
    6514:	48 8b 7e 08          	mov    rdi,QWORD PTR [rsi+0x8]
    6518:	48 8b b4 24 00 08 00 	mov    rsi,QWORD PTR [rsp+0x800]
    651f:	00 
    6520:	48 b8 00 00 00 00 00 	movabs rax,0x0
    6527:	00 00 00 
			6522: R_X86_64_64	apply1
    652a:	48 89 b4 24 90 02 00 	mov    QWORD PTR [rsp+0x290],rsi
    6531:	00 
    6532:	48 89 bc 24 a0 02 00 	mov    QWORD PTR [rsp+0x2a0],rdi
    6539:	00 
    653a:	ff d0                	call   rax
    653c:	49 89 c7             	mov    r15,rax
    653f:	49 89 d6             	mov    r14,rdx
    6542:	4d 85 f6             	test   r14,r14
    6545:	0f 85 0d 00 00 00    	jne    6558 <big_makeblock+0x6558>
    654b:	4c 89 bc 24 90 02 00 	mov    QWORD PTR [rsp+0x290],r15
    6552:	00 
    6553:	e9 9d 00 00 00       	jmp    65f5 <big_makeblock+0x65f5>
    6558:	48 8b b4 24 18 08 00 	mov    rsi,QWORD PTR [rsp+0x818]
    655f:	00 
    6560:	4c 8b ae 98 00 00 00 	mov    r13,QWORD PTR [rsi+0x98]
    6567:	4c 89 f3             	mov    rbx,r14
    656a:	48 83 c3 ff          	add    rbx,0xffffffffffffffff
    656e:	4c 89 f2             	mov    rdx,r14
    6571:	48 c1 e2 03          	shl    rdx,0x3
    6575:	4d 89 ec             	mov    r12,r13
    6578:	49 01 d4             	add    r12,rdx
    657b:	4c 89 ef             	mov    rdi,r13
    657e:	48 83 c7 e8          	add    rdi,0xffffffffffffffe8
    6582:	4c 89 ee             	mov    rsi,r13
    6585:	48 b8 00 00 00 00 00 	movabs rax,0x0
    658c:	00 00 00 
			6587: R_X86_64_64	memmove
    658f:	4c 89 bc 24 a0 02 00 	mov    QWORD PTR [rsp+0x2a0],r15
    6596:	00 
    6597:	ff d0                	call   rax
    6599:	4c 8b bc 24 a0 02 00 	mov    r15,QWORD PTR [rsp+0x2a0]
    65a0:	00 
    65a1:	48 be 00 00 00 00 00 	movabs rsi,0x0
    65a8:	00 00 00 
			65a3: R_X86_64_64	callback_return_addr
    65ab:	bf 01 00 00 00       	mov    edi,0x1
    65b0:	4b 89 7c f5 f8       	mov    QWORD PTR [r13+r14*8-0x8],rdi
    65b5:	bf 01 00 00 00       	mov    edi,0x1
    65ba:	4b 89 7c f5 f0       	mov    QWORD PTR [r13+r14*8-0x10],rdi
    65bf:	4b 89 74 f5 e8       	mov    QWORD PTR [r13+r14*8-0x18],rsi
    65c4:	48 8b b4 24 18 08 00 	mov    rsi,QWORD PTR [rsp+0x818]
    65cb:	00 
    65cc:	4c 89 a6 98 00 00 00 	mov    QWORD PTR [rsi+0x98],r12
    65d3:	4c 89 ff             	mov    rdi,r15
    65d6:	48 89 de             	mov    rsi,rbx
    65d9:	48 b8 00 00 00 00 00 	movabs rax,0x0
    65e0:	00 00 00 
			65db: R_X86_64_64	apply_n
    65e3:	48 89 bc 24 90 02 00 	mov    QWORD PTR [rsp+0x290],rdi
    65ea:	00 
    65eb:	ff d0                	call   rax
    65ed:	48 89 84 24 90 02 00 	mov    QWORD PTR [rsp+0x290],rax
    65f4:	00 
    65f5:	48 8b b4 24 10 08 00 	mov    rsi,QWORD PTR [rsp+0x810]
    65fc:	00 
    65fd:	48 8b 7e 08          	mov    rdi,QWORD PTR [rsi+0x8]
    6601:	48 8b b4 24 00 08 00 	mov    rsi,QWORD PTR [rsp+0x800]
    6608:	00 
    6609:	48 b8 00 00 00 00 00 	movabs rax,0x0
    6610:	00 00 00 
			660b: R_X86_64_64	apply1
    6613:	48 89 b4 24 a0 02 00 	mov    QWORD PTR [rsp+0x2a0],rsi
    661a:	00 
    661b:	48 89 bc 24 b0 02 00 	mov    QWORD PTR [rsp+0x2b0],rdi
    6622:	00 
    6623:	ff d0                	call   rax
    6625:	48 89 c3             	mov    rbx,rax
    6628:	49 89 d6             	mov    r14,rdx
    662b:	4d 85 f6             	test   r14,r14
    662e:	0f 85 0d 00 00 00    	jne    6641 <big_makeblock+0x6641>
    6634:	48 89 9c 24 88 04 00 	mov    QWORD PTR [rsp+0x488],rbx
    663b:	00 
    663c:	e9 9d 00 00 00       	jmp    66de <big_makeblock+0x66de>
    6641:	48 8b b4 24 18 08 00 	mov    rsi,QWORD PTR [rsp+0x818]
    6648:	00 
    6649:	4c 8b ae 98 00 00 00 	mov    r13,QWORD PTR [rsi+0x98]
    6650:	4d 89 f7             	mov    r15,r14
    6653:	49 83 c7 ff          	add    r15,0xffffffffffffffff
    6657:	4c 89 f2             	mov    rdx,r14
    665a:	48 c1 e2 03          	shl    rdx,0x3
    665e:	4d 89 ec             	mov    r12,r13
    6661:	49 01 d4             	add    r12,rdx
    6664:	4c 89 ef             	mov    rdi,r13
    6667:	48 83 c7 e8          	add    rdi,0xffffffffffffffe8
    666b:	4c 89 ee             	mov    rsi,r13
    666e:	48 b8 00 00 00 00 00 	movabs rax,0x0
    6675:	00 00 00 
			6670: R_X86_64_64	memmove
    6678:	48 89 9c 24 a0 02 00 	mov    QWORD PTR [rsp+0x2a0],rbx
    667f:	00 
    6680:	ff d0                	call   rax
    6682:	48 8b 9c 24 a0 02 00 	mov    rbx,QWORD PTR [rsp+0x2a0]
    6689:	00 
    668a:	48 be 00 00 00 00 00 	movabs rsi,0x0
    6691:	00 00 00 
			668c: R_X86_64_64	callback_return_addr
    6694:	bf 01 00 00 00       	mov    edi,0x1
    6699:	4b 89 7c f5 f8       	mov    QWORD PTR [r13+r14*8-0x8],rdi
    669e:	bf 01 00 00 00       	mov    edi,0x1
    66a3:	4b 89 7c f5 f0       	mov    QWORD PTR [r13+r14*8-0x10],rdi
    66a8:	4b 89 74 f5 e8       	mov    QWORD PTR [r13+r14*8-0x18],rsi
    66ad:	48 8b b4 24 18 08 00 	mov    rsi,QWORD PTR [rsp+0x818]
    66b4:	00 
    66b5:	4c 89 a6 98 00 00 00 	mov    QWORD PTR [rsi+0x98],r12
    66bc:	48 89 df             	mov    rdi,rbx
    66bf:	4c 89 fe             	mov    rsi,r15
    66c2:	48 b8 00 00 00 00 00 	movabs rax,0x0
    66c9:	00 00 00 
			66c4: R_X86_64_64	apply_n
    66cc:	48 89 bc 24 a0 02 00 	mov    QWORD PTR [rsp+0x2a0],rdi
    66d3:	00 
    66d4:	ff d0                	call   rax
    66d6:	48 89 84 24 88 04 00 	mov    QWORD PTR [rsp+0x488],rax
    66dd:	00 
    66de:	48 8b b4 24 10 08 00 	mov    rsi,QWORD PTR [rsp+0x810]
    66e5:	00 
    66e6:	48 8b 7e 08          	mov    rdi,QWORD PTR [rsi+0x8]
    66ea:	48 8b b4 24 00 08 00 	mov    rsi,QWORD PTR [rsp+0x800]
    66f1:	00 
    66f2:	48 b8 00 00 00 00 00 	movabs rax,0x0
    66f9:	00 00 00 
			66f4: R_X86_64_64	apply1
    66fc:	48 89 b4 24 a0 02 00 	mov    QWORD PTR [rsp+0x2a0],rsi
    6703:	00 
    6704:	48 89 bc 24 b0 02 00 	mov    QWORD PTR [rsp+0x2b0],rdi
    670b:	00 
    670c:	ff d0                	call   rax
    670e:	48 89 c3             	mov    rbx,rax
    6711:	49 89 d6             	mov    r14,rdx
    6714:	4d 85 f6             	test   r14,r14
    6717:	0f 85 0d 00 00 00    	jne    672a <big_makeblock+0x672a>
    671d:	48 89 9c 24 a0 02 00 	mov    QWORD PTR [rsp+0x2a0],rbx
    6724:	00 
    6725:	e9 9d 00 00 00       	jmp    67c7 <big_makeblock+0x67c7>
    672a:	48 8b b4 24 18 08 00 	mov    rsi,QWORD PTR [rsp+0x818]
    6731:	00 
    6732:	4c 8b ae 98 00 00 00 	mov    r13,QWORD PTR [rsi+0x98]
    6739:	4d 89 f7             	mov    r15,r14
    673c:	49 83 c7 ff          	add    r15,0xffffffffffffffff
    6740:	4c 89 f2             	mov    rdx,r14
    6743:	48 c1 e2 03          	shl    rdx,0x3
    6747:	4d 89 ec             	mov    r12,r13
    674a:	49 01 d4             	add    r12,rdx
    674d:	4c 89 ef             	mov    rdi,r13
    6750:	48 83 c7 e8          	add    rdi,0xffffffffffffffe8
    6754:	4c 89 ee             	mov    rsi,r13
    6757:	48 b8 00 00 00 00 00 	movabs rax,0x0
    675e:	00 00 00 
			6759: R_X86_64_64	memmove
    6761:	48 89 9c 24 b0 02 00 	mov    QWORD PTR [rsp+0x2b0],rbx
    6768:	00 
    6769:	ff d0                	call   rax
    676b:	48 8b 9c 24 b0 02 00 	mov    rbx,QWORD PTR [rsp+0x2b0]
    6772:	00 
    6773:	48 be 00 00 00 00 00 	movabs rsi,0x0
    677a:	00 00 00 
			6775: R_X86_64_64	callback_return_addr
    677d:	bf 01 00 00 00       	mov    edi,0x1
    6782:	4b 89 7c f5 f8       	mov    QWORD PTR [r13+r14*8-0x8],rdi
    6787:	bf 01 00 00 00       	mov    edi,0x1
    678c:	4b 89 7c f5 f0       	mov    QWORD PTR [r13+r14*8-0x10],rdi
    6791:	4b 89 74 f5 e8       	mov    QWORD PTR [r13+r14*8-0x18],rsi
    6796:	48 8b b4 24 18 08 00 	mov    rsi,QWORD PTR [rsp+0x818]
    679d:	00 
    679e:	4c 89 a6 98 00 00 00 	mov    QWORD PTR [rsi+0x98],r12
    67a5:	48 89 df             	mov    rdi,rbx
    67a8:	4c 89 fe             	mov    rsi,r15
    67ab:	48 b8 00 00 00 00 00 	movabs rax,0x0
    67b2:	00 00 00 
			67ad: R_X86_64_64	apply_n
    67b5:	48 89 bc 24 a0 02 00 	mov    QWORD PTR [rsp+0x2a0],rdi
    67bc:	00 
    67bd:	ff d0                	call   rax
    67bf:	48 89 84 24 a0 02 00 	mov    QWORD PTR [rsp+0x2a0],rax
    67c6:	00 
    67c7:	48 8b b4 24 10 08 00 	mov    rsi,QWORD PTR [rsp+0x810]
    67ce:	00 
    67cf:	48 8b 7e 08          	mov    rdi,QWORD PTR [rsi+0x8]
    67d3:	48 8b b4 24 00 08 00 	mov    rsi,QWORD PTR [rsp+0x800]
    67da:	00 
    67db:	48 b8 00 00 00 00 00 	movabs rax,0x0
    67e2:	00 00 00 
			67dd: R_X86_64_64	apply1
    67e5:	48 89 b4 24 b0 02 00 	mov    QWORD PTR [rsp+0x2b0],rsi
    67ec:	00 
    67ed:	48 89 bc 24 c0 02 00 	mov    QWORD PTR [rsp+0x2c0],rdi
    67f4:	00 
    67f5:	ff d0                	call   rax
    67f7:	49 89 c7             	mov    r15,rax
    67fa:	49 89 d6             	mov    r14,rdx
    67fd:	4d 85 f6             	test   r14,r14
    6800:	0f 85 0d 00 00 00    	jne    6813 <big_makeblock+0x6813>
    6806:	4c 89 bc 24 98 04 00 	mov    QWORD PTR [rsp+0x498],r15
    680d:	00 
    680e:	e9 9d 00 00 00       	jmp    68b0 <big_makeblock+0x68b0>
    6813:	48 8b b4 24 18 08 00 	mov    rsi,QWORD PTR [rsp+0x818]
    681a:	00 
    681b:	4c 8b ae 98 00 00 00 	mov    r13,QWORD PTR [rsi+0x98]
    6822:	4c 89 f3             	mov    rbx,r14
    6825:	48 83 c3 ff          	add    rbx,0xffffffffffffffff
    6829:	4c 89 f2             	mov    rdx,r14
    682c:	48 c1 e2 03          	shl    rdx,0x3
    6830:	4d 89 ec             	mov    r12,r13
    6833:	49 01 d4             	add    r12,rdx
    6836:	4c 89 ef             	mov    rdi,r13
    6839:	48 83 c7 e8          	add    rdi,0xffffffffffffffe8
    683d:	4c 89 ee             	mov    rsi,r13
    6840:	48 b8 00 00 00 00 00 	movabs rax,0x0
    6847:	00 00 00 
			6842: R_X86_64_64	memmove
    684a:	4c 89 bc 24 b0 02 00 	mov    QWORD PTR [rsp+0x2b0],r15
    6851:	00 
    6852:	ff d0                	call   rax
    6854:	4c 8b bc 24 b0 02 00 	mov    r15,QWORD PTR [rsp+0x2b0]
    685b:	00 
    685c:	48 be 00 00 00 00 00 	movabs rsi,0x0
    6863:	00 00 00 
			685e: R_X86_64_64	callback_return_addr
    6866:	bf 01 00 00 00       	mov    edi,0x1
    686b:	4b 89 7c f5 f8       	mov    QWORD PTR [r13+r14*8-0x8],rdi
    6870:	bf 01 00 00 00       	mov    edi,0x1
    6875:	4b 89 7c f5 f0       	mov    QWORD PTR [r13+r14*8-0x10],rdi
    687a:	4b 89 74 f5 e8       	mov    QWORD PTR [r13+r14*8-0x18],rsi
    687f:	48 8b b4 24 18 08 00 	mov    rsi,QWORD PTR [rsp+0x818]
    6886:	00 
    6887:	4c 89 a6 98 00 00 00 	mov    QWORD PTR [rsi+0x98],r12
    688e:	4c 89 ff             	mov    rdi,r15
    6891:	48 89 de             	mov    rsi,rbx
    6894:	48 b8 00 00 00 00 00 	movabs rax,0x0
    689b:	00 00 00 
			6896: R_X86_64_64	apply_n
    689e:	48 89 bc 24 b0 02 00 	mov    QWORD PTR [rsp+0x2b0],rdi
    68a5:	00 
    68a6:	ff d0                	call   rax
    68a8:	48 89 84 24 98 04 00 	mov    QWORD PTR [rsp+0x498],rax
    68af:	00 
    68b0:	48 8b b4 24 10 08 00 	mov    rsi,QWORD PTR [rsp+0x810]
    68b7:	00 
    68b8:	48 8b 7e 08          	mov    rdi,QWORD PTR [rsi+0x8]
    68bc:	48 8b b4 24 00 08 00 	mov    rsi,QWORD PTR [rsp+0x800]
    68c3:	00 
    68c4:	48 b8 00 00 00 00 00 	movabs rax,0x0
    68cb:	00 00 00 
			68c6: R_X86_64_64	apply1
    68ce:	48 89 b4 24 b0 02 00 	mov    QWORD PTR [rsp+0x2b0],rsi
    68d5:	00 
    68d6:	48 89 bc 24 c0 02 00 	mov    QWORD PTR [rsp+0x2c0],rdi
    68dd:	00 
    68de:	ff d0                	call   rax
    68e0:	48 89 c3             	mov    rbx,rax
    68e3:	49 89 d6             	mov    r14,rdx
    68e6:	4d 85 f6             	test   r14,r14
    68e9:	0f 85 0d 00 00 00    	jne    68fc <big_makeblock+0x68fc>
    68ef:	48 89 9c 24 b0 02 00 	mov    QWORD PTR [rsp+0x2b0],rbx
    68f6:	00 
    68f7:	e9 9d 00 00 00       	jmp    6999 <big_makeblock+0x6999>
    68fc:	48 8b b4 24 18 08 00 	mov    rsi,QWORD PTR [rsp+0x818]
    6903:	00 
    6904:	4c 8b ae 98 00 00 00 	mov    r13,QWORD PTR [rsi+0x98]
    690b:	4d 89 f7             	mov    r15,r14
    690e:	49 83 c7 ff          	add    r15,0xffffffffffffffff
    6912:	4c 89 f2             	mov    rdx,r14
    6915:	48 c1 e2 03          	shl    rdx,0x3
    6919:	4d 89 ec             	mov    r12,r13
    691c:	49 01 d4             	add    r12,rdx
    691f:	4c 89 ef             	mov    rdi,r13
    6922:	48 83 c7 e8          	add    rdi,0xffffffffffffffe8
    6926:	4c 89 ee             	mov    rsi,r13
    6929:	48 b8 00 00 00 00 00 	movabs rax,0x0
    6930:	00 00 00 
			692b: R_X86_64_64	memmove
    6933:	48 89 9c 24 c0 02 00 	mov    QWORD PTR [rsp+0x2c0],rbx
    693a:	00 
    693b:	ff d0                	call   rax
    693d:	48 8b 9c 24 c0 02 00 	mov    rbx,QWORD PTR [rsp+0x2c0]
    6944:	00 
    6945:	48 be 00 00 00 00 00 	movabs rsi,0x0
    694c:	00 00 00 
			6947: R_X86_64_64	callback_return_addr
    694f:	bf 01 00 00 00       	mov    edi,0x1
    6954:	4b 89 7c f5 f8       	mov    QWORD PTR [r13+r14*8-0x8],rdi
    6959:	bf 01 00 00 00       	mov    edi,0x1
    695e:	4b 89 7c f5 f0       	mov    QWORD PTR [r13+r14*8-0x10],rdi
    6963:	4b 89 74 f5 e8       	mov    QWORD PTR [r13+r14*8-0x18],rsi
    6968:	48 8b b4 24 18 08 00 	mov    rsi,QWORD PTR [rsp+0x818]
    696f:	00 
    6970:	4c 89 a6 98 00 00 00 	mov    QWORD PTR [rsi+0x98],r12
    6977:	48 89 df             	mov    rdi,rbx
    697a:	4c 89 fe             	mov    rsi,r15
    697d:	48 b8 00 00 00 00 00 	movabs rax,0x0
    6984:	00 00 00 
			697f: R_X86_64_64	apply_n
    6987:	48 89 bc 24 b0 02 00 	mov    QWORD PTR [rsp+0x2b0],rdi
    698e:	00 
    698f:	ff d0                	call   rax
    6991:	48 89 84 24 b0 02 00 	mov    QWORD PTR [rsp+0x2b0],rax
    6998:	00 
    6999:	48 8b b4 24 10 08 00 	mov    rsi,QWORD PTR [rsp+0x810]
    69a0:	00 
    69a1:	48 8b 7e 08          	mov    rdi,QWORD PTR [rsi+0x8]
    69a5:	48 8b b4 24 00 08 00 	mov    rsi,QWORD PTR [rsp+0x800]
    69ac:	00 
    69ad:	48 b8 00 00 00 00 00 	movabs rax,0x0
    69b4:	00 00 00 
			69af: R_X86_64_64	apply1
    69b7:	48 89 b4 24 c0 02 00 	mov    QWORD PTR [rsp+0x2c0],rsi
    69be:	00 
    69bf:	48 89 bc 24 d0 02 00 	mov    QWORD PTR [rsp+0x2d0],rdi
    69c6:	00 
    69c7:	ff d0                	call   rax
    69c9:	48 89 c3             	mov    rbx,rax
    69cc:	49 89 d6             	mov    r14,rdx
    69cf:	4d 85 f6             	test   r14,r14
    69d2:	0f 85 0d 00 00 00    	jne    69e5 <big_makeblock+0x69e5>
    69d8:	48 89 9c 24 a8 04 00 	mov    QWORD PTR [rsp+0x4a8],rbx
    69df:	00 
    69e0:	e9 9d 00 00 00       	jmp    6a82 <big_makeblock+0x6a82>
    69e5:	48 8b b4 24 18 08 00 	mov    rsi,QWORD PTR [rsp+0x818]
    69ec:	00 
    69ed:	4c 8b ae 98 00 00 00 	mov    r13,QWORD PTR [rsi+0x98]
    69f4:	4d 89 f7             	mov    r15,r14
    69f7:	49 83 c7 ff          	add    r15,0xffffffffffffffff
    69fb:	4c 89 f2             	mov    rdx,r14
    69fe:	48 c1 e2 03          	shl    rdx,0x3
    6a02:	4d 89 ec             	mov    r12,r13
    6a05:	49 01 d4             	add    r12,rdx
    6a08:	4c 89 ef             	mov    rdi,r13
    6a0b:	48 83 c7 e8          	add    rdi,0xffffffffffffffe8
    6a0f:	4c 89 ee             	mov    rsi,r13
    6a12:	48 b8 00 00 00 00 00 	movabs rax,0x0
    6a19:	00 00 00 
			6a14: R_X86_64_64	memmove
    6a1c:	48 89 9c 24 c0 02 00 	mov    QWORD PTR [rsp+0x2c0],rbx
    6a23:	00 
    6a24:	ff d0                	call   rax
    6a26:	48 8b 9c 24 c0 02 00 	mov    rbx,QWORD PTR [rsp+0x2c0]
    6a2d:	00 
    6a2e:	48 be 00 00 00 00 00 	movabs rsi,0x0
    6a35:	00 00 00 
			6a30: R_X86_64_64	callback_return_addr
    6a38:	bf 01 00 00 00       	mov    edi,0x1
    6a3d:	4b 89 7c f5 f8       	mov    QWORD PTR [r13+r14*8-0x8],rdi
    6a42:	bf 01 00 00 00       	mov    edi,0x1
    6a47:	4b 89 7c f5 f0       	mov    QWORD PTR [r13+r14*8-0x10],rdi
    6a4c:	4b 89 74 f5 e8       	mov    QWORD PTR [r13+r14*8-0x18],rsi
    6a51:	48 8b b4 24 18 08 00 	mov    rsi,QWORD PTR [rsp+0x818]
    6a58:	00 
    6a59:	4c 89 a6 98 00 00 00 	mov    QWORD PTR [rsi+0x98],r12
    6a60:	48 89 df             	mov    rdi,rbx
    6a63:	4c 89 fe             	mov    rsi,r15
    6a66:	48 b8 00 00 00 00 00 	movabs rax,0x0
    6a6d:	00 00 00 
			6a68: R_X86_64_64	apply_n
    6a70:	48 89 bc 24 c0 02 00 	mov    QWORD PTR [rsp+0x2c0],rdi
    6a77:	00 
    6a78:	ff d0                	call   rax
    6a7a:	48 89 84 24 a8 04 00 	mov    QWORD PTR [rsp+0x4a8],rax
    6a81:	00 
    6a82:	48 8b b4 24 10 08 00 	mov    rsi,QWORD PTR [rsp+0x810]
    6a89:	00 
    6a8a:	48 8b 7e 08          	mov    rdi,QWORD PTR [rsi+0x8]
    6a8e:	48 8b b4 24 00 08 00 	mov    rsi,QWORD PTR [rsp+0x800]
    6a95:	00 
    6a96:	48 b8 00 00 00 00 00 	movabs rax,0x0
    6a9d:	00 00 00 
			6a98: R_X86_64_64	apply1
    6aa0:	48 89 b4 24 c0 02 00 	mov    QWORD PTR [rsp+0x2c0],rsi
    6aa7:	00 
    6aa8:	48 89 bc 24 d0 02 00 	mov    QWORD PTR [rsp+0x2d0],rdi
    6aaf:	00 
    6ab0:	ff d0                	call   rax
    6ab2:	49 89 c7             	mov    r15,rax
    6ab5:	49 89 d6             	mov    r14,rdx
    6ab8:	4d 85 f6             	test   r14,r14
    6abb:	0f 85 0d 00 00 00    	jne    6ace <big_makeblock+0x6ace>
    6ac1:	4c 89 bc 24 c0 02 00 	mov    QWORD PTR [rsp+0x2c0],r15
    6ac8:	00 
    6ac9:	e9 9d 00 00 00       	jmp    6b6b <big_makeblock+0x6b6b>
    6ace:	48 8b b4 24 18 08 00 	mov    rsi,QWORD PTR [rsp+0x818]
    6ad5:	00 
    6ad6:	4c 8b ae 98 00 00 00 	mov    r13,QWORD PTR [rsi+0x98]
    6add:	4c 89 f3             	mov    rbx,r14
    6ae0:	48 83 c3 ff          	add    rbx,0xffffffffffffffff
    6ae4:	4c 89 f2             	mov    rdx,r14
    6ae7:	48 c1 e2 03          	shl    rdx,0x3
    6aeb:	4d 89 ec             	mov    r12,r13
    6aee:	49 01 d4             	add    r12,rdx
    6af1:	4c 89 ef             	mov    rdi,r13
    6af4:	48 83 c7 e8          	add    rdi,0xffffffffffffffe8
    6af8:	4c 89 ee             	mov    rsi,r13
    6afb:	48 b8 00 00 00 00 00 	movabs rax,0x0
    6b02:	00 00 00 
			6afd: R_X86_64_64	memmove
    6b05:	4c 89 bc 24 d0 02 00 	mov    QWORD PTR [rsp+0x2d0],r15
    6b0c:	00 
    6b0d:	ff d0                	call   rax
    6b0f:	4c 8b bc 24 d0 02 00 	mov    r15,QWORD PTR [rsp+0x2d0]
    6b16:	00 
    6b17:	48 be 00 00 00 00 00 	movabs rsi,0x0
    6b1e:	00 00 00 
			6b19: R_X86_64_64	callback_return_addr
    6b21:	bf 01 00 00 00       	mov    edi,0x1
    6b26:	4b 89 7c f5 f8       	mov    QWORD PTR [r13+r14*8-0x8],rdi
    6b2b:	bf 01 00 00 00       	mov    edi,0x1
    6b30:	4b 89 7c f5 f0       	mov    QWORD PTR [r13+r14*8-0x10],rdi
    6b35:	4b 89 74 f5 e8       	mov    QWORD PTR [r13+r14*8-0x18],rsi
    6b3a:	48 8b b4 24 18 08 00 	mov    rsi,QWORD PTR [rsp+0x818]
    6b41:	00 
    6b42:	4c 89 a6 98 00 00 00 	mov    QWORD PTR [rsi+0x98],r12
    6b49:	4c 89 ff             	mov    rdi,r15
    6b4c:	48 89 de             	mov    rsi,rbx
    6b4f:	48 b8 00 00 00 00 00 	movabs rax,0x0
    6b56:	00 00 00 
			6b51: R_X86_64_64	apply_n
    6b59:	48 89 bc 24 c0 02 00 	mov    QWORD PTR [rsp+0x2c0],rdi
    6b60:	00 
    6b61:	ff d0                	call   rax
    6b63:	48 89 84 24 c0 02 00 	mov    QWORD PTR [rsp+0x2c0],rax
    6b6a:	00 
    6b6b:	48 8b b4 24 10 08 00 	mov    rsi,QWORD PTR [rsp+0x810]
    6b72:	00 
    6b73:	48 8b 7e 08          	mov    rdi,QWORD PTR [rsi+0x8]
    6b77:	48 8b b4 24 00 08 00 	mov    rsi,QWORD PTR [rsp+0x800]
    6b7e:	00 
    6b7f:	48 b8 00 00 00 00 00 	movabs rax,0x0
    6b86:	00 00 00 
			6b81: R_X86_64_64	apply1
    6b89:	48 89 b4 24 d0 02 00 	mov    QWORD PTR [rsp+0x2d0],rsi
    6b90:	00 
    6b91:	48 89 bc 24 e0 02 00 	mov    QWORD PTR [rsp+0x2e0],rdi
    6b98:	00 
    6b99:	ff d0                	call   rax
    6b9b:	48 89 c3             	mov    rbx,rax
    6b9e:	49 89 d6             	mov    r14,rdx
    6ba1:	4d 85 f6             	test   r14,r14
    6ba4:	0f 85 0d 00 00 00    	jne    6bb7 <big_makeblock+0x6bb7>
    6baa:	48 89 9c 24 b8 04 00 	mov    QWORD PTR [rsp+0x4b8],rbx
    6bb1:	00 
    6bb2:	e9 9d 00 00 00       	jmp    6c54 <big_makeblock+0x6c54>
    6bb7:	48 8b b4 24 18 08 00 	mov    rsi,QWORD PTR [rsp+0x818]
    6bbe:	00 
    6bbf:	4c 8b ae 98 00 00 00 	mov    r13,QWORD PTR [rsi+0x98]
    6bc6:	4d 89 f7             	mov    r15,r14
    6bc9:	49 83 c7 ff          	add    r15,0xffffffffffffffff
    6bcd:	4c 89 f2             	mov    rdx,r14
    6bd0:	48 c1 e2 03          	shl    rdx,0x3
    6bd4:	4d 89 ec             	mov    r12,r13
    6bd7:	49 01 d4             	add    r12,rdx
    6bda:	4c 89 ef             	mov    rdi,r13
    6bdd:	48 83 c7 e8          	add    rdi,0xffffffffffffffe8
    6be1:	4c 89 ee             	mov    rsi,r13
    6be4:	48 b8 00 00 00 00 00 	movabs rax,0x0
    6beb:	00 00 00 
			6be6: R_X86_64_64	memmove
    6bee:	48 89 9c 24 d0 02 00 	mov    QWORD PTR [rsp+0x2d0],rbx
    6bf5:	00 
    6bf6:	ff d0                	call   rax
    6bf8:	48 8b 9c 24 d0 02 00 	mov    rbx,QWORD PTR [rsp+0x2d0]
    6bff:	00 
    6c00:	48 be 00 00 00 00 00 	movabs rsi,0x0
    6c07:	00 00 00 
			6c02: R_X86_64_64	callback_return_addr
    6c0a:	bf 01 00 00 00       	mov    edi,0x1
    6c0f:	4b 89 7c f5 f8       	mov    QWORD PTR [r13+r14*8-0x8],rdi
    6c14:	bf 01 00 00 00       	mov    edi,0x1
    6c19:	4b 89 7c f5 f0       	mov    QWORD PTR [r13+r14*8-0x10],rdi
    6c1e:	4b 89 74 f5 e8       	mov    QWORD PTR [r13+r14*8-0x18],rsi
    6c23:	48 8b b4 24 18 08 00 	mov    rsi,QWORD PTR [rsp+0x818]
    6c2a:	00 
    6c2b:	4c 89 a6 98 00 00 00 	mov    QWORD PTR [rsi+0x98],r12
    6c32:	48 89 df             	mov    rdi,rbx
    6c35:	4c 89 fe             	mov    rsi,r15
    6c38:	48 b8 00 00 00 00 00 	movabs rax,0x0
    6c3f:	00 00 00 
			6c3a: R_X86_64_64	apply_n
    6c42:	48 89 bc 24 d0 02 00 	mov    QWORD PTR [rsp+0x2d0],rdi
    6c49:	00 
    6c4a:	ff d0                	call   rax
    6c4c:	48 89 84 24 b8 04 00 	mov    QWORD PTR [rsp+0x4b8],rax
    6c53:	00 
    6c54:	48 8b b4 24 10 08 00 	mov    rsi,QWORD PTR [rsp+0x810]
    6c5b:	00 
    6c5c:	48 8b 7e 08          	mov    rdi,QWORD PTR [rsi+0x8]
    6c60:	48 8b b4 24 00 08 00 	mov    rsi,QWORD PTR [rsp+0x800]
    6c67:	00 
    6c68:	48 b8 00 00 00 00 00 	movabs rax,0x0
    6c6f:	00 00 00 
			6c6a: R_X86_64_64	apply1
    6c72:	48 89 b4 24 d0 02 00 	mov    QWORD PTR [rsp+0x2d0],rsi
    6c79:	00 
    6c7a:	48 89 bc 24 e0 02 00 	mov    QWORD PTR [rsp+0x2e0],rdi
    6c81:	00 
    6c82:	ff d0                	call   rax
    6c84:	48 89 c3             	mov    rbx,rax
    6c87:	49 89 d6             	mov    r14,rdx
    6c8a:	4d 85 f6             	test   r14,r14
    6c8d:	0f 85 0d 00 00 00    	jne    6ca0 <big_makeblock+0x6ca0>
    6c93:	48 89 9c 24 d0 02 00 	mov    QWORD PTR [rsp+0x2d0],rbx
    6c9a:	00 
    6c9b:	e9 9d 00 00 00       	jmp    6d3d <big_makeblock+0x6d3d>
    6ca0:	48 8b b4 24 18 08 00 	mov    rsi,QWORD PTR [rsp+0x818]
    6ca7:	00 
    6ca8:	4c 8b ae 98 00 00 00 	mov    r13,QWORD PTR [rsi+0x98]
    6caf:	4d 89 f7             	mov    r15,r14
    6cb2:	49 83 c7 ff          	add    r15,0xffffffffffffffff
    6cb6:	4c 89 f2             	mov    rdx,r14
    6cb9:	48 c1 e2 03          	shl    rdx,0x3
    6cbd:	4d 89 ec             	mov    r12,r13
    6cc0:	49 01 d4             	add    r12,rdx
    6cc3:	4c 89 ef             	mov    rdi,r13
    6cc6:	48 83 c7 e8          	add    rdi,0xffffffffffffffe8
    6cca:	4c 89 ee             	mov    rsi,r13
    6ccd:	48 b8 00 00 00 00 00 	movabs rax,0x0
    6cd4:	00 00 00 
			6ccf: R_X86_64_64	memmove
    6cd7:	48 89 9c 24 e0 02 00 	mov    QWORD PTR [rsp+0x2e0],rbx
    6cde:	00 
    6cdf:	ff d0                	call   rax
    6ce1:	48 8b 9c 24 e0 02 00 	mov    rbx,QWORD PTR [rsp+0x2e0]
    6ce8:	00 
    6ce9:	48 be 00 00 00 00 00 	movabs rsi,0x0
    6cf0:	00 00 00 
			6ceb: R_X86_64_64	callback_return_addr
    6cf3:	bf 01 00 00 00       	mov    edi,0x1
    6cf8:	4b 89 7c f5 f8       	mov    QWORD PTR [r13+r14*8-0x8],rdi
    6cfd:	bf 01 00 00 00       	mov    edi,0x1
    6d02:	4b 89 7c f5 f0       	mov    QWORD PTR [r13+r14*8-0x10],rdi
    6d07:	4b 89 74 f5 e8       	mov    QWORD PTR [r13+r14*8-0x18],rsi
    6d0c:	48 8b b4 24 18 08 00 	mov    rsi,QWORD PTR [rsp+0x818]
    6d13:	00 
    6d14:	4c 89 a6 98 00 00 00 	mov    QWORD PTR [rsi+0x98],r12
    6d1b:	48 89 df             	mov    rdi,rbx
    6d1e:	4c 89 fe             	mov    rsi,r15
    6d21:	48 b8 00 00 00 00 00 	movabs rax,0x0
    6d28:	00 00 00 
			6d23: R_X86_64_64	apply_n
    6d2b:	48 89 bc 24 d0 02 00 	mov    QWORD PTR [rsp+0x2d0],rdi
    6d32:	00 
    6d33:	ff d0                	call   rax
    6d35:	48 89 84 24 d0 02 00 	mov    QWORD PTR [rsp+0x2d0],rax
    6d3c:	00 
    6d3d:	48 8b b4 24 10 08 00 	mov    rsi,QWORD PTR [rsp+0x810]
    6d44:	00 
    6d45:	48 8b 7e 08          	mov    rdi,QWORD PTR [rsi+0x8]
    6d49:	48 8b b4 24 00 08 00 	mov    rsi,QWORD PTR [rsp+0x800]
    6d50:	00 
    6d51:	48 b8 00 00 00 00 00 	movabs rax,0x0
    6d58:	00 00 00 
			6d53: R_X86_64_64	apply1
    6d5b:	48 89 b4 24 e0 02 00 	mov    QWORD PTR [rsp+0x2e0],rsi
    6d62:	00 
    6d63:	48 89 bc 24 f0 02 00 	mov    QWORD PTR [rsp+0x2f0],rdi
    6d6a:	00 
    6d6b:	ff d0                	call   rax
    6d6d:	49 89 c7             	mov    r15,rax
    6d70:	49 89 d6             	mov    r14,rdx
    6d73:	4d 85 f6             	test   r14,r14
    6d76:	0f 85 0d 00 00 00    	jne    6d89 <big_makeblock+0x6d89>
    6d7c:	4c 89 bc 24 c8 04 00 	mov    QWORD PTR [rsp+0x4c8],r15
    6d83:	00 
    6d84:	e9 9d 00 00 00       	jmp    6e26 <big_makeblock+0x6e26>
    6d89:	48 8b b4 24 18 08 00 	mov    rsi,QWORD PTR [rsp+0x818]
    6d90:	00 
    6d91:	4c 8b ae 98 00 00 00 	mov    r13,QWORD PTR [rsi+0x98]
    6d98:	4c 89 f3             	mov    rbx,r14
    6d9b:	48 83 c3 ff          	add    rbx,0xffffffffffffffff
    6d9f:	4c 89 f2             	mov    rdx,r14
    6da2:	48 c1 e2 03          	shl    rdx,0x3
    6da6:	4d 89 ec             	mov    r12,r13
    6da9:	49 01 d4             	add    r12,rdx
    6dac:	4c 89 ef             	mov    rdi,r13
    6daf:	48 83 c7 e8          	add    rdi,0xffffffffffffffe8
    6db3:	4c 89 ee             	mov    rsi,r13
    6db6:	48 b8 00 00 00 00 00 	movabs rax,0x0
    6dbd:	00 00 00 
			6db8: R_X86_64_64	memmove
    6dc0:	4c 89 bc 24 e0 02 00 	mov    QWORD PTR [rsp+0x2e0],r15
    6dc7:	00 
    6dc8:	ff d0                	call   rax
    6dca:	4c 8b bc 24 e0 02 00 	mov    r15,QWORD PTR [rsp+0x2e0]
    6dd1:	00 
    6dd2:	48 be 00 00 00 00 00 	movabs rsi,0x0
    6dd9:	00 00 00 
			6dd4: R_X86_64_64	callback_return_addr
    6ddc:	bf 01 00 00 00       	mov    edi,0x1
    6de1:	4b 89 7c f5 f8       	mov    QWORD PTR [r13+r14*8-0x8],rdi
    6de6:	bf 01 00 00 00       	mov    edi,0x1
    6deb:	4b 89 7c f5 f0       	mov    QWORD PTR [r13+r14*8-0x10],rdi
    6df0:	4b 89 74 f5 e8       	mov    QWORD PTR [r13+r14*8-0x18],rsi
    6df5:	48 8b b4 24 18 08 00 	mov    rsi,QWORD PTR [rsp+0x818]
    6dfc:	00 
    6dfd:	4c 89 a6 98 00 00 00 	mov    QWORD PTR [rsi+0x98],r12
    6e04:	4c 89 ff             	mov    rdi,r15
    6e07:	48 89 de             	mov    rsi,rbx
    6e0a:	48 b8 00 00 00 00 00 	movabs rax,0x0
    6e11:	00 00 00 
			6e0c: R_X86_64_64	apply_n
    6e14:	48 89 bc 24 e0 02 00 	mov    QWORD PTR [rsp+0x2e0],rdi
    6e1b:	00 
    6e1c:	ff d0                	call   rax
    6e1e:	48 89 84 24 c8 04 00 	mov    QWORD PTR [rsp+0x4c8],rax
    6e25:	00 
    6e26:	48 8b b4 24 10 08 00 	mov    rsi,QWORD PTR [rsp+0x810]
    6e2d:	00 
    6e2e:	48 8b 7e 08          	mov    rdi,QWORD PTR [rsi+0x8]
    6e32:	48 8b b4 24 00 08 00 	mov    rsi,QWORD PTR [rsp+0x800]
    6e39:	00 
    6e3a:	48 b8 00 00 00 00 00 	movabs rax,0x0
    6e41:	00 00 00 
			6e3c: R_X86_64_64	apply1
    6e44:	48 89 b4 24 e0 02 00 	mov    QWORD PTR [rsp+0x2e0],rsi
    6e4b:	00 
    6e4c:	48 89 bc 24 f0 02 00 	mov    QWORD PTR [rsp+0x2f0],rdi
    6e53:	00 
    6e54:	ff d0                	call   rax
    6e56:	48 89 c3             	mov    rbx,rax
    6e59:	49 89 d6             	mov    r14,rdx
    6e5c:	4d 85 f6             	test   r14,r14
    6e5f:	0f 85 0d 00 00 00    	jne    6e72 <big_makeblock+0x6e72>
    6e65:	48 89 9c 24 e0 02 00 	mov    QWORD PTR [rsp+0x2e0],rbx
    6e6c:	00 
    6e6d:	e9 9d 00 00 00       	jmp    6f0f <big_makeblock+0x6f0f>
    6e72:	48 8b b4 24 18 08 00 	mov    rsi,QWORD PTR [rsp+0x818]
    6e79:	00 
    6e7a:	4c 8b ae 98 00 00 00 	mov    r13,QWORD PTR [rsi+0x98]
    6e81:	4d 89 f7             	mov    r15,r14
    6e84:	49 83 c7 ff          	add    r15,0xffffffffffffffff
    6e88:	4c 89 f2             	mov    rdx,r14
    6e8b:	48 c1 e2 03          	shl    rdx,0x3
    6e8f:	4d 89 ec             	mov    r12,r13
    6e92:	49 01 d4             	add    r12,rdx
    6e95:	4c 89 ef             	mov    rdi,r13
    6e98:	48 83 c7 e8          	add    rdi,0xffffffffffffffe8
    6e9c:	4c 89 ee             	mov    rsi,r13
    6e9f:	48 b8 00 00 00 00 00 	movabs rax,0x0
    6ea6:	00 00 00 
			6ea1: R_X86_64_64	memmove
    6ea9:	48 89 9c 24 f0 02 00 	mov    QWORD PTR [rsp+0x2f0],rbx
    6eb0:	00 
    6eb1:	ff d0                	call   rax
    6eb3:	48 8b 9c 24 f0 02 00 	mov    rbx,QWORD PTR [rsp+0x2f0]
    6eba:	00 
    6ebb:	48 be 00 00 00 00 00 	movabs rsi,0x0
    6ec2:	00 00 00 
			6ebd: R_X86_64_64	callback_return_addr
    6ec5:	bf 01 00 00 00       	mov    edi,0x1
    6eca:	4b 89 7c f5 f8       	mov    QWORD PTR [r13+r14*8-0x8],rdi
    6ecf:	bf 01 00 00 00       	mov    edi,0x1
    6ed4:	4b 89 7c f5 f0       	mov    QWORD PTR [r13+r14*8-0x10],rdi
    6ed9:	4b 89 74 f5 e8       	mov    QWORD PTR [r13+r14*8-0x18],rsi
    6ede:	48 8b b4 24 18 08 00 	mov    rsi,QWORD PTR [rsp+0x818]
    6ee5:	00 
    6ee6:	4c 89 a6 98 00 00 00 	mov    QWORD PTR [rsi+0x98],r12
    6eed:	48 89 df             	mov    rdi,rbx
    6ef0:	4c 89 fe             	mov    rsi,r15
    6ef3:	48 b8 00 00 00 00 00 	movabs rax,0x0
    6efa:	00 00 00 
			6ef5: R_X86_64_64	apply_n
    6efd:	48 89 bc 24 e0 02 00 	mov    QWORD PTR [rsp+0x2e0],rdi
    6f04:	00 
    6f05:	ff d0                	call   rax
    6f07:	48 89 84 24 e0 02 00 	mov    QWORD PTR [rsp+0x2e0],rax
    6f0e:	00 
    6f0f:	48 8b b4 24 10 08 00 	mov    rsi,QWORD PTR [rsp+0x810]
    6f16:	00 
    6f17:	48 8b 7e 08          	mov    rdi,QWORD PTR [rsi+0x8]
    6f1b:	48 8b b4 24 00 08 00 	mov    rsi,QWORD PTR [rsp+0x800]
    6f22:	00 
    6f23:	48 b8 00 00 00 00 00 	movabs rax,0x0
    6f2a:	00 00 00 
			6f25: R_X86_64_64	apply1
    6f2d:	48 89 b4 24 f0 02 00 	mov    QWORD PTR [rsp+0x2f0],rsi
    6f34:	00 
    6f35:	48 89 bc 24 00 03 00 	mov    QWORD PTR [rsp+0x300],rdi
    6f3c:	00 
    6f3d:	ff d0                	call   rax
    6f3f:	48 89 c3             	mov    rbx,rax
    6f42:	49 89 d6             	mov    r14,rdx
    6f45:	4d 85 f6             	test   r14,r14
    6f48:	0f 85 0d 00 00 00    	jne    6f5b <big_makeblock+0x6f5b>
    6f4e:	48 89 9c 24 d8 04 00 	mov    QWORD PTR [rsp+0x4d8],rbx
    6f55:	00 
    6f56:	e9 9d 00 00 00       	jmp    6ff8 <big_makeblock+0x6ff8>
    6f5b:	48 8b b4 24 18 08 00 	mov    rsi,QWORD PTR [rsp+0x818]
    6f62:	00 
    6f63:	4c 8b ae 98 00 00 00 	mov    r13,QWORD PTR [rsi+0x98]
    6f6a:	4d 89 f7             	mov    r15,r14
    6f6d:	49 83 c7 ff          	add    r15,0xffffffffffffffff
    6f71:	4c 89 f2             	mov    rdx,r14
    6f74:	48 c1 e2 03          	shl    rdx,0x3
    6f78:	4d 89 ec             	mov    r12,r13
    6f7b:	49 01 d4             	add    r12,rdx
    6f7e:	4c 89 ef             	mov    rdi,r13
    6f81:	48 83 c7 e8          	add    rdi,0xffffffffffffffe8
    6f85:	4c 89 ee             	mov    rsi,r13
    6f88:	48 b8 00 00 00 00 00 	movabs rax,0x0
    6f8f:	00 00 00 
			6f8a: R_X86_64_64	memmove
    6f92:	48 89 9c 24 f0 02 00 	mov    QWORD PTR [rsp+0x2f0],rbx
    6f99:	00 
    6f9a:	ff d0                	call   rax
    6f9c:	48 8b 9c 24 f0 02 00 	mov    rbx,QWORD PTR [rsp+0x2f0]
    6fa3:	00 
    6fa4:	48 be 00 00 00 00 00 	movabs rsi,0x0
    6fab:	00 00 00 
			6fa6: R_X86_64_64	callback_return_addr
    6fae:	bf 01 00 00 00       	mov    edi,0x1
    6fb3:	4b 89 7c f5 f8       	mov    QWORD PTR [r13+r14*8-0x8],rdi
    6fb8:	bf 01 00 00 00       	mov    edi,0x1
    6fbd:	4b 89 7c f5 f0       	mov    QWORD PTR [r13+r14*8-0x10],rdi
    6fc2:	4b 89 74 f5 e8       	mov    QWORD PTR [r13+r14*8-0x18],rsi
    6fc7:	48 8b b4 24 18 08 00 	mov    rsi,QWORD PTR [rsp+0x818]
    6fce:	00 
    6fcf:	4c 89 a6 98 00 00 00 	mov    QWORD PTR [rsi+0x98],r12
    6fd6:	48 89 df             	mov    rdi,rbx
    6fd9:	4c 89 fe             	mov    rsi,r15
    6fdc:	48 b8 00 00 00 00 00 	movabs rax,0x0
    6fe3:	00 00 00 
			6fde: R_X86_64_64	apply_n
    6fe6:	48 89 bc 24 f0 02 00 	mov    QWORD PTR [rsp+0x2f0],rdi
    6fed:	00 
    6fee:	ff d0                	call   rax
    6ff0:	48 89 84 24 d8 04 00 	mov    QWORD PTR [rsp+0x4d8],rax
    6ff7:	00 
    6ff8:	48 8b b4 24 10 08 00 	mov    rsi,QWORD PTR [rsp+0x810]
    6fff:	00 
    7000:	48 8b 7e 08          	mov    rdi,QWORD PTR [rsi+0x8]
    7004:	48 8b b4 24 00 08 00 	mov    rsi,QWORD PTR [rsp+0x800]
    700b:	00 
    700c:	48 b8 00 00 00 00 00 	movabs rax,0x0
    7013:	00 00 00 
			700e: R_X86_64_64	apply1
    7016:	48 89 b4 24 f0 02 00 	mov    QWORD PTR [rsp+0x2f0],rsi
    701d:	00 
    701e:	48 89 bc 24 00 03 00 	mov    QWORD PTR [rsp+0x300],rdi
    7025:	00 
    7026:	ff d0                	call   rax
    7028:	49 89 c7             	mov    r15,rax
    702b:	49 89 d6             	mov    r14,rdx
    702e:	4d 85 f6             	test   r14,r14
    7031:	0f 85 0d 00 00 00    	jne    7044 <big_makeblock+0x7044>
    7037:	4c 89 bc 24 f0 02 00 	mov    QWORD PTR [rsp+0x2f0],r15
    703e:	00 
    703f:	e9 9d 00 00 00       	jmp    70e1 <big_makeblock+0x70e1>
    7044:	48 8b b4 24 18 08 00 	mov    rsi,QWORD PTR [rsp+0x818]
    704b:	00 
    704c:	4c 8b ae 98 00 00 00 	mov    r13,QWORD PTR [rsi+0x98]
    7053:	4c 89 f3             	mov    rbx,r14
    7056:	48 83 c3 ff          	add    rbx,0xffffffffffffffff
    705a:	4c 89 f2             	mov    rdx,r14
    705d:	48 c1 e2 03          	shl    rdx,0x3
    7061:	4d 89 ec             	mov    r12,r13
    7064:	49 01 d4             	add    r12,rdx
    7067:	4c 89 ef             	mov    rdi,r13
    706a:	48 83 c7 e8          	add    rdi,0xffffffffffffffe8
    706e:	4c 89 ee             	mov    rsi,r13
    7071:	48 b8 00 00 00 00 00 	movabs rax,0x0
    7078:	00 00 00 
			7073: R_X86_64_64	memmove
    707b:	4c 89 bc 24 00 03 00 	mov    QWORD PTR [rsp+0x300],r15
    7082:	00 
    7083:	ff d0                	call   rax
    7085:	4c 8b bc 24 00 03 00 	mov    r15,QWORD PTR [rsp+0x300]
    708c:	00 
    708d:	48 be 00 00 00 00 00 	movabs rsi,0x0
    7094:	00 00 00 
			708f: R_X86_64_64	callback_return_addr
    7097:	bf 01 00 00 00       	mov    edi,0x1
    709c:	4b 89 7c f5 f8       	mov    QWORD PTR [r13+r14*8-0x8],rdi
    70a1:	bf 01 00 00 00       	mov    edi,0x1
    70a6:	4b 89 7c f5 f0       	mov    QWORD PTR [r13+r14*8-0x10],rdi
    70ab:	4b 89 74 f5 e8       	mov    QWORD PTR [r13+r14*8-0x18],rsi
    70b0:	48 8b b4 24 18 08 00 	mov    rsi,QWORD PTR [rsp+0x818]
    70b7:	00 
    70b8:	4c 89 a6 98 00 00 00 	mov    QWORD PTR [rsi+0x98],r12
    70bf:	4c 89 ff             	mov    rdi,r15
    70c2:	48 89 de             	mov    rsi,rbx
    70c5:	48 b8 00 00 00 00 00 	movabs rax,0x0
    70cc:	00 00 00 
			70c7: R_X86_64_64	apply_n
    70cf:	48 89 bc 24 f0 02 00 	mov    QWORD PTR [rsp+0x2f0],rdi
    70d6:	00 
    70d7:	ff d0                	call   rax
    70d9:	48 89 84 24 f0 02 00 	mov    QWORD PTR [rsp+0x2f0],rax
    70e0:	00 
    70e1:	48 8b b4 24 10 08 00 	mov    rsi,QWORD PTR [rsp+0x810]
    70e8:	00 
    70e9:	48 8b 7e 08          	mov    rdi,QWORD PTR [rsi+0x8]
    70ed:	48 8b b4 24 00 08 00 	mov    rsi,QWORD PTR [rsp+0x800]
    70f4:	00 
    70f5:	48 b8 00 00 00 00 00 	movabs rax,0x0
    70fc:	00 00 00 
			70f7: R_X86_64_64	apply1
    70ff:	48 89 b4 24 00 03 00 	mov    QWORD PTR [rsp+0x300],rsi
    7106:	00 
    7107:	48 89 bc 24 10 03 00 	mov    QWORD PTR [rsp+0x310],rdi
    710e:	00 
    710f:	ff d0                	call   rax
    7111:	48 89 c3             	mov    rbx,rax
    7114:	49 89 d6             	mov    r14,rdx
    7117:	4d 85 f6             	test   r14,r14
    711a:	0f 85 0d 00 00 00    	jne    712d <big_makeblock+0x712d>
    7120:	48 89 9c 24 e8 04 00 	mov    QWORD PTR [rsp+0x4e8],rbx
    7127:	00 
    7128:	e9 9d 00 00 00       	jmp    71ca <big_makeblock+0x71ca>
    712d:	48 8b b4 24 18 08 00 	mov    rsi,QWORD PTR [rsp+0x818]
    7134:	00 
    7135:	4c 8b ae 98 00 00 00 	mov    r13,QWORD PTR [rsi+0x98]
    713c:	4d 89 f7             	mov    r15,r14
    713f:	49 83 c7 ff          	add    r15,0xffffffffffffffff
    7143:	4c 89 f2             	mov    rdx,r14
    7146:	48 c1 e2 03          	shl    rdx,0x3
    714a:	4d 89 ec             	mov    r12,r13
    714d:	49 01 d4             	add    r12,rdx
    7150:	4c 89 ef             	mov    rdi,r13
    7153:	48 83 c7 e8          	add    rdi,0xffffffffffffffe8
    7157:	4c 89 ee             	mov    rsi,r13
    715a:	48 b8 00 00 00 00 00 	movabs rax,0x0
    7161:	00 00 00 
			715c: R_X86_64_64	memmove
    7164:	48 89 9c 24 00 03 00 	mov    QWORD PTR [rsp+0x300],rbx
    716b:	00 
    716c:	ff d0                	call   rax
    716e:	48 8b 9c 24 00 03 00 	mov    rbx,QWORD PTR [rsp+0x300]
    7175:	00 
    7176:	48 be 00 00 00 00 00 	movabs rsi,0x0
    717d:	00 00 00 
			7178: R_X86_64_64	callback_return_addr
    7180:	bf 01 00 00 00       	mov    edi,0x1
    7185:	4b 89 7c f5 f8       	mov    QWORD PTR [r13+r14*8-0x8],rdi
    718a:	bf 01 00 00 00       	mov    edi,0x1
    718f:	4b 89 7c f5 f0       	mov    QWORD PTR [r13+r14*8-0x10],rdi
    7194:	4b 89 74 f5 e8       	mov    QWORD PTR [r13+r14*8-0x18],rsi
    7199:	48 8b b4 24 18 08 00 	mov    rsi,QWORD PTR [rsp+0x818]
    71a0:	00 
    71a1:	4c 89 a6 98 00 00 00 	mov    QWORD PTR [rsi+0x98],r12
    71a8:	48 89 df             	mov    rdi,rbx
    71ab:	4c 89 fe             	mov    rsi,r15
    71ae:	48 b8 00 00 00 00 00 	movabs rax,0x0
    71b5:	00 00 00 
			71b0: R_X86_64_64	apply_n
    71b8:	48 89 bc 24 00 03 00 	mov    QWORD PTR [rsp+0x300],rdi
    71bf:	00 
    71c0:	ff d0                	call   rax
    71c2:	48 89 84 24 e8 04 00 	mov    QWORD PTR [rsp+0x4e8],rax
    71c9:	00 
    71ca:	48 8b b4 24 10 08 00 	mov    rsi,QWORD PTR [rsp+0x810]
    71d1:	00 
    71d2:	48 8b 7e 08          	mov    rdi,QWORD PTR [rsi+0x8]
    71d6:	48 8b b4 24 00 08 00 	mov    rsi,QWORD PTR [rsp+0x800]
    71dd:	00 
    71de:	48 b8 00 00 00 00 00 	movabs rax,0x0
    71e5:	00 00 00 
			71e0: R_X86_64_64	apply1
    71e8:	48 89 b4 24 00 03 00 	mov    QWORD PTR [rsp+0x300],rsi
    71ef:	00 
    71f0:	48 89 bc 24 10 03 00 	mov    QWORD PTR [rsp+0x310],rdi
    71f7:	00 
    71f8:	ff d0                	call   rax
    71fa:	48 89 c3             	mov    rbx,rax
    71fd:	49 89 d6             	mov    r14,rdx
    7200:	4d 85 f6             	test   r14,r14
    7203:	0f 85 0d 00 00 00    	jne    7216 <big_makeblock+0x7216>
    7209:	48 89 9c 24 00 03 00 	mov    QWORD PTR [rsp+0x300],rbx
    7210:	00 
    7211:	e9 9d 00 00 00       	jmp    72b3 <big_makeblock+0x72b3>
    7216:	48 8b b4 24 18 08 00 	mov    rsi,QWORD PTR [rsp+0x818]
    721d:	00 
    721e:	4c 8b ae 98 00 00 00 	mov    r13,QWORD PTR [rsi+0x98]
    7225:	4d 89 f7             	mov    r15,r14
    7228:	49 83 c7 ff          	add    r15,0xffffffffffffffff
    722c:	4c 89 f2             	mov    rdx,r14
    722f:	48 c1 e2 03          	shl    rdx,0x3
    7233:	4d 89 ec             	mov    r12,r13
    7236:	49 01 d4             	add    r12,rdx
    7239:	4c 89 ef             	mov    rdi,r13
    723c:	48 83 c7 e8          	add    rdi,0xffffffffffffffe8
    7240:	4c 89 ee             	mov    rsi,r13
    7243:	48 b8 00 00 00 00 00 	movabs rax,0x0
    724a:	00 00 00 
			7245: R_X86_64_64	memmove
    724d:	48 89 9c 24 10 03 00 	mov    QWORD PTR [rsp+0x310],rbx
    7254:	00 
    7255:	ff d0                	call   rax
    7257:	48 8b 9c 24 10 03 00 	mov    rbx,QWORD PTR [rsp+0x310]
    725e:	00 
    725f:	48 be 00 00 00 00 00 	movabs rsi,0x0
    7266:	00 00 00 
			7261: R_X86_64_64	callback_return_addr
    7269:	bf 01 00 00 00       	mov    edi,0x1
    726e:	4b 89 7c f5 f8       	mov    QWORD PTR [r13+r14*8-0x8],rdi
    7273:	bf 01 00 00 00       	mov    edi,0x1
    7278:	4b 89 7c f5 f0       	mov    QWORD PTR [r13+r14*8-0x10],rdi
    727d:	4b 89 74 f5 e8       	mov    QWORD PTR [r13+r14*8-0x18],rsi
    7282:	48 8b b4 24 18 08 00 	mov    rsi,QWORD PTR [rsp+0x818]
    7289:	00 
    728a:	4c 89 a6 98 00 00 00 	mov    QWORD PTR [rsi+0x98],r12
    7291:	48 89 df             	mov    rdi,rbx
    7294:	4c 89 fe             	mov    rsi,r15
    7297:	48 b8 00 00 00 00 00 	movabs rax,0x0
    729e:	00 00 00 
			7299: R_X86_64_64	apply_n
    72a1:	48 89 bc 24 00 03 00 	mov    QWORD PTR [rsp+0x300],rdi
    72a8:	00 
    72a9:	ff d0                	call   rax
    72ab:	48 89 84 24 00 03 00 	mov    QWORD PTR [rsp+0x300],rax
    72b2:	00 
    72b3:	48 8b b4 24 10 08 00 	mov    rsi,QWORD PTR [rsp+0x810]
    72ba:	00 
    72bb:	48 8b 7e 08          	mov    rdi,QWORD PTR [rsi+0x8]
    72bf:	48 8b b4 24 00 08 00 	mov    rsi,QWORD PTR [rsp+0x800]
    72c6:	00 
    72c7:	48 b8 00 00 00 00 00 	movabs rax,0x0
    72ce:	00 00 00 
			72c9: R_X86_64_64	apply1
    72d1:	48 89 b4 24 10 03 00 	mov    QWORD PTR [rsp+0x310],rsi
    72d8:	00 
    72d9:	48 89 bc 24 20 03 00 	mov    QWORD PTR [rsp+0x320],rdi
    72e0:	00 
    72e1:	ff d0                	call   rax
    72e3:	49 89 c7             	mov    r15,rax
    72e6:	49 89 d6             	mov    r14,rdx
    72e9:	4d 85 f6             	test   r14,r14
    72ec:	0f 85 0d 00 00 00    	jne    72ff <big_makeblock+0x72ff>
    72f2:	4c 89 bc 24 f8 04 00 	mov    QWORD PTR [rsp+0x4f8],r15
    72f9:	00 
    72fa:	e9 9d 00 00 00       	jmp    739c <big_makeblock+0x739c>
    72ff:	48 8b b4 24 18 08 00 	mov    rsi,QWORD PTR [rsp+0x818]
    7306:	00 
    7307:	4c 8b ae 98 00 00 00 	mov    r13,QWORD PTR [rsi+0x98]
    730e:	4c 89 f3             	mov    rbx,r14
    7311:	48 83 c3 ff          	add    rbx,0xffffffffffffffff
    7315:	4c 89 f2             	mov    rdx,r14
    7318:	48 c1 e2 03          	shl    rdx,0x3
    731c:	4d 89 ec             	mov    r12,r13
    731f:	49 01 d4             	add    r12,rdx
    7322:	4c 89 ef             	mov    rdi,r13
    7325:	48 83 c7 e8          	add    rdi,0xffffffffffffffe8
    7329:	4c 89 ee             	mov    rsi,r13
    732c:	48 b8 00 00 00 00 00 	movabs rax,0x0
    7333:	00 00 00 
			732e: R_X86_64_64	memmove
    7336:	4c 89 bc 24 10 03 00 	mov    QWORD PTR [rsp+0x310],r15
    733d:	00 
    733e:	ff d0                	call   rax
    7340:	4c 8b bc 24 10 03 00 	mov    r15,QWORD PTR [rsp+0x310]
    7347:	00 
    7348:	48 be 00 00 00 00 00 	movabs rsi,0x0
    734f:	00 00 00 
			734a: R_X86_64_64	callback_return_addr
    7352:	bf 01 00 00 00       	mov    edi,0x1
    7357:	4b 89 7c f5 f8       	mov    QWORD PTR [r13+r14*8-0x8],rdi
    735c:	bf 01 00 00 00       	mov    edi,0x1
    7361:	4b 89 7c f5 f0       	mov    QWORD PTR [r13+r14*8-0x10],rdi
    7366:	4b 89 74 f5 e8       	mov    QWORD PTR [r13+r14*8-0x18],rsi
    736b:	48 8b b4 24 18 08 00 	mov    rsi,QWORD PTR [rsp+0x818]
    7372:	00 
    7373:	4c 89 a6 98 00 00 00 	mov    QWORD PTR [rsi+0x98],r12
    737a:	4c 89 ff             	mov    rdi,r15
    737d:	48 89 de             	mov    rsi,rbx
    7380:	48 b8 00 00 00 00 00 	movabs rax,0x0
    7387:	00 00 00 
			7382: R_X86_64_64	apply_n
    738a:	48 89 bc 24 10 03 00 	mov    QWORD PTR [rsp+0x310],rdi
    7391:	00 
    7392:	ff d0                	call   rax
    7394:	48 89 84 24 f8 04 00 	mov    QWORD PTR [rsp+0x4f8],rax
    739b:	00 
    739c:	48 8b b4 24 10 08 00 	mov    rsi,QWORD PTR [rsp+0x810]
    73a3:	00 
    73a4:	48 8b 7e 08          	mov    rdi,QWORD PTR [rsi+0x8]
    73a8:	48 8b b4 24 00 08 00 	mov    rsi,QWORD PTR [rsp+0x800]
    73af:	00 
    73b0:	48 b8 00 00 00 00 00 	movabs rax,0x0
    73b7:	00 00 00 
			73b2: R_X86_64_64	apply1
    73ba:	48 89 b4 24 10 03 00 	mov    QWORD PTR [rsp+0x310],rsi
    73c1:	00 
    73c2:	48 89 bc 24 20 03 00 	mov    QWORD PTR [rsp+0x320],rdi
    73c9:	00 
    73ca:	ff d0                	call   rax
    73cc:	48 89 c3             	mov    rbx,rax
    73cf:	49 89 d6             	mov    r14,rdx
    73d2:	4d 85 f6             	test   r14,r14
    73d5:	0f 85 0d 00 00 00    	jne    73e8 <big_makeblock+0x73e8>
    73db:	48 89 9c 24 10 03 00 	mov    QWORD PTR [rsp+0x310],rbx
    73e2:	00 
    73e3:	e9 9d 00 00 00       	jmp    7485 <big_makeblock+0x7485>
    73e8:	48 8b b4 24 18 08 00 	mov    rsi,QWORD PTR [rsp+0x818]
    73ef:	00 
    73f0:	4c 8b ae 98 00 00 00 	mov    r13,QWORD PTR [rsi+0x98]
    73f7:	4d 89 f7             	mov    r15,r14
    73fa:	49 83 c7 ff          	add    r15,0xffffffffffffffff
    73fe:	4c 89 f2             	mov    rdx,r14
    7401:	48 c1 e2 03          	shl    rdx,0x3
    7405:	4d 89 ec             	mov    r12,r13
    7408:	49 01 d4             	add    r12,rdx
    740b:	4c 89 ef             	mov    rdi,r13
    740e:	48 83 c7 e8          	add    rdi,0xffffffffffffffe8
    7412:	4c 89 ee             	mov    rsi,r13
    7415:	48 b8 00 00 00 00 00 	movabs rax,0x0
    741c:	00 00 00 
			7417: R_X86_64_64	memmove
    741f:	48 89 9c 24 20 03 00 	mov    QWORD PTR [rsp+0x320],rbx
    7426:	00 
    7427:	ff d0                	call   rax
    7429:	48 8b 9c 24 20 03 00 	mov    rbx,QWORD PTR [rsp+0x320]
    7430:	00 
    7431:	48 be 00 00 00 00 00 	movabs rsi,0x0
    7438:	00 00 00 
			7433: R_X86_64_64	callback_return_addr
    743b:	bf 01 00 00 00       	mov    edi,0x1
    7440:	4b 89 7c f5 f8       	mov    QWORD PTR [r13+r14*8-0x8],rdi
    7445:	bf 01 00 00 00       	mov    edi,0x1
    744a:	4b 89 7c f5 f0       	mov    QWORD PTR [r13+r14*8-0x10],rdi
    744f:	4b 89 74 f5 e8       	mov    QWORD PTR [r13+r14*8-0x18],rsi
    7454:	48 8b b4 24 18 08 00 	mov    rsi,QWORD PTR [rsp+0x818]
    745b:	00 
    745c:	4c 89 a6 98 00 00 00 	mov    QWORD PTR [rsi+0x98],r12
    7463:	48 89 df             	mov    rdi,rbx
    7466:	4c 89 fe             	mov    rsi,r15
    7469:	48 b8 00 00 00 00 00 	movabs rax,0x0
    7470:	00 00 00 
			746b: R_X86_64_64	apply_n
    7473:	48 89 bc 24 10 03 00 	mov    QWORD PTR [rsp+0x310],rdi
    747a:	00 
    747b:	ff d0                	call   rax
    747d:	48 89 84 24 10 03 00 	mov    QWORD PTR [rsp+0x310],rax
    7484:	00 
    7485:	48 8b b4 24 10 08 00 	mov    rsi,QWORD PTR [rsp+0x810]
    748c:	00 
    748d:	48 8b 7e 08          	mov    rdi,QWORD PTR [rsi+0x8]
    7491:	48 8b b4 24 00 08 00 	mov    rsi,QWORD PTR [rsp+0x800]
    7498:	00 
    7499:	48 b8 00 00 00 00 00 	movabs rax,0x0
    74a0:	00 00 00 
			749b: R_X86_64_64	apply1
    74a3:	48 89 b4 24 20 03 00 	mov    QWORD PTR [rsp+0x320],rsi
    74aa:	00 
    74ab:	48 89 bc 24 30 03 00 	mov    QWORD PTR [rsp+0x330],rdi
    74b2:	00 
    74b3:	ff d0                	call   rax
    74b5:	48 89 c3             	mov    rbx,rax
    74b8:	49 89 d6             	mov    r14,rdx
    74bb:	4d 85 f6             	test   r14,r14
    74be:	0f 85 0d 00 00 00    	jne    74d1 <big_makeblock+0x74d1>
    74c4:	48 89 9c 24 08 05 00 	mov    QWORD PTR [rsp+0x508],rbx
    74cb:	00 
    74cc:	e9 9d 00 00 00       	jmp    756e <big_makeblock+0x756e>
    74d1:	48 8b b4 24 18 08 00 	mov    rsi,QWORD PTR [rsp+0x818]
    74d8:	00 
    74d9:	4c 8b ae 98 00 00 00 	mov    r13,QWORD PTR [rsi+0x98]
    74e0:	4d 89 f7             	mov    r15,r14
    74e3:	49 83 c7 ff          	add    r15,0xffffffffffffffff
    74e7:	4c 89 f2             	mov    rdx,r14
    74ea:	48 c1 e2 03          	shl    rdx,0x3
    74ee:	4d 89 ec             	mov    r12,r13
    74f1:	49 01 d4             	add    r12,rdx
    74f4:	4c 89 ef             	mov    rdi,r13
    74f7:	48 83 c7 e8          	add    rdi,0xffffffffffffffe8
    74fb:	4c 89 ee             	mov    rsi,r13
    74fe:	48 b8 00 00 00 00 00 	movabs rax,0x0
    7505:	00 00 00 
			7500: R_X86_64_64	memmove
    7508:	48 89 9c 24 20 03 00 	mov    QWORD PTR [rsp+0x320],rbx
    750f:	00 
    7510:	ff d0                	call   rax
    7512:	48 8b 9c 24 20 03 00 	mov    rbx,QWORD PTR [rsp+0x320]
    7519:	00 
    751a:	48 be 00 00 00 00 00 	movabs rsi,0x0
    7521:	00 00 00 
			751c: R_X86_64_64	callback_return_addr
    7524:	bf 01 00 00 00       	mov    edi,0x1
    7529:	4b 89 7c f5 f8       	mov    QWORD PTR [r13+r14*8-0x8],rdi
    752e:	bf 01 00 00 00       	mov    edi,0x1
    7533:	4b 89 7c f5 f0       	mov    QWORD PTR [r13+r14*8-0x10],rdi
    7538:	4b 89 74 f5 e8       	mov    QWORD PTR [r13+r14*8-0x18],rsi
    753d:	48 8b b4 24 18 08 00 	mov    rsi,QWORD PTR [rsp+0x818]
    7544:	00 
    7545:	4c 89 a6 98 00 00 00 	mov    QWORD PTR [rsi+0x98],r12
    754c:	48 89 df             	mov    rdi,rbx
    754f:	4c 89 fe             	mov    rsi,r15
    7552:	48 b8 00 00 00 00 00 	movabs rax,0x0
    7559:	00 00 00 
			7554: R_X86_64_64	apply_n
    755c:	48 89 bc 24 20 03 00 	mov    QWORD PTR [rsp+0x320],rdi
    7563:	00 
    7564:	ff d0                	call   rax
    7566:	48 89 84 24 08 05 00 	mov    QWORD PTR [rsp+0x508],rax
    756d:	00 
    756e:	48 8b b4 24 10 08 00 	mov    rsi,QWORD PTR [rsp+0x810]
    7575:	00 
    7576:	48 8b 7e 08          	mov    rdi,QWORD PTR [rsi+0x8]
    757a:	48 8b b4 24 00 08 00 	mov    rsi,QWORD PTR [rsp+0x800]
    7581:	00 
    7582:	48 b8 00 00 00 00 00 	movabs rax,0x0
    7589:	00 00 00 
			7584: R_X86_64_64	apply1
    758c:	48 89 b4 24 20 03 00 	mov    QWORD PTR [rsp+0x320],rsi
    7593:	00 
    7594:	48 89 bc 24 30 03 00 	mov    QWORD PTR [rsp+0x330],rdi
    759b:	00 
    759c:	ff d0                	call   rax
    759e:	49 89 c7             	mov    r15,rax
    75a1:	49 89 d6             	mov    r14,rdx
    75a4:	4d 85 f6             	test   r14,r14
    75a7:	0f 85 0d 00 00 00    	jne    75ba <big_makeblock+0x75ba>
    75ad:	4c 89 bc 24 20 03 00 	mov    QWORD PTR [rsp+0x320],r15
    75b4:	00 
    75b5:	e9 9d 00 00 00       	jmp    7657 <big_makeblock+0x7657>
    75ba:	48 8b b4 24 18 08 00 	mov    rsi,QWORD PTR [rsp+0x818]
    75c1:	00 
    75c2:	4c 8b ae 98 00 00 00 	mov    r13,QWORD PTR [rsi+0x98]
    75c9:	4c 89 f3             	mov    rbx,r14
    75cc:	48 83 c3 ff          	add    rbx,0xffffffffffffffff
    75d0:	4c 89 f2             	mov    rdx,r14
    75d3:	48 c1 e2 03          	shl    rdx,0x3
    75d7:	4d 89 ec             	mov    r12,r13
    75da:	49 01 d4             	add    r12,rdx
    75dd:	4c 89 ef             	mov    rdi,r13
    75e0:	48 83 c7 e8          	add    rdi,0xffffffffffffffe8
    75e4:	4c 89 ee             	mov    rsi,r13
    75e7:	48 b8 00 00 00 00 00 	movabs rax,0x0
    75ee:	00 00 00 
			75e9: R_X86_64_64	memmove
    75f1:	4c 89 bc 24 30 03 00 	mov    QWORD PTR [rsp+0x330],r15
    75f8:	00 
    75f9:	ff d0                	call   rax
    75fb:	4c 8b bc 24 30 03 00 	mov    r15,QWORD PTR [rsp+0x330]
    7602:	00 
    7603:	48 be 00 00 00 00 00 	movabs rsi,0x0
    760a:	00 00 00 
			7605: R_X86_64_64	callback_return_addr
    760d:	bf 01 00 00 00       	mov    edi,0x1
    7612:	4b 89 7c f5 f8       	mov    QWORD PTR [r13+r14*8-0x8],rdi
    7617:	bf 01 00 00 00       	mov    edi,0x1
    761c:	4b 89 7c f5 f0       	mov    QWORD PTR [r13+r14*8-0x10],rdi
    7621:	4b 89 74 f5 e8       	mov    QWORD PTR [r13+r14*8-0x18],rsi
    7626:	48 8b b4 24 18 08 00 	mov    rsi,QWORD PTR [rsp+0x818]
    762d:	00 
    762e:	4c 89 a6 98 00 00 00 	mov    QWORD PTR [rsi+0x98],r12
    7635:	4c 89 ff             	mov    rdi,r15
    7638:	48 89 de             	mov    rsi,rbx
    763b:	48 b8 00 00 00 00 00 	movabs rax,0x0
    7642:	00 00 00 
			763d: R_X86_64_64	apply_n
    7645:	48 89 bc 24 20 03 00 	mov    QWORD PTR [rsp+0x320],rdi
    764c:	00 
    764d:	ff d0                	call   rax
    764f:	48 89 84 24 20 03 00 	mov    QWORD PTR [rsp+0x320],rax
    7656:	00 
    7657:	48 8b b4 24 10 08 00 	mov    rsi,QWORD PTR [rsp+0x810]
    765e:	00 
    765f:	48 8b 7e 08          	mov    rdi,QWORD PTR [rsi+0x8]
    7663:	48 8b b4 24 00 08 00 	mov    rsi,QWORD PTR [rsp+0x800]
    766a:	00 
    766b:	48 b8 00 00 00 00 00 	movabs rax,0x0
    7672:	00 00 00 
			766d: R_X86_64_64	apply1
    7675:	48 89 b4 24 30 03 00 	mov    QWORD PTR [rsp+0x330],rsi
    767c:	00 
    767d:	48 89 bc 24 40 03 00 	mov    QWORD PTR [rsp+0x340],rdi
    7684:	00 
    7685:	ff d0                	call   rax
    7687:	48 89 c3             	mov    rbx,rax
    768a:	49 89 d6             	mov    r14,rdx
    768d:	4d 85 f6             	test   r14,r14
    7690:	0f 85 0d 00 00 00    	jne    76a3 <big_makeblock+0x76a3>
    7696:	48 89 9c 24 18 05 00 	mov    QWORD PTR [rsp+0x518],rbx
    769d:	00 
    769e:	e9 9d 00 00 00       	jmp    7740 <big_makeblock+0x7740>
    76a3:	48 8b b4 24 18 08 00 	mov    rsi,QWORD PTR [rsp+0x818]
    76aa:	00 
    76ab:	4c 8b ae 98 00 00 00 	mov    r13,QWORD PTR [rsi+0x98]
    76b2:	4d 89 f7             	mov    r15,r14
    76b5:	49 83 c7 ff          	add    r15,0xffffffffffffffff
    76b9:	4c 89 f2             	mov    rdx,r14
    76bc:	48 c1 e2 03          	shl    rdx,0x3
    76c0:	4d 89 ec             	mov    r12,r13
    76c3:	49 01 d4             	add    r12,rdx
    76c6:	4c 89 ef             	mov    rdi,r13
    76c9:	48 83 c7 e8          	add    rdi,0xffffffffffffffe8
    76cd:	4c 89 ee             	mov    rsi,r13
    76d0:	48 b8 00 00 00 00 00 	movabs rax,0x0
    76d7:	00 00 00 
			76d2: R_X86_64_64	memmove
    76da:	48 89 9c 24 30 03 00 	mov    QWORD PTR [rsp+0x330],rbx
    76e1:	00 
    76e2:	ff d0                	call   rax
    76e4:	48 8b 9c 24 30 03 00 	mov    rbx,QWORD PTR [rsp+0x330]
    76eb:	00 
    76ec:	48 be 00 00 00 00 00 	movabs rsi,0x0
    76f3:	00 00 00 
			76ee: R_X86_64_64	callback_return_addr
    76f6:	bf 01 00 00 00       	mov    edi,0x1
    76fb:	4b 89 7c f5 f8       	mov    QWORD PTR [r13+r14*8-0x8],rdi
    7700:	bf 01 00 00 00       	mov    edi,0x1
    7705:	4b 89 7c f5 f0       	mov    QWORD PTR [r13+r14*8-0x10],rdi
    770a:	4b 89 74 f5 e8       	mov    QWORD PTR [r13+r14*8-0x18],rsi
    770f:	48 8b b4 24 18 08 00 	mov    rsi,QWORD PTR [rsp+0x818]
    7716:	00 
    7717:	4c 89 a6 98 00 00 00 	mov    QWORD PTR [rsi+0x98],r12
    771e:	48 89 df             	mov    rdi,rbx
    7721:	4c 89 fe             	mov    rsi,r15
    7724:	48 b8 00 00 00 00 00 	movabs rax,0x0
    772b:	00 00 00 
			7726: R_X86_64_64	apply_n
    772e:	48 89 bc 24 30 03 00 	mov    QWORD PTR [rsp+0x330],rdi
    7735:	00 
    7736:	ff d0                	call   rax
    7738:	48 89 84 24 18 05 00 	mov    QWORD PTR [rsp+0x518],rax
    773f:	00 
    7740:	48 8b b4 24 10 08 00 	mov    rsi,QWORD PTR [rsp+0x810]
    7747:	00 
    7748:	48 8b 7e 08          	mov    rdi,QWORD PTR [rsi+0x8]
    774c:	48 8b b4 24 00 08 00 	mov    rsi,QWORD PTR [rsp+0x800]
    7753:	00 
    7754:	48 b8 00 00 00 00 00 	movabs rax,0x0
    775b:	00 00 00 
			7756: R_X86_64_64	apply1
    775e:	48 89 b4 24 30 03 00 	mov    QWORD PTR [rsp+0x330],rsi
    7765:	00 
    7766:	48 89 bc 24 40 03 00 	mov    QWORD PTR [rsp+0x340],rdi
    776d:	00 
    776e:	ff d0                	call   rax
    7770:	48 89 c3             	mov    rbx,rax
    7773:	49 89 d6             	mov    r14,rdx
    7776:	4d 85 f6             	test   r14,r14
    7779:	0f 85 0d 00 00 00    	jne    778c <big_makeblock+0x778c>
    777f:	48 89 9c 24 30 03 00 	mov    QWORD PTR [rsp+0x330],rbx
    7786:	00 
    7787:	e9 9d 00 00 00       	jmp    7829 <big_makeblock+0x7829>
    778c:	48 8b b4 24 18 08 00 	mov    rsi,QWORD PTR [rsp+0x818]
    7793:	00 
    7794:	4c 8b ae 98 00 00 00 	mov    r13,QWORD PTR [rsi+0x98]
    779b:	4d 89 f7             	mov    r15,r14
    779e:	49 83 c7 ff          	add    r15,0xffffffffffffffff
    77a2:	4c 89 f2             	mov    rdx,r14
    77a5:	48 c1 e2 03          	shl    rdx,0x3
    77a9:	4d 89 ec             	mov    r12,r13
    77ac:	49 01 d4             	add    r12,rdx
    77af:	4c 89 ef             	mov    rdi,r13
    77b2:	48 83 c7 e8          	add    rdi,0xffffffffffffffe8
    77b6:	4c 89 ee             	mov    rsi,r13
    77b9:	48 b8 00 00 00 00 00 	movabs rax,0x0
    77c0:	00 00 00 
			77bb: R_X86_64_64	memmove
    77c3:	48 89 9c 24 40 03 00 	mov    QWORD PTR [rsp+0x340],rbx
    77ca:	00 
    77cb:	ff d0                	call   rax
    77cd:	48 8b 9c 24 40 03 00 	mov    rbx,QWORD PTR [rsp+0x340]
    77d4:	00 
    77d5:	48 be 00 00 00 00 00 	movabs rsi,0x0
    77dc:	00 00 00 
			77d7: R_X86_64_64	callback_return_addr
    77df:	bf 01 00 00 00       	mov    edi,0x1
    77e4:	4b 89 7c f5 f8       	mov    QWORD PTR [r13+r14*8-0x8],rdi
    77e9:	bf 01 00 00 00       	mov    edi,0x1
    77ee:	4b 89 7c f5 f0       	mov    QWORD PTR [r13+r14*8-0x10],rdi
    77f3:	4b 89 74 f5 e8       	mov    QWORD PTR [r13+r14*8-0x18],rsi
    77f8:	48 8b b4 24 18 08 00 	mov    rsi,QWORD PTR [rsp+0x818]
    77ff:	00 
    7800:	4c 89 a6 98 00 00 00 	mov    QWORD PTR [rsi+0x98],r12
    7807:	48 89 df             	mov    rdi,rbx
    780a:	4c 89 fe             	mov    rsi,r15
    780d:	48 b8 00 00 00 00 00 	movabs rax,0x0
    7814:	00 00 00 
			780f: R_X86_64_64	apply_n
    7817:	48 89 bc 24 30 03 00 	mov    QWORD PTR [rsp+0x330],rdi
    781e:	00 
    781f:	ff d0                	call   rax
    7821:	48 89 84 24 30 03 00 	mov    QWORD PTR [rsp+0x330],rax
    7828:	00 
    7829:	48 8b b4 24 10 08 00 	mov    rsi,QWORD PTR [rsp+0x810]
    7830:	00 
    7831:	48 8b 7e 08          	mov    rdi,QWORD PTR [rsi+0x8]
    7835:	48 8b b4 24 00 08 00 	mov    rsi,QWORD PTR [rsp+0x800]
    783c:	00 
    783d:	48 b8 00 00 00 00 00 	movabs rax,0x0
    7844:	00 00 00 
			783f: R_X86_64_64	apply1
    7847:	48 89 b4 24 40 03 00 	mov    QWORD PTR [rsp+0x340],rsi
    784e:	00 
    784f:	48 89 bc 24 50 03 00 	mov    QWORD PTR [rsp+0x350],rdi
    7856:	00 
    7857:	ff d0                	call   rax
    7859:	49 89 c7             	mov    r15,rax
    785c:	49 89 d6             	mov    r14,rdx
    785f:	4d 85 f6             	test   r14,r14
    7862:	0f 85 0d 00 00 00    	jne    7875 <big_makeblock+0x7875>
    7868:	4c 89 bc 24 28 05 00 	mov    QWORD PTR [rsp+0x528],r15
    786f:	00 
    7870:	e9 9d 00 00 00       	jmp    7912 <big_makeblock+0x7912>
    7875:	48 8b b4 24 18 08 00 	mov    rsi,QWORD PTR [rsp+0x818]
    787c:	00 
    787d:	4c 8b ae 98 00 00 00 	mov    r13,QWORD PTR [rsi+0x98]
    7884:	4c 89 f3             	mov    rbx,r14
    7887:	48 83 c3 ff          	add    rbx,0xffffffffffffffff
    788b:	4c 89 f2             	mov    rdx,r14
    788e:	48 c1 e2 03          	shl    rdx,0x3
    7892:	4d 89 ec             	mov    r12,r13
    7895:	49 01 d4             	add    r12,rdx
    7898:	4c 89 ef             	mov    rdi,r13
    789b:	48 83 c7 e8          	add    rdi,0xffffffffffffffe8
    789f:	4c 89 ee             	mov    rsi,r13
    78a2:	48 b8 00 00 00 00 00 	movabs rax,0x0
    78a9:	00 00 00 
			78a4: R_X86_64_64	memmove
    78ac:	4c 89 bc 24 40 03 00 	mov    QWORD PTR [rsp+0x340],r15
    78b3:	00 
    78b4:	ff d0                	call   rax
    78b6:	4c 8b bc 24 40 03 00 	mov    r15,QWORD PTR [rsp+0x340]
    78bd:	00 
    78be:	48 be 00 00 00 00 00 	movabs rsi,0x0
    78c5:	00 00 00 
			78c0: R_X86_64_64	callback_return_addr
    78c8:	bf 01 00 00 00       	mov    edi,0x1
    78cd:	4b 89 7c f5 f8       	mov    QWORD PTR [r13+r14*8-0x8],rdi
    78d2:	bf 01 00 00 00       	mov    edi,0x1
    78d7:	4b 89 7c f5 f0       	mov    QWORD PTR [r13+r14*8-0x10],rdi
    78dc:	4b 89 74 f5 e8       	mov    QWORD PTR [r13+r14*8-0x18],rsi
    78e1:	48 8b b4 24 18 08 00 	mov    rsi,QWORD PTR [rsp+0x818]
    78e8:	00 
    78e9:	4c 89 a6 98 00 00 00 	mov    QWORD PTR [rsi+0x98],r12
    78f0:	4c 89 ff             	mov    rdi,r15
    78f3:	48 89 de             	mov    rsi,rbx
    78f6:	48 b8 00 00 00 00 00 	movabs rax,0x0
    78fd:	00 00 00 
			78f8: R_X86_64_64	apply_n
    7900:	48 89 bc 24 40 03 00 	mov    QWORD PTR [rsp+0x340],rdi
    7907:	00 
    7908:	ff d0                	call   rax
    790a:	48 89 84 24 28 05 00 	mov    QWORD PTR [rsp+0x528],rax
    7911:	00 
    7912:	48 8b b4 24 10 08 00 	mov    rsi,QWORD PTR [rsp+0x810]
    7919:	00 
    791a:	48 8b 7e 08          	mov    rdi,QWORD PTR [rsi+0x8]
    791e:	48 8b b4 24 00 08 00 	mov    rsi,QWORD PTR [rsp+0x800]
    7925:	00 
    7926:	48 b8 00 00 00 00 00 	movabs rax,0x0
    792d:	00 00 00 
			7928: R_X86_64_64	apply1
    7930:	48 89 b4 24 40 03 00 	mov    QWORD PTR [rsp+0x340],rsi
    7937:	00 
    7938:	48 89 bc 24 50 03 00 	mov    QWORD PTR [rsp+0x350],rdi
    793f:	00 
    7940:	ff d0                	call   rax
    7942:	48 89 c3             	mov    rbx,rax
    7945:	49 89 d6             	mov    r14,rdx
    7948:	4d 85 f6             	test   r14,r14
    794b:	0f 85 0d 00 00 00    	jne    795e <big_makeblock+0x795e>
    7951:	48 89 9c 24 40 03 00 	mov    QWORD PTR [rsp+0x340],rbx
    7958:	00 
    7959:	e9 9d 00 00 00       	jmp    79fb <big_makeblock+0x79fb>
    795e:	48 8b b4 24 18 08 00 	mov    rsi,QWORD PTR [rsp+0x818]
    7965:	00 
    7966:	4c 8b ae 98 00 00 00 	mov    r13,QWORD PTR [rsi+0x98]
    796d:	4d 89 f7             	mov    r15,r14
    7970:	49 83 c7 ff          	add    r15,0xffffffffffffffff
    7974:	4c 89 f2             	mov    rdx,r14
    7977:	48 c1 e2 03          	shl    rdx,0x3
    797b:	4d 89 ec             	mov    r12,r13
    797e:	49 01 d4             	add    r12,rdx
    7981:	4c 89 ef             	mov    rdi,r13
    7984:	48 83 c7 e8          	add    rdi,0xffffffffffffffe8
    7988:	4c 89 ee             	mov    rsi,r13
    798b:	48 b8 00 00 00 00 00 	movabs rax,0x0
    7992:	00 00 00 
			798d: R_X86_64_64	memmove
    7995:	48 89 9c 24 50 03 00 	mov    QWORD PTR [rsp+0x350],rbx
    799c:	00 
    799d:	ff d0                	call   rax
    799f:	48 8b 9c 24 50 03 00 	mov    rbx,QWORD PTR [rsp+0x350]
    79a6:	00 
    79a7:	48 be 00 00 00 00 00 	movabs rsi,0x0
    79ae:	00 00 00 
			79a9: R_X86_64_64	callback_return_addr
    79b1:	bf 01 00 00 00       	mov    edi,0x1
    79b6:	4b 89 7c f5 f8       	mov    QWORD PTR [r13+r14*8-0x8],rdi
    79bb:	bf 01 00 00 00       	mov    edi,0x1
    79c0:	4b 89 7c f5 f0       	mov    QWORD PTR [r13+r14*8-0x10],rdi
    79c5:	4b 89 74 f5 e8       	mov    QWORD PTR [r13+r14*8-0x18],rsi
    79ca:	48 8b b4 24 18 08 00 	mov    rsi,QWORD PTR [rsp+0x818]
    79d1:	00 
    79d2:	4c 89 a6 98 00 00 00 	mov    QWORD PTR [rsi+0x98],r12
    79d9:	48 89 df             	mov    rdi,rbx
    79dc:	4c 89 fe             	mov    rsi,r15
    79df:	48 b8 00 00 00 00 00 	movabs rax,0x0
    79e6:	00 00 00 
			79e1: R_X86_64_64	apply_n
    79e9:	48 89 bc 24 40 03 00 	mov    QWORD PTR [rsp+0x340],rdi
    79f0:	00 
    79f1:	ff d0                	call   rax
    79f3:	48 89 84 24 40 03 00 	mov    QWORD PTR [rsp+0x340],rax
    79fa:	00 
    79fb:	48 8b b4 24 10 08 00 	mov    rsi,QWORD PTR [rsp+0x810]
    7a02:	00 
    7a03:	48 8b 7e 08          	mov    rdi,QWORD PTR [rsi+0x8]
    7a07:	48 8b b4 24 00 08 00 	mov    rsi,QWORD PTR [rsp+0x800]
    7a0e:	00 
    7a0f:	48 b8 00 00 00 00 00 	movabs rax,0x0
    7a16:	00 00 00 
			7a11: R_X86_64_64	apply1
    7a19:	48 89 b4 24 50 03 00 	mov    QWORD PTR [rsp+0x350],rsi
    7a20:	00 
    7a21:	48 89 bc 24 60 03 00 	mov    QWORD PTR [rsp+0x360],rdi
    7a28:	00 
    7a29:	ff d0                	call   rax
    7a2b:	48 89 c3             	mov    rbx,rax
    7a2e:	49 89 d6             	mov    r14,rdx
    7a31:	4d 85 f6             	test   r14,r14
    7a34:	0f 85 0d 00 00 00    	jne    7a47 <big_makeblock+0x7a47>
    7a3a:	48 89 9c 24 38 05 00 	mov    QWORD PTR [rsp+0x538],rbx
    7a41:	00 
    7a42:	e9 9d 00 00 00       	jmp    7ae4 <big_makeblock+0x7ae4>
    7a47:	48 8b b4 24 18 08 00 	mov    rsi,QWORD PTR [rsp+0x818]
    7a4e:	00 
    7a4f:	4c 8b ae 98 00 00 00 	mov    r13,QWORD PTR [rsi+0x98]
    7a56:	4d 89 f7             	mov    r15,r14
    7a59:	49 83 c7 ff          	add    r15,0xffffffffffffffff
    7a5d:	4c 89 f2             	mov    rdx,r14
    7a60:	48 c1 e2 03          	shl    rdx,0x3
    7a64:	4d 89 ec             	mov    r12,r13
    7a67:	49 01 d4             	add    r12,rdx
    7a6a:	4c 89 ef             	mov    rdi,r13
    7a6d:	48 83 c7 e8          	add    rdi,0xffffffffffffffe8
    7a71:	4c 89 ee             	mov    rsi,r13
    7a74:	48 b8 00 00 00 00 00 	movabs rax,0x0
    7a7b:	00 00 00 
			7a76: R_X86_64_64	memmove
    7a7e:	48 89 9c 24 50 03 00 	mov    QWORD PTR [rsp+0x350],rbx
    7a85:	00 
    7a86:	ff d0                	call   rax
    7a88:	48 8b 9c 24 50 03 00 	mov    rbx,QWORD PTR [rsp+0x350]
    7a8f:	00 
    7a90:	48 be 00 00 00 00 00 	movabs rsi,0x0
    7a97:	00 00 00 
			7a92: R_X86_64_64	callback_return_addr
    7a9a:	bf 01 00 00 00       	mov    edi,0x1
    7a9f:	4b 89 7c f5 f8       	mov    QWORD PTR [r13+r14*8-0x8],rdi
    7aa4:	bf 01 00 00 00       	mov    edi,0x1
    7aa9:	4b 89 7c f5 f0       	mov    QWORD PTR [r13+r14*8-0x10],rdi
    7aae:	4b 89 74 f5 e8       	mov    QWORD PTR [r13+r14*8-0x18],rsi
    7ab3:	48 8b b4 24 18 08 00 	mov    rsi,QWORD PTR [rsp+0x818]
    7aba:	00 
    7abb:	4c 89 a6 98 00 00 00 	mov    QWORD PTR [rsi+0x98],r12
    7ac2:	48 89 df             	mov    rdi,rbx
    7ac5:	4c 89 fe             	mov    rsi,r15
    7ac8:	48 b8 00 00 00 00 00 	movabs rax,0x0
    7acf:	00 00 00 
			7aca: R_X86_64_64	apply_n
    7ad2:	48 89 bc 24 50 03 00 	mov    QWORD PTR [rsp+0x350],rdi
    7ad9:	00 
    7ada:	ff d0                	call   rax
    7adc:	48 89 84 24 38 05 00 	mov    QWORD PTR [rsp+0x538],rax
    7ae3:	00 
    7ae4:	48 8b b4 24 10 08 00 	mov    rsi,QWORD PTR [rsp+0x810]
    7aeb:	00 
    7aec:	48 8b 7e 08          	mov    rdi,QWORD PTR [rsi+0x8]
    7af0:	48 8b b4 24 00 08 00 	mov    rsi,QWORD PTR [rsp+0x800]
    7af7:	00 
    7af8:	48 b8 00 00 00 00 00 	movabs rax,0x0
    7aff:	00 00 00 
			7afa: R_X86_64_64	apply1
    7b02:	48 89 b4 24 50 03 00 	mov    QWORD PTR [rsp+0x350],rsi
    7b09:	00 
    7b0a:	48 89 bc 24 60 03 00 	mov    QWORD PTR [rsp+0x360],rdi
    7b11:	00 
    7b12:	ff d0                	call   rax
    7b14:	49 89 c7             	mov    r15,rax
    7b17:	49 89 d6             	mov    r14,rdx
    7b1a:	4d 85 f6             	test   r14,r14
    7b1d:	0f 85 0d 00 00 00    	jne    7b30 <big_makeblock+0x7b30>
    7b23:	4c 89 bc 24 50 03 00 	mov    QWORD PTR [rsp+0x350],r15
    7b2a:	00 
    7b2b:	e9 9d 00 00 00       	jmp    7bcd <big_makeblock+0x7bcd>
    7b30:	48 8b b4 24 18 08 00 	mov    rsi,QWORD PTR [rsp+0x818]
    7b37:	00 
    7b38:	4c 8b ae 98 00 00 00 	mov    r13,QWORD PTR [rsi+0x98]
    7b3f:	4c 89 f3             	mov    rbx,r14
    7b42:	48 83 c3 ff          	add    rbx,0xffffffffffffffff
    7b46:	4c 89 f2             	mov    rdx,r14
    7b49:	48 c1 e2 03          	shl    rdx,0x3
    7b4d:	4d 89 ec             	mov    r12,r13
    7b50:	49 01 d4             	add    r12,rdx
    7b53:	4c 89 ef             	mov    rdi,r13
    7b56:	48 83 c7 e8          	add    rdi,0xffffffffffffffe8
    7b5a:	4c 89 ee             	mov    rsi,r13
    7b5d:	48 b8 00 00 00 00 00 	movabs rax,0x0
    7b64:	00 00 00 
			7b5f: R_X86_64_64	memmove
    7b67:	4c 89 bc 24 60 03 00 	mov    QWORD PTR [rsp+0x360],r15
    7b6e:	00 
    7b6f:	ff d0                	call   rax
    7b71:	4c 8b bc 24 60 03 00 	mov    r15,QWORD PTR [rsp+0x360]
    7b78:	00 
    7b79:	48 be 00 00 00 00 00 	movabs rsi,0x0
    7b80:	00 00 00 
			7b7b: R_X86_64_64	callback_return_addr
    7b83:	bf 01 00 00 00       	mov    edi,0x1
    7b88:	4b 89 7c f5 f8       	mov    QWORD PTR [r13+r14*8-0x8],rdi
    7b8d:	bf 01 00 00 00       	mov    edi,0x1
    7b92:	4b 89 7c f5 f0       	mov    QWORD PTR [r13+r14*8-0x10],rdi
    7b97:	4b 89 74 f5 e8       	mov    QWORD PTR [r13+r14*8-0x18],rsi
    7b9c:	48 8b b4 24 18 08 00 	mov    rsi,QWORD PTR [rsp+0x818]
    7ba3:	00 
    7ba4:	4c 89 a6 98 00 00 00 	mov    QWORD PTR [rsi+0x98],r12
    7bab:	4c 89 ff             	mov    rdi,r15
    7bae:	48 89 de             	mov    rsi,rbx
    7bb1:	48 b8 00 00 00 00 00 	movabs rax,0x0
    7bb8:	00 00 00 
			7bb3: R_X86_64_64	apply_n
    7bbb:	48 89 bc 24 50 03 00 	mov    QWORD PTR [rsp+0x350],rdi
    7bc2:	00 
    7bc3:	ff d0                	call   rax
    7bc5:	48 89 84 24 50 03 00 	mov    QWORD PTR [rsp+0x350],rax
    7bcc:	00 
    7bcd:	48 8b b4 24 10 08 00 	mov    rsi,QWORD PTR [rsp+0x810]
    7bd4:	00 
    7bd5:	48 8b 7e 08          	mov    rdi,QWORD PTR [rsi+0x8]
    7bd9:	48 8b b4 24 00 08 00 	mov    rsi,QWORD PTR [rsp+0x800]
    7be0:	00 
    7be1:	48 b8 00 00 00 00 00 	movabs rax,0x0
    7be8:	00 00 00 
			7be3: R_X86_64_64	apply1
    7beb:	48 89 b4 24 60 03 00 	mov    QWORD PTR [rsp+0x360],rsi
    7bf2:	00 
    7bf3:	48 89 bc 24 70 03 00 	mov    QWORD PTR [rsp+0x370],rdi
    7bfa:	00 
    7bfb:	ff d0                	call   rax
    7bfd:	48 89 c3             	mov    rbx,rax
    7c00:	49 89 d6             	mov    r14,rdx
    7c03:	4d 85 f6             	test   r14,r14
    7c06:	0f 85 0d 00 00 00    	jne    7c19 <big_makeblock+0x7c19>
    7c0c:	48 89 9c 24 48 05 00 	mov    QWORD PTR [rsp+0x548],rbx
    7c13:	00 
    7c14:	e9 9d 00 00 00       	jmp    7cb6 <big_makeblock+0x7cb6>
    7c19:	48 8b b4 24 18 08 00 	mov    rsi,QWORD PTR [rsp+0x818]
    7c20:	00 
    7c21:	4c 8b ae 98 00 00 00 	mov    r13,QWORD PTR [rsi+0x98]
    7c28:	4d 89 f7             	mov    r15,r14
    7c2b:	49 83 c7 ff          	add    r15,0xffffffffffffffff
    7c2f:	4c 89 f2             	mov    rdx,r14
    7c32:	48 c1 e2 03          	shl    rdx,0x3
    7c36:	4d 89 ec             	mov    r12,r13
    7c39:	49 01 d4             	add    r12,rdx
    7c3c:	4c 89 ef             	mov    rdi,r13
    7c3f:	48 83 c7 e8          	add    rdi,0xffffffffffffffe8
    7c43:	4c 89 ee             	mov    rsi,r13
    7c46:	48 b8 00 00 00 00 00 	movabs rax,0x0
    7c4d:	00 00 00 
			7c48: R_X86_64_64	memmove
    7c50:	48 89 9c 24 60 03 00 	mov    QWORD PTR [rsp+0x360],rbx
    7c57:	00 
    7c58:	ff d0                	call   rax
    7c5a:	48 8b 9c 24 60 03 00 	mov    rbx,QWORD PTR [rsp+0x360]
    7c61:	00 
    7c62:	48 be 00 00 00 00 00 	movabs rsi,0x0
    7c69:	00 00 00 
			7c64: R_X86_64_64	callback_return_addr
    7c6c:	bf 01 00 00 00       	mov    edi,0x1
    7c71:	4b 89 7c f5 f8       	mov    QWORD PTR [r13+r14*8-0x8],rdi
    7c76:	bf 01 00 00 00       	mov    edi,0x1
    7c7b:	4b 89 7c f5 f0       	mov    QWORD PTR [r13+r14*8-0x10],rdi
    7c80:	4b 89 74 f5 e8       	mov    QWORD PTR [r13+r14*8-0x18],rsi
    7c85:	48 8b b4 24 18 08 00 	mov    rsi,QWORD PTR [rsp+0x818]
    7c8c:	00 
    7c8d:	4c 89 a6 98 00 00 00 	mov    QWORD PTR [rsi+0x98],r12
    7c94:	48 89 df             	mov    rdi,rbx
    7c97:	4c 89 fe             	mov    rsi,r15
    7c9a:	48 b8 00 00 00 00 00 	movabs rax,0x0
    7ca1:	00 00 00 
			7c9c: R_X86_64_64	apply_n
    7ca4:	48 89 bc 24 60 03 00 	mov    QWORD PTR [rsp+0x360],rdi
    7cab:	00 
    7cac:	ff d0                	call   rax
    7cae:	48 89 84 24 48 05 00 	mov    QWORD PTR [rsp+0x548],rax
    7cb5:	00 
    7cb6:	48 8b b4 24 10 08 00 	mov    rsi,QWORD PTR [rsp+0x810]
    7cbd:	00 
    7cbe:	48 8b 7e 08          	mov    rdi,QWORD PTR [rsi+0x8]
    7cc2:	48 8b b4 24 00 08 00 	mov    rsi,QWORD PTR [rsp+0x800]
    7cc9:	00 
    7cca:	48 b8 00 00 00 00 00 	movabs rax,0x0
    7cd1:	00 00 00 
			7ccc: R_X86_64_64	apply1
    7cd4:	48 89 b4 24 60 03 00 	mov    QWORD PTR [rsp+0x360],rsi
    7cdb:	00 
    7cdc:	48 89 bc 24 70 03 00 	mov    QWORD PTR [rsp+0x370],rdi
    7ce3:	00 
    7ce4:	ff d0                	call   rax
    7ce6:	48 89 c3             	mov    rbx,rax
    7ce9:	49 89 d6             	mov    r14,rdx
    7cec:	4d 85 f6             	test   r14,r14
    7cef:	0f 85 0d 00 00 00    	jne    7d02 <big_makeblock+0x7d02>
    7cf5:	48 89 9c 24 60 03 00 	mov    QWORD PTR [rsp+0x360],rbx
    7cfc:	00 
    7cfd:	e9 9d 00 00 00       	jmp    7d9f <big_makeblock+0x7d9f>
    7d02:	48 8b b4 24 18 08 00 	mov    rsi,QWORD PTR [rsp+0x818]
    7d09:	00 
    7d0a:	4c 8b ae 98 00 00 00 	mov    r13,QWORD PTR [rsi+0x98]
    7d11:	4d 89 f7             	mov    r15,r14
    7d14:	49 83 c7 ff          	add    r15,0xffffffffffffffff
    7d18:	4c 89 f2             	mov    rdx,r14
    7d1b:	48 c1 e2 03          	shl    rdx,0x3
    7d1f:	4d 89 ec             	mov    r12,r13
    7d22:	49 01 d4             	add    r12,rdx
    7d25:	4c 89 ef             	mov    rdi,r13
    7d28:	48 83 c7 e8          	add    rdi,0xffffffffffffffe8
    7d2c:	4c 89 ee             	mov    rsi,r13
    7d2f:	48 b8 00 00 00 00 00 	movabs rax,0x0
    7d36:	00 00 00 
			7d31: R_X86_64_64	memmove
    7d39:	48 89 9c 24 70 03 00 	mov    QWORD PTR [rsp+0x370],rbx
    7d40:	00 
    7d41:	ff d0                	call   rax
    7d43:	48 8b 9c 24 70 03 00 	mov    rbx,QWORD PTR [rsp+0x370]
    7d4a:	00 
    7d4b:	48 be 00 00 00 00 00 	movabs rsi,0x0
    7d52:	00 00 00 
			7d4d: R_X86_64_64	callback_return_addr
    7d55:	bf 01 00 00 00       	mov    edi,0x1
    7d5a:	4b 89 7c f5 f8       	mov    QWORD PTR [r13+r14*8-0x8],rdi
    7d5f:	bf 01 00 00 00       	mov    edi,0x1
    7d64:	4b 89 7c f5 f0       	mov    QWORD PTR [r13+r14*8-0x10],rdi
    7d69:	4b 89 74 f5 e8       	mov    QWORD PTR [r13+r14*8-0x18],rsi
    7d6e:	48 8b b4 24 18 08 00 	mov    rsi,QWORD PTR [rsp+0x818]
    7d75:	00 
    7d76:	4c 89 a6 98 00 00 00 	mov    QWORD PTR [rsi+0x98],r12
    7d7d:	48 89 df             	mov    rdi,rbx
    7d80:	4c 89 fe             	mov    rsi,r15
    7d83:	48 b8 00 00 00 00 00 	movabs rax,0x0
    7d8a:	00 00 00 
			7d85: R_X86_64_64	apply_n
    7d8d:	48 89 bc 24 60 03 00 	mov    QWORD PTR [rsp+0x360],rdi
    7d94:	00 
    7d95:	ff d0                	call   rax
    7d97:	48 89 84 24 60 03 00 	mov    QWORD PTR [rsp+0x360],rax
    7d9e:	00 
    7d9f:	48 8b b4 24 10 08 00 	mov    rsi,QWORD PTR [rsp+0x810]
    7da6:	00 
    7da7:	48 8b 7e 08          	mov    rdi,QWORD PTR [rsi+0x8]
    7dab:	48 8b b4 24 00 08 00 	mov    rsi,QWORD PTR [rsp+0x800]
    7db2:	00 
    7db3:	48 b8 00 00 00 00 00 	movabs rax,0x0
    7dba:	00 00 00 
			7db5: R_X86_64_64	apply1
    7dbd:	48 89 b4 24 70 03 00 	mov    QWORD PTR [rsp+0x370],rsi
    7dc4:	00 
    7dc5:	48 89 bc 24 80 03 00 	mov    QWORD PTR [rsp+0x380],rdi
    7dcc:	00 
    7dcd:	ff d0                	call   rax
    7dcf:	49 89 c7             	mov    r15,rax
    7dd2:	49 89 d6             	mov    r14,rdx
    7dd5:	4d 85 f6             	test   r14,r14
    7dd8:	0f 85 0d 00 00 00    	jne    7deb <big_makeblock+0x7deb>
    7dde:	4c 89 bc 24 58 05 00 	mov    QWORD PTR [rsp+0x558],r15
    7de5:	00 
    7de6:	e9 9d 00 00 00       	jmp    7e88 <big_makeblock+0x7e88>
    7deb:	48 8b b4 24 18 08 00 	mov    rsi,QWORD PTR [rsp+0x818]
    7df2:	00 
    7df3:	4c 8b ae 98 00 00 00 	mov    r13,QWORD PTR [rsi+0x98]
    7dfa:	4c 89 f3             	mov    rbx,r14
    7dfd:	48 83 c3 ff          	add    rbx,0xffffffffffffffff
    7e01:	4c 89 f2             	mov    rdx,r14
    7e04:	48 c1 e2 03          	shl    rdx,0x3
    7e08:	4d 89 ec             	mov    r12,r13
    7e0b:	49 01 d4             	add    r12,rdx
    7e0e:	4c 89 ef             	mov    rdi,r13
    7e11:	48 83 c7 e8          	add    rdi,0xffffffffffffffe8
    7e15:	4c 89 ee             	mov    rsi,r13
    7e18:	48 b8 00 00 00 00 00 	movabs rax,0x0
    7e1f:	00 00 00 
			7e1a: R_X86_64_64	memmove
    7e22:	4c 89 bc 24 70 03 00 	mov    QWORD PTR [rsp+0x370],r15
    7e29:	00 
    7e2a:	ff d0                	call   rax
    7e2c:	4c 8b bc 24 70 03 00 	mov    r15,QWORD PTR [rsp+0x370]
    7e33:	00 
    7e34:	48 be 00 00 00 00 00 	movabs rsi,0x0
    7e3b:	00 00 00 
			7e36: R_X86_64_64	callback_return_addr
    7e3e:	bf 01 00 00 00       	mov    edi,0x1
    7e43:	4b 89 7c f5 f8       	mov    QWORD PTR [r13+r14*8-0x8],rdi
    7e48:	bf 01 00 00 00       	mov    edi,0x1
    7e4d:	4b 89 7c f5 f0       	mov    QWORD PTR [r13+r14*8-0x10],rdi
    7e52:	4b 89 74 f5 e8       	mov    QWORD PTR [r13+r14*8-0x18],rsi
    7e57:	48 8b b4 24 18 08 00 	mov    rsi,QWORD PTR [rsp+0x818]
    7e5e:	00 
    7e5f:	4c 89 a6 98 00 00 00 	mov    QWORD PTR [rsi+0x98],r12
    7e66:	4c 89 ff             	mov    rdi,r15
    7e69:	48 89 de             	mov    rsi,rbx
    7e6c:	48 b8 00 00 00 00 00 	movabs rax,0x0
    7e73:	00 00 00 
			7e6e: R_X86_64_64	apply_n
    7e76:	48 89 bc 24 70 03 00 	mov    QWORD PTR [rsp+0x370],rdi
    7e7d:	00 
    7e7e:	ff d0                	call   rax
    7e80:	48 89 84 24 58 05 00 	mov    QWORD PTR [rsp+0x558],rax
    7e87:	00 
    7e88:	48 8b b4 24 10 08 00 	mov    rsi,QWORD PTR [rsp+0x810]
    7e8f:	00 
    7e90:	48 8b 7e 08          	mov    rdi,QWORD PTR [rsi+0x8]
    7e94:	48 8b b4 24 00 08 00 	mov    rsi,QWORD PTR [rsp+0x800]
    7e9b:	00 
    7e9c:	48 b8 00 00 00 00 00 	movabs rax,0x0
    7ea3:	00 00 00 
			7e9e: R_X86_64_64	apply1
    7ea6:	48 89 b4 24 70 03 00 	mov    QWORD PTR [rsp+0x370],rsi
    7ead:	00 
    7eae:	48 89 bc 24 80 03 00 	mov    QWORD PTR [rsp+0x380],rdi
    7eb5:	00 
    7eb6:	ff d0                	call   rax
    7eb8:	48 89 c3             	mov    rbx,rax
    7ebb:	49 89 d6             	mov    r14,rdx
    7ebe:	4d 85 f6             	test   r14,r14
    7ec1:	0f 85 0d 00 00 00    	jne    7ed4 <big_makeblock+0x7ed4>
    7ec7:	48 89 9c 24 70 03 00 	mov    QWORD PTR [rsp+0x370],rbx
    7ece:	00 
    7ecf:	e9 9d 00 00 00       	jmp    7f71 <big_makeblock+0x7f71>
    7ed4:	48 8b b4 24 18 08 00 	mov    rsi,QWORD PTR [rsp+0x818]
    7edb:	00 
    7edc:	4c 8b ae 98 00 00 00 	mov    r13,QWORD PTR [rsi+0x98]
    7ee3:	4d 89 f7             	mov    r15,r14
    7ee6:	49 83 c7 ff          	add    r15,0xffffffffffffffff
    7eea:	4c 89 f2             	mov    rdx,r14
    7eed:	48 c1 e2 03          	shl    rdx,0x3
    7ef1:	4d 89 ec             	mov    r12,r13
    7ef4:	49 01 d4             	add    r12,rdx
    7ef7:	4c 89 ef             	mov    rdi,r13
    7efa:	48 83 c7 e8          	add    rdi,0xffffffffffffffe8
    7efe:	4c 89 ee             	mov    rsi,r13
    7f01:	48 b8 00 00 00 00 00 	movabs rax,0x0
    7f08:	00 00 00 
			7f03: R_X86_64_64	memmove
    7f0b:	48 89 9c 24 80 03 00 	mov    QWORD PTR [rsp+0x380],rbx
    7f12:	00 
    7f13:	ff d0                	call   rax
    7f15:	48 8b 9c 24 80 03 00 	mov    rbx,QWORD PTR [rsp+0x380]
    7f1c:	00 
    7f1d:	48 be 00 00 00 00 00 	movabs rsi,0x0
    7f24:	00 00 00 
			7f1f: R_X86_64_64	callback_return_addr
    7f27:	bf 01 00 00 00       	mov    edi,0x1
    7f2c:	4b 89 7c f5 f8       	mov    QWORD PTR [r13+r14*8-0x8],rdi
    7f31:	bf 01 00 00 00       	mov    edi,0x1
    7f36:	4b 89 7c f5 f0       	mov    QWORD PTR [r13+r14*8-0x10],rdi
    7f3b:	4b 89 74 f5 e8       	mov    QWORD PTR [r13+r14*8-0x18],rsi
    7f40:	48 8b b4 24 18 08 00 	mov    rsi,QWORD PTR [rsp+0x818]
    7f47:	00 
    7f48:	4c 89 a6 98 00 00 00 	mov    QWORD PTR [rsi+0x98],r12
    7f4f:	48 89 df             	mov    rdi,rbx
    7f52:	4c 89 fe             	mov    rsi,r15
    7f55:	48 b8 00 00 00 00 00 	movabs rax,0x0
    7f5c:	00 00 00 
			7f57: R_X86_64_64	apply_n
    7f5f:	48 89 bc 24 70 03 00 	mov    QWORD PTR [rsp+0x370],rdi
    7f66:	00 
    7f67:	ff d0                	call   rax
    7f69:	48 89 84 24 70 03 00 	mov    QWORD PTR [rsp+0x370],rax
    7f70:	00 
    7f71:	48 8b b4 24 10 08 00 	mov    rsi,QWORD PTR [rsp+0x810]
    7f78:	00 
    7f79:	48 8b 7e 08          	mov    rdi,QWORD PTR [rsi+0x8]
    7f7d:	48 8b b4 24 00 08 00 	mov    rsi,QWORD PTR [rsp+0x800]
    7f84:	00 
    7f85:	48 b8 00 00 00 00 00 	movabs rax,0x0
    7f8c:	00 00 00 
			7f87: R_X86_64_64	apply1
    7f8f:	48 89 b4 24 80 03 00 	mov    QWORD PTR [rsp+0x380],rsi
    7f96:	00 
    7f97:	48 89 bc 24 90 03 00 	mov    QWORD PTR [rsp+0x390],rdi
    7f9e:	00 
    7f9f:	ff d0                	call   rax
    7fa1:	48 89 c3             	mov    rbx,rax
    7fa4:	49 89 d6             	mov    r14,rdx
    7fa7:	4d 85 f6             	test   r14,r14
    7faa:	0f 85 0d 00 00 00    	jne    7fbd <big_makeblock+0x7fbd>
    7fb0:	48 89 9c 24 68 05 00 	mov    QWORD PTR [rsp+0x568],rbx
    7fb7:	00 
    7fb8:	e9 9d 00 00 00       	jmp    805a <big_makeblock+0x805a>
    7fbd:	48 8b b4 24 18 08 00 	mov    rsi,QWORD PTR [rsp+0x818]
    7fc4:	00 
    7fc5:	4c 8b ae 98 00 00 00 	mov    r13,QWORD PTR [rsi+0x98]
    7fcc:	4d 89 f7             	mov    r15,r14
    7fcf:	49 83 c7 ff          	add    r15,0xffffffffffffffff
    7fd3:	4c 89 f2             	mov    rdx,r14
    7fd6:	48 c1 e2 03          	shl    rdx,0x3
    7fda:	4d 89 ec             	mov    r12,r13
    7fdd:	49 01 d4             	add    r12,rdx
    7fe0:	4c 89 ef             	mov    rdi,r13
    7fe3:	48 83 c7 e8          	add    rdi,0xffffffffffffffe8
    7fe7:	4c 89 ee             	mov    rsi,r13
    7fea:	48 b8 00 00 00 00 00 	movabs rax,0x0
    7ff1:	00 00 00 
			7fec: R_X86_64_64	memmove
    7ff4:	48 89 9c 24 80 03 00 	mov    QWORD PTR [rsp+0x380],rbx
    7ffb:	00 
    7ffc:	ff d0                	call   rax
    7ffe:	48 8b 9c 24 80 03 00 	mov    rbx,QWORD PTR [rsp+0x380]
    8005:	00 
    8006:	48 be 00 00 00 00 00 	movabs rsi,0x0
    800d:	00 00 00 
			8008: R_X86_64_64	callback_return_addr
    8010:	bf 01 00 00 00       	mov    edi,0x1
    8015:	4b 89 7c f5 f8       	mov    QWORD PTR [r13+r14*8-0x8],rdi
    801a:	bf 01 00 00 00       	mov    edi,0x1
    801f:	4b 89 7c f5 f0       	mov    QWORD PTR [r13+r14*8-0x10],rdi
    8024:	4b 89 74 f5 e8       	mov    QWORD PTR [r13+r14*8-0x18],rsi
    8029:	48 8b b4 24 18 08 00 	mov    rsi,QWORD PTR [rsp+0x818]
    8030:	00 
    8031:	4c 89 a6 98 00 00 00 	mov    QWORD PTR [rsi+0x98],r12
    8038:	48 89 df             	mov    rdi,rbx
    803b:	4c 89 fe             	mov    rsi,r15
    803e:	48 b8 00 00 00 00 00 	movabs rax,0x0
    8045:	00 00 00 
			8040: R_X86_64_64	apply_n
    8048:	48 89 bc 24 80 03 00 	mov    QWORD PTR [rsp+0x380],rdi
    804f:	00 
    8050:	ff d0                	call   rax
    8052:	48 89 84 24 68 05 00 	mov    QWORD PTR [rsp+0x568],rax
    8059:	00 
    805a:	48 8b b4 24 10 08 00 	mov    rsi,QWORD PTR [rsp+0x810]
    8061:	00 
    8062:	48 8b 7e 08          	mov    rdi,QWORD PTR [rsi+0x8]
    8066:	48 8b b4 24 00 08 00 	mov    rsi,QWORD PTR [rsp+0x800]
    806d:	00 
    806e:	48 b8 00 00 00 00 00 	movabs rax,0x0
    8075:	00 00 00 
			8070: R_X86_64_64	apply1
    8078:	48 89 b4 24 80 03 00 	mov    QWORD PTR [rsp+0x380],rsi
    807f:	00 
    8080:	48 89 bc 24 90 03 00 	mov    QWORD PTR [rsp+0x390],rdi
    8087:	00 
    8088:	ff d0                	call   rax
    808a:	49 89 c7             	mov    r15,rax
    808d:	49 89 d6             	mov    r14,rdx
    8090:	4d 85 f6             	test   r14,r14
    8093:	0f 85 0d 00 00 00    	jne    80a6 <big_makeblock+0x80a6>
    8099:	4c 89 bc 24 80 03 00 	mov    QWORD PTR [rsp+0x380],r15
    80a0:	00 
    80a1:	e9 9d 00 00 00       	jmp    8143 <big_makeblock+0x8143>
    80a6:	48 8b b4 24 18 08 00 	mov    rsi,QWORD PTR [rsp+0x818]
    80ad:	00 
    80ae:	4c 8b ae 98 00 00 00 	mov    r13,QWORD PTR [rsi+0x98]
    80b5:	4c 89 f3             	mov    rbx,r14
    80b8:	48 83 c3 ff          	add    rbx,0xffffffffffffffff
    80bc:	4c 89 f2             	mov    rdx,r14
    80bf:	48 c1 e2 03          	shl    rdx,0x3
    80c3:	4d 89 ec             	mov    r12,r13
    80c6:	49 01 d4             	add    r12,rdx
    80c9:	4c 89 ef             	mov    rdi,r13
    80cc:	48 83 c7 e8          	add    rdi,0xffffffffffffffe8
    80d0:	4c 89 ee             	mov    rsi,r13
    80d3:	48 b8 00 00 00 00 00 	movabs rax,0x0
    80da:	00 00 00 
			80d5: R_X86_64_64	memmove
    80dd:	4c 89 bc 24 90 03 00 	mov    QWORD PTR [rsp+0x390],r15
    80e4:	00 
    80e5:	ff d0                	call   rax
    80e7:	4c 8b bc 24 90 03 00 	mov    r15,QWORD PTR [rsp+0x390]
    80ee:	00 
    80ef:	48 be 00 00 00 00 00 	movabs rsi,0x0
    80f6:	00 00 00 
			80f1: R_X86_64_64	callback_return_addr
    80f9:	bf 01 00 00 00       	mov    edi,0x1
    80fe:	4b 89 7c f5 f8       	mov    QWORD PTR [r13+r14*8-0x8],rdi
    8103:	bf 01 00 00 00       	mov    edi,0x1
    8108:	4b 89 7c f5 f0       	mov    QWORD PTR [r13+r14*8-0x10],rdi
    810d:	4b 89 74 f5 e8       	mov    QWORD PTR [r13+r14*8-0x18],rsi
    8112:	48 8b b4 24 18 08 00 	mov    rsi,QWORD PTR [rsp+0x818]
    8119:	00 
    811a:	4c 89 a6 98 00 00 00 	mov    QWORD PTR [rsi+0x98],r12
    8121:	4c 89 ff             	mov    rdi,r15
    8124:	48 89 de             	mov    rsi,rbx
    8127:	48 b8 00 00 00 00 00 	movabs rax,0x0
    812e:	00 00 00 
			8129: R_X86_64_64	apply_n
    8131:	48 89 bc 24 80 03 00 	mov    QWORD PTR [rsp+0x380],rdi
    8138:	00 
    8139:	ff d0                	call   rax
    813b:	48 89 84 24 80 03 00 	mov    QWORD PTR [rsp+0x380],rax
    8142:	00 
    8143:	48 8b b4 24 10 08 00 	mov    rsi,QWORD PTR [rsp+0x810]
    814a:	00 
    814b:	48 8b 7e 08          	mov    rdi,QWORD PTR [rsi+0x8]
    814f:	48 8b b4 24 00 08 00 	mov    rsi,QWORD PTR [rsp+0x800]
    8156:	00 
    8157:	48 b8 00 00 00 00 00 	movabs rax,0x0
    815e:	00 00 00 
			8159: R_X86_64_64	apply1
    8161:	48 89 b4 24 90 03 00 	mov    QWORD PTR [rsp+0x390],rsi
    8168:	00 
    8169:	48 89 bc 24 a0 03 00 	mov    QWORD PTR [rsp+0x3a0],rdi
    8170:	00 
    8171:	ff d0                	call   rax
    8173:	48 89 c3             	mov    rbx,rax
    8176:	49 89 d6             	mov    r14,rdx
    8179:	4d 85 f6             	test   r14,r14
    817c:	0f 85 0d 00 00 00    	jne    818f <big_makeblock+0x818f>
    8182:	48 89 9c 24 78 05 00 	mov    QWORD PTR [rsp+0x578],rbx
    8189:	00 
    818a:	e9 9d 00 00 00       	jmp    822c <big_makeblock+0x822c>
    818f:	48 8b b4 24 18 08 00 	mov    rsi,QWORD PTR [rsp+0x818]
    8196:	00 
    8197:	4c 8b ae 98 00 00 00 	mov    r13,QWORD PTR [rsi+0x98]
    819e:	4d 89 f7             	mov    r15,r14
    81a1:	49 83 c7 ff          	add    r15,0xffffffffffffffff
    81a5:	4c 89 f2             	mov    rdx,r14
    81a8:	48 c1 e2 03          	shl    rdx,0x3
    81ac:	4d 89 ec             	mov    r12,r13
    81af:	49 01 d4             	add    r12,rdx
    81b2:	4c 89 ef             	mov    rdi,r13
    81b5:	48 83 c7 e8          	add    rdi,0xffffffffffffffe8
    81b9:	4c 89 ee             	mov    rsi,r13
    81bc:	48 b8 00 00 00 00 00 	movabs rax,0x0
    81c3:	00 00 00 
			81be: R_X86_64_64	memmove
    81c6:	48 89 9c 24 90 03 00 	mov    QWORD PTR [rsp+0x390],rbx
    81cd:	00 
    81ce:	ff d0                	call   rax
    81d0:	48 8b 9c 24 90 03 00 	mov    rbx,QWORD PTR [rsp+0x390]
    81d7:	00 
    81d8:	48 be 00 00 00 00 00 	movabs rsi,0x0
    81df:	00 00 00 
			81da: R_X86_64_64	callback_return_addr
    81e2:	bf 01 00 00 00       	mov    edi,0x1
    81e7:	4b 89 7c f5 f8       	mov    QWORD PTR [r13+r14*8-0x8],rdi
    81ec:	bf 01 00 00 00       	mov    edi,0x1
    81f1:	4b 89 7c f5 f0       	mov    QWORD PTR [r13+r14*8-0x10],rdi
    81f6:	4b 89 74 f5 e8       	mov    QWORD PTR [r13+r14*8-0x18],rsi
    81fb:	48 8b b4 24 18 08 00 	mov    rsi,QWORD PTR [rsp+0x818]
    8202:	00 
    8203:	4c 89 a6 98 00 00 00 	mov    QWORD PTR [rsi+0x98],r12
    820a:	48 89 df             	mov    rdi,rbx
    820d:	4c 89 fe             	mov    rsi,r15
    8210:	48 b8 00 00 00 00 00 	movabs rax,0x0
    8217:	00 00 00 
			8212: R_X86_64_64	apply_n
    821a:	48 89 bc 24 90 03 00 	mov    QWORD PTR [rsp+0x390],rdi
    8221:	00 
    8222:	ff d0                	call   rax
    8224:	48 89 84 24 78 05 00 	mov    QWORD PTR [rsp+0x578],rax
    822b:	00 
    822c:	48 8b b4 24 10 08 00 	mov    rsi,QWORD PTR [rsp+0x810]
    8233:	00 
    8234:	48 8b 7e 08          	mov    rdi,QWORD PTR [rsi+0x8]
    8238:	48 8b b4 24 00 08 00 	mov    rsi,QWORD PTR [rsp+0x800]
    823f:	00 
    8240:	48 b8 00 00 00 00 00 	movabs rax,0x0
    8247:	00 00 00 
			8242: R_X86_64_64	apply1
    824a:	48 89 b4 24 90 03 00 	mov    QWORD PTR [rsp+0x390],rsi
    8251:	00 
    8252:	48 89 bc 24 a0 03 00 	mov    QWORD PTR [rsp+0x3a0],rdi
    8259:	00 
    825a:	ff d0                	call   rax
    825c:	48 89 c3             	mov    rbx,rax
    825f:	49 89 d6             	mov    r14,rdx
    8262:	4d 85 f6             	test   r14,r14
    8265:	0f 85 0d 00 00 00    	jne    8278 <big_makeblock+0x8278>
    826b:	48 89 9c 24 90 03 00 	mov    QWORD PTR [rsp+0x390],rbx
    8272:	00 
    8273:	e9 9d 00 00 00       	jmp    8315 <big_makeblock+0x8315>
    8278:	48 8b b4 24 18 08 00 	mov    rsi,QWORD PTR [rsp+0x818]
    827f:	00 
    8280:	4c 8b ae 98 00 00 00 	mov    r13,QWORD PTR [rsi+0x98]
    8287:	4d 89 f7             	mov    r15,r14
    828a:	49 83 c7 ff          	add    r15,0xffffffffffffffff
    828e:	4c 89 f2             	mov    rdx,r14
    8291:	48 c1 e2 03          	shl    rdx,0x3
    8295:	4d 89 ec             	mov    r12,r13
    8298:	49 01 d4             	add    r12,rdx
    829b:	4c 89 ef             	mov    rdi,r13
    829e:	48 83 c7 e8          	add    rdi,0xffffffffffffffe8
    82a2:	4c 89 ee             	mov    rsi,r13
    82a5:	48 b8 00 00 00 00 00 	movabs rax,0x0
    82ac:	00 00 00 
			82a7: R_X86_64_64	memmove
    82af:	48 89 9c 24 a0 03 00 	mov    QWORD PTR [rsp+0x3a0],rbx
    82b6:	00 
    82b7:	ff d0                	call   rax
    82b9:	48 8b 9c 24 a0 03 00 	mov    rbx,QWORD PTR [rsp+0x3a0]
    82c0:	00 
    82c1:	48 be 00 00 00 00 00 	movabs rsi,0x0
    82c8:	00 00 00 
			82c3: R_X86_64_64	callback_return_addr
    82cb:	bf 01 00 00 00       	mov    edi,0x1
    82d0:	4b 89 7c f5 f8       	mov    QWORD PTR [r13+r14*8-0x8],rdi
    82d5:	bf 01 00 00 00       	mov    edi,0x1
    82da:	4b 89 7c f5 f0       	mov    QWORD PTR [r13+r14*8-0x10],rdi
    82df:	4b 89 74 f5 e8       	mov    QWORD PTR [r13+r14*8-0x18],rsi
    82e4:	48 8b b4 24 18 08 00 	mov    rsi,QWORD PTR [rsp+0x818]
    82eb:	00 
    82ec:	4c 89 a6 98 00 00 00 	mov    QWORD PTR [rsi+0x98],r12
    82f3:	48 89 df             	mov    rdi,rbx
    82f6:	4c 89 fe             	mov    rsi,r15
    82f9:	48 b8 00 00 00 00 00 	movabs rax,0x0
    8300:	00 00 00 
			82fb: R_X86_64_64	apply_n
    8303:	48 89 bc 24 90 03 00 	mov    QWORD PTR [rsp+0x390],rdi
    830a:	00 
    830b:	ff d0                	call   rax
    830d:	48 89 84 24 90 03 00 	mov    QWORD PTR [rsp+0x390],rax
    8314:	00 
    8315:	48 8b b4 24 10 08 00 	mov    rsi,QWORD PTR [rsp+0x810]
    831c:	00 
    831d:	48 8b 7e 08          	mov    rdi,QWORD PTR [rsi+0x8]
    8321:	48 8b b4 24 00 08 00 	mov    rsi,QWORD PTR [rsp+0x800]
    8328:	00 
    8329:	48 b8 00 00 00 00 00 	movabs rax,0x0
    8330:	00 00 00 
			832b: R_X86_64_64	apply1
    8333:	48 89 b4 24 a0 03 00 	mov    QWORD PTR [rsp+0x3a0],rsi
    833a:	00 
    833b:	48 89 bc 24 b0 03 00 	mov    QWORD PTR [rsp+0x3b0],rdi
    8342:	00 
    8343:	ff d0                	call   rax
    8345:	49 89 c7             	mov    r15,rax
    8348:	49 89 d6             	mov    r14,rdx
    834b:	4d 85 f6             	test   r14,r14
    834e:	0f 85 0d 00 00 00    	jne    8361 <big_makeblock+0x8361>
    8354:	4c 89 bc 24 88 05 00 	mov    QWORD PTR [rsp+0x588],r15
    835b:	00 
    835c:	e9 9d 00 00 00       	jmp    83fe <big_makeblock+0x83fe>
    8361:	48 8b b4 24 18 08 00 	mov    rsi,QWORD PTR [rsp+0x818]
    8368:	00 
    8369:	4c 8b ae 98 00 00 00 	mov    r13,QWORD PTR [rsi+0x98]
    8370:	4c 89 f3             	mov    rbx,r14
    8373:	48 83 c3 ff          	add    rbx,0xffffffffffffffff
    8377:	4c 89 f2             	mov    rdx,r14
    837a:	48 c1 e2 03          	shl    rdx,0x3
    837e:	4d 89 ec             	mov    r12,r13
    8381:	49 01 d4             	add    r12,rdx
    8384:	4c 89 ef             	mov    rdi,r13
    8387:	48 83 c7 e8          	add    rdi,0xffffffffffffffe8
    838b:	4c 89 ee             	mov    rsi,r13
    838e:	48 b8 00 00 00 00 00 	movabs rax,0x0
    8395:	00 00 00 
			8390: R_X86_64_64	memmove
    8398:	4c 89 bc 24 a0 03 00 	mov    QWORD PTR [rsp+0x3a0],r15
    839f:	00 
    83a0:	ff d0                	call   rax
    83a2:	4c 8b bc 24 a0 03 00 	mov    r15,QWORD PTR [rsp+0x3a0]
    83a9:	00 
    83aa:	48 be 00 00 00 00 00 	movabs rsi,0x0
    83b1:	00 00 00 
			83ac: R_X86_64_64	callback_return_addr
    83b4:	bf 01 00 00 00       	mov    edi,0x1
    83b9:	4b 89 7c f5 f8       	mov    QWORD PTR [r13+r14*8-0x8],rdi
    83be:	bf 01 00 00 00       	mov    edi,0x1
    83c3:	4b 89 7c f5 f0       	mov    QWORD PTR [r13+r14*8-0x10],rdi
    83c8:	4b 89 74 f5 e8       	mov    QWORD PTR [r13+r14*8-0x18],rsi
    83cd:	48 8b b4 24 18 08 00 	mov    rsi,QWORD PTR [rsp+0x818]
    83d4:	00 
    83d5:	4c 89 a6 98 00 00 00 	mov    QWORD PTR [rsi+0x98],r12
    83dc:	4c 89 ff             	mov    rdi,r15
    83df:	48 89 de             	mov    rsi,rbx
    83e2:	48 b8 00 00 00 00 00 	movabs rax,0x0
    83e9:	00 00 00 
			83e4: R_X86_64_64	apply_n
    83ec:	48 89 bc 24 a0 03 00 	mov    QWORD PTR [rsp+0x3a0],rdi
    83f3:	00 
    83f4:	ff d0                	call   rax
    83f6:	48 89 84 24 88 05 00 	mov    QWORD PTR [rsp+0x588],rax
    83fd:	00 
    83fe:	48 8b b4 24 10 08 00 	mov    rsi,QWORD PTR [rsp+0x810]
    8405:	00 
    8406:	48 8b 7e 08          	mov    rdi,QWORD PTR [rsi+0x8]
    840a:	48 8b b4 24 00 08 00 	mov    rsi,QWORD PTR [rsp+0x800]
    8411:	00 
    8412:	48 b8 00 00 00 00 00 	movabs rax,0x0
    8419:	00 00 00 
			8414: R_X86_64_64	apply1
    841c:	48 89 b4 24 a0 03 00 	mov    QWORD PTR [rsp+0x3a0],rsi
    8423:	00 
    8424:	48 89 bc 24 b0 03 00 	mov    QWORD PTR [rsp+0x3b0],rdi
    842b:	00 
    842c:	ff d0                	call   rax
    842e:	48 89 c3             	mov    rbx,rax
    8431:	49 89 d6             	mov    r14,rdx
    8434:	4d 85 f6             	test   r14,r14
    8437:	0f 85 0d 00 00 00    	jne    844a <big_makeblock+0x844a>
    843d:	48 89 9c 24 a0 03 00 	mov    QWORD PTR [rsp+0x3a0],rbx
    8444:	00 
    8445:	e9 9d 00 00 00       	jmp    84e7 <big_makeblock+0x84e7>
    844a:	48 8b b4 24 18 08 00 	mov    rsi,QWORD PTR [rsp+0x818]
    8451:	00 
    8452:	4c 8b ae 98 00 00 00 	mov    r13,QWORD PTR [rsi+0x98]
    8459:	4d 89 f7             	mov    r15,r14
    845c:	49 83 c7 ff          	add    r15,0xffffffffffffffff
    8460:	4c 89 f2             	mov    rdx,r14
    8463:	48 c1 e2 03          	shl    rdx,0x3
    8467:	4d 89 ec             	mov    r12,r13
    846a:	49 01 d4             	add    r12,rdx
    846d:	4c 89 ef             	mov    rdi,r13
    8470:	48 83 c7 e8          	add    rdi,0xffffffffffffffe8
    8474:	4c 89 ee             	mov    rsi,r13
    8477:	48 b8 00 00 00 00 00 	movabs rax,0x0
    847e:	00 00 00 
			8479: R_X86_64_64	memmove
    8481:	48 89 9c 24 b0 03 00 	mov    QWORD PTR [rsp+0x3b0],rbx
    8488:	00 
    8489:	ff d0                	call   rax
    848b:	48 8b 9c 24 b0 03 00 	mov    rbx,QWORD PTR [rsp+0x3b0]
    8492:	00 
    8493:	48 be 00 00 00 00 00 	movabs rsi,0x0
    849a:	00 00 00 
			8495: R_X86_64_64	callback_return_addr
    849d:	bf 01 00 00 00       	mov    edi,0x1
    84a2:	4b 89 7c f5 f8       	mov    QWORD PTR [r13+r14*8-0x8],rdi
    84a7:	bf 01 00 00 00       	mov    edi,0x1
    84ac:	4b 89 7c f5 f0       	mov    QWORD PTR [r13+r14*8-0x10],rdi
    84b1:	4b 89 74 f5 e8       	mov    QWORD PTR [r13+r14*8-0x18],rsi
    84b6:	48 8b b4 24 18 08 00 	mov    rsi,QWORD PTR [rsp+0x818]
    84bd:	00 
    84be:	4c 89 a6 98 00 00 00 	mov    QWORD PTR [rsi+0x98],r12
    84c5:	48 89 df             	mov    rdi,rbx
    84c8:	4c 89 fe             	mov    rsi,r15
    84cb:	48 b8 00 00 00 00 00 	movabs rax,0x0
    84d2:	00 00 00 
			84cd: R_X86_64_64	apply_n
    84d5:	48 89 bc 24 a0 03 00 	mov    QWORD PTR [rsp+0x3a0],rdi
    84dc:	00 
    84dd:	ff d0                	call   rax
    84df:	48 89 84 24 a0 03 00 	mov    QWORD PTR [rsp+0x3a0],rax
    84e6:	00 
    84e7:	48 8b b4 24 10 08 00 	mov    rsi,QWORD PTR [rsp+0x810]
    84ee:	00 
    84ef:	48 8b 7e 08          	mov    rdi,QWORD PTR [rsi+0x8]
    84f3:	48 8b b4 24 00 08 00 	mov    rsi,QWORD PTR [rsp+0x800]
    84fa:	00 
    84fb:	48 b8 00 00 00 00 00 	movabs rax,0x0
    8502:	00 00 00 
			84fd: R_X86_64_64	apply1
    8505:	48 89 b4 24 b0 03 00 	mov    QWORD PTR [rsp+0x3b0],rsi
    850c:	00 
    850d:	48 89 bc 24 c0 03 00 	mov    QWORD PTR [rsp+0x3c0],rdi
    8514:	00 
    8515:	ff d0                	call   rax
    8517:	48 89 c3             	mov    rbx,rax
    851a:	49 89 d6             	mov    r14,rdx
    851d:	4d 85 f6             	test   r14,r14
    8520:	0f 85 0d 00 00 00    	jne    8533 <big_makeblock+0x8533>
    8526:	48 89 9c 24 98 05 00 	mov    QWORD PTR [rsp+0x598],rbx
    852d:	00 
    852e:	e9 9d 00 00 00       	jmp    85d0 <big_makeblock+0x85d0>
    8533:	48 8b b4 24 18 08 00 	mov    rsi,QWORD PTR [rsp+0x818]
    853a:	00 
    853b:	4c 8b ae 98 00 00 00 	mov    r13,QWORD PTR [rsi+0x98]
    8542:	4d 89 f7             	mov    r15,r14
    8545:	49 83 c7 ff          	add    r15,0xffffffffffffffff
    8549:	4c 89 f2             	mov    rdx,r14
    854c:	48 c1 e2 03          	shl    rdx,0x3
    8550:	4d 89 ec             	mov    r12,r13
    8553:	49 01 d4             	add    r12,rdx
    8556:	4c 89 ef             	mov    rdi,r13
    8559:	48 83 c7 e8          	add    rdi,0xffffffffffffffe8
    855d:	4c 89 ee             	mov    rsi,r13
    8560:	48 b8 00 00 00 00 00 	movabs rax,0x0
    8567:	00 00 00 
			8562: R_X86_64_64	memmove
    856a:	48 89 9c 24 b0 03 00 	mov    QWORD PTR [rsp+0x3b0],rbx
    8571:	00 
    8572:	ff d0                	call   rax
    8574:	48 8b 9c 24 b0 03 00 	mov    rbx,QWORD PTR [rsp+0x3b0]
    857b:	00 
    857c:	48 be 00 00 00 00 00 	movabs rsi,0x0
    8583:	00 00 00 
			857e: R_X86_64_64	callback_return_addr
    8586:	bf 01 00 00 00       	mov    edi,0x1
    858b:	4b 89 7c f5 f8       	mov    QWORD PTR [r13+r14*8-0x8],rdi
    8590:	bf 01 00 00 00       	mov    edi,0x1
    8595:	4b 89 7c f5 f0       	mov    QWORD PTR [r13+r14*8-0x10],rdi
    859a:	4b 89 74 f5 e8       	mov    QWORD PTR [r13+r14*8-0x18],rsi
    859f:	48 8b b4 24 18 08 00 	mov    rsi,QWORD PTR [rsp+0x818]
    85a6:	00 
    85a7:	4c 89 a6 98 00 00 00 	mov    QWORD PTR [rsi+0x98],r12
    85ae:	48 89 df             	mov    rdi,rbx
    85b1:	4c 89 fe             	mov    rsi,r15
    85b4:	48 b8 00 00 00 00 00 	movabs rax,0x0
    85bb:	00 00 00 
			85b6: R_X86_64_64	apply_n
    85be:	48 89 bc 24 b0 03 00 	mov    QWORD PTR [rsp+0x3b0],rdi
    85c5:	00 
    85c6:	ff d0                	call   rax
    85c8:	48 89 84 24 98 05 00 	mov    QWORD PTR [rsp+0x598],rax
    85cf:	00 
    85d0:	48 8b b4 24 10 08 00 	mov    rsi,QWORD PTR [rsp+0x810]
    85d7:	00 
    85d8:	48 8b 7e 08          	mov    rdi,QWORD PTR [rsi+0x8]
    85dc:	48 8b b4 24 00 08 00 	mov    rsi,QWORD PTR [rsp+0x800]
    85e3:	00 
    85e4:	48 b8 00 00 00 00 00 	movabs rax,0x0
    85eb:	00 00 00 
			85e6: R_X86_64_64	apply1
    85ee:	48 89 b4 24 b0 03 00 	mov    QWORD PTR [rsp+0x3b0],rsi
    85f5:	00 
    85f6:	48 89 bc 24 c0 03 00 	mov    QWORD PTR [rsp+0x3c0],rdi
    85fd:	00 
    85fe:	ff d0                	call   rax
    8600:	49 89 c7             	mov    r15,rax
    8603:	49 89 d6             	mov    r14,rdx
    8606:	4d 85 f6             	test   r14,r14
    8609:	0f 85 0d 00 00 00    	jne    861c <big_makeblock+0x861c>
    860f:	4c 89 bc 24 b0 03 00 	mov    QWORD PTR [rsp+0x3b0],r15
    8616:	00 
    8617:	e9 9d 00 00 00       	jmp    86b9 <big_makeblock+0x86b9>
    861c:	48 8b b4 24 18 08 00 	mov    rsi,QWORD PTR [rsp+0x818]
    8623:	00 
    8624:	4c 8b ae 98 00 00 00 	mov    r13,QWORD PTR [rsi+0x98]
    862b:	4c 89 f3             	mov    rbx,r14
    862e:	48 83 c3 ff          	add    rbx,0xffffffffffffffff
    8632:	4c 89 f2             	mov    rdx,r14
    8635:	48 c1 e2 03          	shl    rdx,0x3
    8639:	4d 89 ec             	mov    r12,r13
    863c:	49 01 d4             	add    r12,rdx
    863f:	4c 89 ef             	mov    rdi,r13
    8642:	48 83 c7 e8          	add    rdi,0xffffffffffffffe8
    8646:	4c 89 ee             	mov    rsi,r13
    8649:	48 b8 00 00 00 00 00 	movabs rax,0x0
    8650:	00 00 00 
			864b: R_X86_64_64	memmove
    8653:	4c 89 bc 24 c0 03 00 	mov    QWORD PTR [rsp+0x3c0],r15
    865a:	00 
    865b:	ff d0                	call   rax
    865d:	4c 8b bc 24 c0 03 00 	mov    r15,QWORD PTR [rsp+0x3c0]
    8664:	00 
    8665:	48 be 00 00 00 00 00 	movabs rsi,0x0
    866c:	00 00 00 
			8667: R_X86_64_64	callback_return_addr
    866f:	bf 01 00 00 00       	mov    edi,0x1
    8674:	4b 89 7c f5 f8       	mov    QWORD PTR [r13+r14*8-0x8],rdi
    8679:	bf 01 00 00 00       	mov    edi,0x1
    867e:	4b 89 7c f5 f0       	mov    QWORD PTR [r13+r14*8-0x10],rdi
    8683:	4b 89 74 f5 e8       	mov    QWORD PTR [r13+r14*8-0x18],rsi
    8688:	48 8b b4 24 18 08 00 	mov    rsi,QWORD PTR [rsp+0x818]
    868f:	00 
    8690:	4c 89 a6 98 00 00 00 	mov    QWORD PTR [rsi+0x98],r12
    8697:	4c 89 ff             	mov    rdi,r15
    869a:	48 89 de             	mov    rsi,rbx
    869d:	48 b8 00 00 00 00 00 	movabs rax,0x0
    86a4:	00 00 00 
			869f: R_X86_64_64	apply_n
    86a7:	48 89 bc 24 b0 03 00 	mov    QWORD PTR [rsp+0x3b0],rdi
    86ae:	00 
    86af:	ff d0                	call   rax
    86b1:	48 89 84 24 b0 03 00 	mov    QWORD PTR [rsp+0x3b0],rax
    86b8:	00 
    86b9:	48 8b b4 24 10 08 00 	mov    rsi,QWORD PTR [rsp+0x810]
    86c0:	00 
    86c1:	48 8b 7e 08          	mov    rdi,QWORD PTR [rsi+0x8]
    86c5:	48 8b b4 24 00 08 00 	mov    rsi,QWORD PTR [rsp+0x800]
    86cc:	00 
    86cd:	48 b8 00 00 00 00 00 	movabs rax,0x0
    86d4:	00 00 00 
			86cf: R_X86_64_64	apply1
    86d7:	48 89 b4 24 c0 03 00 	mov    QWORD PTR [rsp+0x3c0],rsi
    86de:	00 
    86df:	48 89 bc 24 d0 03 00 	mov    QWORD PTR [rsp+0x3d0],rdi
    86e6:	00 
    86e7:	ff d0                	call   rax
    86e9:	48 89 c3             	mov    rbx,rax
    86ec:	49 89 d6             	mov    r14,rdx
    86ef:	4d 85 f6             	test   r14,r14
    86f2:	0f 85 0d 00 00 00    	jne    8705 <big_makeblock+0x8705>
    86f8:	48 89 9c 24 a8 05 00 	mov    QWORD PTR [rsp+0x5a8],rbx
    86ff:	00 
    8700:	e9 9d 00 00 00       	jmp    87a2 <big_makeblock+0x87a2>
    8705:	48 8b b4 24 18 08 00 	mov    rsi,QWORD PTR [rsp+0x818]
    870c:	00 
    870d:	4c 8b ae 98 00 00 00 	mov    r13,QWORD PTR [rsi+0x98]
    8714:	4d 89 f7             	mov    r15,r14
    8717:	49 83 c7 ff          	add    r15,0xffffffffffffffff
    871b:	4c 89 f2             	mov    rdx,r14
    871e:	48 c1 e2 03          	shl    rdx,0x3
    8722:	4d 89 ec             	mov    r12,r13
    8725:	49 01 d4             	add    r12,rdx
    8728:	4c 89 ef             	mov    rdi,r13
    872b:	48 83 c7 e8          	add    rdi,0xffffffffffffffe8
    872f:	4c 89 ee             	mov    rsi,r13
    8732:	48 b8 00 00 00 00 00 	movabs rax,0x0
    8739:	00 00 00 
			8734: R_X86_64_64	memmove
    873c:	48 89 9c 24 c0 03 00 	mov    QWORD PTR [rsp+0x3c0],rbx
    8743:	00 
    8744:	ff d0                	call   rax
    8746:	48 8b 9c 24 c0 03 00 	mov    rbx,QWORD PTR [rsp+0x3c0]
    874d:	00 
    874e:	48 be 00 00 00 00 00 	movabs rsi,0x0
    8755:	00 00 00 
			8750: R_X86_64_64	callback_return_addr
    8758:	bf 01 00 00 00       	mov    edi,0x1
    875d:	4b 89 7c f5 f8       	mov    QWORD PTR [r13+r14*8-0x8],rdi
    8762:	bf 01 00 00 00       	mov    edi,0x1
    8767:	4b 89 7c f5 f0       	mov    QWORD PTR [r13+r14*8-0x10],rdi
    876c:	4b 89 74 f5 e8       	mov    QWORD PTR [r13+r14*8-0x18],rsi
    8771:	48 8b b4 24 18 08 00 	mov    rsi,QWORD PTR [rsp+0x818]
    8778:	00 
    8779:	4c 89 a6 98 00 00 00 	mov    QWORD PTR [rsi+0x98],r12
    8780:	48 89 df             	mov    rdi,rbx
    8783:	4c 89 fe             	mov    rsi,r15
    8786:	48 b8 00 00 00 00 00 	movabs rax,0x0
    878d:	00 00 00 
			8788: R_X86_64_64	apply_n
    8790:	48 89 bc 24 c0 03 00 	mov    QWORD PTR [rsp+0x3c0],rdi
    8797:	00 
    8798:	ff d0                	call   rax
    879a:	48 89 84 24 a8 05 00 	mov    QWORD PTR [rsp+0x5a8],rax
    87a1:	00 
    87a2:	48 8b b4 24 10 08 00 	mov    rsi,QWORD PTR [rsp+0x810]
    87a9:	00 
    87aa:	48 8b 7e 08          	mov    rdi,QWORD PTR [rsi+0x8]
    87ae:	48 8b b4 24 00 08 00 	mov    rsi,QWORD PTR [rsp+0x800]
    87b5:	00 
    87b6:	48 b8 00 00 00 00 00 	movabs rax,0x0
    87bd:	00 00 00 
			87b8: R_X86_64_64	apply1
    87c0:	48 89 b4 24 c0 03 00 	mov    QWORD PTR [rsp+0x3c0],rsi
    87c7:	00 
    87c8:	48 89 bc 24 d0 03 00 	mov    QWORD PTR [rsp+0x3d0],rdi
    87cf:	00 
    87d0:	ff d0                	call   rax
    87d2:	48 89 c3             	mov    rbx,rax
    87d5:	49 89 d6             	mov    r14,rdx
    87d8:	4d 85 f6             	test   r14,r14
    87db:	0f 85 0d 00 00 00    	jne    87ee <big_makeblock+0x87ee>
    87e1:	48 89 9c 24 c0 03 00 	mov    QWORD PTR [rsp+0x3c0],rbx
    87e8:	00 
    87e9:	e9 9d 00 00 00       	jmp    888b <big_makeblock+0x888b>
    87ee:	48 8b b4 24 18 08 00 	mov    rsi,QWORD PTR [rsp+0x818]
    87f5:	00 
    87f6:	4c 8b ae 98 00 00 00 	mov    r13,QWORD PTR [rsi+0x98]
    87fd:	4d 89 f7             	mov    r15,r14
    8800:	49 83 c7 ff          	add    r15,0xffffffffffffffff
    8804:	4c 89 f2             	mov    rdx,r14
    8807:	48 c1 e2 03          	shl    rdx,0x3
    880b:	4d 89 ec             	mov    r12,r13
    880e:	49 01 d4             	add    r12,rdx
    8811:	4c 89 ef             	mov    rdi,r13
    8814:	48 83 c7 e8          	add    rdi,0xffffffffffffffe8
    8818:	4c 89 ee             	mov    rsi,r13
    881b:	48 b8 00 00 00 00 00 	movabs rax,0x0
    8822:	00 00 00 
			881d: R_X86_64_64	memmove
    8825:	48 89 9c 24 d0 03 00 	mov    QWORD PTR [rsp+0x3d0],rbx
    882c:	00 
    882d:	ff d0                	call   rax
    882f:	48 8b 9c 24 d0 03 00 	mov    rbx,QWORD PTR [rsp+0x3d0]
    8836:	00 
    8837:	48 be 00 00 00 00 00 	movabs rsi,0x0
    883e:	00 00 00 
			8839: R_X86_64_64	callback_return_addr
    8841:	bf 01 00 00 00       	mov    edi,0x1
    8846:	4b 89 7c f5 f8       	mov    QWORD PTR [r13+r14*8-0x8],rdi
    884b:	bf 01 00 00 00       	mov    edi,0x1
    8850:	4b 89 7c f5 f0       	mov    QWORD PTR [r13+r14*8-0x10],rdi
    8855:	4b 89 74 f5 e8       	mov    QWORD PTR [r13+r14*8-0x18],rsi
    885a:	48 8b b4 24 18 08 00 	mov    rsi,QWORD PTR [rsp+0x818]
    8861:	00 
    8862:	4c 89 a6 98 00 00 00 	mov    QWORD PTR [rsi+0x98],r12
    8869:	48 89 df             	mov    rdi,rbx
    886c:	4c 89 fe             	mov    rsi,r15
    886f:	48 b8 00 00 00 00 00 	movabs rax,0x0
    8876:	00 00 00 
			8871: R_X86_64_64	apply_n
    8879:	48 89 bc 24 c0 03 00 	mov    QWORD PTR [rsp+0x3c0],rdi
    8880:	00 
    8881:	ff d0                	call   rax
    8883:	48 89 84 24 c0 03 00 	mov    QWORD PTR [rsp+0x3c0],rax
    888a:	00 
    888b:	48 8b b4 24 10 08 00 	mov    rsi,QWORD PTR [rsp+0x810]
    8892:	00 
    8893:	48 8b 7e 08          	mov    rdi,QWORD PTR [rsi+0x8]
    8897:	48 8b b4 24 00 08 00 	mov    rsi,QWORD PTR [rsp+0x800]
    889e:	00 
    889f:	48 b8 00 00 00 00 00 	movabs rax,0x0
    88a6:	00 00 00 
			88a1: R_X86_64_64	apply1
    88a9:	48 89 b4 24 d0 03 00 	mov    QWORD PTR [rsp+0x3d0],rsi
    88b0:	00 
    88b1:	48 89 bc 24 e0 03 00 	mov    QWORD PTR [rsp+0x3e0],rdi
    88b8:	00 
    88b9:	ff d0                	call   rax
    88bb:	49 89 c7             	mov    r15,rax
    88be:	49 89 d6             	mov    r14,rdx
    88c1:	4d 85 f6             	test   r14,r14
    88c4:	0f 85 0d 00 00 00    	jne    88d7 <big_makeblock+0x88d7>
    88ca:	4c 89 bc 24 b8 05 00 	mov    QWORD PTR [rsp+0x5b8],r15
    88d1:	00 
    88d2:	e9 9d 00 00 00       	jmp    8974 <big_makeblock+0x8974>
    88d7:	48 8b b4 24 18 08 00 	mov    rsi,QWORD PTR [rsp+0x818]
    88de:	00 
    88df:	4c 8b ae 98 00 00 00 	mov    r13,QWORD PTR [rsi+0x98]
    88e6:	4c 89 f3             	mov    rbx,r14
    88e9:	48 83 c3 ff          	add    rbx,0xffffffffffffffff
    88ed:	4c 89 f2             	mov    rdx,r14
    88f0:	48 c1 e2 03          	shl    rdx,0x3
    88f4:	4d 89 ec             	mov    r12,r13
    88f7:	49 01 d4             	add    r12,rdx
    88fa:	4c 89 ef             	mov    rdi,r13
    88fd:	48 83 c7 e8          	add    rdi,0xffffffffffffffe8
    8901:	4c 89 ee             	mov    rsi,r13
    8904:	48 b8 00 00 00 00 00 	movabs rax,0x0
    890b:	00 00 00 
			8906: R_X86_64_64	memmove
    890e:	4c 89 bc 24 d0 03 00 	mov    QWORD PTR [rsp+0x3d0],r15
    8915:	00 
    8916:	ff d0                	call   rax
    8918:	4c 8b bc 24 d0 03 00 	mov    r15,QWORD PTR [rsp+0x3d0]
    891f:	00 
    8920:	48 be 00 00 00 00 00 	movabs rsi,0x0
    8927:	00 00 00 
			8922: R_X86_64_64	callback_return_addr
    892a:	bf 01 00 00 00       	mov    edi,0x1
    892f:	4b 89 7c f5 f8       	mov    QWORD PTR [r13+r14*8-0x8],rdi
    8934:	bf 01 00 00 00       	mov    edi,0x1
    8939:	4b 89 7c f5 f0       	mov    QWORD PTR [r13+r14*8-0x10],rdi
    893e:	4b 89 74 f5 e8       	mov    QWORD PTR [r13+r14*8-0x18],rsi
    8943:	48 8b b4 24 18 08 00 	mov    rsi,QWORD PTR [rsp+0x818]
    894a:	00 
    894b:	4c 89 a6 98 00 00 00 	mov    QWORD PTR [rsi+0x98],r12
    8952:	4c 89 ff             	mov    rdi,r15
    8955:	48 89 de             	mov    rsi,rbx
    8958:	48 b8 00 00 00 00 00 	movabs rax,0x0
    895f:	00 00 00 
			895a: R_X86_64_64	apply_n
    8962:	48 89 bc 24 d0 03 00 	mov    QWORD PTR [rsp+0x3d0],rdi
    8969:	00 
    896a:	ff d0                	call   rax
    896c:	48 89 84 24 b8 05 00 	mov    QWORD PTR [rsp+0x5b8],rax
    8973:	00 
    8974:	48 8b b4 24 10 08 00 	mov    rsi,QWORD PTR [rsp+0x810]
    897b:	00 
    897c:	48 8b 7e 08          	mov    rdi,QWORD PTR [rsi+0x8]
    8980:	48 8b b4 24 00 08 00 	mov    rsi,QWORD PTR [rsp+0x800]
    8987:	00 
    8988:	48 b8 00 00 00 00 00 	movabs rax,0x0
    898f:	00 00 00 
			898a: R_X86_64_64	apply1
    8992:	48 89 b4 24 d0 03 00 	mov    QWORD PTR [rsp+0x3d0],rsi
    8999:	00 
    899a:	48 89 bc 24 e0 03 00 	mov    QWORD PTR [rsp+0x3e0],rdi
    89a1:	00 
    89a2:	ff d0                	call   rax
    89a4:	48 89 c3             	mov    rbx,rax
    89a7:	49 89 d6             	mov    r14,rdx
    89aa:	4d 85 f6             	test   r14,r14
    89ad:	0f 85 0d 00 00 00    	jne    89c0 <big_makeblock+0x89c0>
    89b3:	48 89 9c 24 d0 03 00 	mov    QWORD PTR [rsp+0x3d0],rbx
    89ba:	00 
    89bb:	e9 9d 00 00 00       	jmp    8a5d <big_makeblock+0x8a5d>
    89c0:	48 8b b4 24 18 08 00 	mov    rsi,QWORD PTR [rsp+0x818]
    89c7:	00 
    89c8:	4c 8b ae 98 00 00 00 	mov    r13,QWORD PTR [rsi+0x98]
    89cf:	4d 89 f7             	mov    r15,r14
    89d2:	49 83 c7 ff          	add    r15,0xffffffffffffffff
    89d6:	4c 89 f2             	mov    rdx,r14
    89d9:	48 c1 e2 03          	shl    rdx,0x3
    89dd:	4d 89 ec             	mov    r12,r13
    89e0:	49 01 d4             	add    r12,rdx
    89e3:	4c 89 ef             	mov    rdi,r13
    89e6:	48 83 c7 e8          	add    rdi,0xffffffffffffffe8
    89ea:	4c 89 ee             	mov    rsi,r13
    89ed:	48 b8 00 00 00 00 00 	movabs rax,0x0
    89f4:	00 00 00 
			89ef: R_X86_64_64	memmove
    89f7:	48 89 9c 24 e0 03 00 	mov    QWORD PTR [rsp+0x3e0],rbx
    89fe:	00 
    89ff:	ff d0                	call   rax
    8a01:	48 8b 9c 24 e0 03 00 	mov    rbx,QWORD PTR [rsp+0x3e0]
    8a08:	00 
    8a09:	48 be 00 00 00 00 00 	movabs rsi,0x0
    8a10:	00 00 00 
			8a0b: R_X86_64_64	callback_return_addr
    8a13:	bf 01 00 00 00       	mov    edi,0x1
    8a18:	4b 89 7c f5 f8       	mov    QWORD PTR [r13+r14*8-0x8],rdi
    8a1d:	bf 01 00 00 00       	mov    edi,0x1
    8a22:	4b 89 7c f5 f0       	mov    QWORD PTR [r13+r14*8-0x10],rdi
    8a27:	4b 89 74 f5 e8       	mov    QWORD PTR [r13+r14*8-0x18],rsi
    8a2c:	48 8b b4 24 18 08 00 	mov    rsi,QWORD PTR [rsp+0x818]
    8a33:	00 
    8a34:	4c 89 a6 98 00 00 00 	mov    QWORD PTR [rsi+0x98],r12
    8a3b:	48 89 df             	mov    rdi,rbx
    8a3e:	4c 89 fe             	mov    rsi,r15
    8a41:	48 b8 00 00 00 00 00 	movabs rax,0x0
    8a48:	00 00 00 
			8a43: R_X86_64_64	apply_n
    8a4b:	48 89 bc 24 d0 03 00 	mov    QWORD PTR [rsp+0x3d0],rdi
    8a52:	00 
    8a53:	ff d0                	call   rax
    8a55:	48 89 84 24 d0 03 00 	mov    QWORD PTR [rsp+0x3d0],rax
    8a5c:	00 
    8a5d:	48 8b b4 24 10 08 00 	mov    rsi,QWORD PTR [rsp+0x810]
    8a64:	00 
    8a65:	48 8b 7e 08          	mov    rdi,QWORD PTR [rsi+0x8]
    8a69:	48 8b b4 24 00 08 00 	mov    rsi,QWORD PTR [rsp+0x800]
    8a70:	00 
    8a71:	48 b8 00 00 00 00 00 	movabs rax,0x0
    8a78:	00 00 00 
			8a73: R_X86_64_64	apply1
    8a7b:	48 89 b4 24 e0 03 00 	mov    QWORD PTR [rsp+0x3e0],rsi
    8a82:	00 
    8a83:	48 89 bc 24 f0 03 00 	mov    QWORD PTR [rsp+0x3f0],rdi
    8a8a:	00 
    8a8b:	ff d0                	call   rax
    8a8d:	48 89 c3             	mov    rbx,rax
    8a90:	49 89 d6             	mov    r14,rdx
    8a93:	4d 85 f6             	test   r14,r14
    8a96:	0f 85 0d 00 00 00    	jne    8aa9 <big_makeblock+0x8aa9>
    8a9c:	48 89 9c 24 c8 05 00 	mov    QWORD PTR [rsp+0x5c8],rbx
    8aa3:	00 
    8aa4:	e9 9d 00 00 00       	jmp    8b46 <big_makeblock+0x8b46>
    8aa9:	48 8b b4 24 18 08 00 	mov    rsi,QWORD PTR [rsp+0x818]
    8ab0:	00 
    8ab1:	4c 8b ae 98 00 00 00 	mov    r13,QWORD PTR [rsi+0x98]
    8ab8:	4d 89 f7             	mov    r15,r14
    8abb:	49 83 c7 ff          	add    r15,0xffffffffffffffff
    8abf:	4c 89 f2             	mov    rdx,r14
    8ac2:	48 c1 e2 03          	shl    rdx,0x3
    8ac6:	4d 89 ec             	mov    r12,r13
    8ac9:	49 01 d4             	add    r12,rdx
    8acc:	4c 89 ef             	mov    rdi,r13
    8acf:	48 83 c7 e8          	add    rdi,0xffffffffffffffe8
    8ad3:	4c 89 ee             	mov    rsi,r13
    8ad6:	48 b8 00 00 00 00 00 	movabs rax,0x0
    8add:	00 00 00 
			8ad8: R_X86_64_64	memmove
    8ae0:	48 89 9c 24 e0 03 00 	mov    QWORD PTR [rsp+0x3e0],rbx
    8ae7:	00 
    8ae8:	ff d0                	call   rax
    8aea:	48 8b 9c 24 e0 03 00 	mov    rbx,QWORD PTR [rsp+0x3e0]
    8af1:	00 
    8af2:	48 be 00 00 00 00 00 	movabs rsi,0x0
    8af9:	00 00 00 
			8af4: R_X86_64_64	callback_return_addr
    8afc:	bf 01 00 00 00       	mov    edi,0x1
    8b01:	4b 89 7c f5 f8       	mov    QWORD PTR [r13+r14*8-0x8],rdi
    8b06:	bf 01 00 00 00       	mov    edi,0x1
    8b0b:	4b 89 7c f5 f0       	mov    QWORD PTR [r13+r14*8-0x10],rdi
    8b10:	4b 89 74 f5 e8       	mov    QWORD PTR [r13+r14*8-0x18],rsi
    8b15:	48 8b b4 24 18 08 00 	mov    rsi,QWORD PTR [rsp+0x818]
    8b1c:	00 
    8b1d:	4c 89 a6 98 00 00 00 	mov    QWORD PTR [rsi+0x98],r12
    8b24:	48 89 df             	mov    rdi,rbx
    8b27:	4c 89 fe             	mov    rsi,r15
    8b2a:	48 b8 00 00 00 00 00 	movabs rax,0x0
    8b31:	00 00 00 
			8b2c: R_X86_64_64	apply_n
    8b34:	48 89 bc 24 e0 03 00 	mov    QWORD PTR [rsp+0x3e0],rdi
    8b3b:	00 
    8b3c:	ff d0                	call   rax
    8b3e:	48 89 84 24 c8 05 00 	mov    QWORD PTR [rsp+0x5c8],rax
    8b45:	00 
    8b46:	48 8b b4 24 10 08 00 	mov    rsi,QWORD PTR [rsp+0x810]
    8b4d:	00 
    8b4e:	48 8b 7e 08          	mov    rdi,QWORD PTR [rsi+0x8]
    8b52:	48 8b b4 24 00 08 00 	mov    rsi,QWORD PTR [rsp+0x800]
    8b59:	00 
    8b5a:	48 b8 00 00 00 00 00 	movabs rax,0x0
    8b61:	00 00 00 
			8b5c: R_X86_64_64	apply1
    8b64:	48 89 b4 24 e0 03 00 	mov    QWORD PTR [rsp+0x3e0],rsi
    8b6b:	00 
    8b6c:	48 89 bc 24 f0 03 00 	mov    QWORD PTR [rsp+0x3f0],rdi
    8b73:	00 
    8b74:	ff d0                	call   rax
    8b76:	49 89 c7             	mov    r15,rax
    8b79:	49 89 d6             	mov    r14,rdx
    8b7c:	4d 85 f6             	test   r14,r14
    8b7f:	0f 85 0d 00 00 00    	jne    8b92 <big_makeblock+0x8b92>
    8b85:	4c 89 bc 24 e0 03 00 	mov    QWORD PTR [rsp+0x3e0],r15
    8b8c:	00 
    8b8d:	e9 9d 00 00 00       	jmp    8c2f <big_makeblock+0x8c2f>
    8b92:	48 8b b4 24 18 08 00 	mov    rsi,QWORD PTR [rsp+0x818]
    8b99:	00 
    8b9a:	4c 8b ae 98 00 00 00 	mov    r13,QWORD PTR [rsi+0x98]
    8ba1:	4c 89 f3             	mov    rbx,r14
    8ba4:	48 83 c3 ff          	add    rbx,0xffffffffffffffff
    8ba8:	4c 89 f2             	mov    rdx,r14
    8bab:	48 c1 e2 03          	shl    rdx,0x3
    8baf:	4d 89 ec             	mov    r12,r13
    8bb2:	49 01 d4             	add    r12,rdx
    8bb5:	4c 89 ef             	mov    rdi,r13
    8bb8:	48 83 c7 e8          	add    rdi,0xffffffffffffffe8
    8bbc:	4c 89 ee             	mov    rsi,r13
    8bbf:	48 b8 00 00 00 00 00 	movabs rax,0x0
    8bc6:	00 00 00 
			8bc1: R_X86_64_64	memmove
    8bc9:	4c 89 bc 24 f0 03 00 	mov    QWORD PTR [rsp+0x3f0],r15
    8bd0:	00 
    8bd1:	ff d0                	call   rax
    8bd3:	4c 8b bc 24 f0 03 00 	mov    r15,QWORD PTR [rsp+0x3f0]
    8bda:	00 
    8bdb:	48 be 00 00 00 00 00 	movabs rsi,0x0
    8be2:	00 00 00 
			8bdd: R_X86_64_64	callback_return_addr
    8be5:	bf 01 00 00 00       	mov    edi,0x1
    8bea:	4b 89 7c f5 f8       	mov    QWORD PTR [r13+r14*8-0x8],rdi
    8bef:	bf 01 00 00 00       	mov    edi,0x1
    8bf4:	4b 89 7c f5 f0       	mov    QWORD PTR [r13+r14*8-0x10],rdi
    8bf9:	4b 89 74 f5 e8       	mov    QWORD PTR [r13+r14*8-0x18],rsi
    8bfe:	48 8b b4 24 18 08 00 	mov    rsi,QWORD PTR [rsp+0x818]
    8c05:	00 
    8c06:	4c 89 a6 98 00 00 00 	mov    QWORD PTR [rsi+0x98],r12
    8c0d:	4c 89 ff             	mov    rdi,r15
    8c10:	48 89 de             	mov    rsi,rbx
    8c13:	48 b8 00 00 00 00 00 	movabs rax,0x0
    8c1a:	00 00 00 
			8c15: R_X86_64_64	apply_n
    8c1d:	48 89 bc 24 e0 03 00 	mov    QWORD PTR [rsp+0x3e0],rdi
    8c24:	00 
    8c25:	ff d0                	call   rax
    8c27:	48 89 84 24 e0 03 00 	mov    QWORD PTR [rsp+0x3e0],rax
    8c2e:	00 
    8c2f:	48 8b b4 24 10 08 00 	mov    rsi,QWORD PTR [rsp+0x810]
    8c36:	00 
    8c37:	48 8b 7e 08          	mov    rdi,QWORD PTR [rsi+0x8]
    8c3b:	48 8b b4 24 00 08 00 	mov    rsi,QWORD PTR [rsp+0x800]
    8c42:	00 
    8c43:	48 b8 00 00 00 00 00 	movabs rax,0x0
    8c4a:	00 00 00 
			8c45: R_X86_64_64	apply1
    8c4d:	48 89 b4 24 f0 03 00 	mov    QWORD PTR [rsp+0x3f0],rsi
    8c54:	00 
    8c55:	48 89 bc 24 00 04 00 	mov    QWORD PTR [rsp+0x400],rdi
    8c5c:	00 
    8c5d:	ff d0                	call   rax
    8c5f:	48 89 c3             	mov    rbx,rax
    8c62:	49 89 d6             	mov    r14,rdx
    8c65:	4d 85 f6             	test   r14,r14
    8c68:	0f 85 0d 00 00 00    	jne    8c7b <big_makeblock+0x8c7b>
    8c6e:	48 89 9c 24 e8 05 00 	mov    QWORD PTR [rsp+0x5e8],rbx
    8c75:	00 
    8c76:	e9 9d 00 00 00       	jmp    8d18 <big_makeblock+0x8d18>
    8c7b:	48 8b b4 24 18 08 00 	mov    rsi,QWORD PTR [rsp+0x818]
    8c82:	00 
    8c83:	4c 8b ae 98 00 00 00 	mov    r13,QWORD PTR [rsi+0x98]
    8c8a:	4d 89 f7             	mov    r15,r14
    8c8d:	49 83 c7 ff          	add    r15,0xffffffffffffffff
    8c91:	4c 89 f2             	mov    rdx,r14
    8c94:	48 c1 e2 03          	shl    rdx,0x3
    8c98:	4d 89 ec             	mov    r12,r13
    8c9b:	49 01 d4             	add    r12,rdx
    8c9e:	4c 89 ef             	mov    rdi,r13
    8ca1:	48 83 c7 e8          	add    rdi,0xffffffffffffffe8
    8ca5:	4c 89 ee             	mov    rsi,r13
    8ca8:	48 b8 00 00 00 00 00 	movabs rax,0x0
    8caf:	00 00 00 
			8caa: R_X86_64_64	memmove
    8cb2:	48 89 9c 24 f0 03 00 	mov    QWORD PTR [rsp+0x3f0],rbx
    8cb9:	00 
    8cba:	ff d0                	call   rax
    8cbc:	48 8b 9c 24 f0 03 00 	mov    rbx,QWORD PTR [rsp+0x3f0]
    8cc3:	00 
    8cc4:	48 be 00 00 00 00 00 	movabs rsi,0x0
    8ccb:	00 00 00 
			8cc6: R_X86_64_64	callback_return_addr
    8cce:	bf 01 00 00 00       	mov    edi,0x1
    8cd3:	4b 89 7c f5 f8       	mov    QWORD PTR [r13+r14*8-0x8],rdi
    8cd8:	bf 01 00 00 00       	mov    edi,0x1
    8cdd:	4b 89 7c f5 f0       	mov    QWORD PTR [r13+r14*8-0x10],rdi
    8ce2:	4b 89 74 f5 e8       	mov    QWORD PTR [r13+r14*8-0x18],rsi
    8ce7:	48 8b b4 24 18 08 00 	mov    rsi,QWORD PTR [rsp+0x818]
    8cee:	00 
    8cef:	4c 89 a6 98 00 00 00 	mov    QWORD PTR [rsi+0x98],r12
    8cf6:	48 89 df             	mov    rdi,rbx
    8cf9:	4c 89 fe             	mov    rsi,r15
    8cfc:	48 b8 00 00 00 00 00 	movabs rax,0x0
    8d03:	00 00 00 
			8cfe: R_X86_64_64	apply_n
    8d06:	48 89 bc 24 f0 03 00 	mov    QWORD PTR [rsp+0x3f0],rdi
    8d0d:	00 
    8d0e:	ff d0                	call   rax
    8d10:	48 89 84 24 e8 05 00 	mov    QWORD PTR [rsp+0x5e8],rax
    8d17:	00 
    8d18:	48 8b b4 24 10 08 00 	mov    rsi,QWORD PTR [rsp+0x810]
    8d1f:	00 
    8d20:	48 8b 7e 08          	mov    rdi,QWORD PTR [rsi+0x8]
    8d24:	48 8b b4 24 00 08 00 	mov    rsi,QWORD PTR [rsp+0x800]
    8d2b:	00 
    8d2c:	48 b8 00 00 00 00 00 	movabs rax,0x0
    8d33:	00 00 00 
			8d2e: R_X86_64_64	apply1
    8d36:	48 89 b4 24 f0 03 00 	mov    QWORD PTR [rsp+0x3f0],rsi
    8d3d:	00 
    8d3e:	48 89 bc 24 00 04 00 	mov    QWORD PTR [rsp+0x400],rdi
    8d45:	00 
    8d46:	ff d0                	call   rax
    8d48:	48 89 c3             	mov    rbx,rax
    8d4b:	49 89 d6             	mov    r14,rdx
    8d4e:	4d 85 f6             	test   r14,r14
    8d51:	0f 85 0d 00 00 00    	jne    8d64 <big_makeblock+0x8d64>
    8d57:	48 89 9c 24 f0 03 00 	mov    QWORD PTR [rsp+0x3f0],rbx
    8d5e:	00 
    8d5f:	e9 9d 00 00 00       	jmp    8e01 <big_makeblock+0x8e01>
    8d64:	48 8b b4 24 18 08 00 	mov    rsi,QWORD PTR [rsp+0x818]
    8d6b:	00 
    8d6c:	4c 8b ae 98 00 00 00 	mov    r13,QWORD PTR [rsi+0x98]
    8d73:	4d 89 f7             	mov    r15,r14
    8d76:	49 83 c7 ff          	add    r15,0xffffffffffffffff
    8d7a:	4c 89 f2             	mov    rdx,r14
    8d7d:	48 c1 e2 03          	shl    rdx,0x3
    8d81:	4d 89 ec             	mov    r12,r13
    8d84:	49 01 d4             	add    r12,rdx
    8d87:	4c 89 ef             	mov    rdi,r13
    8d8a:	48 83 c7 e8          	add    rdi,0xffffffffffffffe8
    8d8e:	4c 89 ee             	mov    rsi,r13
    8d91:	48 b8 00 00 00 00 00 	movabs rax,0x0
    8d98:	00 00 00 
			8d93: R_X86_64_64	memmove
    8d9b:	48 89 9c 24 00 04 00 	mov    QWORD PTR [rsp+0x400],rbx
    8da2:	00 
    8da3:	ff d0                	call   rax
    8da5:	48 8b 9c 24 00 04 00 	mov    rbx,QWORD PTR [rsp+0x400]
    8dac:	00 
    8dad:	48 be 00 00 00 00 00 	movabs rsi,0x0
    8db4:	00 00 00 
			8daf: R_X86_64_64	callback_return_addr
    8db7:	bf 01 00 00 00       	mov    edi,0x1
    8dbc:	4b 89 7c f5 f8       	mov    QWORD PTR [r13+r14*8-0x8],rdi
    8dc1:	bf 01 00 00 00       	mov    edi,0x1
    8dc6:	4b 89 7c f5 f0       	mov    QWORD PTR [r13+r14*8-0x10],rdi
    8dcb:	4b 89 74 f5 e8       	mov    QWORD PTR [r13+r14*8-0x18],rsi
    8dd0:	48 8b b4 24 18 08 00 	mov    rsi,QWORD PTR [rsp+0x818]
    8dd7:	00 
    8dd8:	4c 89 a6 98 00 00 00 	mov    QWORD PTR [rsi+0x98],r12
    8ddf:	48 89 df             	mov    rdi,rbx
    8de2:	4c 89 fe             	mov    rsi,r15
    8de5:	48 b8 00 00 00 00 00 	movabs rax,0x0
    8dec:	00 00 00 
			8de7: R_X86_64_64	apply_n
    8def:	48 89 bc 24 f0 03 00 	mov    QWORD PTR [rsp+0x3f0],rdi
    8df6:	00 
    8df7:	ff d0                	call   rax
    8df9:	48 89 84 24 f0 03 00 	mov    QWORD PTR [rsp+0x3f0],rax
    8e00:	00 
    8e01:	48 8b b4 24 10 08 00 	mov    rsi,QWORD PTR [rsp+0x810]
    8e08:	00 
    8e09:	48 8b 7e 08          	mov    rdi,QWORD PTR [rsi+0x8]
    8e0d:	48 8b b4 24 00 08 00 	mov    rsi,QWORD PTR [rsp+0x800]
    8e14:	00 
    8e15:	48 b8 00 00 00 00 00 	movabs rax,0x0
    8e1c:	00 00 00 
			8e17: R_X86_64_64	apply1
    8e1f:	48 89 b4 24 00 04 00 	mov    QWORD PTR [rsp+0x400],rsi
    8e26:	00 
    8e27:	48 89 bc 24 10 04 00 	mov    QWORD PTR [rsp+0x410],rdi
    8e2e:	00 
    8e2f:	ff d0                	call   rax
    8e31:	49 89 c7             	mov    r15,rax
    8e34:	49 89 d6             	mov    r14,rdx
    8e37:	4d 85 f6             	test   r14,r14
    8e3a:	0f 85 0d 00 00 00    	jne    8e4d <big_makeblock+0x8e4d>
    8e40:	4c 89 bc 24 f8 05 00 	mov    QWORD PTR [rsp+0x5f8],r15
    8e47:	00 
    8e48:	e9 9d 00 00 00       	jmp    8eea <big_makeblock+0x8eea>
    8e4d:	48 8b b4 24 18 08 00 	mov    rsi,QWORD PTR [rsp+0x818]
    8e54:	00 
    8e55:	4c 8b ae 98 00 00 00 	mov    r13,QWORD PTR [rsi+0x98]
    8e5c:	4c 89 f3             	mov    rbx,r14
    8e5f:	48 83 c3 ff          	add    rbx,0xffffffffffffffff
    8e63:	4c 89 f2             	mov    rdx,r14
    8e66:	48 c1 e2 03          	shl    rdx,0x3
    8e6a:	4d 89 ec             	mov    r12,r13
    8e6d:	49 01 d4             	add    r12,rdx
    8e70:	4c 89 ef             	mov    rdi,r13
    8e73:	48 83 c7 e8          	add    rdi,0xffffffffffffffe8
    8e77:	4c 89 ee             	mov    rsi,r13
    8e7a:	48 b8 00 00 00 00 00 	movabs rax,0x0
    8e81:	00 00 00 
			8e7c: R_X86_64_64	memmove
    8e84:	4c 89 bc 24 00 04 00 	mov    QWORD PTR [rsp+0x400],r15
    8e8b:	00 
    8e8c:	ff d0                	call   rax
    8e8e:	4c 8b bc 24 00 04 00 	mov    r15,QWORD PTR [rsp+0x400]
    8e95:	00 
    8e96:	48 be 00 00 00 00 00 	movabs rsi,0x0
    8e9d:	00 00 00 
			8e98: R_X86_64_64	callback_return_addr
    8ea0:	bf 01 00 00 00       	mov    edi,0x1
    8ea5:	4b 89 7c f5 f8       	mov    QWORD PTR [r13+r14*8-0x8],rdi
    8eaa:	bf 01 00 00 00       	mov    edi,0x1
    8eaf:	4b 89 7c f5 f0       	mov    QWORD PTR [r13+r14*8-0x10],rdi
    8eb4:	4b 89 74 f5 e8       	mov    QWORD PTR [r13+r14*8-0x18],rsi
    8eb9:	48 8b b4 24 18 08 00 	mov    rsi,QWORD PTR [rsp+0x818]
    8ec0:	00 
    8ec1:	4c 89 a6 98 00 00 00 	mov    QWORD PTR [rsi+0x98],r12
    8ec8:	4c 89 ff             	mov    rdi,r15
    8ecb:	48 89 de             	mov    rsi,rbx
    8ece:	48 b8 00 00 00 00 00 	movabs rax,0x0
    8ed5:	00 00 00 
			8ed0: R_X86_64_64	apply_n
    8ed8:	48 89 bc 24 00 04 00 	mov    QWORD PTR [rsp+0x400],rdi
    8edf:	00 
    8ee0:	ff d0                	call   rax
    8ee2:	48 89 84 24 f8 05 00 	mov    QWORD PTR [rsp+0x5f8],rax
    8ee9:	00 
    8eea:	48 8b b4 24 10 08 00 	mov    rsi,QWORD PTR [rsp+0x810]
    8ef1:	00 
    8ef2:	48 8b 7e 08          	mov    rdi,QWORD PTR [rsi+0x8]
    8ef6:	48 8b b4 24 00 08 00 	mov    rsi,QWORD PTR [rsp+0x800]
    8efd:	00 
    8efe:	48 b8 00 00 00 00 00 	movabs rax,0x0
    8f05:	00 00 00 
			8f00: R_X86_64_64	apply1
    8f08:	48 89 b4 24 00 04 00 	mov    QWORD PTR [rsp+0x400],rsi
    8f0f:	00 
    8f10:	48 89 bc 24 10 04 00 	mov    QWORD PTR [rsp+0x410],rdi
    8f17:	00 
    8f18:	ff d0                	call   rax
    8f1a:	48 89 c3             	mov    rbx,rax
    8f1d:	49 89 d6             	mov    r14,rdx
    8f20:	4d 85 f6             	test   r14,r14
    8f23:	0f 85 0d 00 00 00    	jne    8f36 <big_makeblock+0x8f36>
    8f29:	48 89 9c 24 00 04 00 	mov    QWORD PTR [rsp+0x400],rbx
    8f30:	00 
    8f31:	e9 9d 00 00 00       	jmp    8fd3 <big_makeblock+0x8fd3>
    8f36:	48 8b b4 24 18 08 00 	mov    rsi,QWORD PTR [rsp+0x818]
    8f3d:	00 
    8f3e:	4c 8b ae 98 00 00 00 	mov    r13,QWORD PTR [rsi+0x98]
    8f45:	4d 89 f7             	mov    r15,r14
    8f48:	49 83 c7 ff          	add    r15,0xffffffffffffffff
    8f4c:	4c 89 f2             	mov    rdx,r14
    8f4f:	48 c1 e2 03          	shl    rdx,0x3
    8f53:	4d 89 ec             	mov    r12,r13
    8f56:	49 01 d4             	add    r12,rdx
    8f59:	4c 89 ef             	mov    rdi,r13
    8f5c:	48 83 c7 e8          	add    rdi,0xffffffffffffffe8
    8f60:	4c 89 ee             	mov    rsi,r13
    8f63:	48 b8 00 00 00 00 00 	movabs rax,0x0
    8f6a:	00 00 00 
			8f65: R_X86_64_64	memmove
    8f6d:	48 89 9c 24 10 04 00 	mov    QWORD PTR [rsp+0x410],rbx
    8f74:	00 
    8f75:	ff d0                	call   rax
    8f77:	48 8b 9c 24 10 04 00 	mov    rbx,QWORD PTR [rsp+0x410]
    8f7e:	00 
    8f7f:	48 be 00 00 00 00 00 	movabs rsi,0x0
    8f86:	00 00 00 
			8f81: R_X86_64_64	callback_return_addr
    8f89:	bf 01 00 00 00       	mov    edi,0x1
    8f8e:	4b 89 7c f5 f8       	mov    QWORD PTR [r13+r14*8-0x8],rdi
    8f93:	bf 01 00 00 00       	mov    edi,0x1
    8f98:	4b 89 7c f5 f0       	mov    QWORD PTR [r13+r14*8-0x10],rdi
    8f9d:	4b 89 74 f5 e8       	mov    QWORD PTR [r13+r14*8-0x18],rsi
    8fa2:	48 8b b4 24 18 08 00 	mov    rsi,QWORD PTR [rsp+0x818]
    8fa9:	00 
    8faa:	4c 89 a6 98 00 00 00 	mov    QWORD PTR [rsi+0x98],r12
    8fb1:	48 89 df             	mov    rdi,rbx
    8fb4:	4c 89 fe             	mov    rsi,r15
    8fb7:	48 b8 00 00 00 00 00 	movabs rax,0x0
    8fbe:	00 00 00 
			8fb9: R_X86_64_64	apply_n
    8fc1:	48 89 bc 24 00 04 00 	mov    QWORD PTR [rsp+0x400],rdi
    8fc8:	00 
    8fc9:	ff d0                	call   rax
    8fcb:	48 89 84 24 00 04 00 	mov    QWORD PTR [rsp+0x400],rax
    8fd2:	00 
    8fd3:	48 8b b4 24 10 08 00 	mov    rsi,QWORD PTR [rsp+0x810]
    8fda:	00 
    8fdb:	48 8b 7e 08          	mov    rdi,QWORD PTR [rsi+0x8]
    8fdf:	48 8b b4 24 00 08 00 	mov    rsi,QWORD PTR [rsp+0x800]
    8fe6:	00 
    8fe7:	48 b8 00 00 00 00 00 	movabs rax,0x0
    8fee:	00 00 00 
			8fe9: R_X86_64_64	apply1
    8ff1:	48 89 b4 24 10 04 00 	mov    QWORD PTR [rsp+0x410],rsi
    8ff8:	00 
    8ff9:	48 89 bc 24 20 04 00 	mov    QWORD PTR [rsp+0x420],rdi
    9000:	00 
    9001:	ff d0                	call   rax
    9003:	48 89 c3             	mov    rbx,rax
    9006:	49 89 d6             	mov    r14,rdx
    9009:	4d 85 f6             	test   r14,r14
    900c:	0f 85 0d 00 00 00    	jne    901f <big_makeblock+0x901f>
    9012:	48 89 9c 24 08 06 00 	mov    QWORD PTR [rsp+0x608],rbx
    9019:	00 
    901a:	e9 9d 00 00 00       	jmp    90bc <big_makeblock+0x90bc>
    901f:	48 8b b4 24 18 08 00 	mov    rsi,QWORD PTR [rsp+0x818]
    9026:	00 
    9027:	4c 8b ae 98 00 00 00 	mov    r13,QWORD PTR [rsi+0x98]
    902e:	4d 89 f7             	mov    r15,r14
    9031:	49 83 c7 ff          	add    r15,0xffffffffffffffff
    9035:	4c 89 f2             	mov    rdx,r14
    9038:	48 c1 e2 03          	shl    rdx,0x3
    903c:	4d 89 ec             	mov    r12,r13
    903f:	49 01 d4             	add    r12,rdx
    9042:	4c 89 ef             	mov    rdi,r13
    9045:	48 83 c7 e8          	add    rdi,0xffffffffffffffe8
    9049:	4c 89 ee             	mov    rsi,r13
    904c:	48 b8 00 00 00 00 00 	movabs rax,0x0
    9053:	00 00 00 
			904e: R_X86_64_64	memmove
    9056:	48 89 9c 24 10 04 00 	mov    QWORD PTR [rsp+0x410],rbx
    905d:	00 
    905e:	ff d0                	call   rax
    9060:	48 8b 9c 24 10 04 00 	mov    rbx,QWORD PTR [rsp+0x410]
    9067:	00 
    9068:	48 be 00 00 00 00 00 	movabs rsi,0x0
    906f:	00 00 00 
			906a: R_X86_64_64	callback_return_addr
    9072:	bf 01 00 00 00       	mov    edi,0x1
    9077:	4b 89 7c f5 f8       	mov    QWORD PTR [r13+r14*8-0x8],rdi
    907c:	bf 01 00 00 00       	mov    edi,0x1
    9081:	4b 89 7c f5 f0       	mov    QWORD PTR [r13+r14*8-0x10],rdi
    9086:	4b 89 74 f5 e8       	mov    QWORD PTR [r13+r14*8-0x18],rsi
    908b:	48 8b b4 24 18 08 00 	mov    rsi,QWORD PTR [rsp+0x818]
    9092:	00 
    9093:	4c 89 a6 98 00 00 00 	mov    QWORD PTR [rsi+0x98],r12
    909a:	48 89 df             	mov    rdi,rbx
    909d:	4c 89 fe             	mov    rsi,r15
    90a0:	48 b8 00 00 00 00 00 	movabs rax,0x0
    90a7:	00 00 00 
			90a2: R_X86_64_64	apply_n
    90aa:	48 89 bc 24 10 04 00 	mov    QWORD PTR [rsp+0x410],rdi
    90b1:	00 
    90b2:	ff d0                	call   rax
    90b4:	48 89 84 24 08 06 00 	mov    QWORD PTR [rsp+0x608],rax
    90bb:	00 
    90bc:	48 8b b4 24 10 08 00 	mov    rsi,QWORD PTR [rsp+0x810]
    90c3:	00 
    90c4:	48 8b 7e 08          	mov    rdi,QWORD PTR [rsi+0x8]
    90c8:	48 8b b4 24 00 08 00 	mov    rsi,QWORD PTR [rsp+0x800]
    90cf:	00 
    90d0:	48 b8 00 00 00 00 00 	movabs rax,0x0
    90d7:	00 00 00 
			90d2: R_X86_64_64	apply1
    90da:	48 89 b4 24 10 04 00 	mov    QWORD PTR [rsp+0x410],rsi
    90e1:	00 
    90e2:	48 89 bc 24 20 04 00 	mov    QWORD PTR [rsp+0x420],rdi
    90e9:	00 
    90ea:	ff d0                	call   rax
    90ec:	49 89 c7             	mov    r15,rax
    90ef:	49 89 d6             	mov    r14,rdx
    90f2:	4d 85 f6             	test   r14,r14
    90f5:	0f 85 0d 00 00 00    	jne    9108 <big_makeblock+0x9108>
    90fb:	4c 89 bc 24 10 04 00 	mov    QWORD PTR [rsp+0x410],r15
    9102:	00 
    9103:	e9 9d 00 00 00       	jmp    91a5 <big_makeblock+0x91a5>
    9108:	48 8b b4 24 18 08 00 	mov    rsi,QWORD PTR [rsp+0x818]
    910f:	00 
    9110:	4c 8b ae 98 00 00 00 	mov    r13,QWORD PTR [rsi+0x98]
    9117:	4c 89 f3             	mov    rbx,r14
    911a:	48 83 c3 ff          	add    rbx,0xffffffffffffffff
    911e:	4c 89 f2             	mov    rdx,r14
    9121:	48 c1 e2 03          	shl    rdx,0x3
    9125:	4d 89 ec             	mov    r12,r13
    9128:	49 01 d4             	add    r12,rdx
    912b:	4c 89 ef             	mov    rdi,r13
    912e:	48 83 c7 e8          	add    rdi,0xffffffffffffffe8
    9132:	4c 89 ee             	mov    rsi,r13
    9135:	48 b8 00 00 00 00 00 	movabs rax,0x0
    913c:	00 00 00 
			9137: R_X86_64_64	memmove
    913f:	4c 89 bc 24 20 04 00 	mov    QWORD PTR [rsp+0x420],r15
    9146:	00 
    9147:	ff d0                	call   rax
    9149:	4c 8b bc 24 20 04 00 	mov    r15,QWORD PTR [rsp+0x420]
    9150:	00 
    9151:	48 be 00 00 00 00 00 	movabs rsi,0x0
    9158:	00 00 00 
			9153: R_X86_64_64	callback_return_addr
    915b:	bf 01 00 00 00       	mov    edi,0x1
    9160:	4b 89 7c f5 f8       	mov    QWORD PTR [r13+r14*8-0x8],rdi
    9165:	bf 01 00 00 00       	mov    edi,0x1
    916a:	4b 89 7c f5 f0       	mov    QWORD PTR [r13+r14*8-0x10],rdi
    916f:	4b 89 74 f5 e8       	mov    QWORD PTR [r13+r14*8-0x18],rsi
    9174:	48 8b b4 24 18 08 00 	mov    rsi,QWORD PTR [rsp+0x818]
    917b:	00 
    917c:	4c 89 a6 98 00 00 00 	mov    QWORD PTR [rsi+0x98],r12
    9183:	4c 89 ff             	mov    rdi,r15
    9186:	48 89 de             	mov    rsi,rbx
    9189:	48 b8 00 00 00 00 00 	movabs rax,0x0
    9190:	00 00 00 
			918b: R_X86_64_64	apply_n
    9193:	48 89 bc 24 10 04 00 	mov    QWORD PTR [rsp+0x410],rdi
    919a:	00 
    919b:	ff d0                	call   rax
    919d:	48 89 84 24 10 04 00 	mov    QWORD PTR [rsp+0x410],rax
    91a4:	00 
    91a5:	48 8b b4 24 10 08 00 	mov    rsi,QWORD PTR [rsp+0x810]
    91ac:	00 
    91ad:	48 8b 7e 08          	mov    rdi,QWORD PTR [rsi+0x8]
    91b1:	48 8b b4 24 00 08 00 	mov    rsi,QWORD PTR [rsp+0x800]
    91b8:	00 
    91b9:	48 b8 00 00 00 00 00 	movabs rax,0x0
    91c0:	00 00 00 
			91bb: R_X86_64_64	apply1
    91c3:	48 89 b4 24 20 04 00 	mov    QWORD PTR [rsp+0x420],rsi
    91ca:	00 
    91cb:	48 89 bc 24 30 04 00 	mov    QWORD PTR [rsp+0x430],rdi
    91d2:	00 
    91d3:	ff d0                	call   rax
    91d5:	48 89 c3             	mov    rbx,rax
    91d8:	49 89 d6             	mov    r14,rdx
    91db:	4d 85 f6             	test   r14,r14
    91de:	0f 85 0d 00 00 00    	jne    91f1 <big_makeblock+0x91f1>
    91e4:	48 89 9c 24 18 06 00 	mov    QWORD PTR [rsp+0x618],rbx
    91eb:	00 
    91ec:	e9 9d 00 00 00       	jmp    928e <big_makeblock+0x928e>
    91f1:	48 8b b4 24 18 08 00 	mov    rsi,QWORD PTR [rsp+0x818]
    91f8:	00 
    91f9:	4c 8b ae 98 00 00 00 	mov    r13,QWORD PTR [rsi+0x98]
    9200:	4d 89 f7             	mov    r15,r14
    9203:	49 83 c7 ff          	add    r15,0xffffffffffffffff
    9207:	4c 89 f2             	mov    rdx,r14
    920a:	48 c1 e2 03          	shl    rdx,0x3
    920e:	4d 89 ec             	mov    r12,r13
    9211:	49 01 d4             	add    r12,rdx
    9214:	4c 89 ef             	mov    rdi,r13
    9217:	48 83 c7 e8          	add    rdi,0xffffffffffffffe8
    921b:	4c 89 ee             	mov    rsi,r13
    921e:	48 b8 00 00 00 00 00 	movabs rax,0x0
    9225:	00 00 00 
			9220: R_X86_64_64	memmove
    9228:	48 89 9c 24 20 04 00 	mov    QWORD PTR [rsp+0x420],rbx
    922f:	00 
    9230:	ff d0                	call   rax
    9232:	48 8b 9c 24 20 04 00 	mov    rbx,QWORD PTR [rsp+0x420]
    9239:	00 
    923a:	48 be 00 00 00 00 00 	movabs rsi,0x0
    9241:	00 00 00 
			923c: R_X86_64_64	callback_return_addr
    9244:	bf 01 00 00 00       	mov    edi,0x1
    9249:	4b 89 7c f5 f8       	mov    QWORD PTR [r13+r14*8-0x8],rdi
    924e:	bf 01 00 00 00       	mov    edi,0x1
    9253:	4b 89 7c f5 f0       	mov    QWORD PTR [r13+r14*8-0x10],rdi
    9258:	4b 89 74 f5 e8       	mov    QWORD PTR [r13+r14*8-0x18],rsi
    925d:	48 8b b4 24 18 08 00 	mov    rsi,QWORD PTR [rsp+0x818]
    9264:	00 
    9265:	4c 89 a6 98 00 00 00 	mov    QWORD PTR [rsi+0x98],r12
    926c:	48 89 df             	mov    rdi,rbx
    926f:	4c 89 fe             	mov    rsi,r15
    9272:	48 b8 00 00 00 00 00 	movabs rax,0x0
    9279:	00 00 00 
			9274: R_X86_64_64	apply_n
    927c:	48 89 bc 24 20 04 00 	mov    QWORD PTR [rsp+0x420],rdi
    9283:	00 
    9284:	ff d0                	call   rax
    9286:	48 89 84 24 18 06 00 	mov    QWORD PTR [rsp+0x618],rax
    928d:	00 
    928e:	48 8b b4 24 10 08 00 	mov    rsi,QWORD PTR [rsp+0x810]
    9295:	00 
    9296:	48 8b 7e 08          	mov    rdi,QWORD PTR [rsi+0x8]
    929a:	48 8b b4 24 00 08 00 	mov    rsi,QWORD PTR [rsp+0x800]
    92a1:	00 
    92a2:	48 b8 00 00 00 00 00 	movabs rax,0x0
    92a9:	00 00 00 
			92a4: R_X86_64_64	apply1
    92ac:	48 89 b4 24 20 04 00 	mov    QWORD PTR [rsp+0x420],rsi
    92b3:	00 
    92b4:	48 89 bc 24 30 04 00 	mov    QWORD PTR [rsp+0x430],rdi
    92bb:	00 
    92bc:	ff d0                	call   rax
    92be:	48 89 c3             	mov    rbx,rax
    92c1:	49 89 d6             	mov    r14,rdx
    92c4:	4d 85 f6             	test   r14,r14
    92c7:	0f 85 0d 00 00 00    	jne    92da <big_makeblock+0x92da>
    92cd:	48 89 9c 24 20 04 00 	mov    QWORD PTR [rsp+0x420],rbx
    92d4:	00 
    92d5:	e9 9d 00 00 00       	jmp    9377 <big_makeblock+0x9377>
    92da:	48 8b b4 24 18 08 00 	mov    rsi,QWORD PTR [rsp+0x818]
    92e1:	00 
    92e2:	4c 8b ae 98 00 00 00 	mov    r13,QWORD PTR [rsi+0x98]
    92e9:	4d 89 f7             	mov    r15,r14
    92ec:	49 83 c7 ff          	add    r15,0xffffffffffffffff
    92f0:	4c 89 f2             	mov    rdx,r14
    92f3:	48 c1 e2 03          	shl    rdx,0x3
    92f7:	4d 89 ec             	mov    r12,r13
    92fa:	49 01 d4             	add    r12,rdx
    92fd:	4c 89 ef             	mov    rdi,r13
    9300:	48 83 c7 e8          	add    rdi,0xffffffffffffffe8
    9304:	4c 89 ee             	mov    rsi,r13
    9307:	48 b8 00 00 00 00 00 	movabs rax,0x0
    930e:	00 00 00 
			9309: R_X86_64_64	memmove
    9311:	48 89 9c 24 30 04 00 	mov    QWORD PTR [rsp+0x430],rbx
    9318:	00 
    9319:	ff d0                	call   rax
    931b:	48 8b 9c 24 30 04 00 	mov    rbx,QWORD PTR [rsp+0x430]
    9322:	00 
    9323:	48 be 00 00 00 00 00 	movabs rsi,0x0
    932a:	00 00 00 
			9325: R_X86_64_64	callback_return_addr
    932d:	bf 01 00 00 00       	mov    edi,0x1
    9332:	4b 89 7c f5 f8       	mov    QWORD PTR [r13+r14*8-0x8],rdi
    9337:	bf 01 00 00 00       	mov    edi,0x1
    933c:	4b 89 7c f5 f0       	mov    QWORD PTR [r13+r14*8-0x10],rdi
    9341:	4b 89 74 f5 e8       	mov    QWORD PTR [r13+r14*8-0x18],rsi
    9346:	48 8b b4 24 18 08 00 	mov    rsi,QWORD PTR [rsp+0x818]
    934d:	00 
    934e:	4c 89 a6 98 00 00 00 	mov    QWORD PTR [rsi+0x98],r12
    9355:	48 89 df             	mov    rdi,rbx
    9358:	4c 89 fe             	mov    rsi,r15
    935b:	48 b8 00 00 00 00 00 	movabs rax,0x0
    9362:	00 00 00 
			935d: R_X86_64_64	apply_n
    9365:	48 89 bc 24 20 04 00 	mov    QWORD PTR [rsp+0x420],rdi
    936c:	00 
    936d:	ff d0                	call   rax
    936f:	48 89 84 24 20 04 00 	mov    QWORD PTR [rsp+0x420],rax
    9376:	00 
    9377:	48 8b b4 24 10 08 00 	mov    rsi,QWORD PTR [rsp+0x810]
    937e:	00 
    937f:	48 8b 7e 08          	mov    rdi,QWORD PTR [rsi+0x8]
    9383:	48 8b b4 24 00 08 00 	mov    rsi,QWORD PTR [rsp+0x800]
    938a:	00 
    938b:	48 b8 00 00 00 00 00 	movabs rax,0x0
    9392:	00 00 00 
			938d: R_X86_64_64	apply1
    9395:	48 89 b4 24 30 04 00 	mov    QWORD PTR [rsp+0x430],rsi
    939c:	00 
    939d:	48 89 bc 24 40 04 00 	mov    QWORD PTR [rsp+0x440],rdi
    93a4:	00 
    93a5:	ff d0                	call   rax
    93a7:	49 89 c7             	mov    r15,rax
    93aa:	49 89 d6             	mov    r14,rdx
    93ad:	4d 85 f6             	test   r14,r14
    93b0:	0f 85 0d 00 00 00    	jne    93c3 <big_makeblock+0x93c3>
    93b6:	4c 89 bc 24 28 06 00 	mov    QWORD PTR [rsp+0x628],r15
    93bd:	00 
    93be:	e9 9d 00 00 00       	jmp    9460 <big_makeblock+0x9460>
    93c3:	48 8b b4 24 18 08 00 	mov    rsi,QWORD PTR [rsp+0x818]
    93ca:	00 
    93cb:	4c 8b ae 98 00 00 00 	mov    r13,QWORD PTR [rsi+0x98]
    93d2:	4c 89 f3             	mov    rbx,r14
    93d5:	48 83 c3 ff          	add    rbx,0xffffffffffffffff
    93d9:	4c 89 f2             	mov    rdx,r14
    93dc:	48 c1 e2 03          	shl    rdx,0x3
    93e0:	4d 89 ec             	mov    r12,r13
    93e3:	49 01 d4             	add    r12,rdx
    93e6:	4c 89 ef             	mov    rdi,r13
    93e9:	48 83 c7 e8          	add    rdi,0xffffffffffffffe8
    93ed:	4c 89 ee             	mov    rsi,r13
    93f0:	48 b8 00 00 00 00 00 	movabs rax,0x0
    93f7:	00 00 00 
			93f2: R_X86_64_64	memmove
    93fa:	4c 89 bc 24 30 04 00 	mov    QWORD PTR [rsp+0x430],r15
    9401:	00 
    9402:	ff d0                	call   rax
    9404:	4c 8b bc 24 30 04 00 	mov    r15,QWORD PTR [rsp+0x430]
    940b:	00 
    940c:	48 be 00 00 00 00 00 	movabs rsi,0x0
    9413:	00 00 00 
			940e: R_X86_64_64	callback_return_addr
    9416:	bf 01 00 00 00       	mov    edi,0x1
    941b:	4b 89 7c f5 f8       	mov    QWORD PTR [r13+r14*8-0x8],rdi
    9420:	bf 01 00 00 00       	mov    edi,0x1
    9425:	4b 89 7c f5 f0       	mov    QWORD PTR [r13+r14*8-0x10],rdi
    942a:	4b 89 74 f5 e8       	mov    QWORD PTR [r13+r14*8-0x18],rsi
    942f:	48 8b b4 24 18 08 00 	mov    rsi,QWORD PTR [rsp+0x818]
    9436:	00 
    9437:	4c 89 a6 98 00 00 00 	mov    QWORD PTR [rsi+0x98],r12
    943e:	4c 89 ff             	mov    rdi,r15
    9441:	48 89 de             	mov    rsi,rbx
    9444:	48 b8 00 00 00 00 00 	movabs rax,0x0
    944b:	00 00 00 
			9446: R_X86_64_64	apply_n
    944e:	48 89 bc 24 30 04 00 	mov    QWORD PTR [rsp+0x430],rdi
    9455:	00 
    9456:	ff d0                	call   rax
    9458:	48 89 84 24 28 06 00 	mov    QWORD PTR [rsp+0x628],rax
    945f:	00 
    9460:	48 8b b4 24 10 08 00 	mov    rsi,QWORD PTR [rsp+0x810]
    9467:	00 
    9468:	48 8b 7e 08          	mov    rdi,QWORD PTR [rsi+0x8]
    946c:	48 8b b4 24 00 08 00 	mov    rsi,QWORD PTR [rsp+0x800]
    9473:	00 
    9474:	48 b8 00 00 00 00 00 	movabs rax,0x0
    947b:	00 00 00 
			9476: R_X86_64_64	apply1
    947e:	48 89 b4 24 30 04 00 	mov    QWORD PTR [rsp+0x430],rsi
    9485:	00 
    9486:	48 89 bc 24 40 04 00 	mov    QWORD PTR [rsp+0x440],rdi
    948d:	00 
    948e:	ff d0                	call   rax
    9490:	48 89 c3             	mov    rbx,rax
    9493:	49 89 d6             	mov    r14,rdx
    9496:	4d 85 f6             	test   r14,r14
    9499:	0f 85 0d 00 00 00    	jne    94ac <big_makeblock+0x94ac>
    949f:	48 89 9c 24 30 04 00 	mov    QWORD PTR [rsp+0x430],rbx
    94a6:	00 
    94a7:	e9 9d 00 00 00       	jmp    9549 <big_makeblock+0x9549>
    94ac:	48 8b b4 24 18 08 00 	mov    rsi,QWORD PTR [rsp+0x818]
    94b3:	00 
    94b4:	4c 8b ae 98 00 00 00 	mov    r13,QWORD PTR [rsi+0x98]
    94bb:	4d 89 f7             	mov    r15,r14
    94be:	49 83 c7 ff          	add    r15,0xffffffffffffffff
    94c2:	4c 89 f2             	mov    rdx,r14
    94c5:	48 c1 e2 03          	shl    rdx,0x3
    94c9:	4d 89 ec             	mov    r12,r13
    94cc:	49 01 d4             	add    r12,rdx
    94cf:	4c 89 ef             	mov    rdi,r13
    94d2:	48 83 c7 e8          	add    rdi,0xffffffffffffffe8
    94d6:	4c 89 ee             	mov    rsi,r13
    94d9:	48 b8 00 00 00 00 00 	movabs rax,0x0
    94e0:	00 00 00 
			94db: R_X86_64_64	memmove
    94e3:	48 89 9c 24 40 04 00 	mov    QWORD PTR [rsp+0x440],rbx
    94ea:	00 
    94eb:	ff d0                	call   rax
    94ed:	48 8b 9c 24 40 04 00 	mov    rbx,QWORD PTR [rsp+0x440]
    94f4:	00 
    94f5:	48 be 00 00 00 00 00 	movabs rsi,0x0
    94fc:	00 00 00 
			94f7: R_X86_64_64	callback_return_addr
    94ff:	bf 01 00 00 00       	mov    edi,0x1
    9504:	4b 89 7c f5 f8       	mov    QWORD PTR [r13+r14*8-0x8],rdi
    9509:	bf 01 00 00 00       	mov    edi,0x1
    950e:	4b 89 7c f5 f0       	mov    QWORD PTR [r13+r14*8-0x10],rdi
    9513:	4b 89 74 f5 e8       	mov    QWORD PTR [r13+r14*8-0x18],rsi
    9518:	48 8b b4 24 18 08 00 	mov    rsi,QWORD PTR [rsp+0x818]
    951f:	00 
    9520:	4c 89 a6 98 00 00 00 	mov    QWORD PTR [rsi+0x98],r12
    9527:	48 89 df             	mov    rdi,rbx
    952a:	4c 89 fe             	mov    rsi,r15
    952d:	48 b8 00 00 00 00 00 	movabs rax,0x0
    9534:	00 00 00 
			952f: R_X86_64_64	apply_n
    9537:	48 89 bc 24 30 04 00 	mov    QWORD PTR [rsp+0x430],rdi
    953e:	00 
    953f:	ff d0                	call   rax
    9541:	48 89 84 24 30 04 00 	mov    QWORD PTR [rsp+0x430],rax
    9548:	00 
    9549:	48 8b b4 24 10 08 00 	mov    rsi,QWORD PTR [rsp+0x810]
    9550:	00 
    9551:	48 8b 7e 08          	mov    rdi,QWORD PTR [rsi+0x8]
    9555:	48 8b b4 24 00 08 00 	mov    rsi,QWORD PTR [rsp+0x800]
    955c:	00 
    955d:	48 b8 00 00 00 00 00 	movabs rax,0x0
    9564:	00 00 00 
			955f: R_X86_64_64	apply1
    9567:	48 89 b4 24 40 04 00 	mov    QWORD PTR [rsp+0x440],rsi
    956e:	00 
    956f:	48 89 bc 24 50 04 00 	mov    QWORD PTR [rsp+0x450],rdi
    9576:	00 
    9577:	ff d0                	call   rax
    9579:	48 89 c3             	mov    rbx,rax
    957c:	49 89 d6             	mov    r14,rdx
    957f:	4d 85 f6             	test   r14,r14
    9582:	0f 85 0d 00 00 00    	jne    9595 <big_makeblock+0x9595>
    9588:	48 89 9c 24 38 06 00 	mov    QWORD PTR [rsp+0x638],rbx
    958f:	00 
    9590:	e9 9d 00 00 00       	jmp    9632 <big_makeblock+0x9632>
    9595:	48 8b b4 24 18 08 00 	mov    rsi,QWORD PTR [rsp+0x818]
    959c:	00 
    959d:	4c 8b ae 98 00 00 00 	mov    r13,QWORD PTR [rsi+0x98]
    95a4:	4d 89 f7             	mov    r15,r14
    95a7:	49 83 c7 ff          	add    r15,0xffffffffffffffff
    95ab:	4c 89 f2             	mov    rdx,r14
    95ae:	48 c1 e2 03          	shl    rdx,0x3
    95b2:	4d 89 ec             	mov    r12,r13
    95b5:	49 01 d4             	add    r12,rdx
    95b8:	4c 89 ef             	mov    rdi,r13
    95bb:	48 83 c7 e8          	add    rdi,0xffffffffffffffe8
    95bf:	4c 89 ee             	mov    rsi,r13
    95c2:	48 b8 00 00 00 00 00 	movabs rax,0x0
    95c9:	00 00 00 
			95c4: R_X86_64_64	memmove
    95cc:	48 89 9c 24 40 04 00 	mov    QWORD PTR [rsp+0x440],rbx
    95d3:	00 
    95d4:	ff d0                	call   rax
    95d6:	48 8b 9c 24 40 04 00 	mov    rbx,QWORD PTR [rsp+0x440]
    95dd:	00 
    95de:	48 be 00 00 00 00 00 	movabs rsi,0x0
    95e5:	00 00 00 
			95e0: R_X86_64_64	callback_return_addr
    95e8:	bf 01 00 00 00       	mov    edi,0x1
    95ed:	4b 89 7c f5 f8       	mov    QWORD PTR [r13+r14*8-0x8],rdi
    95f2:	bf 01 00 00 00       	mov    edi,0x1
    95f7:	4b 89 7c f5 f0       	mov    QWORD PTR [r13+r14*8-0x10],rdi
    95fc:	4b 89 74 f5 e8       	mov    QWORD PTR [r13+r14*8-0x18],rsi
    9601:	48 8b b4 24 18 08 00 	mov    rsi,QWORD PTR [rsp+0x818]
    9608:	00 
    9609:	4c 89 a6 98 00 00 00 	mov    QWORD PTR [rsi+0x98],r12
    9610:	48 89 df             	mov    rdi,rbx
    9613:	4c 89 fe             	mov    rsi,r15
    9616:	48 b8 00 00 00 00 00 	movabs rax,0x0
    961d:	00 00 00 
			9618: R_X86_64_64	apply_n
    9620:	48 89 bc 24 40 04 00 	mov    QWORD PTR [rsp+0x440],rdi
    9627:	00 
    9628:	ff d0                	call   rax
    962a:	48 89 84 24 38 06 00 	mov    QWORD PTR [rsp+0x638],rax
    9631:	00 
    9632:	48 8b b4 24 10 08 00 	mov    rsi,QWORD PTR [rsp+0x810]
    9639:	00 
    963a:	48 8b 7e 08          	mov    rdi,QWORD PTR [rsi+0x8]
    963e:	48 8b b4 24 00 08 00 	mov    rsi,QWORD PTR [rsp+0x800]
    9645:	00 
    9646:	48 b8 00 00 00 00 00 	movabs rax,0x0
    964d:	00 00 00 
			9648: R_X86_64_64	apply1
    9650:	48 89 b4 24 40 04 00 	mov    QWORD PTR [rsp+0x440],rsi
    9657:	00 
    9658:	48 89 bc 24 50 04 00 	mov    QWORD PTR [rsp+0x450],rdi
    965f:	00 
    9660:	ff d0                	call   rax
    9662:	49 89 c7             	mov    r15,rax
    9665:	49 89 d6             	mov    r14,rdx
    9668:	4d 85 f6             	test   r14,r14
    966b:	0f 85 0d 00 00 00    	jne    967e <big_makeblock+0x967e>
    9671:	4c 89 bc 24 40 04 00 	mov    QWORD PTR [rsp+0x440],r15
    9678:	00 
    9679:	e9 9d 00 00 00       	jmp    971b <big_makeblock+0x971b>
    967e:	48 8b b4 24 18 08 00 	mov    rsi,QWORD PTR [rsp+0x818]
    9685:	00 
    9686:	4c 8b ae 98 00 00 00 	mov    r13,QWORD PTR [rsi+0x98]
    968d:	4c 89 f3             	mov    rbx,r14
    9690:	48 83 c3 ff          	add    rbx,0xffffffffffffffff
    9694:	4c 89 f2             	mov    rdx,r14
    9697:	48 c1 e2 03          	shl    rdx,0x3
    969b:	4d 89 ec             	mov    r12,r13
    969e:	49 01 d4             	add    r12,rdx
    96a1:	4c 89 ef             	mov    rdi,r13
    96a4:	48 83 c7 e8          	add    rdi,0xffffffffffffffe8
    96a8:	4c 89 ee             	mov    rsi,r13
    96ab:	48 b8 00 00 00 00 00 	movabs rax,0x0
    96b2:	00 00 00 
			96ad: R_X86_64_64	memmove
    96b5:	4c 89 bc 24 50 04 00 	mov    QWORD PTR [rsp+0x450],r15
    96bc:	00 
    96bd:	ff d0                	call   rax
    96bf:	4c 8b bc 24 50 04 00 	mov    r15,QWORD PTR [rsp+0x450]
    96c6:	00 
    96c7:	48 be 00 00 00 00 00 	movabs rsi,0x0
    96ce:	00 00 00 
			96c9: R_X86_64_64	callback_return_addr
    96d1:	bf 01 00 00 00       	mov    edi,0x1
    96d6:	4b 89 7c f5 f8       	mov    QWORD PTR [r13+r14*8-0x8],rdi
    96db:	bf 01 00 00 00       	mov    edi,0x1
    96e0:	4b 89 7c f5 f0       	mov    QWORD PTR [r13+r14*8-0x10],rdi
    96e5:	4b 89 74 f5 e8       	mov    QWORD PTR [r13+r14*8-0x18],rsi
    96ea:	48 8b b4 24 18 08 00 	mov    rsi,QWORD PTR [rsp+0x818]
    96f1:	00 
    96f2:	4c 89 a6 98 00 00 00 	mov    QWORD PTR [rsi+0x98],r12
    96f9:	4c 89 ff             	mov    rdi,r15
    96fc:	48 89 de             	mov    rsi,rbx
    96ff:	48 b8 00 00 00 00 00 	movabs rax,0x0
    9706:	00 00 00 
			9701: R_X86_64_64	apply_n
    9709:	48 89 bc 24 40 04 00 	mov    QWORD PTR [rsp+0x440],rdi
    9710:	00 
    9711:	ff d0                	call   rax
    9713:	48 89 84 24 40 04 00 	mov    QWORD PTR [rsp+0x440],rax
    971a:	00 
    971b:	48 8b b4 24 10 08 00 	mov    rsi,QWORD PTR [rsp+0x810]
    9722:	00 
    9723:	48 8b 7e 08          	mov    rdi,QWORD PTR [rsi+0x8]
    9727:	48 8b b4 24 00 08 00 	mov    rsi,QWORD PTR [rsp+0x800]
    972e:	00 
    972f:	48 b8 00 00 00 00 00 	movabs rax,0x0
    9736:	00 00 00 
			9731: R_X86_64_64	apply1
    9739:	48 89 b4 24 50 04 00 	mov    QWORD PTR [rsp+0x450],rsi
    9740:	00 
    9741:	48 89 bc 24 60 04 00 	mov    QWORD PTR [rsp+0x460],rdi
    9748:	00 
    9749:	ff d0                	call   rax
    974b:	48 89 c3             	mov    rbx,rax
    974e:	49 89 d6             	mov    r14,rdx
    9751:	4d 85 f6             	test   r14,r14
    9754:	0f 85 0d 00 00 00    	jne    9767 <big_makeblock+0x9767>
    975a:	48 89 9c 24 48 06 00 	mov    QWORD PTR [rsp+0x648],rbx
    9761:	00 
    9762:	e9 9d 00 00 00       	jmp    9804 <big_makeblock+0x9804>
    9767:	48 8b b4 24 18 08 00 	mov    rsi,QWORD PTR [rsp+0x818]
    976e:	00 
    976f:	4c 8b ae 98 00 00 00 	mov    r13,QWORD PTR [rsi+0x98]
    9776:	4d 89 f7             	mov    r15,r14
    9779:	49 83 c7 ff          	add    r15,0xffffffffffffffff
    977d:	4c 89 f2             	mov    rdx,r14
    9780:	48 c1 e2 03          	shl    rdx,0x3
    9784:	4d 89 ec             	mov    r12,r13
    9787:	49 01 d4             	add    r12,rdx
    978a:	4c 89 ef             	mov    rdi,r13
    978d:	48 83 c7 e8          	add    rdi,0xffffffffffffffe8
    9791:	4c 89 ee             	mov    rsi,r13
    9794:	48 b8 00 00 00 00 00 	movabs rax,0x0
    979b:	00 00 00 
			9796: R_X86_64_64	memmove
    979e:	48 89 9c 24 50 04 00 	mov    QWORD PTR [rsp+0x450],rbx
    97a5:	00 
    97a6:	ff d0                	call   rax
    97a8:	48 8b 9c 24 50 04 00 	mov    rbx,QWORD PTR [rsp+0x450]
    97af:	00 
    97b0:	48 be 00 00 00 00 00 	movabs rsi,0x0
    97b7:	00 00 00 
			97b2: R_X86_64_64	callback_return_addr
    97ba:	bf 01 00 00 00       	mov    edi,0x1
    97bf:	4b 89 7c f5 f8       	mov    QWORD PTR [r13+r14*8-0x8],rdi
    97c4:	bf 01 00 00 00       	mov    edi,0x1
    97c9:	4b 89 7c f5 f0       	mov    QWORD PTR [r13+r14*8-0x10],rdi
    97ce:	4b 89 74 f5 e8       	mov    QWORD PTR [r13+r14*8-0x18],rsi
    97d3:	48 8b b4 24 18 08 00 	mov    rsi,QWORD PTR [rsp+0x818]
    97da:	00 
    97db:	4c 89 a6 98 00 00 00 	mov    QWORD PTR [rsi+0x98],r12
    97e2:	48 89 df             	mov    rdi,rbx
    97e5:	4c 89 fe             	mov    rsi,r15
    97e8:	48 b8 00 00 00 00 00 	movabs rax,0x0
    97ef:	00 00 00 
			97ea: R_X86_64_64	apply_n
    97f2:	48 89 bc 24 50 04 00 	mov    QWORD PTR [rsp+0x450],rdi
    97f9:	00 
    97fa:	ff d0                	call   rax
    97fc:	48 89 84 24 48 06 00 	mov    QWORD PTR [rsp+0x648],rax
    9803:	00 
    9804:	48 8b b4 24 10 08 00 	mov    rsi,QWORD PTR [rsp+0x810]
    980b:	00 
    980c:	48 8b 7e 08          	mov    rdi,QWORD PTR [rsi+0x8]
    9810:	48 8b b4 24 00 08 00 	mov    rsi,QWORD PTR [rsp+0x800]
    9817:	00 
    9818:	48 b8 00 00 00 00 00 	movabs rax,0x0
    981f:	00 00 00 
			981a: R_X86_64_64	apply1
    9822:	48 89 b4 24 50 04 00 	mov    QWORD PTR [rsp+0x450],rsi
    9829:	00 
    982a:	48 89 bc 24 60 04 00 	mov    QWORD PTR [rsp+0x460],rdi
    9831:	00 
    9832:	ff d0                	call   rax
    9834:	48 89 c3             	mov    rbx,rax
    9837:	49 89 d6             	mov    r14,rdx
    983a:	4d 85 f6             	test   r14,r14
    983d:	0f 85 0d 00 00 00    	jne    9850 <big_makeblock+0x9850>
    9843:	48 89 9c 24 50 04 00 	mov    QWORD PTR [rsp+0x450],rbx
    984a:	00 
    984b:	e9 9d 00 00 00       	jmp    98ed <big_makeblock+0x98ed>
    9850:	48 8b b4 24 18 08 00 	mov    rsi,QWORD PTR [rsp+0x818]
    9857:	00 
    9858:	4c 8b ae 98 00 00 00 	mov    r13,QWORD PTR [rsi+0x98]
    985f:	4d 89 f7             	mov    r15,r14
    9862:	49 83 c7 ff          	add    r15,0xffffffffffffffff
    9866:	4c 89 f2             	mov    rdx,r14
    9869:	48 c1 e2 03          	shl    rdx,0x3
    986d:	4d 89 ec             	mov    r12,r13
    9870:	49 01 d4             	add    r12,rdx
    9873:	4c 89 ef             	mov    rdi,r13
    9876:	48 83 c7 e8          	add    rdi,0xffffffffffffffe8
    987a:	4c 89 ee             	mov    rsi,r13
    987d:	48 b8 00 00 00 00 00 	movabs rax,0x0
    9884:	00 00 00 
			987f: R_X86_64_64	memmove
    9887:	48 89 9c 24 60 04 00 	mov    QWORD PTR [rsp+0x460],rbx
    988e:	00 
    988f:	ff d0                	call   rax
    9891:	48 8b 9c 24 60 04 00 	mov    rbx,QWORD PTR [rsp+0x460]
    9898:	00 
    9899:	48 be 00 00 00 00 00 	movabs rsi,0x0
    98a0:	00 00 00 
			989b: R_X86_64_64	callback_return_addr
    98a3:	bf 01 00 00 00       	mov    edi,0x1
    98a8:	4b 89 7c f5 f8       	mov    QWORD PTR [r13+r14*8-0x8],rdi
    98ad:	bf 01 00 00 00       	mov    edi,0x1
    98b2:	4b 89 7c f5 f0       	mov    QWORD PTR [r13+r14*8-0x10],rdi
    98b7:	4b 89 74 f5 e8       	mov    QWORD PTR [r13+r14*8-0x18],rsi
    98bc:	48 8b b4 24 18 08 00 	mov    rsi,QWORD PTR [rsp+0x818]
    98c3:	00 
    98c4:	4c 89 a6 98 00 00 00 	mov    QWORD PTR [rsi+0x98],r12
    98cb:	48 89 df             	mov    rdi,rbx
    98ce:	4c 89 fe             	mov    rsi,r15
    98d1:	48 b8 00 00 00 00 00 	movabs rax,0x0
    98d8:	00 00 00 
			98d3: R_X86_64_64	apply_n
    98db:	48 89 bc 24 50 04 00 	mov    QWORD PTR [rsp+0x450],rdi
    98e2:	00 
    98e3:	ff d0                	call   rax
    98e5:	48 89 84 24 50 04 00 	mov    QWORD PTR [rsp+0x450],rax
    98ec:	00 
    98ed:	48 8b b4 24 10 08 00 	mov    rsi,QWORD PTR [rsp+0x810]
    98f4:	00 
    98f5:	48 8b 7e 08          	mov    rdi,QWORD PTR [rsi+0x8]
    98f9:	48 8b b4 24 00 08 00 	mov    rsi,QWORD PTR [rsp+0x800]
    9900:	00 
    9901:	48 b8 00 00 00 00 00 	movabs rax,0x0
    9908:	00 00 00 
			9903: R_X86_64_64	apply1
    990b:	48 89 b4 24 60 04 00 	mov    QWORD PTR [rsp+0x460],rsi
    9912:	00 
    9913:	48 89 bc 24 70 04 00 	mov    QWORD PTR [rsp+0x470],rdi
    991a:	00 
    991b:	ff d0                	call   rax
    991d:	49 89 c7             	mov    r15,rax
    9920:	49 89 d6             	mov    r14,rdx
    9923:	4d 85 f6             	test   r14,r14
    9926:	0f 85 0d 00 00 00    	jne    9939 <big_makeblock+0x9939>
    992c:	4c 89 bc 24 58 06 00 	mov    QWORD PTR [rsp+0x658],r15
    9933:	00 
    9934:	e9 9d 00 00 00       	jmp    99d6 <big_makeblock+0x99d6>
    9939:	48 8b b4 24 18 08 00 	mov    rsi,QWORD PTR [rsp+0x818]
    9940:	00 
    9941:	4c 8b ae 98 00 00 00 	mov    r13,QWORD PTR [rsi+0x98]
    9948:	4c 89 f3             	mov    rbx,r14
    994b:	48 83 c3 ff          	add    rbx,0xffffffffffffffff
    994f:	4c 89 f2             	mov    rdx,r14
    9952:	48 c1 e2 03          	shl    rdx,0x3
    9956:	4d 89 ec             	mov    r12,r13
    9959:	49 01 d4             	add    r12,rdx
    995c:	4c 89 ef             	mov    rdi,r13
    995f:	48 83 c7 e8          	add    rdi,0xffffffffffffffe8
    9963:	4c 89 ee             	mov    rsi,r13
    9966:	48 b8 00 00 00 00 00 	movabs rax,0x0
    996d:	00 00 00 
			9968: R_X86_64_64	memmove
    9970:	4c 89 bc 24 60 04 00 	mov    QWORD PTR [rsp+0x460],r15
    9977:	00 
    9978:	ff d0                	call   rax
    997a:	4c 8b bc 24 60 04 00 	mov    r15,QWORD PTR [rsp+0x460]
    9981:	00 
    9982:	48 be 00 00 00 00 00 	movabs rsi,0x0
    9989:	00 00 00 
			9984: R_X86_64_64	callback_return_addr
    998c:	bf 01 00 00 00       	mov    edi,0x1
    9991:	4b 89 7c f5 f8       	mov    QWORD PTR [r13+r14*8-0x8],rdi
    9996:	bf 01 00 00 00       	mov    edi,0x1
    999b:	4b 89 7c f5 f0       	mov    QWORD PTR [r13+r14*8-0x10],rdi
    99a0:	4b 89 74 f5 e8       	mov    QWORD PTR [r13+r14*8-0x18],rsi
    99a5:	48 8b b4 24 18 08 00 	mov    rsi,QWORD PTR [rsp+0x818]
    99ac:	00 
    99ad:	4c 89 a6 98 00 00 00 	mov    QWORD PTR [rsi+0x98],r12
    99b4:	4c 89 ff             	mov    rdi,r15
    99b7:	48 89 de             	mov    rsi,rbx
    99ba:	48 b8 00 00 00 00 00 	movabs rax,0x0
    99c1:	00 00 00 
			99bc: R_X86_64_64	apply_n
    99c4:	48 89 bc 24 60 04 00 	mov    QWORD PTR [rsp+0x460],rdi
    99cb:	00 
    99cc:	ff d0                	call   rax
    99ce:	48 89 84 24 58 06 00 	mov    QWORD PTR [rsp+0x658],rax
    99d5:	00 
    99d6:	48 8b b4 24 10 08 00 	mov    rsi,QWORD PTR [rsp+0x810]
    99dd:	00 
    99de:	48 8b 7e 08          	mov    rdi,QWORD PTR [rsi+0x8]
    99e2:	48 8b b4 24 00 08 00 	mov    rsi,QWORD PTR [rsp+0x800]
    99e9:	00 
    99ea:	48 b8 00 00 00 00 00 	movabs rax,0x0
    99f1:	00 00 00 
			99ec: R_X86_64_64	apply1
    99f4:	48 89 b4 24 60 04 00 	mov    QWORD PTR [rsp+0x460],rsi
    99fb:	00 
    99fc:	48 89 bc 24 70 04 00 	mov    QWORD PTR [rsp+0x470],rdi
    9a03:	00 
    9a04:	ff d0                	call   rax
    9a06:	48 89 c3             	mov    rbx,rax
    9a09:	49 89 d6             	mov    r14,rdx
    9a0c:	4d 85 f6             	test   r14,r14
    9a0f:	0f 85 0d 00 00 00    	jne    9a22 <big_makeblock+0x9a22>
    9a15:	48 89 9c 24 60 04 00 	mov    QWORD PTR [rsp+0x460],rbx
    9a1c:	00 
    9a1d:	e9 9d 00 00 00       	jmp    9abf <big_makeblock+0x9abf>
    9a22:	48 8b b4 24 18 08 00 	mov    rsi,QWORD PTR [rsp+0x818]
    9a29:	00 
    9a2a:	4c 8b ae 98 00 00 00 	mov    r13,QWORD PTR [rsi+0x98]
    9a31:	4d 89 f7             	mov    r15,r14
    9a34:	49 83 c7 ff          	add    r15,0xffffffffffffffff
    9a38:	4c 89 f2             	mov    rdx,r14
    9a3b:	48 c1 e2 03          	shl    rdx,0x3
    9a3f:	4d 89 ec             	mov    r12,r13
    9a42:	49 01 d4             	add    r12,rdx
    9a45:	4c 89 ef             	mov    rdi,r13
    9a48:	48 83 c7 e8          	add    rdi,0xffffffffffffffe8
    9a4c:	4c 89 ee             	mov    rsi,r13
    9a4f:	48 b8 00 00 00 00 00 	movabs rax,0x0
    9a56:	00 00 00 
			9a51: R_X86_64_64	memmove
    9a59:	48 89 9c 24 70 04 00 	mov    QWORD PTR [rsp+0x470],rbx
    9a60:	00 
    9a61:	ff d0                	call   rax
    9a63:	48 8b 9c 24 70 04 00 	mov    rbx,QWORD PTR [rsp+0x470]
    9a6a:	00 
    9a6b:	48 be 00 00 00 00 00 	movabs rsi,0x0
    9a72:	00 00 00 
			9a6d: R_X86_64_64	callback_return_addr
    9a75:	bf 01 00 00 00       	mov    edi,0x1
    9a7a:	4b 89 7c f5 f8       	mov    QWORD PTR [r13+r14*8-0x8],rdi
    9a7f:	bf 01 00 00 00       	mov    edi,0x1
    9a84:	4b 89 7c f5 f0       	mov    QWORD PTR [r13+r14*8-0x10],rdi
    9a89:	4b 89 74 f5 e8       	mov    QWORD PTR [r13+r14*8-0x18],rsi
    9a8e:	48 8b b4 24 18 08 00 	mov    rsi,QWORD PTR [rsp+0x818]
    9a95:	00 
    9a96:	4c 89 a6 98 00 00 00 	mov    QWORD PTR [rsi+0x98],r12
    9a9d:	48 89 df             	mov    rdi,rbx
    9aa0:	4c 89 fe             	mov    rsi,r15
    9aa3:	48 b8 00 00 00 00 00 	movabs rax,0x0
    9aaa:	00 00 00 
			9aa5: R_X86_64_64	apply_n
    9aad:	48 89 bc 24 60 04 00 	mov    QWORD PTR [rsp+0x460],rdi
    9ab4:	00 
    9ab5:	ff d0                	call   rax
    9ab7:	48 89 84 24 60 04 00 	mov    QWORD PTR [rsp+0x460],rax
    9abe:	00 
    9abf:	48 8b b4 24 10 08 00 	mov    rsi,QWORD PTR [rsp+0x810]
    9ac6:	00 
    9ac7:	48 8b 7e 08          	mov    rdi,QWORD PTR [rsi+0x8]
    9acb:	48 8b b4 24 00 08 00 	mov    rsi,QWORD PTR [rsp+0x800]
    9ad2:	00 
    9ad3:	48 b8 00 00 00 00 00 	movabs rax,0x0
    9ada:	00 00 00 
			9ad5: R_X86_64_64	apply1
    9add:	48 89 b4 24 70 04 00 	mov    QWORD PTR [rsp+0x470],rsi
    9ae4:	00 
    9ae5:	48 89 bc 24 80 04 00 	mov    QWORD PTR [rsp+0x480],rdi
    9aec:	00 
    9aed:	ff d0                	call   rax
    9aef:	48 89 c3             	mov    rbx,rax
    9af2:	49 89 d6             	mov    r14,rdx
    9af5:	4d 85 f6             	test   r14,r14
    9af8:	0f 85 0d 00 00 00    	jne    9b0b <big_makeblock+0x9b0b>
    9afe:	48 89 9c 24 68 06 00 	mov    QWORD PTR [rsp+0x668],rbx
    9b05:	00 
    9b06:	e9 9d 00 00 00       	jmp    9ba8 <big_makeblock+0x9ba8>
    9b0b:	48 8b b4 24 18 08 00 	mov    rsi,QWORD PTR [rsp+0x818]
    9b12:	00 
    9b13:	4c 8b ae 98 00 00 00 	mov    r13,QWORD PTR [rsi+0x98]
    9b1a:	4d 89 f7             	mov    r15,r14
    9b1d:	49 83 c7 ff          	add    r15,0xffffffffffffffff
    9b21:	4c 89 f2             	mov    rdx,r14
    9b24:	48 c1 e2 03          	shl    rdx,0x3
    9b28:	4d 89 ec             	mov    r12,r13
    9b2b:	49 01 d4             	add    r12,rdx
    9b2e:	4c 89 ef             	mov    rdi,r13
    9b31:	48 83 c7 e8          	add    rdi,0xffffffffffffffe8
    9b35:	4c 89 ee             	mov    rsi,r13
    9b38:	48 b8 00 00 00 00 00 	movabs rax,0x0
    9b3f:	00 00 00 
			9b3a: R_X86_64_64	memmove
    9b42:	48 89 9c 24 70 04 00 	mov    QWORD PTR [rsp+0x470],rbx
    9b49:	00 
    9b4a:	ff d0                	call   rax
    9b4c:	48 8b 9c 24 70 04 00 	mov    rbx,QWORD PTR [rsp+0x470]
    9b53:	00 
    9b54:	48 be 00 00 00 00 00 	movabs rsi,0x0
    9b5b:	00 00 00 
			9b56: R_X86_64_64	callback_return_addr
    9b5e:	bf 01 00 00 00       	mov    edi,0x1
    9b63:	4b 89 7c f5 f8       	mov    QWORD PTR [r13+r14*8-0x8],rdi
    9b68:	bf 01 00 00 00       	mov    edi,0x1
    9b6d:	4b 89 7c f5 f0       	mov    QWORD PTR [r13+r14*8-0x10],rdi
    9b72:	4b 89 74 f5 e8       	mov    QWORD PTR [r13+r14*8-0x18],rsi
    9b77:	48 8b b4 24 18 08 00 	mov    rsi,QWORD PTR [rsp+0x818]
    9b7e:	00 
    9b7f:	4c 89 a6 98 00 00 00 	mov    QWORD PTR [rsi+0x98],r12
    9b86:	48 89 df             	mov    rdi,rbx
    9b89:	4c 89 fe             	mov    rsi,r15
    9b8c:	48 b8 00 00 00 00 00 	movabs rax,0x0
    9b93:	00 00 00 
			9b8e: R_X86_64_64	apply_n
    9b96:	48 89 bc 24 70 04 00 	mov    QWORD PTR [rsp+0x470],rdi
    9b9d:	00 
    9b9e:	ff d0                	call   rax
    9ba0:	48 89 84 24 68 06 00 	mov    QWORD PTR [rsp+0x668],rax
    9ba7:	00 
    9ba8:	48 8b b4 24 10 08 00 	mov    rsi,QWORD PTR [rsp+0x810]
    9baf:	00 
    9bb0:	48 8b 7e 08          	mov    rdi,QWORD PTR [rsi+0x8]
    9bb4:	48 8b b4 24 00 08 00 	mov    rsi,QWORD PTR [rsp+0x800]
    9bbb:	00 
    9bbc:	48 b8 00 00 00 00 00 	movabs rax,0x0
    9bc3:	00 00 00 
			9bbe: R_X86_64_64	apply1
    9bc6:	48 89 b4 24 70 04 00 	mov    QWORD PTR [rsp+0x470],rsi
    9bcd:	00 
    9bce:	48 89 bc 24 80 04 00 	mov    QWORD PTR [rsp+0x480],rdi
    9bd5:	00 
    9bd6:	ff d0                	call   rax
    9bd8:	49 89 c7             	mov    r15,rax
    9bdb:	49 89 d6             	mov    r14,rdx
    9bde:	4d 85 f6             	test   r14,r14
    9be1:	0f 85 0d 00 00 00    	jne    9bf4 <big_makeblock+0x9bf4>
    9be7:	4c 89 bc 24 70 04 00 	mov    QWORD PTR [rsp+0x470],r15
    9bee:	00 
    9bef:	e9 9d 00 00 00       	jmp    9c91 <big_makeblock+0x9c91>
    9bf4:	48 8b b4 24 18 08 00 	mov    rsi,QWORD PTR [rsp+0x818]
    9bfb:	00 
    9bfc:	4c 8b ae 98 00 00 00 	mov    r13,QWORD PTR [rsi+0x98]
    9c03:	4c 89 f3             	mov    rbx,r14
    9c06:	48 83 c3 ff          	add    rbx,0xffffffffffffffff
    9c0a:	4c 89 f2             	mov    rdx,r14
    9c0d:	48 c1 e2 03          	shl    rdx,0x3
    9c11:	4d 89 ec             	mov    r12,r13
    9c14:	49 01 d4             	add    r12,rdx
    9c17:	4c 89 ef             	mov    rdi,r13
    9c1a:	48 83 c7 e8          	add    rdi,0xffffffffffffffe8
    9c1e:	4c 89 ee             	mov    rsi,r13
    9c21:	48 b8 00 00 00 00 00 	movabs rax,0x0
    9c28:	00 00 00 
			9c23: R_X86_64_64	memmove
    9c2b:	4c 89 bc 24 80 04 00 	mov    QWORD PTR [rsp+0x480],r15
    9c32:	00 
    9c33:	ff d0                	call   rax
    9c35:	4c 8b bc 24 80 04 00 	mov    r15,QWORD PTR [rsp+0x480]
    9c3c:	00 
    9c3d:	48 be 00 00 00 00 00 	movabs rsi,0x0
    9c44:	00 00 00 
			9c3f: R_X86_64_64	callback_return_addr
    9c47:	bf 01 00 00 00       	mov    edi,0x1
    9c4c:	4b 89 7c f5 f8       	mov    QWORD PTR [r13+r14*8-0x8],rdi
    9c51:	bf 01 00 00 00       	mov    edi,0x1
    9c56:	4b 89 7c f5 f0       	mov    QWORD PTR [r13+r14*8-0x10],rdi
    9c5b:	4b 89 74 f5 e8       	mov    QWORD PTR [r13+r14*8-0x18],rsi
    9c60:	48 8b b4 24 18 08 00 	mov    rsi,QWORD PTR [rsp+0x818]
    9c67:	00 
    9c68:	4c 89 a6 98 00 00 00 	mov    QWORD PTR [rsi+0x98],r12
    9c6f:	4c 89 ff             	mov    rdi,r15
    9c72:	48 89 de             	mov    rsi,rbx
    9c75:	48 b8 00 00 00 00 00 	movabs rax,0x0
    9c7c:	00 00 00 
			9c77: R_X86_64_64	apply_n
    9c7f:	48 89 bc 24 70 04 00 	mov    QWORD PTR [rsp+0x470],rdi
    9c86:	00 
    9c87:	ff d0                	call   rax
    9c89:	48 89 84 24 70 04 00 	mov    QWORD PTR [rsp+0x470],rax
    9c90:	00 
    9c91:	48 8b b4 24 10 08 00 	mov    rsi,QWORD PTR [rsp+0x810]
    9c98:	00 
    9c99:	48 8b 7e 08          	mov    rdi,QWORD PTR [rsi+0x8]
    9c9d:	48 8b b4 24 00 08 00 	mov    rsi,QWORD PTR [rsp+0x800]
    9ca4:	00 
    9ca5:	48 b8 00 00 00 00 00 	movabs rax,0x0
    9cac:	00 00 00 
			9ca7: R_X86_64_64	apply1
    9caf:	48 89 b4 24 80 04 00 	mov    QWORD PTR [rsp+0x480],rsi
    9cb6:	00 
    9cb7:	48 89 bc 24 90 04 00 	mov    QWORD PTR [rsp+0x490],rdi
    9cbe:	00 
    9cbf:	ff d0                	call   rax
    9cc1:	48 89 c3             	mov    rbx,rax
    9cc4:	49 89 d6             	mov    r14,rdx
    9cc7:	4d 85 f6             	test   r14,r14
    9cca:	0f 85 0d 00 00 00    	jne    9cdd <big_makeblock+0x9cdd>
    9cd0:	48 89 9c 24 78 06 00 	mov    QWORD PTR [rsp+0x678],rbx
    9cd7:	00 
    9cd8:	e9 9d 00 00 00       	jmp    9d7a <big_makeblock+0x9d7a>
    9cdd:	48 8b b4 24 18 08 00 	mov    rsi,QWORD PTR [rsp+0x818]
    9ce4:	00 
    9ce5:	4c 8b ae 98 00 00 00 	mov    r13,QWORD PTR [rsi+0x98]
    9cec:	4d 89 f7             	mov    r15,r14
    9cef:	49 83 c7 ff          	add    r15,0xffffffffffffffff
    9cf3:	4c 89 f2             	mov    rdx,r14
    9cf6:	48 c1 e2 03          	shl    rdx,0x3
    9cfa:	4d 89 ec             	mov    r12,r13
    9cfd:	49 01 d4             	add    r12,rdx
    9d00:	4c 89 ef             	mov    rdi,r13
    9d03:	48 83 c7 e8          	add    rdi,0xffffffffffffffe8
    9d07:	4c 89 ee             	mov    rsi,r13
    9d0a:	48 b8 00 00 00 00 00 	movabs rax,0x0
    9d11:	00 00 00 
			9d0c: R_X86_64_64	memmove
    9d14:	48 89 9c 24 80 04 00 	mov    QWORD PTR [rsp+0x480],rbx
    9d1b:	00 
    9d1c:	ff d0                	call   rax
    9d1e:	48 8b 9c 24 80 04 00 	mov    rbx,QWORD PTR [rsp+0x480]
    9d25:	00 
    9d26:	48 be 00 00 00 00 00 	movabs rsi,0x0
    9d2d:	00 00 00 
			9d28: R_X86_64_64	callback_return_addr
    9d30:	bf 01 00 00 00       	mov    edi,0x1
    9d35:	4b 89 7c f5 f8       	mov    QWORD PTR [r13+r14*8-0x8],rdi
    9d3a:	bf 01 00 00 00       	mov    edi,0x1
    9d3f:	4b 89 7c f5 f0       	mov    QWORD PTR [r13+r14*8-0x10],rdi
    9d44:	4b 89 74 f5 e8       	mov    QWORD PTR [r13+r14*8-0x18],rsi
    9d49:	48 8b b4 24 18 08 00 	mov    rsi,QWORD PTR [rsp+0x818]
    9d50:	00 
    9d51:	4c 89 a6 98 00 00 00 	mov    QWORD PTR [rsi+0x98],r12
    9d58:	48 89 df             	mov    rdi,rbx
    9d5b:	4c 89 fe             	mov    rsi,r15
    9d5e:	48 b8 00 00 00 00 00 	movabs rax,0x0
    9d65:	00 00 00 
			9d60: R_X86_64_64	apply_n
    9d68:	48 89 bc 24 80 04 00 	mov    QWORD PTR [rsp+0x480],rdi
    9d6f:	00 
    9d70:	ff d0                	call   rax
    9d72:	48 89 84 24 78 06 00 	mov    QWORD PTR [rsp+0x678],rax
    9d79:	00 
    9d7a:	48 8b b4 24 10 08 00 	mov    rsi,QWORD PTR [rsp+0x810]
    9d81:	00 
    9d82:	48 8b 7e 08          	mov    rdi,QWORD PTR [rsi+0x8]
    9d86:	48 8b b4 24 00 08 00 	mov    rsi,QWORD PTR [rsp+0x800]
    9d8d:	00 
    9d8e:	48 b8 00 00 00 00 00 	movabs rax,0x0
    9d95:	00 00 00 
			9d90: R_X86_64_64	apply1
    9d98:	48 89 b4 24 80 04 00 	mov    QWORD PTR [rsp+0x480],rsi
    9d9f:	00 
    9da0:	48 89 bc 24 90 04 00 	mov    QWORD PTR [rsp+0x490],rdi
    9da7:	00 
    9da8:	ff d0                	call   rax
    9daa:	48 89 c3             	mov    rbx,rax
    9dad:	49 89 d6             	mov    r14,rdx
    9db0:	4d 85 f6             	test   r14,r14
    9db3:	0f 85 0d 00 00 00    	jne    9dc6 <big_makeblock+0x9dc6>
    9db9:	48 89 9c 24 80 04 00 	mov    QWORD PTR [rsp+0x480],rbx
    9dc0:	00 
    9dc1:	e9 9d 00 00 00       	jmp    9e63 <big_makeblock+0x9e63>
    9dc6:	48 8b b4 24 18 08 00 	mov    rsi,QWORD PTR [rsp+0x818]
    9dcd:	00 
    9dce:	4c 8b ae 98 00 00 00 	mov    r13,QWORD PTR [rsi+0x98]
    9dd5:	4d 89 f7             	mov    r15,r14
    9dd8:	49 83 c7 ff          	add    r15,0xffffffffffffffff
    9ddc:	4c 89 f2             	mov    rdx,r14
    9ddf:	48 c1 e2 03          	shl    rdx,0x3
    9de3:	4d 89 ec             	mov    r12,r13
    9de6:	49 01 d4             	add    r12,rdx
    9de9:	4c 89 ef             	mov    rdi,r13
    9dec:	48 83 c7 e8          	add    rdi,0xffffffffffffffe8
    9df0:	4c 89 ee             	mov    rsi,r13
    9df3:	48 b8 00 00 00 00 00 	movabs rax,0x0
    9dfa:	00 00 00 
			9df5: R_X86_64_64	memmove
    9dfd:	48 89 9c 24 90 04 00 	mov    QWORD PTR [rsp+0x490],rbx
    9e04:	00 
    9e05:	ff d0                	call   rax
    9e07:	48 8b 9c 24 90 04 00 	mov    rbx,QWORD PTR [rsp+0x490]
    9e0e:	00 
    9e0f:	48 be 00 00 00 00 00 	movabs rsi,0x0
    9e16:	00 00 00 
			9e11: R_X86_64_64	callback_return_addr
    9e19:	bf 01 00 00 00       	mov    edi,0x1
    9e1e:	4b 89 7c f5 f8       	mov    QWORD PTR [r13+r14*8-0x8],rdi
    9e23:	bf 01 00 00 00       	mov    edi,0x1
    9e28:	4b 89 7c f5 f0       	mov    QWORD PTR [r13+r14*8-0x10],rdi
    9e2d:	4b 89 74 f5 e8       	mov    QWORD PTR [r13+r14*8-0x18],rsi
    9e32:	48 8b b4 24 18 08 00 	mov    rsi,QWORD PTR [rsp+0x818]
    9e39:	00 
    9e3a:	4c 89 a6 98 00 00 00 	mov    QWORD PTR [rsi+0x98],r12
    9e41:	48 89 df             	mov    rdi,rbx
    9e44:	4c 89 fe             	mov    rsi,r15
    9e47:	48 b8 00 00 00 00 00 	movabs rax,0x0
    9e4e:	00 00 00 
			9e49: R_X86_64_64	apply_n
    9e51:	48 89 bc 24 80 04 00 	mov    QWORD PTR [rsp+0x480],rdi
    9e58:	00 
    9e59:	ff d0                	call   rax
    9e5b:	48 89 84 24 80 04 00 	mov    QWORD PTR [rsp+0x480],rax
    9e62:	00 
    9e63:	48 8b b4 24 10 08 00 	mov    rsi,QWORD PTR [rsp+0x810]
    9e6a:	00 
    9e6b:	48 8b 7e 08          	mov    rdi,QWORD PTR [rsi+0x8]
    9e6f:	48 8b b4 24 00 08 00 	mov    rsi,QWORD PTR [rsp+0x800]
    9e76:	00 
    9e77:	48 b8 00 00 00 00 00 	movabs rax,0x0
    9e7e:	00 00 00 
			9e79: R_X86_64_64	apply1
    9e81:	48 89 b4 24 90 04 00 	mov    QWORD PTR [rsp+0x490],rsi
    9e88:	00 
    9e89:	48 89 bc 24 a0 04 00 	mov    QWORD PTR [rsp+0x4a0],rdi
    9e90:	00 
    9e91:	ff d0                	call   rax
    9e93:	49 89 c7             	mov    r15,rax
    9e96:	49 89 d6             	mov    r14,rdx
    9e99:	4d 85 f6             	test   r14,r14
    9e9c:	0f 85 0d 00 00 00    	jne    9eaf <big_makeblock+0x9eaf>
    9ea2:	4c 89 bc 24 88 06 00 	mov    QWORD PTR [rsp+0x688],r15
    9ea9:	00 
    9eaa:	e9 9d 00 00 00       	jmp    9f4c <big_makeblock+0x9f4c>
    9eaf:	48 8b b4 24 18 08 00 	mov    rsi,QWORD PTR [rsp+0x818]
    9eb6:	00 
    9eb7:	4c 8b ae 98 00 00 00 	mov    r13,QWORD PTR [rsi+0x98]
    9ebe:	4c 89 f3             	mov    rbx,r14
    9ec1:	48 83 c3 ff          	add    rbx,0xffffffffffffffff
    9ec5:	4c 89 f2             	mov    rdx,r14
    9ec8:	48 c1 e2 03          	shl    rdx,0x3
    9ecc:	4d 89 ec             	mov    r12,r13
    9ecf:	49 01 d4             	add    r12,rdx
    9ed2:	4c 89 ef             	mov    rdi,r13
    9ed5:	48 83 c7 e8          	add    rdi,0xffffffffffffffe8
    9ed9:	4c 89 ee             	mov    rsi,r13
    9edc:	48 b8 00 00 00 00 00 	movabs rax,0x0
    9ee3:	00 00 00 
			9ede: R_X86_64_64	memmove
    9ee6:	4c 89 bc 24 90 04 00 	mov    QWORD PTR [rsp+0x490],r15
    9eed:	00 
    9eee:	ff d0                	call   rax
    9ef0:	4c 8b bc 24 90 04 00 	mov    r15,QWORD PTR [rsp+0x490]
    9ef7:	00 
    9ef8:	48 be 00 00 00 00 00 	movabs rsi,0x0
    9eff:	00 00 00 
			9efa: R_X86_64_64	callback_return_addr
    9f02:	bf 01 00 00 00       	mov    edi,0x1
    9f07:	4b 89 7c f5 f8       	mov    QWORD PTR [r13+r14*8-0x8],rdi
    9f0c:	bf 01 00 00 00       	mov    edi,0x1
    9f11:	4b 89 7c f5 f0       	mov    QWORD PTR [r13+r14*8-0x10],rdi
    9f16:	4b 89 74 f5 e8       	mov    QWORD PTR [r13+r14*8-0x18],rsi
    9f1b:	48 8b b4 24 18 08 00 	mov    rsi,QWORD PTR [rsp+0x818]
    9f22:	00 
    9f23:	4c 89 a6 98 00 00 00 	mov    QWORD PTR [rsi+0x98],r12
    9f2a:	4c 89 ff             	mov    rdi,r15
    9f2d:	48 89 de             	mov    rsi,rbx
    9f30:	48 b8 00 00 00 00 00 	movabs rax,0x0
    9f37:	00 00 00 
			9f32: R_X86_64_64	apply_n
    9f3a:	48 89 bc 24 90 04 00 	mov    QWORD PTR [rsp+0x490],rdi
    9f41:	00 
    9f42:	ff d0                	call   rax
    9f44:	48 89 84 24 88 06 00 	mov    QWORD PTR [rsp+0x688],rax
    9f4b:	00 
    9f4c:	48 8b b4 24 10 08 00 	mov    rsi,QWORD PTR [rsp+0x810]
    9f53:	00 
    9f54:	48 8b 7e 08          	mov    rdi,QWORD PTR [rsi+0x8]
    9f58:	48 8b b4 24 00 08 00 	mov    rsi,QWORD PTR [rsp+0x800]
    9f5f:	00 
    9f60:	48 b8 00 00 00 00 00 	movabs rax,0x0
    9f67:	00 00 00 
			9f62: R_X86_64_64	apply1
    9f6a:	48 89 b4 24 90 04 00 	mov    QWORD PTR [rsp+0x490],rsi
    9f71:	00 
    9f72:	48 89 bc 24 a0 04 00 	mov    QWORD PTR [rsp+0x4a0],rdi
    9f79:	00 
    9f7a:	ff d0                	call   rax
    9f7c:	48 89 c3             	mov    rbx,rax
    9f7f:	49 89 d6             	mov    r14,rdx
    9f82:	4d 85 f6             	test   r14,r14
    9f85:	0f 85 0d 00 00 00    	jne    9f98 <big_makeblock+0x9f98>
    9f8b:	48 89 9c 24 90 04 00 	mov    QWORD PTR [rsp+0x490],rbx
    9f92:	00 
    9f93:	e9 9d 00 00 00       	jmp    a035 <big_makeblock+0xa035>
    9f98:	48 8b b4 24 18 08 00 	mov    rsi,QWORD PTR [rsp+0x818]
    9f9f:	00 
    9fa0:	4c 8b ae 98 00 00 00 	mov    r13,QWORD PTR [rsi+0x98]
    9fa7:	4d 89 f7             	mov    r15,r14
    9faa:	49 83 c7 ff          	add    r15,0xffffffffffffffff
    9fae:	4c 89 f2             	mov    rdx,r14
    9fb1:	48 c1 e2 03          	shl    rdx,0x3
    9fb5:	4d 89 ec             	mov    r12,r13
    9fb8:	49 01 d4             	add    r12,rdx
    9fbb:	4c 89 ef             	mov    rdi,r13
    9fbe:	48 83 c7 e8          	add    rdi,0xffffffffffffffe8
    9fc2:	4c 89 ee             	mov    rsi,r13
    9fc5:	48 b8 00 00 00 00 00 	movabs rax,0x0
    9fcc:	00 00 00 
			9fc7: R_X86_64_64	memmove
    9fcf:	48 89 9c 24 a0 04 00 	mov    QWORD PTR [rsp+0x4a0],rbx
    9fd6:	00 
    9fd7:	ff d0                	call   rax
    9fd9:	48 8b 9c 24 a0 04 00 	mov    rbx,QWORD PTR [rsp+0x4a0]
    9fe0:	00 
    9fe1:	48 be 00 00 00 00 00 	movabs rsi,0x0
    9fe8:	00 00 00 
			9fe3: R_X86_64_64	callback_return_addr
    9feb:	bf 01 00 00 00       	mov    edi,0x1
    9ff0:	4b 89 7c f5 f8       	mov    QWORD PTR [r13+r14*8-0x8],rdi
    9ff5:	bf 01 00 00 00       	mov    edi,0x1
    9ffa:	4b 89 7c f5 f0       	mov    QWORD PTR [r13+r14*8-0x10],rdi
    9fff:	4b 89 74 f5 e8       	mov    QWORD PTR [r13+r14*8-0x18],rsi
    a004:	48 8b b4 24 18 08 00 	mov    rsi,QWORD PTR [rsp+0x818]
    a00b:	00 
    a00c:	4c 89 a6 98 00 00 00 	mov    QWORD PTR [rsi+0x98],r12
    a013:	48 89 df             	mov    rdi,rbx
    a016:	4c 89 fe             	mov    rsi,r15
    a019:	48 b8 00 00 00 00 00 	movabs rax,0x0
    a020:	00 00 00 
			a01b: R_X86_64_64	apply_n
    a023:	48 89 bc 24 90 04 00 	mov    QWORD PTR [rsp+0x490],rdi
    a02a:	00 
    a02b:	ff d0                	call   rax
    a02d:	48 89 84 24 90 04 00 	mov    QWORD PTR [rsp+0x490],rax
    a034:	00 
    a035:	48 8b b4 24 10 08 00 	mov    rsi,QWORD PTR [rsp+0x810]
    a03c:	00 
    a03d:	48 8b 7e 08          	mov    rdi,QWORD PTR [rsi+0x8]
    a041:	48 8b b4 24 00 08 00 	mov    rsi,QWORD PTR [rsp+0x800]
    a048:	00 
    a049:	48 b8 00 00 00 00 00 	movabs rax,0x0
    a050:	00 00 00 
			a04b: R_X86_64_64	apply1
    a053:	48 89 b4 24 a0 04 00 	mov    QWORD PTR [rsp+0x4a0],rsi
    a05a:	00 
    a05b:	48 89 bc 24 b0 04 00 	mov    QWORD PTR [rsp+0x4b0],rdi
    a062:	00 
    a063:	ff d0                	call   rax
    a065:	48 89 c3             	mov    rbx,rax
    a068:	49 89 d6             	mov    r14,rdx
    a06b:	4d 85 f6             	test   r14,r14
    a06e:	0f 85 0d 00 00 00    	jne    a081 <big_makeblock+0xa081>
    a074:	48 89 9c 24 98 06 00 	mov    QWORD PTR [rsp+0x698],rbx
    a07b:	00 
    a07c:	e9 9d 00 00 00       	jmp    a11e <big_makeblock+0xa11e>
    a081:	48 8b b4 24 18 08 00 	mov    rsi,QWORD PTR [rsp+0x818]
    a088:	00 
    a089:	4c 8b ae 98 00 00 00 	mov    r13,QWORD PTR [rsi+0x98]
    a090:	4d 89 f7             	mov    r15,r14
    a093:	49 83 c7 ff          	add    r15,0xffffffffffffffff
    a097:	4c 89 f2             	mov    rdx,r14
    a09a:	48 c1 e2 03          	shl    rdx,0x3
    a09e:	4d 89 ec             	mov    r12,r13
    a0a1:	49 01 d4             	add    r12,rdx
    a0a4:	4c 89 ef             	mov    rdi,r13
    a0a7:	48 83 c7 e8          	add    rdi,0xffffffffffffffe8
    a0ab:	4c 89 ee             	mov    rsi,r13
    a0ae:	48 b8 00 00 00 00 00 	movabs rax,0x0
    a0b5:	00 00 00 
			a0b0: R_X86_64_64	memmove
    a0b8:	48 89 9c 24 a0 04 00 	mov    QWORD PTR [rsp+0x4a0],rbx
    a0bf:	00 
    a0c0:	ff d0                	call   rax
    a0c2:	48 8b 9c 24 a0 04 00 	mov    rbx,QWORD PTR [rsp+0x4a0]
    a0c9:	00 
    a0ca:	48 be 00 00 00 00 00 	movabs rsi,0x0
    a0d1:	00 00 00 
			a0cc: R_X86_64_64	callback_return_addr
    a0d4:	bf 01 00 00 00       	mov    edi,0x1
    a0d9:	4b 89 7c f5 f8       	mov    QWORD PTR [r13+r14*8-0x8],rdi
    a0de:	bf 01 00 00 00       	mov    edi,0x1
    a0e3:	4b 89 7c f5 f0       	mov    QWORD PTR [r13+r14*8-0x10],rdi
    a0e8:	4b 89 74 f5 e8       	mov    QWORD PTR [r13+r14*8-0x18],rsi
    a0ed:	48 8b b4 24 18 08 00 	mov    rsi,QWORD PTR [rsp+0x818]
    a0f4:	00 
    a0f5:	4c 89 a6 98 00 00 00 	mov    QWORD PTR [rsi+0x98],r12
    a0fc:	48 89 df             	mov    rdi,rbx
    a0ff:	4c 89 fe             	mov    rsi,r15
    a102:	48 b8 00 00 00 00 00 	movabs rax,0x0
    a109:	00 00 00 
			a104: R_X86_64_64	apply_n
    a10c:	48 89 bc 24 a0 04 00 	mov    QWORD PTR [rsp+0x4a0],rdi
    a113:	00 
    a114:	ff d0                	call   rax
    a116:	48 89 84 24 98 06 00 	mov    QWORD PTR [rsp+0x698],rax
    a11d:	00 
    a11e:	48 8b b4 24 10 08 00 	mov    rsi,QWORD PTR [rsp+0x810]
    a125:	00 
    a126:	48 8b 7e 08          	mov    rdi,QWORD PTR [rsi+0x8]
    a12a:	48 8b b4 24 00 08 00 	mov    rsi,QWORD PTR [rsp+0x800]
    a131:	00 
    a132:	48 b8 00 00 00 00 00 	movabs rax,0x0
    a139:	00 00 00 
			a134: R_X86_64_64	apply1
    a13c:	48 89 b4 24 a0 04 00 	mov    QWORD PTR [rsp+0x4a0],rsi
    a143:	00 
    a144:	48 89 bc 24 b0 04 00 	mov    QWORD PTR [rsp+0x4b0],rdi
    a14b:	00 
    a14c:	ff d0                	call   rax
    a14e:	49 89 c7             	mov    r15,rax
    a151:	49 89 d6             	mov    r14,rdx
    a154:	4d 85 f6             	test   r14,r14
    a157:	0f 85 0d 00 00 00    	jne    a16a <big_makeblock+0xa16a>
    a15d:	4c 89 bc 24 a0 04 00 	mov    QWORD PTR [rsp+0x4a0],r15
    a164:	00 
    a165:	e9 9d 00 00 00       	jmp    a207 <big_makeblock+0xa207>
    a16a:	48 8b b4 24 18 08 00 	mov    rsi,QWORD PTR [rsp+0x818]
    a171:	00 
    a172:	4c 8b ae 98 00 00 00 	mov    r13,QWORD PTR [rsi+0x98]
    a179:	4c 89 f3             	mov    rbx,r14
    a17c:	48 83 c3 ff          	add    rbx,0xffffffffffffffff
    a180:	4c 89 f2             	mov    rdx,r14
    a183:	48 c1 e2 03          	shl    rdx,0x3
    a187:	4d 89 ec             	mov    r12,r13
    a18a:	49 01 d4             	add    r12,rdx
    a18d:	4c 89 ef             	mov    rdi,r13
    a190:	48 83 c7 e8          	add    rdi,0xffffffffffffffe8
    a194:	4c 89 ee             	mov    rsi,r13
    a197:	48 b8 00 00 00 00 00 	movabs rax,0x0
    a19e:	00 00 00 
			a199: R_X86_64_64	memmove
    a1a1:	4c 89 bc 24 b0 04 00 	mov    QWORD PTR [rsp+0x4b0],r15
    a1a8:	00 
    a1a9:	ff d0                	call   rax
    a1ab:	4c 8b bc 24 b0 04 00 	mov    r15,QWORD PTR [rsp+0x4b0]
    a1b2:	00 
    a1b3:	48 be 00 00 00 00 00 	movabs rsi,0x0
    a1ba:	00 00 00 
			a1b5: R_X86_64_64	callback_return_addr
    a1bd:	bf 01 00 00 00       	mov    edi,0x1
    a1c2:	4b 89 7c f5 f8       	mov    QWORD PTR [r13+r14*8-0x8],rdi
    a1c7:	bf 01 00 00 00       	mov    edi,0x1
    a1cc:	4b 89 7c f5 f0       	mov    QWORD PTR [r13+r14*8-0x10],rdi
    a1d1:	4b 89 74 f5 e8       	mov    QWORD PTR [r13+r14*8-0x18],rsi
    a1d6:	48 8b b4 24 18 08 00 	mov    rsi,QWORD PTR [rsp+0x818]
    a1dd:	00 
    a1de:	4c 89 a6 98 00 00 00 	mov    QWORD PTR [rsi+0x98],r12
    a1e5:	4c 89 ff             	mov    rdi,r15
    a1e8:	48 89 de             	mov    rsi,rbx
    a1eb:	48 b8 00 00 00 00 00 	movabs rax,0x0
    a1f2:	00 00 00 
			a1ed: R_X86_64_64	apply_n
    a1f5:	48 89 bc 24 a0 04 00 	mov    QWORD PTR [rsp+0x4a0],rdi
    a1fc:	00 
    a1fd:	ff d0                	call   rax
    a1ff:	48 89 84 24 a0 04 00 	mov    QWORD PTR [rsp+0x4a0],rax
    a206:	00 
    a207:	48 8b b4 24 10 08 00 	mov    rsi,QWORD PTR [rsp+0x810]
    a20e:	00 
    a20f:	48 8b 7e 08          	mov    rdi,QWORD PTR [rsi+0x8]
    a213:	48 8b b4 24 00 08 00 	mov    rsi,QWORD PTR [rsp+0x800]
    a21a:	00 
    a21b:	48 b8 00 00 00 00 00 	movabs rax,0x0
    a222:	00 00 00 
			a21d: R_X86_64_64	apply1
    a225:	48 89 b4 24 b0 04 00 	mov    QWORD PTR [rsp+0x4b0],rsi
    a22c:	00 
    a22d:	48 89 bc 24 c0 04 00 	mov    QWORD PTR [rsp+0x4c0],rdi
    a234:	00 
    a235:	ff d0                	call   rax
    a237:	48 89 c3             	mov    rbx,rax
    a23a:	49 89 d6             	mov    r14,rdx
    a23d:	4d 85 f6             	test   r14,r14
    a240:	0f 85 0d 00 00 00    	jne    a253 <big_makeblock+0xa253>
    a246:	48 89 9c 24 a8 06 00 	mov    QWORD PTR [rsp+0x6a8],rbx
    a24d:	00 
    a24e:	e9 9d 00 00 00       	jmp    a2f0 <big_makeblock+0xa2f0>
    a253:	48 8b b4 24 18 08 00 	mov    rsi,QWORD PTR [rsp+0x818]
    a25a:	00 
    a25b:	4c 8b ae 98 00 00 00 	mov    r13,QWORD PTR [rsi+0x98]
    a262:	4d 89 f7             	mov    r15,r14
    a265:	49 83 c7 ff          	add    r15,0xffffffffffffffff
    a269:	4c 89 f2             	mov    rdx,r14
    a26c:	48 c1 e2 03          	shl    rdx,0x3
    a270:	4d 89 ec             	mov    r12,r13
    a273:	49 01 d4             	add    r12,rdx
    a276:	4c 89 ef             	mov    rdi,r13
    a279:	48 83 c7 e8          	add    rdi,0xffffffffffffffe8
    a27d:	4c 89 ee             	mov    rsi,r13
    a280:	48 b8 00 00 00 00 00 	movabs rax,0x0
    a287:	00 00 00 
			a282: R_X86_64_64	memmove
    a28a:	48 89 9c 24 b0 04 00 	mov    QWORD PTR [rsp+0x4b0],rbx
    a291:	00 
    a292:	ff d0                	call   rax
    a294:	48 8b 9c 24 b0 04 00 	mov    rbx,QWORD PTR [rsp+0x4b0]
    a29b:	00 
    a29c:	48 be 00 00 00 00 00 	movabs rsi,0x0
    a2a3:	00 00 00 
			a29e: R_X86_64_64	callback_return_addr
    a2a6:	bf 01 00 00 00       	mov    edi,0x1
    a2ab:	4b 89 7c f5 f8       	mov    QWORD PTR [r13+r14*8-0x8],rdi
    a2b0:	bf 01 00 00 00       	mov    edi,0x1
    a2b5:	4b 89 7c f5 f0       	mov    QWORD PTR [r13+r14*8-0x10],rdi
    a2ba:	4b 89 74 f5 e8       	mov    QWORD PTR [r13+r14*8-0x18],rsi
    a2bf:	48 8b b4 24 18 08 00 	mov    rsi,QWORD PTR [rsp+0x818]
    a2c6:	00 
    a2c7:	4c 89 a6 98 00 00 00 	mov    QWORD PTR [rsi+0x98],r12
    a2ce:	48 89 df             	mov    rdi,rbx
    a2d1:	4c 89 fe             	mov    rsi,r15
    a2d4:	48 b8 00 00 00 00 00 	movabs rax,0x0
    a2db:	00 00 00 
			a2d6: R_X86_64_64	apply_n
    a2de:	48 89 bc 24 b0 04 00 	mov    QWORD PTR [rsp+0x4b0],rdi
    a2e5:	00 
    a2e6:	ff d0                	call   rax
    a2e8:	48 89 84 24 a8 06 00 	mov    QWORD PTR [rsp+0x6a8],rax
    a2ef:	00 
    a2f0:	48 8b b4 24 10 08 00 	mov    rsi,QWORD PTR [rsp+0x810]
    a2f7:	00 
    a2f8:	48 8b 7e 08          	mov    rdi,QWORD PTR [rsi+0x8]
    a2fc:	48 8b b4 24 00 08 00 	mov    rsi,QWORD PTR [rsp+0x800]
    a303:	00 
    a304:	48 b8 00 00 00 00 00 	movabs rax,0x0
    a30b:	00 00 00 
			a306: R_X86_64_64	apply1
    a30e:	48 89 b4 24 b0 04 00 	mov    QWORD PTR [rsp+0x4b0],rsi
    a315:	00 
    a316:	48 89 bc 24 c0 04 00 	mov    QWORD PTR [rsp+0x4c0],rdi
    a31d:	00 
    a31e:	ff d0                	call   rax
    a320:	48 89 c3             	mov    rbx,rax
    a323:	49 89 d6             	mov    r14,rdx
    a326:	4d 85 f6             	test   r14,r14
    a329:	0f 85 0d 00 00 00    	jne    a33c <big_makeblock+0xa33c>
    a32f:	48 89 9c 24 b0 04 00 	mov    QWORD PTR [rsp+0x4b0],rbx
    a336:	00 
    a337:	e9 9d 00 00 00       	jmp    a3d9 <big_makeblock+0xa3d9>
    a33c:	48 8b b4 24 18 08 00 	mov    rsi,QWORD PTR [rsp+0x818]
    a343:	00 
    a344:	4c 8b ae 98 00 00 00 	mov    r13,QWORD PTR [rsi+0x98]
    a34b:	4d 89 f7             	mov    r15,r14
    a34e:	49 83 c7 ff          	add    r15,0xffffffffffffffff
    a352:	4c 89 f2             	mov    rdx,r14
    a355:	48 c1 e2 03          	shl    rdx,0x3
    a359:	4d 89 ec             	mov    r12,r13
    a35c:	49 01 d4             	add    r12,rdx
    a35f:	4c 89 ef             	mov    rdi,r13
    a362:	48 83 c7 e8          	add    rdi,0xffffffffffffffe8
    a366:	4c 89 ee             	mov    rsi,r13
    a369:	48 b8 00 00 00 00 00 	movabs rax,0x0
    a370:	00 00 00 
			a36b: R_X86_64_64	memmove
    a373:	48 89 9c 24 c0 04 00 	mov    QWORD PTR [rsp+0x4c0],rbx
    a37a:	00 
    a37b:	ff d0                	call   rax
    a37d:	48 8b 9c 24 c0 04 00 	mov    rbx,QWORD PTR [rsp+0x4c0]
    a384:	00 
    a385:	48 be 00 00 00 00 00 	movabs rsi,0x0
    a38c:	00 00 00 
			a387: R_X86_64_64	callback_return_addr
    a38f:	bf 01 00 00 00       	mov    edi,0x1
    a394:	4b 89 7c f5 f8       	mov    QWORD PTR [r13+r14*8-0x8],rdi
    a399:	bf 01 00 00 00       	mov    edi,0x1
    a39e:	4b 89 7c f5 f0       	mov    QWORD PTR [r13+r14*8-0x10],rdi
    a3a3:	4b 89 74 f5 e8       	mov    QWORD PTR [r13+r14*8-0x18],rsi
    a3a8:	48 8b b4 24 18 08 00 	mov    rsi,QWORD PTR [rsp+0x818]
    a3af:	00 
    a3b0:	4c 89 a6 98 00 00 00 	mov    QWORD PTR [rsi+0x98],r12
    a3b7:	48 89 df             	mov    rdi,rbx
    a3ba:	4c 89 fe             	mov    rsi,r15
    a3bd:	48 b8 00 00 00 00 00 	movabs rax,0x0
    a3c4:	00 00 00 
			a3bf: R_X86_64_64	apply_n
    a3c7:	48 89 bc 24 b0 04 00 	mov    QWORD PTR [rsp+0x4b0],rdi
    a3ce:	00 
    a3cf:	ff d0                	call   rax
    a3d1:	48 89 84 24 b0 04 00 	mov    QWORD PTR [rsp+0x4b0],rax
    a3d8:	00 
    a3d9:	48 8b b4 24 10 08 00 	mov    rsi,QWORD PTR [rsp+0x810]
    a3e0:	00 
    a3e1:	48 8b 7e 08          	mov    rdi,QWORD PTR [rsi+0x8]
    a3e5:	48 8b b4 24 00 08 00 	mov    rsi,QWORD PTR [rsp+0x800]
    a3ec:	00 
    a3ed:	48 b8 00 00 00 00 00 	movabs rax,0x0
    a3f4:	00 00 00 
			a3ef: R_X86_64_64	apply1
    a3f7:	48 89 b4 24 c0 04 00 	mov    QWORD PTR [rsp+0x4c0],rsi
    a3fe:	00 
    a3ff:	48 89 bc 24 d0 04 00 	mov    QWORD PTR [rsp+0x4d0],rdi
    a406:	00 
    a407:	ff d0                	call   rax
    a409:	49 89 c7             	mov    r15,rax
    a40c:	49 89 d6             	mov    r14,rdx
    a40f:	4d 85 f6             	test   r14,r14
    a412:	0f 85 0d 00 00 00    	jne    a425 <big_makeblock+0xa425>
    a418:	4c 89 bc 24 b8 06 00 	mov    QWORD PTR [rsp+0x6b8],r15
    a41f:	00 
    a420:	e9 9d 00 00 00       	jmp    a4c2 <big_makeblock+0xa4c2>
    a425:	48 8b b4 24 18 08 00 	mov    rsi,QWORD PTR [rsp+0x818]
    a42c:	00 
    a42d:	4c 8b ae 98 00 00 00 	mov    r13,QWORD PTR [rsi+0x98]
    a434:	4c 89 f3             	mov    rbx,r14
    a437:	48 83 c3 ff          	add    rbx,0xffffffffffffffff
    a43b:	4c 89 f2             	mov    rdx,r14
    a43e:	48 c1 e2 03          	shl    rdx,0x3
    a442:	4d 89 ec             	mov    r12,r13
    a445:	49 01 d4             	add    r12,rdx
    a448:	4c 89 ef             	mov    rdi,r13
    a44b:	48 83 c7 e8          	add    rdi,0xffffffffffffffe8
    a44f:	4c 89 ee             	mov    rsi,r13
    a452:	48 b8 00 00 00 00 00 	movabs rax,0x0
    a459:	00 00 00 
			a454: R_X86_64_64	memmove
    a45c:	4c 89 bc 24 c0 04 00 	mov    QWORD PTR [rsp+0x4c0],r15
    a463:	00 
    a464:	ff d0                	call   rax
    a466:	4c 8b bc 24 c0 04 00 	mov    r15,QWORD PTR [rsp+0x4c0]
    a46d:	00 
    a46e:	48 be 00 00 00 00 00 	movabs rsi,0x0
    a475:	00 00 00 
			a470: R_X86_64_64	callback_return_addr
    a478:	bf 01 00 00 00       	mov    edi,0x1
    a47d:	4b 89 7c f5 f8       	mov    QWORD PTR [r13+r14*8-0x8],rdi
    a482:	bf 01 00 00 00       	mov    edi,0x1
    a487:	4b 89 7c f5 f0       	mov    QWORD PTR [r13+r14*8-0x10],rdi
    a48c:	4b 89 74 f5 e8       	mov    QWORD PTR [r13+r14*8-0x18],rsi
    a491:	48 8b b4 24 18 08 00 	mov    rsi,QWORD PTR [rsp+0x818]
    a498:	00 
    a499:	4c 89 a6 98 00 00 00 	mov    QWORD PTR [rsi+0x98],r12
    a4a0:	4c 89 ff             	mov    rdi,r15
    a4a3:	48 89 de             	mov    rsi,rbx
    a4a6:	48 b8 00 00 00 00 00 	movabs rax,0x0
    a4ad:	00 00 00 
			a4a8: R_X86_64_64	apply_n
    a4b0:	48 89 bc 24 c0 04 00 	mov    QWORD PTR [rsp+0x4c0],rdi
    a4b7:	00 
    a4b8:	ff d0                	call   rax
    a4ba:	48 89 84 24 b8 06 00 	mov    QWORD PTR [rsp+0x6b8],rax
    a4c1:	00 
    a4c2:	48 8b b4 24 10 08 00 	mov    rsi,QWORD PTR [rsp+0x810]
    a4c9:	00 
    a4ca:	48 8b 7e 08          	mov    rdi,QWORD PTR [rsi+0x8]
    a4ce:	48 8b b4 24 00 08 00 	mov    rsi,QWORD PTR [rsp+0x800]
    a4d5:	00 
    a4d6:	48 b8 00 00 00 00 00 	movabs rax,0x0
    a4dd:	00 00 00 
			a4d8: R_X86_64_64	apply1
    a4e0:	48 89 b4 24 c0 04 00 	mov    QWORD PTR [rsp+0x4c0],rsi
    a4e7:	00 
    a4e8:	48 89 bc 24 d0 04 00 	mov    QWORD PTR [rsp+0x4d0],rdi
    a4ef:	00 
    a4f0:	ff d0                	call   rax
    a4f2:	48 89 c3             	mov    rbx,rax
    a4f5:	49 89 d6             	mov    r14,rdx
    a4f8:	4d 85 f6             	test   r14,r14
    a4fb:	0f 85 0d 00 00 00    	jne    a50e <big_makeblock+0xa50e>
    a501:	48 89 9c 24 c0 04 00 	mov    QWORD PTR [rsp+0x4c0],rbx
    a508:	00 
    a509:	e9 9d 00 00 00       	jmp    a5ab <big_makeblock+0xa5ab>
    a50e:	48 8b b4 24 18 08 00 	mov    rsi,QWORD PTR [rsp+0x818]
    a515:	00 
    a516:	4c 8b ae 98 00 00 00 	mov    r13,QWORD PTR [rsi+0x98]
    a51d:	4d 89 f7             	mov    r15,r14
    a520:	49 83 c7 ff          	add    r15,0xffffffffffffffff
    a524:	4c 89 f2             	mov    rdx,r14
    a527:	48 c1 e2 03          	shl    rdx,0x3
    a52b:	4d 89 ec             	mov    r12,r13
    a52e:	49 01 d4             	add    r12,rdx
    a531:	4c 89 ef             	mov    rdi,r13
    a534:	48 83 c7 e8          	add    rdi,0xffffffffffffffe8
    a538:	4c 89 ee             	mov    rsi,r13
    a53b:	48 b8 00 00 00 00 00 	movabs rax,0x0
    a542:	00 00 00 
			a53d: R_X86_64_64	memmove
    a545:	48 89 9c 24 d0 04 00 	mov    QWORD PTR [rsp+0x4d0],rbx
    a54c:	00 
    a54d:	ff d0                	call   rax
    a54f:	48 8b 9c 24 d0 04 00 	mov    rbx,QWORD PTR [rsp+0x4d0]
    a556:	00 
    a557:	48 be 00 00 00 00 00 	movabs rsi,0x0
    a55e:	00 00 00 
			a559: R_X86_64_64	callback_return_addr
    a561:	bf 01 00 00 00       	mov    edi,0x1
    a566:	4b 89 7c f5 f8       	mov    QWORD PTR [r13+r14*8-0x8],rdi
    a56b:	bf 01 00 00 00       	mov    edi,0x1
    a570:	4b 89 7c f5 f0       	mov    QWORD PTR [r13+r14*8-0x10],rdi
    a575:	4b 89 74 f5 e8       	mov    QWORD PTR [r13+r14*8-0x18],rsi
    a57a:	48 8b b4 24 18 08 00 	mov    rsi,QWORD PTR [rsp+0x818]
    a581:	00 
    a582:	4c 89 a6 98 00 00 00 	mov    QWORD PTR [rsi+0x98],r12
    a589:	48 89 df             	mov    rdi,rbx
    a58c:	4c 89 fe             	mov    rsi,r15
    a58f:	48 b8 00 00 00 00 00 	movabs rax,0x0
    a596:	00 00 00 
			a591: R_X86_64_64	apply_n
    a599:	48 89 bc 24 c0 04 00 	mov    QWORD PTR [rsp+0x4c0],rdi
    a5a0:	00 
    a5a1:	ff d0                	call   rax
    a5a3:	48 89 84 24 c0 04 00 	mov    QWORD PTR [rsp+0x4c0],rax
    a5aa:	00 
    a5ab:	48 8b b4 24 10 08 00 	mov    rsi,QWORD PTR [rsp+0x810]
    a5b2:	00 
    a5b3:	48 8b 7e 08          	mov    rdi,QWORD PTR [rsi+0x8]
    a5b7:	48 8b b4 24 00 08 00 	mov    rsi,QWORD PTR [rsp+0x800]
    a5be:	00 
    a5bf:	48 b8 00 00 00 00 00 	movabs rax,0x0
    a5c6:	00 00 00 
			a5c1: R_X86_64_64	apply1
    a5c9:	48 89 b4 24 d0 04 00 	mov    QWORD PTR [rsp+0x4d0],rsi
    a5d0:	00 
    a5d1:	48 89 bc 24 e0 04 00 	mov    QWORD PTR [rsp+0x4e0],rdi
    a5d8:	00 
    a5d9:	ff d0                	call   rax
    a5db:	48 89 c3             	mov    rbx,rax
    a5de:	49 89 d6             	mov    r14,rdx
    a5e1:	4d 85 f6             	test   r14,r14
    a5e4:	0f 85 0d 00 00 00    	jne    a5f7 <big_makeblock+0xa5f7>
    a5ea:	48 89 9c 24 c8 06 00 	mov    QWORD PTR [rsp+0x6c8],rbx
    a5f1:	00 
    a5f2:	e9 9d 00 00 00       	jmp    a694 <big_makeblock+0xa694>
    a5f7:	48 8b b4 24 18 08 00 	mov    rsi,QWORD PTR [rsp+0x818]
    a5fe:	00 
    a5ff:	4c 8b ae 98 00 00 00 	mov    r13,QWORD PTR [rsi+0x98]
    a606:	4d 89 f7             	mov    r15,r14
    a609:	49 83 c7 ff          	add    r15,0xffffffffffffffff
    a60d:	4c 89 f2             	mov    rdx,r14
    a610:	48 c1 e2 03          	shl    rdx,0x3
    a614:	4d 89 ec             	mov    r12,r13
    a617:	49 01 d4             	add    r12,rdx
    a61a:	4c 89 ef             	mov    rdi,r13
    a61d:	48 83 c7 e8          	add    rdi,0xffffffffffffffe8
    a621:	4c 89 ee             	mov    rsi,r13
    a624:	48 b8 00 00 00 00 00 	movabs rax,0x0
    a62b:	00 00 00 
			a626: R_X86_64_64	memmove
    a62e:	48 89 9c 24 d0 04 00 	mov    QWORD PTR [rsp+0x4d0],rbx
    a635:	00 
    a636:	ff d0                	call   rax
    a638:	48 8b 9c 24 d0 04 00 	mov    rbx,QWORD PTR [rsp+0x4d0]
    a63f:	00 
    a640:	48 be 00 00 00 00 00 	movabs rsi,0x0
    a647:	00 00 00 
			a642: R_X86_64_64	callback_return_addr
    a64a:	bf 01 00 00 00       	mov    edi,0x1
    a64f:	4b 89 7c f5 f8       	mov    QWORD PTR [r13+r14*8-0x8],rdi
    a654:	bf 01 00 00 00       	mov    edi,0x1
    a659:	4b 89 7c f5 f0       	mov    QWORD PTR [r13+r14*8-0x10],rdi
    a65e:	4b 89 74 f5 e8       	mov    QWORD PTR [r13+r14*8-0x18],rsi
    a663:	48 8b b4 24 18 08 00 	mov    rsi,QWORD PTR [rsp+0x818]
    a66a:	00 
    a66b:	4c 89 a6 98 00 00 00 	mov    QWORD PTR [rsi+0x98],r12
    a672:	48 89 df             	mov    rdi,rbx
    a675:	4c 89 fe             	mov    rsi,r15
    a678:	48 b8 00 00 00 00 00 	movabs rax,0x0
    a67f:	00 00 00 
			a67a: R_X86_64_64	apply_n
    a682:	48 89 bc 24 d0 04 00 	mov    QWORD PTR [rsp+0x4d0],rdi
    a689:	00 
    a68a:	ff d0                	call   rax
    a68c:	48 89 84 24 c8 06 00 	mov    QWORD PTR [rsp+0x6c8],rax
    a693:	00 
    a694:	48 8b b4 24 10 08 00 	mov    rsi,QWORD PTR [rsp+0x810]
    a69b:	00 
    a69c:	48 8b 7e 08          	mov    rdi,QWORD PTR [rsi+0x8]
    a6a0:	48 8b b4 24 00 08 00 	mov    rsi,QWORD PTR [rsp+0x800]
    a6a7:	00 
    a6a8:	48 b8 00 00 00 00 00 	movabs rax,0x0
    a6af:	00 00 00 
			a6aa: R_X86_64_64	apply1
    a6b2:	48 89 b4 24 d0 04 00 	mov    QWORD PTR [rsp+0x4d0],rsi
    a6b9:	00 
    a6ba:	48 89 bc 24 e0 04 00 	mov    QWORD PTR [rsp+0x4e0],rdi
    a6c1:	00 
    a6c2:	ff d0                	call   rax
    a6c4:	49 89 c7             	mov    r15,rax
    a6c7:	49 89 d6             	mov    r14,rdx
    a6ca:	4d 85 f6             	test   r14,r14
    a6cd:	0f 85 0d 00 00 00    	jne    a6e0 <big_makeblock+0xa6e0>
    a6d3:	4c 89 bc 24 d0 04 00 	mov    QWORD PTR [rsp+0x4d0],r15
    a6da:	00 
    a6db:	e9 9d 00 00 00       	jmp    a77d <big_makeblock+0xa77d>
    a6e0:	48 8b b4 24 18 08 00 	mov    rsi,QWORD PTR [rsp+0x818]
    a6e7:	00 
    a6e8:	4c 8b ae 98 00 00 00 	mov    r13,QWORD PTR [rsi+0x98]
    a6ef:	4c 89 f3             	mov    rbx,r14
    a6f2:	48 83 c3 ff          	add    rbx,0xffffffffffffffff
    a6f6:	4c 89 f2             	mov    rdx,r14
    a6f9:	48 c1 e2 03          	shl    rdx,0x3
    a6fd:	4d 89 ec             	mov    r12,r13
    a700:	49 01 d4             	add    r12,rdx
    a703:	4c 89 ef             	mov    rdi,r13
    a706:	48 83 c7 e8          	add    rdi,0xffffffffffffffe8
    a70a:	4c 89 ee             	mov    rsi,r13
    a70d:	48 b8 00 00 00 00 00 	movabs rax,0x0
    a714:	00 00 00 
			a70f: R_X86_64_64	memmove
    a717:	4c 89 bc 24 e0 04 00 	mov    QWORD PTR [rsp+0x4e0],r15
    a71e:	00 
    a71f:	ff d0                	call   rax
    a721:	4c 8b bc 24 e0 04 00 	mov    r15,QWORD PTR [rsp+0x4e0]
    a728:	00 
    a729:	48 be 00 00 00 00 00 	movabs rsi,0x0
    a730:	00 00 00 
			a72b: R_X86_64_64	callback_return_addr
    a733:	bf 01 00 00 00       	mov    edi,0x1
    a738:	4b 89 7c f5 f8       	mov    QWORD PTR [r13+r14*8-0x8],rdi
    a73d:	bf 01 00 00 00       	mov    edi,0x1
    a742:	4b 89 7c f5 f0       	mov    QWORD PTR [r13+r14*8-0x10],rdi
    a747:	4b 89 74 f5 e8       	mov    QWORD PTR [r13+r14*8-0x18],rsi
    a74c:	48 8b b4 24 18 08 00 	mov    rsi,QWORD PTR [rsp+0x818]
    a753:	00 
    a754:	4c 89 a6 98 00 00 00 	mov    QWORD PTR [rsi+0x98],r12
    a75b:	4c 89 ff             	mov    rdi,r15
    a75e:	48 89 de             	mov    rsi,rbx
    a761:	48 b8 00 00 00 00 00 	movabs rax,0x0
    a768:	00 00 00 
			a763: R_X86_64_64	apply_n
    a76b:	48 89 bc 24 d0 04 00 	mov    QWORD PTR [rsp+0x4d0],rdi
    a772:	00 
    a773:	ff d0                	call   rax
    a775:	48 89 84 24 d0 04 00 	mov    QWORD PTR [rsp+0x4d0],rax
    a77c:	00 
    a77d:	48 8b b4 24 10 08 00 	mov    rsi,QWORD PTR [rsp+0x810]
    a784:	00 
    a785:	48 8b 7e 08          	mov    rdi,QWORD PTR [rsi+0x8]
    a789:	48 8b b4 24 00 08 00 	mov    rsi,QWORD PTR [rsp+0x800]
    a790:	00 
    a791:	48 b8 00 00 00 00 00 	movabs rax,0x0
    a798:	00 00 00 
			a793: R_X86_64_64	apply1
    a79b:	48 89 b4 24 e0 04 00 	mov    QWORD PTR [rsp+0x4e0],rsi
    a7a2:	00 
    a7a3:	48 89 bc 24 f0 04 00 	mov    QWORD PTR [rsp+0x4f0],rdi
    a7aa:	00 
    a7ab:	ff d0                	call   rax
    a7ad:	48 89 c3             	mov    rbx,rax
    a7b0:	49 89 d6             	mov    r14,rdx
    a7b3:	4d 85 f6             	test   r14,r14
    a7b6:	0f 85 0d 00 00 00    	jne    a7c9 <big_makeblock+0xa7c9>
    a7bc:	48 89 9c 24 d8 07 00 	mov    QWORD PTR [rsp+0x7d8],rbx
    a7c3:	00 
    a7c4:	e9 9d 00 00 00       	jmp    a866 <big_makeblock+0xa866>
    a7c9:	48 8b b4 24 18 08 00 	mov    rsi,QWORD PTR [rsp+0x818]
    a7d0:	00 
    a7d1:	4c 8b ae 98 00 00 00 	mov    r13,QWORD PTR [rsi+0x98]
    a7d8:	4d 89 f7             	mov    r15,r14
    a7db:	49 83 c7 ff          	add    r15,0xffffffffffffffff
    a7df:	4c 89 f2             	mov    rdx,r14
    a7e2:	48 c1 e2 03          	shl    rdx,0x3
    a7e6:	4d 89 ec             	mov    r12,r13
    a7e9:	49 01 d4             	add    r12,rdx
    a7ec:	4c 89 ef             	mov    rdi,r13
    a7ef:	48 83 c7 e8          	add    rdi,0xffffffffffffffe8
    a7f3:	4c 89 ee             	mov    rsi,r13
    a7f6:	48 b8 00 00 00 00 00 	movabs rax,0x0
    a7fd:	00 00 00 
			a7f8: R_X86_64_64	memmove
    a800:	48 89 9c 24 e0 04 00 	mov    QWORD PTR [rsp+0x4e0],rbx
    a807:	00 
    a808:	ff d0                	call   rax
    a80a:	48 8b 9c 24 e0 04 00 	mov    rbx,QWORD PTR [rsp+0x4e0]
    a811:	00 
    a812:	48 be 00 00 00 00 00 	movabs rsi,0x0
    a819:	00 00 00 
			a814: R_X86_64_64	callback_return_addr
    a81c:	bf 01 00 00 00       	mov    edi,0x1
    a821:	4b 89 7c f5 f8       	mov    QWORD PTR [r13+r14*8-0x8],rdi
    a826:	bf 01 00 00 00       	mov    edi,0x1
    a82b:	4b 89 7c f5 f0       	mov    QWORD PTR [r13+r14*8-0x10],rdi
    a830:	4b 89 74 f5 e8       	mov    QWORD PTR [r13+r14*8-0x18],rsi
    a835:	48 8b b4 24 18 08 00 	mov    rsi,QWORD PTR [rsp+0x818]
    a83c:	00 
    a83d:	4c 89 a6 98 00 00 00 	mov    QWORD PTR [rsi+0x98],r12
    a844:	48 89 df             	mov    rdi,rbx
    a847:	4c 89 fe             	mov    rsi,r15
    a84a:	48 b8 00 00 00 00 00 	movabs rax,0x0
    a851:	00 00 00 
			a84c: R_X86_64_64	apply_n
    a854:	48 89 bc 24 e0 04 00 	mov    QWORD PTR [rsp+0x4e0],rdi
    a85b:	00 
    a85c:	ff d0                	call   rax
    a85e:	48 89 84 24 d8 07 00 	mov    QWORD PTR [rsp+0x7d8],rax
    a865:	00 
    a866:	48 8b b4 24 10 08 00 	mov    rsi,QWORD PTR [rsp+0x810]
    a86d:	00 
    a86e:	48 8b 7e 08          	mov    rdi,QWORD PTR [rsi+0x8]
    a872:	48 8b b4 24 00 08 00 	mov    rsi,QWORD PTR [rsp+0x800]
    a879:	00 
    a87a:	48 b8 00 00 00 00 00 	movabs rax,0x0
    a881:	00 00 00 
			a87c: R_X86_64_64	apply1
    a884:	48 89 b4 24 e0 04 00 	mov    QWORD PTR [rsp+0x4e0],rsi
    a88b:	00 
    a88c:	48 89 bc 24 f0 04 00 	mov    QWORD PTR [rsp+0x4f0],rdi
    a893:	00 
    a894:	ff d0                	call   rax
    a896:	48 89 c3             	mov    rbx,rax
    a899:	49 89 d6             	mov    r14,rdx
    a89c:	4d 85 f6             	test   r14,r14
    a89f:	0f 85 0d 00 00 00    	jne    a8b2 <big_makeblock+0xa8b2>
    a8a5:	48 89 9c 24 e0 04 00 	mov    QWORD PTR [rsp+0x4e0],rbx
    a8ac:	00 
    a8ad:	e9 9d 00 00 00       	jmp    a94f <big_makeblock+0xa94f>
    a8b2:	48 8b b4 24 18 08 00 	mov    rsi,QWORD PTR [rsp+0x818]
    a8b9:	00 
    a8ba:	4c 8b ae 98 00 00 00 	mov    r13,QWORD PTR [rsi+0x98]
    a8c1:	4d 89 f7             	mov    r15,r14
    a8c4:	49 83 c7 ff          	add    r15,0xffffffffffffffff
    a8c8:	4c 89 f2             	mov    rdx,r14
    a8cb:	48 c1 e2 03          	shl    rdx,0x3
    a8cf:	4d 89 ec             	mov    r12,r13
    a8d2:	49 01 d4             	add    r12,rdx
    a8d5:	4c 89 ef             	mov    rdi,r13
    a8d8:	48 83 c7 e8          	add    rdi,0xffffffffffffffe8
    a8dc:	4c 89 ee             	mov    rsi,r13
    a8df:	48 b8 00 00 00 00 00 	movabs rax,0x0
    a8e6:	00 00 00 
			a8e1: R_X86_64_64	memmove
    a8e9:	48 89 9c 24 f0 04 00 	mov    QWORD PTR [rsp+0x4f0],rbx
    a8f0:	00 
    a8f1:	ff d0                	call   rax
    a8f3:	48 8b 9c 24 f0 04 00 	mov    rbx,QWORD PTR [rsp+0x4f0]
    a8fa:	00 
    a8fb:	48 be 00 00 00 00 00 	movabs rsi,0x0
    a902:	00 00 00 
			a8fd: R_X86_64_64	callback_return_addr
    a905:	bf 01 00 00 00       	mov    edi,0x1
    a90a:	4b 89 7c f5 f8       	mov    QWORD PTR [r13+r14*8-0x8],rdi
    a90f:	bf 01 00 00 00       	mov    edi,0x1
    a914:	4b 89 7c f5 f0       	mov    QWORD PTR [r13+r14*8-0x10],rdi
    a919:	4b 89 74 f5 e8       	mov    QWORD PTR [r13+r14*8-0x18],rsi
    a91e:	48 8b b4 24 18 08 00 	mov    rsi,QWORD PTR [rsp+0x818]
    a925:	00 
    a926:	4c 89 a6 98 00 00 00 	mov    QWORD PTR [rsi+0x98],r12
    a92d:	48 89 df             	mov    rdi,rbx
    a930:	4c 89 fe             	mov    rsi,r15
    a933:	48 b8 00 00 00 00 00 	movabs rax,0x0
    a93a:	00 00 00 
			a935: R_X86_64_64	apply_n
    a93d:	48 89 bc 24 e0 04 00 	mov    QWORD PTR [rsp+0x4e0],rdi
    a944:	00 
    a945:	ff d0                	call   rax
    a947:	48 89 84 24 e0 04 00 	mov    QWORD PTR [rsp+0x4e0],rax
    a94e:	00 
    a94f:	48 8b b4 24 10 08 00 	mov    rsi,QWORD PTR [rsp+0x810]
    a956:	00 
    a957:	48 8b 7e 08          	mov    rdi,QWORD PTR [rsi+0x8]
    a95b:	48 8b b4 24 00 08 00 	mov    rsi,QWORD PTR [rsp+0x800]
    a962:	00 
    a963:	48 b8 00 00 00 00 00 	movabs rax,0x0
    a96a:	00 00 00 
			a965: R_X86_64_64	apply1
    a96d:	48 89 b4 24 f0 04 00 	mov    QWORD PTR [rsp+0x4f0],rsi
    a974:	00 
    a975:	48 89 bc 24 00 05 00 	mov    QWORD PTR [rsp+0x500],rdi
    a97c:	00 
    a97d:	ff d0                	call   rax
    a97f:	49 89 c7             	mov    r15,rax
    a982:	49 89 d6             	mov    r14,rdx
    a985:	4d 85 f6             	test   r14,r14
    a988:	0f 85 0d 00 00 00    	jne    a99b <big_makeblock+0xa99b>
    a98e:	4c 89 bc 24 d0 07 00 	mov    QWORD PTR [rsp+0x7d0],r15
    a995:	00 
    a996:	e9 9d 00 00 00       	jmp    aa38 <big_makeblock+0xaa38>
    a99b:	48 8b b4 24 18 08 00 	mov    rsi,QWORD PTR [rsp+0x818]
    a9a2:	00 
    a9a3:	4c 8b ae 98 00 00 00 	mov    r13,QWORD PTR [rsi+0x98]
    a9aa:	4c 89 f3             	mov    rbx,r14
    a9ad:	48 83 c3 ff          	add    rbx,0xffffffffffffffff
    a9b1:	4c 89 f2             	mov    rdx,r14
    a9b4:	48 c1 e2 03          	shl    rdx,0x3
    a9b8:	4d 89 ec             	mov    r12,r13
    a9bb:	49 01 d4             	add    r12,rdx
    a9be:	4c 89 ef             	mov    rdi,r13
    a9c1:	48 83 c7 e8          	add    rdi,0xffffffffffffffe8
    a9c5:	4c 89 ee             	mov    rsi,r13
    a9c8:	48 b8 00 00 00 00 00 	movabs rax,0x0
    a9cf:	00 00 00 
			a9ca: R_X86_64_64	memmove
    a9d2:	4c 89 bc 24 f0 04 00 	mov    QWORD PTR [rsp+0x4f0],r15
    a9d9:	00 
    a9da:	ff d0                	call   rax
    a9dc:	4c 8b bc 24 f0 04 00 	mov    r15,QWORD PTR [rsp+0x4f0]
    a9e3:	00 
    a9e4:	48 be 00 00 00 00 00 	movabs rsi,0x0
    a9eb:	00 00 00 
			a9e6: R_X86_64_64	callback_return_addr
    a9ee:	bf 01 00 00 00       	mov    edi,0x1
    a9f3:	4b 89 7c f5 f8       	mov    QWORD PTR [r13+r14*8-0x8],rdi
    a9f8:	bf 01 00 00 00       	mov    edi,0x1
    a9fd:	4b 89 7c f5 f0       	mov    QWORD PTR [r13+r14*8-0x10],rdi
    aa02:	4b 89 74 f5 e8       	mov    QWORD PTR [r13+r14*8-0x18],rsi
    aa07:	48 8b b4 24 18 08 00 	mov    rsi,QWORD PTR [rsp+0x818]
    aa0e:	00 
    aa0f:	4c 89 a6 98 00 00 00 	mov    QWORD PTR [rsi+0x98],r12
    aa16:	4c 89 ff             	mov    rdi,r15
    aa19:	48 89 de             	mov    rsi,rbx
    aa1c:	48 b8 00 00 00 00 00 	movabs rax,0x0
    aa23:	00 00 00 
			aa1e: R_X86_64_64	apply_n
    aa26:	48 89 bc 24 f0 04 00 	mov    QWORD PTR [rsp+0x4f0],rdi
    aa2d:	00 
    aa2e:	ff d0                	call   rax
    aa30:	48 89 84 24 d0 07 00 	mov    QWORD PTR [rsp+0x7d0],rax
    aa37:	00 
    aa38:	48 8b b4 24 10 08 00 	mov    rsi,QWORD PTR [rsp+0x810]
    aa3f:	00 
    aa40:	48 8b 7e 08          	mov    rdi,QWORD PTR [rsi+0x8]
    aa44:	48 8b b4 24 00 08 00 	mov    rsi,QWORD PTR [rsp+0x800]
    aa4b:	00 
    aa4c:	48 b8 00 00 00 00 00 	movabs rax,0x0
    aa53:	00 00 00 
			aa4e: R_X86_64_64	apply1
    aa56:	48 89 b4 24 f0 04 00 	mov    QWORD PTR [rsp+0x4f0],rsi
    aa5d:	00 
    aa5e:	48 89 bc 24 00 05 00 	mov    QWORD PTR [rsp+0x500],rdi
    aa65:	00 
    aa66:	ff d0                	call   rax
    aa68:	48 89 c3             	mov    rbx,rax
    aa6b:	49 89 d6             	mov    r14,rdx
    aa6e:	4d 85 f6             	test   r14,r14
    aa71:	0f 85 0d 00 00 00    	jne    aa84 <big_makeblock+0xaa84>
    aa77:	48 89 9c 24 f0 04 00 	mov    QWORD PTR [rsp+0x4f0],rbx
    aa7e:	00 
    aa7f:	e9 9d 00 00 00       	jmp    ab21 <big_makeblock+0xab21>
    aa84:	48 8b b4 24 18 08 00 	mov    rsi,QWORD PTR [rsp+0x818]
    aa8b:	00 
    aa8c:	4c 8b ae 98 00 00 00 	mov    r13,QWORD PTR [rsi+0x98]
    aa93:	4d 89 f7             	mov    r15,r14
    aa96:	49 83 c7 ff          	add    r15,0xffffffffffffffff
    aa9a:	4c 89 f2             	mov    rdx,r14
    aa9d:	48 c1 e2 03          	shl    rdx,0x3
    aaa1:	4d 89 ec             	mov    r12,r13
    aaa4:	49 01 d4             	add    r12,rdx
    aaa7:	4c 89 ef             	mov    rdi,r13
    aaaa:	48 83 c7 e8          	add    rdi,0xffffffffffffffe8
    aaae:	4c 89 ee             	mov    rsi,r13
    aab1:	48 b8 00 00 00 00 00 	movabs rax,0x0
    aab8:	00 00 00 
			aab3: R_X86_64_64	memmove
    aabb:	48 89 9c 24 00 05 00 	mov    QWORD PTR [rsp+0x500],rbx
    aac2:	00 
    aac3:	ff d0                	call   rax
    aac5:	48 8b 9c 24 00 05 00 	mov    rbx,QWORD PTR [rsp+0x500]
    aacc:	00 
    aacd:	48 be 00 00 00 00 00 	movabs rsi,0x0
    aad4:	00 00 00 
			aacf: R_X86_64_64	callback_return_addr
    aad7:	bf 01 00 00 00       	mov    edi,0x1
    aadc:	4b 89 7c f5 f8       	mov    QWORD PTR [r13+r14*8-0x8],rdi
    aae1:	bf 01 00 00 00       	mov    edi,0x1
    aae6:	4b 89 7c f5 f0       	mov    QWORD PTR [r13+r14*8-0x10],rdi
    aaeb:	4b 89 74 f5 e8       	mov    QWORD PTR [r13+r14*8-0x18],rsi
    aaf0:	48 8b b4 24 18 08 00 	mov    rsi,QWORD PTR [rsp+0x818]
    aaf7:	00 
    aaf8:	4c 89 a6 98 00 00 00 	mov    QWORD PTR [rsi+0x98],r12
    aaff:	48 89 df             	mov    rdi,rbx
    ab02:	4c 89 fe             	mov    rsi,r15
    ab05:	48 b8 00 00 00 00 00 	movabs rax,0x0
    ab0c:	00 00 00 
			ab07: R_X86_64_64	apply_n
    ab0f:	48 89 bc 24 f0 04 00 	mov    QWORD PTR [rsp+0x4f0],rdi
    ab16:	00 
    ab17:	ff d0                	call   rax
    ab19:	48 89 84 24 f0 04 00 	mov    QWORD PTR [rsp+0x4f0],rax
    ab20:	00 
    ab21:	48 8b b4 24 10 08 00 	mov    rsi,QWORD PTR [rsp+0x810]
    ab28:	00 
    ab29:	48 8b 7e 08          	mov    rdi,QWORD PTR [rsi+0x8]
    ab2d:	48 8b b4 24 00 08 00 	mov    rsi,QWORD PTR [rsp+0x800]
    ab34:	00 
    ab35:	48 b8 00 00 00 00 00 	movabs rax,0x0
    ab3c:	00 00 00 
			ab37: R_X86_64_64	apply1
    ab3f:	48 89 b4 24 00 05 00 	mov    QWORD PTR [rsp+0x500],rsi
    ab46:	00 
    ab47:	48 89 bc 24 10 05 00 	mov    QWORD PTR [rsp+0x510],rdi
    ab4e:	00 
    ab4f:	ff d0                	call   rax
    ab51:	48 89 c3             	mov    rbx,rax
    ab54:	49 89 d6             	mov    r14,rdx
    ab57:	4d 85 f6             	test   r14,r14
    ab5a:	0f 85 0d 00 00 00    	jne    ab6d <big_makeblock+0xab6d>
    ab60:	48 89 9c 24 c8 07 00 	mov    QWORD PTR [rsp+0x7c8],rbx
    ab67:	00 
    ab68:	e9 9d 00 00 00       	jmp    ac0a <big_makeblock+0xac0a>
    ab6d:	48 8b b4 24 18 08 00 	mov    rsi,QWORD PTR [rsp+0x818]
    ab74:	00 
    ab75:	4c 8b ae 98 00 00 00 	mov    r13,QWORD PTR [rsi+0x98]
    ab7c:	4d 89 f7             	mov    r15,r14
    ab7f:	49 83 c7 ff          	add    r15,0xffffffffffffffff
    ab83:	4c 89 f2             	mov    rdx,r14
    ab86:	48 c1 e2 03          	shl    rdx,0x3
    ab8a:	4d 89 ec             	mov    r12,r13
    ab8d:	49 01 d4             	add    r12,rdx
    ab90:	4c 89 ef             	mov    rdi,r13
    ab93:	48 83 c7 e8          	add    rdi,0xffffffffffffffe8
    ab97:	4c 89 ee             	mov    rsi,r13
    ab9a:	48 b8 00 00 00 00 00 	movabs rax,0x0
    aba1:	00 00 00 
			ab9c: R_X86_64_64	memmove
    aba4:	48 89 9c 24 00 05 00 	mov    QWORD PTR [rsp+0x500],rbx
    abab:	00 
    abac:	ff d0                	call   rax
    abae:	48 8b 9c 24 00 05 00 	mov    rbx,QWORD PTR [rsp+0x500]
    abb5:	00 
    abb6:	48 be 00 00 00 00 00 	movabs rsi,0x0
    abbd:	00 00 00 
			abb8: R_X86_64_64	callback_return_addr
    abc0:	bf 01 00 00 00       	mov    edi,0x1
    abc5:	4b 89 7c f5 f8       	mov    QWORD PTR [r13+r14*8-0x8],rdi
    abca:	bf 01 00 00 00       	mov    edi,0x1
    abcf:	4b 89 7c f5 f0       	mov    QWORD PTR [r13+r14*8-0x10],rdi
    abd4:	4b 89 74 f5 e8       	mov    QWORD PTR [r13+r14*8-0x18],rsi
    abd9:	48 8b b4 24 18 08 00 	mov    rsi,QWORD PTR [rsp+0x818]
    abe0:	00 
    abe1:	4c 89 a6 98 00 00 00 	mov    QWORD PTR [rsi+0x98],r12
    abe8:	48 89 df             	mov    rdi,rbx
    abeb:	4c 89 fe             	mov    rsi,r15
    abee:	48 b8 00 00 00 00 00 	movabs rax,0x0
    abf5:	00 00 00 
			abf0: R_X86_64_64	apply_n
    abf8:	48 89 bc 24 00 05 00 	mov    QWORD PTR [rsp+0x500],rdi
    abff:	00 
    ac00:	ff d0                	call   rax
    ac02:	48 89 84 24 c8 07 00 	mov    QWORD PTR [rsp+0x7c8],rax
    ac09:	00 
    ac0a:	48 8b b4 24 10 08 00 	mov    rsi,QWORD PTR [rsp+0x810]
    ac11:	00 
    ac12:	48 8b 7e 08          	mov    rdi,QWORD PTR [rsi+0x8]
    ac16:	48 8b b4 24 00 08 00 	mov    rsi,QWORD PTR [rsp+0x800]
    ac1d:	00 
    ac1e:	48 b8 00 00 00 00 00 	movabs rax,0x0
    ac25:	00 00 00 
			ac20: R_X86_64_64	apply1
    ac28:	48 89 b4 24 00 05 00 	mov    QWORD PTR [rsp+0x500],rsi
    ac2f:	00 
    ac30:	48 89 bc 24 10 05 00 	mov    QWORD PTR [rsp+0x510],rdi
    ac37:	00 
    ac38:	ff d0                	call   rax
    ac3a:	49 89 c7             	mov    r15,rax
    ac3d:	49 89 d6             	mov    r14,rdx
    ac40:	4d 85 f6             	test   r14,r14
    ac43:	0f 85 0d 00 00 00    	jne    ac56 <big_makeblock+0xac56>
    ac49:	4c 89 bc 24 00 05 00 	mov    QWORD PTR [rsp+0x500],r15
    ac50:	00 
    ac51:	e9 9d 00 00 00       	jmp    acf3 <big_makeblock+0xacf3>
    ac56:	48 8b b4 24 18 08 00 	mov    rsi,QWORD PTR [rsp+0x818]
    ac5d:	00 
    ac5e:	4c 8b ae 98 00 00 00 	mov    r13,QWORD PTR [rsi+0x98]
    ac65:	4c 89 f3             	mov    rbx,r14
    ac68:	48 83 c3 ff          	add    rbx,0xffffffffffffffff
    ac6c:	4c 89 f2             	mov    rdx,r14
    ac6f:	48 c1 e2 03          	shl    rdx,0x3
    ac73:	4d 89 ec             	mov    r12,r13
    ac76:	49 01 d4             	add    r12,rdx
    ac79:	4c 89 ef             	mov    rdi,r13
    ac7c:	48 83 c7 e8          	add    rdi,0xffffffffffffffe8
    ac80:	4c 89 ee             	mov    rsi,r13
    ac83:	48 b8 00 00 00 00 00 	movabs rax,0x0
    ac8a:	00 00 00 
			ac85: R_X86_64_64	memmove
    ac8d:	4c 89 bc 24 10 05 00 	mov    QWORD PTR [rsp+0x510],r15
    ac94:	00 
    ac95:	ff d0                	call   rax
    ac97:	4c 8b bc 24 10 05 00 	mov    r15,QWORD PTR [rsp+0x510]
    ac9e:	00 
    ac9f:	48 be 00 00 00 00 00 	movabs rsi,0x0
    aca6:	00 00 00 
			aca1: R_X86_64_64	callback_return_addr
    aca9:	bf 01 00 00 00       	mov    edi,0x1
    acae:	4b 89 7c f5 f8       	mov    QWORD PTR [r13+r14*8-0x8],rdi
    acb3:	bf 01 00 00 00       	mov    edi,0x1
    acb8:	4b 89 7c f5 f0       	mov    QWORD PTR [r13+r14*8-0x10],rdi
    acbd:	4b 89 74 f5 e8       	mov    QWORD PTR [r13+r14*8-0x18],rsi
    acc2:	48 8b b4 24 18 08 00 	mov    rsi,QWORD PTR [rsp+0x818]
    acc9:	00 
    acca:	4c 89 a6 98 00 00 00 	mov    QWORD PTR [rsi+0x98],r12
    acd1:	4c 89 ff             	mov    rdi,r15
    acd4:	48 89 de             	mov    rsi,rbx
    acd7:	48 b8 00 00 00 00 00 	movabs rax,0x0
    acde:	00 00 00 
			acd9: R_X86_64_64	apply_n
    ace1:	48 89 bc 24 00 05 00 	mov    QWORD PTR [rsp+0x500],rdi
    ace8:	00 
    ace9:	ff d0                	call   rax
    aceb:	48 89 84 24 00 05 00 	mov    QWORD PTR [rsp+0x500],rax
    acf2:	00 
    acf3:	48 8b b4 24 10 08 00 	mov    rsi,QWORD PTR [rsp+0x810]
    acfa:	00 
    acfb:	48 8b 7e 08          	mov    rdi,QWORD PTR [rsi+0x8]
    acff:	48 8b b4 24 00 08 00 	mov    rsi,QWORD PTR [rsp+0x800]
    ad06:	00 
    ad07:	48 b8 00 00 00 00 00 	movabs rax,0x0
    ad0e:	00 00 00 
			ad09: R_X86_64_64	apply1
    ad11:	48 89 b4 24 10 05 00 	mov    QWORD PTR [rsp+0x510],rsi
    ad18:	00 
    ad19:	48 89 bc 24 20 05 00 	mov    QWORD PTR [rsp+0x520],rdi
    ad20:	00 
    ad21:	ff d0                	call   rax
    ad23:	48 89 c3             	mov    rbx,rax
    ad26:	49 89 d6             	mov    r14,rdx
    ad29:	4d 85 f6             	test   r14,r14
    ad2c:	0f 85 0d 00 00 00    	jne    ad3f <big_makeblock+0xad3f>
    ad32:	48 89 9c 24 c0 07 00 	mov    QWORD PTR [rsp+0x7c0],rbx
    ad39:	00 
    ad3a:	e9 9d 00 00 00       	jmp    addc <big_makeblock+0xaddc>
    ad3f:	48 8b b4 24 18 08 00 	mov    rsi,QWORD PTR [rsp+0x818]
    ad46:	00 
    ad47:	4c 8b ae 98 00 00 00 	mov    r13,QWORD PTR [rsi+0x98]
    ad4e:	4d 89 f7             	mov    r15,r14
    ad51:	49 83 c7 ff          	add    r15,0xffffffffffffffff
    ad55:	4c 89 f2             	mov    rdx,r14
    ad58:	48 c1 e2 03          	shl    rdx,0x3
    ad5c:	4d 89 ec             	mov    r12,r13
    ad5f:	49 01 d4             	add    r12,rdx
    ad62:	4c 89 ef             	mov    rdi,r13
    ad65:	48 83 c7 e8          	add    rdi,0xffffffffffffffe8
    ad69:	4c 89 ee             	mov    rsi,r13
    ad6c:	48 b8 00 00 00 00 00 	movabs rax,0x0
    ad73:	00 00 00 
			ad6e: R_X86_64_64	memmove
    ad76:	48 89 9c 24 10 05 00 	mov    QWORD PTR [rsp+0x510],rbx
    ad7d:	00 
    ad7e:	ff d0                	call   rax
    ad80:	48 8b 9c 24 10 05 00 	mov    rbx,QWORD PTR [rsp+0x510]
    ad87:	00 
    ad88:	48 be 00 00 00 00 00 	movabs rsi,0x0
    ad8f:	00 00 00 
			ad8a: R_X86_64_64	callback_return_addr
    ad92:	bf 01 00 00 00       	mov    edi,0x1
    ad97:	4b 89 7c f5 f8       	mov    QWORD PTR [r13+r14*8-0x8],rdi
    ad9c:	bf 01 00 00 00       	mov    edi,0x1
    ada1:	4b 89 7c f5 f0       	mov    QWORD PTR [r13+r14*8-0x10],rdi
    ada6:	4b 89 74 f5 e8       	mov    QWORD PTR [r13+r14*8-0x18],rsi
    adab:	48 8b b4 24 18 08 00 	mov    rsi,QWORD PTR [rsp+0x818]
    adb2:	00 
    adb3:	4c 89 a6 98 00 00 00 	mov    QWORD PTR [rsi+0x98],r12
    adba:	48 89 df             	mov    rdi,rbx
    adbd:	4c 89 fe             	mov    rsi,r15
    adc0:	48 b8 00 00 00 00 00 	movabs rax,0x0
    adc7:	00 00 00 
			adc2: R_X86_64_64	apply_n
    adca:	48 89 bc 24 10 05 00 	mov    QWORD PTR [rsp+0x510],rdi
    add1:	00 
    add2:	ff d0                	call   rax
    add4:	48 89 84 24 c0 07 00 	mov    QWORD PTR [rsp+0x7c0],rax
    addb:	00 
    addc:	48 8b b4 24 10 08 00 	mov    rsi,QWORD PTR [rsp+0x810]
    ade3:	00 
    ade4:	48 8b 7e 08          	mov    rdi,QWORD PTR [rsi+0x8]
    ade8:	48 8b b4 24 00 08 00 	mov    rsi,QWORD PTR [rsp+0x800]
    adef:	00 
    adf0:	48 b8 00 00 00 00 00 	movabs rax,0x0
    adf7:	00 00 00 
			adf2: R_X86_64_64	apply1
    adfa:	48 89 b4 24 10 05 00 	mov    QWORD PTR [rsp+0x510],rsi
    ae01:	00 
    ae02:	48 89 bc 24 20 05 00 	mov    QWORD PTR [rsp+0x520],rdi
    ae09:	00 
    ae0a:	ff d0                	call   rax
    ae0c:	48 89 c3             	mov    rbx,rax
    ae0f:	49 89 d6             	mov    r14,rdx
    ae12:	4d 85 f6             	test   r14,r14
    ae15:	0f 85 0d 00 00 00    	jne    ae28 <big_makeblock+0xae28>
    ae1b:	48 89 9c 24 10 05 00 	mov    QWORD PTR [rsp+0x510],rbx
    ae22:	00 
    ae23:	e9 9d 00 00 00       	jmp    aec5 <big_makeblock+0xaec5>
    ae28:	48 8b b4 24 18 08 00 	mov    rsi,QWORD PTR [rsp+0x818]
    ae2f:	00 
    ae30:	4c 8b ae 98 00 00 00 	mov    r13,QWORD PTR [rsi+0x98]
    ae37:	4d 89 f7             	mov    r15,r14
    ae3a:	49 83 c7 ff          	add    r15,0xffffffffffffffff
    ae3e:	4c 89 f2             	mov    rdx,r14
    ae41:	48 c1 e2 03          	shl    rdx,0x3
    ae45:	4d 89 ec             	mov    r12,r13
    ae48:	49 01 d4             	add    r12,rdx
    ae4b:	4c 89 ef             	mov    rdi,r13
    ae4e:	48 83 c7 e8          	add    rdi,0xffffffffffffffe8
    ae52:	4c 89 ee             	mov    rsi,r13
    ae55:	48 b8 00 00 00 00 00 	movabs rax,0x0
    ae5c:	00 00 00 
			ae57: R_X86_64_64	memmove
    ae5f:	48 89 9c 24 20 05 00 	mov    QWORD PTR [rsp+0x520],rbx
    ae66:	00 
    ae67:	ff d0                	call   rax
    ae69:	48 8b 9c 24 20 05 00 	mov    rbx,QWORD PTR [rsp+0x520]
    ae70:	00 
    ae71:	48 be 00 00 00 00 00 	movabs rsi,0x0
    ae78:	00 00 00 
			ae73: R_X86_64_64	callback_return_addr
    ae7b:	bf 01 00 00 00       	mov    edi,0x1
    ae80:	4b 89 7c f5 f8       	mov    QWORD PTR [r13+r14*8-0x8],rdi
    ae85:	bf 01 00 00 00       	mov    edi,0x1
    ae8a:	4b 89 7c f5 f0       	mov    QWORD PTR [r13+r14*8-0x10],rdi
    ae8f:	4b 89 74 f5 e8       	mov    QWORD PTR [r13+r14*8-0x18],rsi
    ae94:	48 8b b4 24 18 08 00 	mov    rsi,QWORD PTR [rsp+0x818]
    ae9b:	00 
    ae9c:	4c 89 a6 98 00 00 00 	mov    QWORD PTR [rsi+0x98],r12
    aea3:	48 89 df             	mov    rdi,rbx
    aea6:	4c 89 fe             	mov    rsi,r15
    aea9:	48 b8 00 00 00 00 00 	movabs rax,0x0
    aeb0:	00 00 00 
			aeab: R_X86_64_64	apply_n
    aeb3:	48 89 bc 24 10 05 00 	mov    QWORD PTR [rsp+0x510],rdi
    aeba:	00 
    aebb:	ff d0                	call   rax
    aebd:	48 89 84 24 10 05 00 	mov    QWORD PTR [rsp+0x510],rax
    aec4:	00 
    aec5:	48 8b b4 24 10 08 00 	mov    rsi,QWORD PTR [rsp+0x810]
    aecc:	00 
    aecd:	48 8b 7e 08          	mov    rdi,QWORD PTR [rsi+0x8]
    aed1:	48 8b b4 24 00 08 00 	mov    rsi,QWORD PTR [rsp+0x800]
    aed8:	00 
    aed9:	48 b8 00 00 00 00 00 	movabs rax,0x0
    aee0:	00 00 00 
			aedb: R_X86_64_64	apply1
    aee3:	48 89 b4 24 20 05 00 	mov    QWORD PTR [rsp+0x520],rsi
    aeea:	00 
    aeeb:	48 89 bc 24 30 05 00 	mov    QWORD PTR [rsp+0x530],rdi
    aef2:	00 
    aef3:	ff d0                	call   rax
    aef5:	49 89 c7             	mov    r15,rax
    aef8:	49 89 d6             	mov    r14,rdx
    aefb:	4d 85 f6             	test   r14,r14
    aefe:	0f 85 0d 00 00 00    	jne    af11 <big_makeblock+0xaf11>
    af04:	4c 89 bc 24 b8 07 00 	mov    QWORD PTR [rsp+0x7b8],r15
    af0b:	00 
    af0c:	e9 9d 00 00 00       	jmp    afae <big_makeblock+0xafae>
    af11:	48 8b b4 24 18 08 00 	mov    rsi,QWORD PTR [rsp+0x818]
    af18:	00 
    af19:	4c 8b ae 98 00 00 00 	mov    r13,QWORD PTR [rsi+0x98]
    af20:	4c 89 f3             	mov    rbx,r14
    af23:	48 83 c3 ff          	add    rbx,0xffffffffffffffff
    af27:	4c 89 f2             	mov    rdx,r14
    af2a:	48 c1 e2 03          	shl    rdx,0x3
    af2e:	4d 89 ec             	mov    r12,r13
    af31:	49 01 d4             	add    r12,rdx
    af34:	4c 89 ef             	mov    rdi,r13
    af37:	48 83 c7 e8          	add    rdi,0xffffffffffffffe8
    af3b:	4c 89 ee             	mov    rsi,r13
    af3e:	48 b8 00 00 00 00 00 	movabs rax,0x0
    af45:	00 00 00 
			af40: R_X86_64_64	memmove
    af48:	4c 89 bc 24 20 05 00 	mov    QWORD PTR [rsp+0x520],r15
    af4f:	00 
    af50:	ff d0                	call   rax
    af52:	4c 8b bc 24 20 05 00 	mov    r15,QWORD PTR [rsp+0x520]
    af59:	00 
    af5a:	48 be 00 00 00 00 00 	movabs rsi,0x0
    af61:	00 00 00 
			af5c: R_X86_64_64	callback_return_addr
    af64:	bf 01 00 00 00       	mov    edi,0x1
    af69:	4b 89 7c f5 f8       	mov    QWORD PTR [r13+r14*8-0x8],rdi
    af6e:	bf 01 00 00 00       	mov    edi,0x1
    af73:	4b 89 7c f5 f0       	mov    QWORD PTR [r13+r14*8-0x10],rdi
    af78:	4b 89 74 f5 e8       	mov    QWORD PTR [r13+r14*8-0x18],rsi
    af7d:	48 8b b4 24 18 08 00 	mov    rsi,QWORD PTR [rsp+0x818]
    af84:	00 
    af85:	4c 89 a6 98 00 00 00 	mov    QWORD PTR [rsi+0x98],r12
    af8c:	4c 89 ff             	mov    rdi,r15
    af8f:	48 89 de             	mov    rsi,rbx
    af92:	48 b8 00 00 00 00 00 	movabs rax,0x0
    af99:	00 00 00 
			af94: R_X86_64_64	apply_n
    af9c:	48 89 bc 24 20 05 00 	mov    QWORD PTR [rsp+0x520],rdi
    afa3:	00 
    afa4:	ff d0                	call   rax
    afa6:	48 89 84 24 b8 07 00 	mov    QWORD PTR [rsp+0x7b8],rax
    afad:	00 
    afae:	48 8b b4 24 10 08 00 	mov    rsi,QWORD PTR [rsp+0x810]
    afb5:	00 
    afb6:	48 8b 7e 08          	mov    rdi,QWORD PTR [rsi+0x8]
    afba:	48 8b b4 24 00 08 00 	mov    rsi,QWORD PTR [rsp+0x800]
    afc1:	00 
    afc2:	48 b8 00 00 00 00 00 	movabs rax,0x0
    afc9:	00 00 00 
			afc4: R_X86_64_64	apply1
    afcc:	48 89 b4 24 20 05 00 	mov    QWORD PTR [rsp+0x520],rsi
    afd3:	00 
    afd4:	48 89 bc 24 30 05 00 	mov    QWORD PTR [rsp+0x530],rdi
    afdb:	00 
    afdc:	ff d0                	call   rax
    afde:	48 89 c3             	mov    rbx,rax
    afe1:	49 89 d6             	mov    r14,rdx
    afe4:	4d 85 f6             	test   r14,r14
    afe7:	0f 85 0d 00 00 00    	jne    affa <big_makeblock+0xaffa>
    afed:	48 89 9c 24 20 05 00 	mov    QWORD PTR [rsp+0x520],rbx
    aff4:	00 
    aff5:	e9 9d 00 00 00       	jmp    b097 <big_makeblock+0xb097>
    affa:	48 8b b4 24 18 08 00 	mov    rsi,QWORD PTR [rsp+0x818]
    b001:	00 
    b002:	4c 8b ae 98 00 00 00 	mov    r13,QWORD PTR [rsi+0x98]
    b009:	4d 89 f7             	mov    r15,r14
    b00c:	49 83 c7 ff          	add    r15,0xffffffffffffffff
    b010:	4c 89 f2             	mov    rdx,r14
    b013:	48 c1 e2 03          	shl    rdx,0x3
    b017:	4d 89 ec             	mov    r12,r13
    b01a:	49 01 d4             	add    r12,rdx
    b01d:	4c 89 ef             	mov    rdi,r13
    b020:	48 83 c7 e8          	add    rdi,0xffffffffffffffe8
    b024:	4c 89 ee             	mov    rsi,r13
    b027:	48 b8 00 00 00 00 00 	movabs rax,0x0
    b02e:	00 00 00 
			b029: R_X86_64_64	memmove
    b031:	48 89 9c 24 30 05 00 	mov    QWORD PTR [rsp+0x530],rbx
    b038:	00 
    b039:	ff d0                	call   rax
    b03b:	48 8b 9c 24 30 05 00 	mov    rbx,QWORD PTR [rsp+0x530]
    b042:	00 
    b043:	48 be 00 00 00 00 00 	movabs rsi,0x0
    b04a:	00 00 00 
			b045: R_X86_64_64	callback_return_addr
    b04d:	bf 01 00 00 00       	mov    edi,0x1
    b052:	4b 89 7c f5 f8       	mov    QWORD PTR [r13+r14*8-0x8],rdi
    b057:	bf 01 00 00 00       	mov    edi,0x1
    b05c:	4b 89 7c f5 f0       	mov    QWORD PTR [r13+r14*8-0x10],rdi
    b061:	4b 89 74 f5 e8       	mov    QWORD PTR [r13+r14*8-0x18],rsi
    b066:	48 8b b4 24 18 08 00 	mov    rsi,QWORD PTR [rsp+0x818]
    b06d:	00 
    b06e:	4c 89 a6 98 00 00 00 	mov    QWORD PTR [rsi+0x98],r12
    b075:	48 89 df             	mov    rdi,rbx
    b078:	4c 89 fe             	mov    rsi,r15
    b07b:	48 b8 00 00 00 00 00 	movabs rax,0x0
    b082:	00 00 00 
			b07d: R_X86_64_64	apply_n
    b085:	48 89 bc 24 20 05 00 	mov    QWORD PTR [rsp+0x520],rdi
    b08c:	00 
    b08d:	ff d0                	call   rax
    b08f:	48 89 84 24 20 05 00 	mov    QWORD PTR [rsp+0x520],rax
    b096:	00 
    b097:	48 8b b4 24 10 08 00 	mov    rsi,QWORD PTR [rsp+0x810]
    b09e:	00 
    b09f:	48 8b 7e 08          	mov    rdi,QWORD PTR [rsi+0x8]
    b0a3:	48 8b b4 24 00 08 00 	mov    rsi,QWORD PTR [rsp+0x800]
    b0aa:	00 
    b0ab:	48 b8 00 00 00 00 00 	movabs rax,0x0
    b0b2:	00 00 00 
			b0ad: R_X86_64_64	apply1
    b0b5:	48 89 b4 24 30 05 00 	mov    QWORD PTR [rsp+0x530],rsi
    b0bc:	00 
    b0bd:	48 89 bc 24 40 05 00 	mov    QWORD PTR [rsp+0x540],rdi
    b0c4:	00 
    b0c5:	ff d0                	call   rax
    b0c7:	48 89 c3             	mov    rbx,rax
    b0ca:	49 89 d6             	mov    r14,rdx
    b0cd:	4d 85 f6             	test   r14,r14
    b0d0:	0f 85 0d 00 00 00    	jne    b0e3 <big_makeblock+0xb0e3>
    b0d6:	48 89 9c 24 b0 07 00 	mov    QWORD PTR [rsp+0x7b0],rbx
    b0dd:	00 
    b0de:	e9 9d 00 00 00       	jmp    b180 <big_makeblock+0xb180>
    b0e3:	48 8b b4 24 18 08 00 	mov    rsi,QWORD PTR [rsp+0x818]
    b0ea:	00 
    b0eb:	4c 8b ae 98 00 00 00 	mov    r13,QWORD PTR [rsi+0x98]
    b0f2:	4d 89 f7             	mov    r15,r14
    b0f5:	49 83 c7 ff          	add    r15,0xffffffffffffffff
    b0f9:	4c 89 f2             	mov    rdx,r14
    b0fc:	48 c1 e2 03          	shl    rdx,0x3
    b100:	4d 89 ec             	mov    r12,r13
    b103:	49 01 d4             	add    r12,rdx
    b106:	4c 89 ef             	mov    rdi,r13
    b109:	48 83 c7 e8          	add    rdi,0xffffffffffffffe8
    b10d:	4c 89 ee             	mov    rsi,r13
    b110:	48 b8 00 00 00 00 00 	movabs rax,0x0
    b117:	00 00 00 
			b112: R_X86_64_64	memmove
    b11a:	48 89 9c 24 30 05 00 	mov    QWORD PTR [rsp+0x530],rbx
    b121:	00 
    b122:	ff d0                	call   rax
    b124:	48 8b 9c 24 30 05 00 	mov    rbx,QWORD PTR [rsp+0x530]
    b12b:	00 
    b12c:	48 be 00 00 00 00 00 	movabs rsi,0x0
    b133:	00 00 00 
			b12e: R_X86_64_64	callback_return_addr
    b136:	bf 01 00 00 00       	mov    edi,0x1
    b13b:	4b 89 7c f5 f8       	mov    QWORD PTR [r13+r14*8-0x8],rdi
    b140:	bf 01 00 00 00       	mov    edi,0x1
    b145:	4b 89 7c f5 f0       	mov    QWORD PTR [r13+r14*8-0x10],rdi
    b14a:	4b 89 74 f5 e8       	mov    QWORD PTR [r13+r14*8-0x18],rsi
    b14f:	48 8b b4 24 18 08 00 	mov    rsi,QWORD PTR [rsp+0x818]
    b156:	00 
    b157:	4c 89 a6 98 00 00 00 	mov    QWORD PTR [rsi+0x98],r12
    b15e:	48 89 df             	mov    rdi,rbx
    b161:	4c 89 fe             	mov    rsi,r15
    b164:	48 b8 00 00 00 00 00 	movabs rax,0x0
    b16b:	00 00 00 
			b166: R_X86_64_64	apply_n
    b16e:	48 89 bc 24 30 05 00 	mov    QWORD PTR [rsp+0x530],rdi
    b175:	00 
    b176:	ff d0                	call   rax
    b178:	48 89 84 24 b0 07 00 	mov    QWORD PTR [rsp+0x7b0],rax
    b17f:	00 
    b180:	48 8b b4 24 10 08 00 	mov    rsi,QWORD PTR [rsp+0x810]
    b187:	00 
    b188:	48 8b 7e 08          	mov    rdi,QWORD PTR [rsi+0x8]
    b18c:	48 8b b4 24 00 08 00 	mov    rsi,QWORD PTR [rsp+0x800]
    b193:	00 
    b194:	48 b8 00 00 00 00 00 	movabs rax,0x0
    b19b:	00 00 00 
			b196: R_X86_64_64	apply1
    b19e:	48 89 b4 24 30 05 00 	mov    QWORD PTR [rsp+0x530],rsi
    b1a5:	00 
    b1a6:	48 89 bc 24 40 05 00 	mov    QWORD PTR [rsp+0x540],rdi
    b1ad:	00 
    b1ae:	ff d0                	call   rax
    b1b0:	49 89 c7             	mov    r15,rax
    b1b3:	49 89 d6             	mov    r14,rdx
    b1b6:	4d 85 f6             	test   r14,r14
    b1b9:	0f 85 0d 00 00 00    	jne    b1cc <big_makeblock+0xb1cc>
    b1bf:	4c 89 bc 24 30 05 00 	mov    QWORD PTR [rsp+0x530],r15
    b1c6:	00 
    b1c7:	e9 9d 00 00 00       	jmp    b269 <big_makeblock+0xb269>
    b1cc:	48 8b b4 24 18 08 00 	mov    rsi,QWORD PTR [rsp+0x818]
    b1d3:	00 
    b1d4:	4c 8b ae 98 00 00 00 	mov    r13,QWORD PTR [rsi+0x98]
    b1db:	4c 89 f3             	mov    rbx,r14
    b1de:	48 83 c3 ff          	add    rbx,0xffffffffffffffff
    b1e2:	4c 89 f2             	mov    rdx,r14
    b1e5:	48 c1 e2 03          	shl    rdx,0x3
    b1e9:	4d 89 ec             	mov    r12,r13
    b1ec:	49 01 d4             	add    r12,rdx
    b1ef:	4c 89 ef             	mov    rdi,r13
    b1f2:	48 83 c7 e8          	add    rdi,0xffffffffffffffe8
    b1f6:	4c 89 ee             	mov    rsi,r13
    b1f9:	48 b8 00 00 00 00 00 	movabs rax,0x0
    b200:	00 00 00 
			b1fb: R_X86_64_64	memmove
    b203:	4c 89 bc 24 40 05 00 	mov    QWORD PTR [rsp+0x540],r15
    b20a:	00 
    b20b:	ff d0                	call   rax
    b20d:	4c 8b bc 24 40 05 00 	mov    r15,QWORD PTR [rsp+0x540]
    b214:	00 
    b215:	48 be 00 00 00 00 00 	movabs rsi,0x0
    b21c:	00 00 00 
			b217: R_X86_64_64	callback_return_addr
    b21f:	bf 01 00 00 00       	mov    edi,0x1
    b224:	4b 89 7c f5 f8       	mov    QWORD PTR [r13+r14*8-0x8],rdi
    b229:	bf 01 00 00 00       	mov    edi,0x1
    b22e:	4b 89 7c f5 f0       	mov    QWORD PTR [r13+r14*8-0x10],rdi
    b233:	4b 89 74 f5 e8       	mov    QWORD PTR [r13+r14*8-0x18],rsi
    b238:	48 8b b4 24 18 08 00 	mov    rsi,QWORD PTR [rsp+0x818]
    b23f:	00 
    b240:	4c 89 a6 98 00 00 00 	mov    QWORD PTR [rsi+0x98],r12
    b247:	4c 89 ff             	mov    rdi,r15
    b24a:	48 89 de             	mov    rsi,rbx
    b24d:	48 b8 00 00 00 00 00 	movabs rax,0x0
    b254:	00 00 00 
			b24f: R_X86_64_64	apply_n
    b257:	48 89 bc 24 30 05 00 	mov    QWORD PTR [rsp+0x530],rdi
    b25e:	00 
    b25f:	ff d0                	call   rax
    b261:	48 89 84 24 30 05 00 	mov    QWORD PTR [rsp+0x530],rax
    b268:	00 
    b269:	48 8b b4 24 10 08 00 	mov    rsi,QWORD PTR [rsp+0x810]
    b270:	00 
    b271:	48 8b 7e 08          	mov    rdi,QWORD PTR [rsi+0x8]
    b275:	48 8b b4 24 00 08 00 	mov    rsi,QWORD PTR [rsp+0x800]
    b27c:	00 
    b27d:	48 b8 00 00 00 00 00 	movabs rax,0x0
    b284:	00 00 00 
			b27f: R_X86_64_64	apply1
    b287:	48 89 b4 24 40 05 00 	mov    QWORD PTR [rsp+0x540],rsi
    b28e:	00 
    b28f:	48 89 bc 24 50 05 00 	mov    QWORD PTR [rsp+0x550],rdi
    b296:	00 
    b297:	ff d0                	call   rax
    b299:	48 89 c3             	mov    rbx,rax
    b29c:	49 89 d6             	mov    r14,rdx
    b29f:	4d 85 f6             	test   r14,r14
    b2a2:	0f 85 0d 00 00 00    	jne    b2b5 <big_makeblock+0xb2b5>
    b2a8:	48 89 9c 24 a8 07 00 	mov    QWORD PTR [rsp+0x7a8],rbx
    b2af:	00 
    b2b0:	e9 9d 00 00 00       	jmp    b352 <big_makeblock+0xb352>
    b2b5:	48 8b b4 24 18 08 00 	mov    rsi,QWORD PTR [rsp+0x818]
    b2bc:	00 
    b2bd:	4c 8b ae 98 00 00 00 	mov    r13,QWORD PTR [rsi+0x98]
    b2c4:	4d 89 f7             	mov    r15,r14
    b2c7:	49 83 c7 ff          	add    r15,0xffffffffffffffff
    b2cb:	4c 89 f2             	mov    rdx,r14
    b2ce:	48 c1 e2 03          	shl    rdx,0x3
    b2d2:	4d 89 ec             	mov    r12,r13
    b2d5:	49 01 d4             	add    r12,rdx
    b2d8:	4c 89 ef             	mov    rdi,r13
    b2db:	48 83 c7 e8          	add    rdi,0xffffffffffffffe8
    b2df:	4c 89 ee             	mov    rsi,r13
    b2e2:	48 b8 00 00 00 00 00 	movabs rax,0x0
    b2e9:	00 00 00 
			b2e4: R_X86_64_64	memmove
    b2ec:	48 89 9c 24 40 05 00 	mov    QWORD PTR [rsp+0x540],rbx
    b2f3:	00 
    b2f4:	ff d0                	call   rax
    b2f6:	48 8b 9c 24 40 05 00 	mov    rbx,QWORD PTR [rsp+0x540]
    b2fd:	00 
    b2fe:	48 be 00 00 00 00 00 	movabs rsi,0x0
    b305:	00 00 00 
			b300: R_X86_64_64	callback_return_addr
    b308:	bf 01 00 00 00       	mov    edi,0x1
    b30d:	4b 89 7c f5 f8       	mov    QWORD PTR [r13+r14*8-0x8],rdi
    b312:	bf 01 00 00 00       	mov    edi,0x1
    b317:	4b 89 7c f5 f0       	mov    QWORD PTR [r13+r14*8-0x10],rdi
    b31c:	4b 89 74 f5 e8       	mov    QWORD PTR [r13+r14*8-0x18],rsi
    b321:	48 8b b4 24 18 08 00 	mov    rsi,QWORD PTR [rsp+0x818]
    b328:	00 
    b329:	4c 89 a6 98 00 00 00 	mov    QWORD PTR [rsi+0x98],r12
    b330:	48 89 df             	mov    rdi,rbx
    b333:	4c 89 fe             	mov    rsi,r15
    b336:	48 b8 00 00 00 00 00 	movabs rax,0x0
    b33d:	00 00 00 
			b338: R_X86_64_64	apply_n
    b340:	48 89 bc 24 40 05 00 	mov    QWORD PTR [rsp+0x540],rdi
    b347:	00 
    b348:	ff d0                	call   rax
    b34a:	48 89 84 24 a8 07 00 	mov    QWORD PTR [rsp+0x7a8],rax
    b351:	00 
    b352:	48 8b b4 24 10 08 00 	mov    rsi,QWORD PTR [rsp+0x810]
    b359:	00 
    b35a:	48 8b 7e 08          	mov    rdi,QWORD PTR [rsi+0x8]
    b35e:	48 8b b4 24 00 08 00 	mov    rsi,QWORD PTR [rsp+0x800]
    b365:	00 
    b366:	48 b8 00 00 00 00 00 	movabs rax,0x0
    b36d:	00 00 00 
			b368: R_X86_64_64	apply1
    b370:	48 89 b4 24 40 05 00 	mov    QWORD PTR [rsp+0x540],rsi
    b377:	00 
    b378:	48 89 bc 24 50 05 00 	mov    QWORD PTR [rsp+0x550],rdi
    b37f:	00 
    b380:	ff d0                	call   rax
    b382:	48 89 c3             	mov    rbx,rax
    b385:	49 89 d6             	mov    r14,rdx
    b388:	4d 85 f6             	test   r14,r14
    b38b:	0f 85 0d 00 00 00    	jne    b39e <big_makeblock+0xb39e>
    b391:	48 89 9c 24 40 05 00 	mov    QWORD PTR [rsp+0x540],rbx
    b398:	00 
    b399:	e9 9d 00 00 00       	jmp    b43b <big_makeblock+0xb43b>
    b39e:	48 8b b4 24 18 08 00 	mov    rsi,QWORD PTR [rsp+0x818]
    b3a5:	00 
    b3a6:	4c 8b ae 98 00 00 00 	mov    r13,QWORD PTR [rsi+0x98]
    b3ad:	4d 89 f7             	mov    r15,r14
    b3b0:	49 83 c7 ff          	add    r15,0xffffffffffffffff
    b3b4:	4c 89 f2             	mov    rdx,r14
    b3b7:	48 c1 e2 03          	shl    rdx,0x3
    b3bb:	4d 89 ec             	mov    r12,r13
    b3be:	49 01 d4             	add    r12,rdx
    b3c1:	4c 89 ef             	mov    rdi,r13
    b3c4:	48 83 c7 e8          	add    rdi,0xffffffffffffffe8
    b3c8:	4c 89 ee             	mov    rsi,r13
    b3cb:	48 b8 00 00 00 00 00 	movabs rax,0x0
    b3d2:	00 00 00 
			b3cd: R_X86_64_64	memmove
    b3d5:	48 89 9c 24 50 05 00 	mov    QWORD PTR [rsp+0x550],rbx
    b3dc:	00 
    b3dd:	ff d0                	call   rax
    b3df:	48 8b 9c 24 50 05 00 	mov    rbx,QWORD PTR [rsp+0x550]
    b3e6:	00 
    b3e7:	48 be 00 00 00 00 00 	movabs rsi,0x0
    b3ee:	00 00 00 
			b3e9: R_X86_64_64	callback_return_addr
    b3f1:	bf 01 00 00 00       	mov    edi,0x1
    b3f6:	4b 89 7c f5 f8       	mov    QWORD PTR [r13+r14*8-0x8],rdi
    b3fb:	bf 01 00 00 00       	mov    edi,0x1
    b400:	4b 89 7c f5 f0       	mov    QWORD PTR [r13+r14*8-0x10],rdi
    b405:	4b 89 74 f5 e8       	mov    QWORD PTR [r13+r14*8-0x18],rsi
    b40a:	48 8b b4 24 18 08 00 	mov    rsi,QWORD PTR [rsp+0x818]
    b411:	00 
    b412:	4c 89 a6 98 00 00 00 	mov    QWORD PTR [rsi+0x98],r12
    b419:	48 89 df             	mov    rdi,rbx
    b41c:	4c 89 fe             	mov    rsi,r15
    b41f:	48 b8 00 00 00 00 00 	movabs rax,0x0
    b426:	00 00 00 
			b421: R_X86_64_64	apply_n
    b429:	48 89 bc 24 40 05 00 	mov    QWORD PTR [rsp+0x540],rdi
    b430:	00 
    b431:	ff d0                	call   rax
    b433:	48 89 84 24 40 05 00 	mov    QWORD PTR [rsp+0x540],rax
    b43a:	00 
    b43b:	48 8b b4 24 10 08 00 	mov    rsi,QWORD PTR [rsp+0x810]
    b442:	00 
    b443:	48 8b 7e 08          	mov    rdi,QWORD PTR [rsi+0x8]
    b447:	48 8b b4 24 00 08 00 	mov    rsi,QWORD PTR [rsp+0x800]
    b44e:	00 
    b44f:	48 b8 00 00 00 00 00 	movabs rax,0x0
    b456:	00 00 00 
			b451: R_X86_64_64	apply1
    b459:	48 89 b4 24 50 05 00 	mov    QWORD PTR [rsp+0x550],rsi
    b460:	00 
    b461:	48 89 bc 24 60 05 00 	mov    QWORD PTR [rsp+0x560],rdi
    b468:	00 
    b469:	ff d0                	call   rax
    b46b:	49 89 c7             	mov    r15,rax
    b46e:	49 89 d6             	mov    r14,rdx
    b471:	4d 85 f6             	test   r14,r14
    b474:	0f 85 0d 00 00 00    	jne    b487 <big_makeblock+0xb487>
    b47a:	4c 89 bc 24 a0 07 00 	mov    QWORD PTR [rsp+0x7a0],r15
    b481:	00 
    b482:	e9 9d 00 00 00       	jmp    b524 <big_makeblock+0xb524>
    b487:	48 8b b4 24 18 08 00 	mov    rsi,QWORD PTR [rsp+0x818]
    b48e:	00 
    b48f:	4c 8b ae 98 00 00 00 	mov    r13,QWORD PTR [rsi+0x98]
    b496:	4c 89 f3             	mov    rbx,r14
    b499:	48 83 c3 ff          	add    rbx,0xffffffffffffffff
    b49d:	4c 89 f2             	mov    rdx,r14
    b4a0:	48 c1 e2 03          	shl    rdx,0x3
    b4a4:	4d 89 ec             	mov    r12,r13
    b4a7:	49 01 d4             	add    r12,rdx
    b4aa:	4c 89 ef             	mov    rdi,r13
    b4ad:	48 83 c7 e8          	add    rdi,0xffffffffffffffe8
    b4b1:	4c 89 ee             	mov    rsi,r13
    b4b4:	48 b8 00 00 00 00 00 	movabs rax,0x0
    b4bb:	00 00 00 
			b4b6: R_X86_64_64	memmove
    b4be:	4c 89 bc 24 50 05 00 	mov    QWORD PTR [rsp+0x550],r15
    b4c5:	00 
    b4c6:	ff d0                	call   rax
    b4c8:	4c 8b bc 24 50 05 00 	mov    r15,QWORD PTR [rsp+0x550]
    b4cf:	00 
    b4d0:	48 be 00 00 00 00 00 	movabs rsi,0x0
    b4d7:	00 00 00 
			b4d2: R_X86_64_64	callback_return_addr
    b4da:	bf 01 00 00 00       	mov    edi,0x1
    b4df:	4b 89 7c f5 f8       	mov    QWORD PTR [r13+r14*8-0x8],rdi
    b4e4:	bf 01 00 00 00       	mov    edi,0x1
    b4e9:	4b 89 7c f5 f0       	mov    QWORD PTR [r13+r14*8-0x10],rdi
    b4ee:	4b 89 74 f5 e8       	mov    QWORD PTR [r13+r14*8-0x18],rsi
    b4f3:	48 8b b4 24 18 08 00 	mov    rsi,QWORD PTR [rsp+0x818]
    b4fa:	00 
    b4fb:	4c 89 a6 98 00 00 00 	mov    QWORD PTR [rsi+0x98],r12
    b502:	4c 89 ff             	mov    rdi,r15
    b505:	48 89 de             	mov    rsi,rbx
    b508:	48 b8 00 00 00 00 00 	movabs rax,0x0
    b50f:	00 00 00 
			b50a: R_X86_64_64	apply_n
    b512:	48 89 bc 24 50 05 00 	mov    QWORD PTR [rsp+0x550],rdi
    b519:	00 
    b51a:	ff d0                	call   rax
    b51c:	48 89 84 24 a0 07 00 	mov    QWORD PTR [rsp+0x7a0],rax
    b523:	00 
    b524:	48 8b b4 24 10 08 00 	mov    rsi,QWORD PTR [rsp+0x810]
    b52b:	00 
    b52c:	48 8b 7e 08          	mov    rdi,QWORD PTR [rsi+0x8]
    b530:	48 8b b4 24 00 08 00 	mov    rsi,QWORD PTR [rsp+0x800]
    b537:	00 
    b538:	48 b8 00 00 00 00 00 	movabs rax,0x0
    b53f:	00 00 00 
			b53a: R_X86_64_64	apply1
    b542:	48 89 b4 24 50 05 00 	mov    QWORD PTR [rsp+0x550],rsi
    b549:	00 
    b54a:	48 89 bc 24 60 05 00 	mov    QWORD PTR [rsp+0x560],rdi
    b551:	00 
    b552:	ff d0                	call   rax
    b554:	48 89 c3             	mov    rbx,rax
    b557:	49 89 d6             	mov    r14,rdx
    b55a:	4d 85 f6             	test   r14,r14
    b55d:	0f 85 0d 00 00 00    	jne    b570 <big_makeblock+0xb570>
    b563:	48 89 9c 24 50 05 00 	mov    QWORD PTR [rsp+0x550],rbx
    b56a:	00 
    b56b:	e9 9d 00 00 00       	jmp    b60d <big_makeblock+0xb60d>
    b570:	48 8b b4 24 18 08 00 	mov    rsi,QWORD PTR [rsp+0x818]
    b577:	00 
    b578:	4c 8b ae 98 00 00 00 	mov    r13,QWORD PTR [rsi+0x98]
    b57f:	4d 89 f7             	mov    r15,r14
    b582:	49 83 c7 ff          	add    r15,0xffffffffffffffff
    b586:	4c 89 f2             	mov    rdx,r14
    b589:	48 c1 e2 03          	shl    rdx,0x3
    b58d:	4d 89 ec             	mov    r12,r13
    b590:	49 01 d4             	add    r12,rdx
    b593:	4c 89 ef             	mov    rdi,r13
    b596:	48 83 c7 e8          	add    rdi,0xffffffffffffffe8
    b59a:	4c 89 ee             	mov    rsi,r13
    b59d:	48 b8 00 00 00 00 00 	movabs rax,0x0
    b5a4:	00 00 00 
			b59f: R_X86_64_64	memmove
    b5a7:	48 89 9c 24 60 05 00 	mov    QWORD PTR [rsp+0x560],rbx
    b5ae:	00 
    b5af:	ff d0                	call   rax
    b5b1:	48 8b 9c 24 60 05 00 	mov    rbx,QWORD PTR [rsp+0x560]
    b5b8:	00 
    b5b9:	48 be 00 00 00 00 00 	movabs rsi,0x0
    b5c0:	00 00 00 
			b5bb: R_X86_64_64	callback_return_addr
    b5c3:	bf 01 00 00 00       	mov    edi,0x1
    b5c8:	4b 89 7c f5 f8       	mov    QWORD PTR [r13+r14*8-0x8],rdi
    b5cd:	bf 01 00 00 00       	mov    edi,0x1
    b5d2:	4b 89 7c f5 f0       	mov    QWORD PTR [r13+r14*8-0x10],rdi
    b5d7:	4b 89 74 f5 e8       	mov    QWORD PTR [r13+r14*8-0x18],rsi
    b5dc:	48 8b b4 24 18 08 00 	mov    rsi,QWORD PTR [rsp+0x818]
    b5e3:	00 
    b5e4:	4c 89 a6 98 00 00 00 	mov    QWORD PTR [rsi+0x98],r12
    b5eb:	48 89 df             	mov    rdi,rbx
    b5ee:	4c 89 fe             	mov    rsi,r15
    b5f1:	48 b8 00 00 00 00 00 	movabs rax,0x0
    b5f8:	00 00 00 
			b5f3: R_X86_64_64	apply_n
    b5fb:	48 89 bc 24 50 05 00 	mov    QWORD PTR [rsp+0x550],rdi
    b602:	00 
    b603:	ff d0                	call   rax
    b605:	48 89 84 24 50 05 00 	mov    QWORD PTR [rsp+0x550],rax
    b60c:	00 
    b60d:	48 8b b4 24 10 08 00 	mov    rsi,QWORD PTR [rsp+0x810]
    b614:	00 
    b615:	48 8b 7e 08          	mov    rdi,QWORD PTR [rsi+0x8]
    b619:	48 8b b4 24 00 08 00 	mov    rsi,QWORD PTR [rsp+0x800]
    b620:	00 
    b621:	48 b8 00 00 00 00 00 	movabs rax,0x0
    b628:	00 00 00 
			b623: R_X86_64_64	apply1
    b62b:	48 89 b4 24 60 05 00 	mov    QWORD PTR [rsp+0x560],rsi
    b632:	00 
    b633:	48 89 bc 24 70 05 00 	mov    QWORD PTR [rsp+0x570],rdi
    b63a:	00 
    b63b:	ff d0                	call   rax
    b63d:	48 89 c3             	mov    rbx,rax
    b640:	49 89 d6             	mov    r14,rdx
    b643:	4d 85 f6             	test   r14,r14
    b646:	0f 85 0d 00 00 00    	jne    b659 <big_makeblock+0xb659>
    b64c:	48 89 9c 24 98 07 00 	mov    QWORD PTR [rsp+0x798],rbx
    b653:	00 
    b654:	e9 9d 00 00 00       	jmp    b6f6 <big_makeblock+0xb6f6>
    b659:	48 8b b4 24 18 08 00 	mov    rsi,QWORD PTR [rsp+0x818]
    b660:	00 
    b661:	4c 8b ae 98 00 00 00 	mov    r13,QWORD PTR [rsi+0x98]
    b668:	4d 89 f7             	mov    r15,r14
    b66b:	49 83 c7 ff          	add    r15,0xffffffffffffffff
    b66f:	4c 89 f2             	mov    rdx,r14
    b672:	48 c1 e2 03          	shl    rdx,0x3
    b676:	4d 89 ec             	mov    r12,r13
    b679:	49 01 d4             	add    r12,rdx
    b67c:	4c 89 ef             	mov    rdi,r13
    b67f:	48 83 c7 e8          	add    rdi,0xffffffffffffffe8
    b683:	4c 89 ee             	mov    rsi,r13
    b686:	48 b8 00 00 00 00 00 	movabs rax,0x0
    b68d:	00 00 00 
			b688: R_X86_64_64	memmove
    b690:	48 89 9c 24 60 05 00 	mov    QWORD PTR [rsp+0x560],rbx
    b697:	00 
    b698:	ff d0                	call   rax
    b69a:	48 8b 9c 24 60 05 00 	mov    rbx,QWORD PTR [rsp+0x560]
    b6a1:	00 
    b6a2:	48 be 00 00 00 00 00 	movabs rsi,0x0
    b6a9:	00 00 00 
			b6a4: R_X86_64_64	callback_return_addr
    b6ac:	bf 01 00 00 00       	mov    edi,0x1
    b6b1:	4b 89 7c f5 f8       	mov    QWORD PTR [r13+r14*8-0x8],rdi
    b6b6:	bf 01 00 00 00       	mov    edi,0x1
    b6bb:	4b 89 7c f5 f0       	mov    QWORD PTR [r13+r14*8-0x10],rdi
    b6c0:	4b 89 74 f5 e8       	mov    QWORD PTR [r13+r14*8-0x18],rsi
    b6c5:	48 8b b4 24 18 08 00 	mov    rsi,QWORD PTR [rsp+0x818]
    b6cc:	00 
    b6cd:	4c 89 a6 98 00 00 00 	mov    QWORD PTR [rsi+0x98],r12
    b6d4:	48 89 df             	mov    rdi,rbx
    b6d7:	4c 89 fe             	mov    rsi,r15
    b6da:	48 b8 00 00 00 00 00 	movabs rax,0x0
    b6e1:	00 00 00 
			b6dc: R_X86_64_64	apply_n
    b6e4:	48 89 bc 24 60 05 00 	mov    QWORD PTR [rsp+0x560],rdi
    b6eb:	00 
    b6ec:	ff d0                	call   rax
    b6ee:	48 89 84 24 98 07 00 	mov    QWORD PTR [rsp+0x798],rax
    b6f5:	00 
    b6f6:	48 8b b4 24 10 08 00 	mov    rsi,QWORD PTR [rsp+0x810]
    b6fd:	00 
    b6fe:	48 8b 7e 08          	mov    rdi,QWORD PTR [rsi+0x8]
    b702:	48 8b b4 24 00 08 00 	mov    rsi,QWORD PTR [rsp+0x800]
    b709:	00 
    b70a:	48 b8 00 00 00 00 00 	movabs rax,0x0
    b711:	00 00 00 
			b70c: R_X86_64_64	apply1
    b714:	48 89 b4 24 60 05 00 	mov    QWORD PTR [rsp+0x560],rsi
    b71b:	00 
    b71c:	48 89 bc 24 70 05 00 	mov    QWORD PTR [rsp+0x570],rdi
    b723:	00 
    b724:	ff d0                	call   rax
    b726:	49 89 c7             	mov    r15,rax
    b729:	49 89 d6             	mov    r14,rdx
    b72c:	4d 85 f6             	test   r14,r14
    b72f:	0f 85 0d 00 00 00    	jne    b742 <big_makeblock+0xb742>
    b735:	4c 89 bc 24 60 05 00 	mov    QWORD PTR [rsp+0x560],r15
    b73c:	00 
    b73d:	e9 9d 00 00 00       	jmp    b7df <big_makeblock+0xb7df>
    b742:	48 8b b4 24 18 08 00 	mov    rsi,QWORD PTR [rsp+0x818]
    b749:	00 
    b74a:	4c 8b ae 98 00 00 00 	mov    r13,QWORD PTR [rsi+0x98]
    b751:	4c 89 f3             	mov    rbx,r14
    b754:	48 83 c3 ff          	add    rbx,0xffffffffffffffff
    b758:	4c 89 f2             	mov    rdx,r14
    b75b:	48 c1 e2 03          	shl    rdx,0x3
    b75f:	4d 89 ec             	mov    r12,r13
    b762:	49 01 d4             	add    r12,rdx
    b765:	4c 89 ef             	mov    rdi,r13
    b768:	48 83 c7 e8          	add    rdi,0xffffffffffffffe8
    b76c:	4c 89 ee             	mov    rsi,r13
    b76f:	48 b8 00 00 00 00 00 	movabs rax,0x0
    b776:	00 00 00 
			b771: R_X86_64_64	memmove
    b779:	4c 89 bc 24 70 05 00 	mov    QWORD PTR [rsp+0x570],r15
    b780:	00 
    b781:	ff d0                	call   rax
    b783:	4c 8b bc 24 70 05 00 	mov    r15,QWORD PTR [rsp+0x570]
    b78a:	00 
    b78b:	48 be 00 00 00 00 00 	movabs rsi,0x0
    b792:	00 00 00 
			b78d: R_X86_64_64	callback_return_addr
    b795:	bf 01 00 00 00       	mov    edi,0x1
    b79a:	4b 89 7c f5 f8       	mov    QWORD PTR [r13+r14*8-0x8],rdi
    b79f:	bf 01 00 00 00       	mov    edi,0x1
    b7a4:	4b 89 7c f5 f0       	mov    QWORD PTR [r13+r14*8-0x10],rdi
    b7a9:	4b 89 74 f5 e8       	mov    QWORD PTR [r13+r14*8-0x18],rsi
    b7ae:	48 8b b4 24 18 08 00 	mov    rsi,QWORD PTR [rsp+0x818]
    b7b5:	00 
    b7b6:	4c 89 a6 98 00 00 00 	mov    QWORD PTR [rsi+0x98],r12
    b7bd:	4c 89 ff             	mov    rdi,r15
    b7c0:	48 89 de             	mov    rsi,rbx
    b7c3:	48 b8 00 00 00 00 00 	movabs rax,0x0
    b7ca:	00 00 00 
			b7c5: R_X86_64_64	apply_n
    b7cd:	48 89 bc 24 60 05 00 	mov    QWORD PTR [rsp+0x560],rdi
    b7d4:	00 
    b7d5:	ff d0                	call   rax
    b7d7:	48 89 84 24 60 05 00 	mov    QWORD PTR [rsp+0x560],rax
    b7de:	00 
    b7df:	48 8b b4 24 10 08 00 	mov    rsi,QWORD PTR [rsp+0x810]
    b7e6:	00 
    b7e7:	48 8b 7e 08          	mov    rdi,QWORD PTR [rsi+0x8]
    b7eb:	48 8b b4 24 00 08 00 	mov    rsi,QWORD PTR [rsp+0x800]
    b7f2:	00 
    b7f3:	48 b8 00 00 00 00 00 	movabs rax,0x0
    b7fa:	00 00 00 
			b7f5: R_X86_64_64	apply1
    b7fd:	48 89 b4 24 70 05 00 	mov    QWORD PTR [rsp+0x570],rsi
    b804:	00 
    b805:	48 89 bc 24 80 05 00 	mov    QWORD PTR [rsp+0x580],rdi
    b80c:	00 
    b80d:	ff d0                	call   rax
    b80f:	48 89 c3             	mov    rbx,rax
    b812:	49 89 d6             	mov    r14,rdx
    b815:	4d 85 f6             	test   r14,r14
    b818:	0f 85 0d 00 00 00    	jne    b82b <big_makeblock+0xb82b>
    b81e:	48 89 9c 24 90 07 00 	mov    QWORD PTR [rsp+0x790],rbx
    b825:	00 
    b826:	e9 9d 00 00 00       	jmp    b8c8 <big_makeblock+0xb8c8>
    b82b:	48 8b b4 24 18 08 00 	mov    rsi,QWORD PTR [rsp+0x818]
    b832:	00 
    b833:	4c 8b ae 98 00 00 00 	mov    r13,QWORD PTR [rsi+0x98]
    b83a:	4d 89 f7             	mov    r15,r14
    b83d:	49 83 c7 ff          	add    r15,0xffffffffffffffff
    b841:	4c 89 f2             	mov    rdx,r14
    b844:	48 c1 e2 03          	shl    rdx,0x3
    b848:	4d 89 ec             	mov    r12,r13
    b84b:	49 01 d4             	add    r12,rdx
    b84e:	4c 89 ef             	mov    rdi,r13
    b851:	48 83 c7 e8          	add    rdi,0xffffffffffffffe8
    b855:	4c 89 ee             	mov    rsi,r13
    b858:	48 b8 00 00 00 00 00 	movabs rax,0x0
    b85f:	00 00 00 
			b85a: R_X86_64_64	memmove
    b862:	48 89 9c 24 70 05 00 	mov    QWORD PTR [rsp+0x570],rbx
    b869:	00 
    b86a:	ff d0                	call   rax
    b86c:	48 8b 9c 24 70 05 00 	mov    rbx,QWORD PTR [rsp+0x570]
    b873:	00 
    b874:	48 be 00 00 00 00 00 	movabs rsi,0x0
    b87b:	00 00 00 
			b876: R_X86_64_64	callback_return_addr
    b87e:	bf 01 00 00 00       	mov    edi,0x1
    b883:	4b 89 7c f5 f8       	mov    QWORD PTR [r13+r14*8-0x8],rdi
    b888:	bf 01 00 00 00       	mov    edi,0x1
    b88d:	4b 89 7c f5 f0       	mov    QWORD PTR [r13+r14*8-0x10],rdi
    b892:	4b 89 74 f5 e8       	mov    QWORD PTR [r13+r14*8-0x18],rsi
    b897:	48 8b b4 24 18 08 00 	mov    rsi,QWORD PTR [rsp+0x818]
    b89e:	00 
    b89f:	4c 89 a6 98 00 00 00 	mov    QWORD PTR [rsi+0x98],r12
    b8a6:	48 89 df             	mov    rdi,rbx
    b8a9:	4c 89 fe             	mov    rsi,r15
    b8ac:	48 b8 00 00 00 00 00 	movabs rax,0x0
    b8b3:	00 00 00 
			b8ae: R_X86_64_64	apply_n
    b8b6:	48 89 bc 24 70 05 00 	mov    QWORD PTR [rsp+0x570],rdi
    b8bd:	00 
    b8be:	ff d0                	call   rax
    b8c0:	48 89 84 24 90 07 00 	mov    QWORD PTR [rsp+0x790],rax
    b8c7:	00 
    b8c8:	48 8b b4 24 10 08 00 	mov    rsi,QWORD PTR [rsp+0x810]
    b8cf:	00 
    b8d0:	48 8b 7e 08          	mov    rdi,QWORD PTR [rsi+0x8]
    b8d4:	48 8b b4 24 00 08 00 	mov    rsi,QWORD PTR [rsp+0x800]
    b8db:	00 
    b8dc:	48 b8 00 00 00 00 00 	movabs rax,0x0
    b8e3:	00 00 00 
			b8de: R_X86_64_64	apply1
    b8e6:	48 89 b4 24 70 05 00 	mov    QWORD PTR [rsp+0x570],rsi
    b8ed:	00 
    b8ee:	48 89 bc 24 80 05 00 	mov    QWORD PTR [rsp+0x580],rdi
    b8f5:	00 
    b8f6:	ff d0                	call   rax
    b8f8:	48 89 c3             	mov    rbx,rax
    b8fb:	49 89 d6             	mov    r14,rdx
    b8fe:	4d 85 f6             	test   r14,r14
    b901:	0f 85 0d 00 00 00    	jne    b914 <big_makeblock+0xb914>
    b907:	48 89 9c 24 70 05 00 	mov    QWORD PTR [rsp+0x570],rbx
    b90e:	00 
    b90f:	e9 9d 00 00 00       	jmp    b9b1 <big_makeblock+0xb9b1>
    b914:	48 8b b4 24 18 08 00 	mov    rsi,QWORD PTR [rsp+0x818]
    b91b:	00 
    b91c:	4c 8b ae 98 00 00 00 	mov    r13,QWORD PTR [rsi+0x98]
    b923:	4d 89 f7             	mov    r15,r14
    b926:	49 83 c7 ff          	add    r15,0xffffffffffffffff
    b92a:	4c 89 f2             	mov    rdx,r14
    b92d:	48 c1 e2 03          	shl    rdx,0x3
    b931:	4d 89 ec             	mov    r12,r13
    b934:	49 01 d4             	add    r12,rdx
    b937:	4c 89 ef             	mov    rdi,r13
    b93a:	48 83 c7 e8          	add    rdi,0xffffffffffffffe8
    b93e:	4c 89 ee             	mov    rsi,r13
    b941:	48 b8 00 00 00 00 00 	movabs rax,0x0
    b948:	00 00 00 
			b943: R_X86_64_64	memmove
    b94b:	48 89 9c 24 80 05 00 	mov    QWORD PTR [rsp+0x580],rbx
    b952:	00 
    b953:	ff d0                	call   rax
    b955:	48 8b 9c 24 80 05 00 	mov    rbx,QWORD PTR [rsp+0x580]
    b95c:	00 
    b95d:	48 be 00 00 00 00 00 	movabs rsi,0x0
    b964:	00 00 00 
			b95f: R_X86_64_64	callback_return_addr
    b967:	bf 01 00 00 00       	mov    edi,0x1
    b96c:	4b 89 7c f5 f8       	mov    QWORD PTR [r13+r14*8-0x8],rdi
    b971:	bf 01 00 00 00       	mov    edi,0x1
    b976:	4b 89 7c f5 f0       	mov    QWORD PTR [r13+r14*8-0x10],rdi
    b97b:	4b 89 74 f5 e8       	mov    QWORD PTR [r13+r14*8-0x18],rsi
    b980:	48 8b b4 24 18 08 00 	mov    rsi,QWORD PTR [rsp+0x818]
    b987:	00 
    b988:	4c 89 a6 98 00 00 00 	mov    QWORD PTR [rsi+0x98],r12
    b98f:	48 89 df             	mov    rdi,rbx
    b992:	4c 89 fe             	mov    rsi,r15
    b995:	48 b8 00 00 00 00 00 	movabs rax,0x0
    b99c:	00 00 00 
			b997: R_X86_64_64	apply_n
    b99f:	48 89 bc 24 70 05 00 	mov    QWORD PTR [rsp+0x570],rdi
    b9a6:	00 
    b9a7:	ff d0                	call   rax
    b9a9:	48 89 84 24 70 05 00 	mov    QWORD PTR [rsp+0x570],rax
    b9b0:	00 
    b9b1:	48 8b b4 24 10 08 00 	mov    rsi,QWORD PTR [rsp+0x810]
    b9b8:	00 
    b9b9:	48 8b 7e 08          	mov    rdi,QWORD PTR [rsi+0x8]
    b9bd:	48 8b b4 24 00 08 00 	mov    rsi,QWORD PTR [rsp+0x800]
    b9c4:	00 
    b9c5:	48 b8 00 00 00 00 00 	movabs rax,0x0
    b9cc:	00 00 00 
			b9c7: R_X86_64_64	apply1
    b9cf:	48 89 b4 24 80 05 00 	mov    QWORD PTR [rsp+0x580],rsi
    b9d6:	00 
    b9d7:	48 89 bc 24 90 05 00 	mov    QWORD PTR [rsp+0x590],rdi
    b9de:	00 
    b9df:	ff d0                	call   rax
    b9e1:	49 89 c7             	mov    r15,rax
    b9e4:	49 89 d6             	mov    r14,rdx
    b9e7:	4d 85 f6             	test   r14,r14
    b9ea:	0f 85 0d 00 00 00    	jne    b9fd <big_makeblock+0xb9fd>
    b9f0:	4c 89 bc 24 88 07 00 	mov    QWORD PTR [rsp+0x788],r15
    b9f7:	00 
    b9f8:	e9 9d 00 00 00       	jmp    ba9a <big_makeblock+0xba9a>
    b9fd:	48 8b b4 24 18 08 00 	mov    rsi,QWORD PTR [rsp+0x818]
    ba04:	00 
    ba05:	4c 8b ae 98 00 00 00 	mov    r13,QWORD PTR [rsi+0x98]
    ba0c:	4c 89 f3             	mov    rbx,r14
    ba0f:	48 83 c3 ff          	add    rbx,0xffffffffffffffff
    ba13:	4c 89 f2             	mov    rdx,r14
    ba16:	48 c1 e2 03          	shl    rdx,0x3
    ba1a:	4d 89 ec             	mov    r12,r13
    ba1d:	49 01 d4             	add    r12,rdx
    ba20:	4c 89 ef             	mov    rdi,r13
    ba23:	48 83 c7 e8          	add    rdi,0xffffffffffffffe8
    ba27:	4c 89 ee             	mov    rsi,r13
    ba2a:	48 b8 00 00 00 00 00 	movabs rax,0x0
    ba31:	00 00 00 
			ba2c: R_X86_64_64	memmove
    ba34:	4c 89 bc 24 80 05 00 	mov    QWORD PTR [rsp+0x580],r15
    ba3b:	00 
    ba3c:	ff d0                	call   rax
    ba3e:	4c 8b bc 24 80 05 00 	mov    r15,QWORD PTR [rsp+0x580]
    ba45:	00 
    ba46:	48 be 00 00 00 00 00 	movabs rsi,0x0
    ba4d:	00 00 00 
			ba48: R_X86_64_64	callback_return_addr
    ba50:	bf 01 00 00 00       	mov    edi,0x1
    ba55:	4b 89 7c f5 f8       	mov    QWORD PTR [r13+r14*8-0x8],rdi
    ba5a:	bf 01 00 00 00       	mov    edi,0x1
    ba5f:	4b 89 7c f5 f0       	mov    QWORD PTR [r13+r14*8-0x10],rdi
    ba64:	4b 89 74 f5 e8       	mov    QWORD PTR [r13+r14*8-0x18],rsi
    ba69:	48 8b b4 24 18 08 00 	mov    rsi,QWORD PTR [rsp+0x818]
    ba70:	00 
    ba71:	4c 89 a6 98 00 00 00 	mov    QWORD PTR [rsi+0x98],r12
    ba78:	4c 89 ff             	mov    rdi,r15
    ba7b:	48 89 de             	mov    rsi,rbx
    ba7e:	48 b8 00 00 00 00 00 	movabs rax,0x0
    ba85:	00 00 00 
			ba80: R_X86_64_64	apply_n
    ba88:	48 89 bc 24 80 05 00 	mov    QWORD PTR [rsp+0x580],rdi
    ba8f:	00 
    ba90:	ff d0                	call   rax
    ba92:	48 89 84 24 88 07 00 	mov    QWORD PTR [rsp+0x788],rax
    ba99:	00 
    ba9a:	48 8b b4 24 10 08 00 	mov    rsi,QWORD PTR [rsp+0x810]
    baa1:	00 
    baa2:	48 8b 7e 08          	mov    rdi,QWORD PTR [rsi+0x8]
    baa6:	48 8b b4 24 00 08 00 	mov    rsi,QWORD PTR [rsp+0x800]
    baad:	00 
    baae:	48 b8 00 00 00 00 00 	movabs rax,0x0
    bab5:	00 00 00 
			bab0: R_X86_64_64	apply1
    bab8:	48 89 b4 24 80 05 00 	mov    QWORD PTR [rsp+0x580],rsi
    babf:	00 
    bac0:	48 89 bc 24 90 05 00 	mov    QWORD PTR [rsp+0x590],rdi
    bac7:	00 
    bac8:	ff d0                	call   rax
    baca:	48 89 c3             	mov    rbx,rax
    bacd:	49 89 d6             	mov    r14,rdx
    bad0:	4d 85 f6             	test   r14,r14
    bad3:	0f 85 0d 00 00 00    	jne    bae6 <big_makeblock+0xbae6>
    bad9:	48 89 9c 24 80 05 00 	mov    QWORD PTR [rsp+0x580],rbx
    bae0:	00 
    bae1:	e9 9d 00 00 00       	jmp    bb83 <big_makeblock+0xbb83>
    bae6:	48 8b b4 24 18 08 00 	mov    rsi,QWORD PTR [rsp+0x818]
    baed:	00 
    baee:	4c 8b ae 98 00 00 00 	mov    r13,QWORD PTR [rsi+0x98]
    baf5:	4d 89 f7             	mov    r15,r14
    baf8:	49 83 c7 ff          	add    r15,0xffffffffffffffff
    bafc:	4c 89 f2             	mov    rdx,r14
    baff:	48 c1 e2 03          	shl    rdx,0x3
    bb03:	4d 89 ec             	mov    r12,r13
    bb06:	49 01 d4             	add    r12,rdx
    bb09:	4c 89 ef             	mov    rdi,r13
    bb0c:	48 83 c7 e8          	add    rdi,0xffffffffffffffe8
    bb10:	4c 89 ee             	mov    rsi,r13
    bb13:	48 b8 00 00 00 00 00 	movabs rax,0x0
    bb1a:	00 00 00 
			bb15: R_X86_64_64	memmove
    bb1d:	48 89 9c 24 90 05 00 	mov    QWORD PTR [rsp+0x590],rbx
    bb24:	00 
    bb25:	ff d0                	call   rax
    bb27:	48 8b 9c 24 90 05 00 	mov    rbx,QWORD PTR [rsp+0x590]
    bb2e:	00 
    bb2f:	48 be 00 00 00 00 00 	movabs rsi,0x0
    bb36:	00 00 00 
			bb31: R_X86_64_64	callback_return_addr
    bb39:	bf 01 00 00 00       	mov    edi,0x1
    bb3e:	4b 89 7c f5 f8       	mov    QWORD PTR [r13+r14*8-0x8],rdi
    bb43:	bf 01 00 00 00       	mov    edi,0x1
    bb48:	4b 89 7c f5 f0       	mov    QWORD PTR [r13+r14*8-0x10],rdi
    bb4d:	4b 89 74 f5 e8       	mov    QWORD PTR [r13+r14*8-0x18],rsi
    bb52:	48 8b b4 24 18 08 00 	mov    rsi,QWORD PTR [rsp+0x818]
    bb59:	00 
    bb5a:	4c 89 a6 98 00 00 00 	mov    QWORD PTR [rsi+0x98],r12
    bb61:	48 89 df             	mov    rdi,rbx
    bb64:	4c 89 fe             	mov    rsi,r15
    bb67:	48 b8 00 00 00 00 00 	movabs rax,0x0
    bb6e:	00 00 00 
			bb69: R_X86_64_64	apply_n
    bb71:	48 89 bc 24 80 05 00 	mov    QWORD PTR [rsp+0x580],rdi
    bb78:	00 
    bb79:	ff d0                	call   rax
    bb7b:	48 89 84 24 80 05 00 	mov    QWORD PTR [rsp+0x580],rax
    bb82:	00 
    bb83:	48 8b b4 24 10 08 00 	mov    rsi,QWORD PTR [rsp+0x810]
    bb8a:	00 
    bb8b:	48 8b 7e 08          	mov    rdi,QWORD PTR [rsi+0x8]
    bb8f:	48 8b b4 24 00 08 00 	mov    rsi,QWORD PTR [rsp+0x800]
    bb96:	00 
    bb97:	48 b8 00 00 00 00 00 	movabs rax,0x0
    bb9e:	00 00 00 
			bb99: R_X86_64_64	apply1
    bba1:	48 89 b4 24 90 05 00 	mov    QWORD PTR [rsp+0x590],rsi
    bba8:	00 
    bba9:	48 89 bc 24 a0 05 00 	mov    QWORD PTR [rsp+0x5a0],rdi
    bbb0:	00 
    bbb1:	ff d0                	call   rax
    bbb3:	48 89 c3             	mov    rbx,rax
    bbb6:	49 89 d6             	mov    r14,rdx
    bbb9:	4d 85 f6             	test   r14,r14
    bbbc:	0f 85 0d 00 00 00    	jne    bbcf <big_makeblock+0xbbcf>
    bbc2:	48 89 9c 24 80 07 00 	mov    QWORD PTR [rsp+0x780],rbx
    bbc9:	00 
    bbca:	e9 9d 00 00 00       	jmp    bc6c <big_makeblock+0xbc6c>
    bbcf:	48 8b b4 24 18 08 00 	mov    rsi,QWORD PTR [rsp+0x818]
    bbd6:	00 
    bbd7:	4c 8b ae 98 00 00 00 	mov    r13,QWORD PTR [rsi+0x98]
    bbde:	4d 89 f7             	mov    r15,r14
    bbe1:	49 83 c7 ff          	add    r15,0xffffffffffffffff
    bbe5:	4c 89 f2             	mov    rdx,r14
    bbe8:	48 c1 e2 03          	shl    rdx,0x3
    bbec:	4d 89 ec             	mov    r12,r13
    bbef:	49 01 d4             	add    r12,rdx
    bbf2:	4c 89 ef             	mov    rdi,r13
    bbf5:	48 83 c7 e8          	add    rdi,0xffffffffffffffe8
    bbf9:	4c 89 ee             	mov    rsi,r13
    bbfc:	48 b8 00 00 00 00 00 	movabs rax,0x0
    bc03:	00 00 00 
			bbfe: R_X86_64_64	memmove
    bc06:	48 89 9c 24 90 05 00 	mov    QWORD PTR [rsp+0x590],rbx
    bc0d:	00 
    bc0e:	ff d0                	call   rax
    bc10:	48 8b 9c 24 90 05 00 	mov    rbx,QWORD PTR [rsp+0x590]
    bc17:	00 
    bc18:	48 be 00 00 00 00 00 	movabs rsi,0x0
    bc1f:	00 00 00 
			bc1a: R_X86_64_64	callback_return_addr
    bc22:	bf 01 00 00 00       	mov    edi,0x1
    bc27:	4b 89 7c f5 f8       	mov    QWORD PTR [r13+r14*8-0x8],rdi
    bc2c:	bf 01 00 00 00       	mov    edi,0x1
    bc31:	4b 89 7c f5 f0       	mov    QWORD PTR [r13+r14*8-0x10],rdi
    bc36:	4b 89 74 f5 e8       	mov    QWORD PTR [r13+r14*8-0x18],rsi
    bc3b:	48 8b b4 24 18 08 00 	mov    rsi,QWORD PTR [rsp+0x818]
    bc42:	00 
    bc43:	4c 89 a6 98 00 00 00 	mov    QWORD PTR [rsi+0x98],r12
    bc4a:	48 89 df             	mov    rdi,rbx
    bc4d:	4c 89 fe             	mov    rsi,r15
    bc50:	48 b8 00 00 00 00 00 	movabs rax,0x0
    bc57:	00 00 00 
			bc52: R_X86_64_64	apply_n
    bc5a:	48 89 bc 24 90 05 00 	mov    QWORD PTR [rsp+0x590],rdi
    bc61:	00 
    bc62:	ff d0                	call   rax
    bc64:	48 89 84 24 80 07 00 	mov    QWORD PTR [rsp+0x780],rax
    bc6b:	00 
    bc6c:	48 8b b4 24 10 08 00 	mov    rsi,QWORD PTR [rsp+0x810]
    bc73:	00 
    bc74:	48 8b 7e 08          	mov    rdi,QWORD PTR [rsi+0x8]
    bc78:	48 8b b4 24 00 08 00 	mov    rsi,QWORD PTR [rsp+0x800]
    bc7f:	00 
    bc80:	48 b8 00 00 00 00 00 	movabs rax,0x0
    bc87:	00 00 00 
			bc82: R_X86_64_64	apply1
    bc8a:	48 89 b4 24 90 05 00 	mov    QWORD PTR [rsp+0x590],rsi
    bc91:	00 
    bc92:	48 89 bc 24 a0 05 00 	mov    QWORD PTR [rsp+0x5a0],rdi
    bc99:	00 
    bc9a:	ff d0                	call   rax
    bc9c:	49 89 c7             	mov    r15,rax
    bc9f:	49 89 d6             	mov    r14,rdx
    bca2:	4d 85 f6             	test   r14,r14
    bca5:	0f 85 0d 00 00 00    	jne    bcb8 <big_makeblock+0xbcb8>
    bcab:	4c 89 bc 24 90 05 00 	mov    QWORD PTR [rsp+0x590],r15
    bcb2:	00 
    bcb3:	e9 9d 00 00 00       	jmp    bd55 <big_makeblock+0xbd55>
    bcb8:	48 8b b4 24 18 08 00 	mov    rsi,QWORD PTR [rsp+0x818]
    bcbf:	00 
    bcc0:	4c 8b ae 98 00 00 00 	mov    r13,QWORD PTR [rsi+0x98]
    bcc7:	4c 89 f3             	mov    rbx,r14
    bcca:	48 83 c3 ff          	add    rbx,0xffffffffffffffff
    bcce:	4c 89 f2             	mov    rdx,r14
    bcd1:	48 c1 e2 03          	shl    rdx,0x3
    bcd5:	4d 89 ec             	mov    r12,r13
    bcd8:	49 01 d4             	add    r12,rdx
    bcdb:	4c 89 ef             	mov    rdi,r13
    bcde:	48 83 c7 e8          	add    rdi,0xffffffffffffffe8
    bce2:	4c 89 ee             	mov    rsi,r13
    bce5:	48 b8 00 00 00 00 00 	movabs rax,0x0
    bcec:	00 00 00 
			bce7: R_X86_64_64	memmove
    bcef:	4c 89 bc 24 a0 05 00 	mov    QWORD PTR [rsp+0x5a0],r15
    bcf6:	00 
    bcf7:	ff d0                	call   rax
    bcf9:	4c 8b bc 24 a0 05 00 	mov    r15,QWORD PTR [rsp+0x5a0]
    bd00:	00 
    bd01:	48 be 00 00 00 00 00 	movabs rsi,0x0
    bd08:	00 00 00 
			bd03: R_X86_64_64	callback_return_addr
    bd0b:	bf 01 00 00 00       	mov    edi,0x1
    bd10:	4b 89 7c f5 f8       	mov    QWORD PTR [r13+r14*8-0x8],rdi
    bd15:	bf 01 00 00 00       	mov    edi,0x1
    bd1a:	4b 89 7c f5 f0       	mov    QWORD PTR [r13+r14*8-0x10],rdi
    bd1f:	4b 89 74 f5 e8       	mov    QWORD PTR [r13+r14*8-0x18],rsi
    bd24:	48 8b b4 24 18 08 00 	mov    rsi,QWORD PTR [rsp+0x818]
    bd2b:	00 
    bd2c:	4c 89 a6 98 00 00 00 	mov    QWORD PTR [rsi+0x98],r12
    bd33:	4c 89 ff             	mov    rdi,r15
    bd36:	48 89 de             	mov    rsi,rbx
    bd39:	48 b8 00 00 00 00 00 	movabs rax,0x0
    bd40:	00 00 00 
			bd3b: R_X86_64_64	apply_n
    bd43:	48 89 bc 24 90 05 00 	mov    QWORD PTR [rsp+0x590],rdi
    bd4a:	00 
    bd4b:	ff d0                	call   rax
    bd4d:	48 89 84 24 90 05 00 	mov    QWORD PTR [rsp+0x590],rax
    bd54:	00 
    bd55:	48 8b b4 24 10 08 00 	mov    rsi,QWORD PTR [rsp+0x810]
    bd5c:	00 
    bd5d:	48 8b 7e 08          	mov    rdi,QWORD PTR [rsi+0x8]
    bd61:	48 8b b4 24 00 08 00 	mov    rsi,QWORD PTR [rsp+0x800]
    bd68:	00 
    bd69:	48 b8 00 00 00 00 00 	movabs rax,0x0
    bd70:	00 00 00 
			bd6b: R_X86_64_64	apply1
    bd73:	48 89 b4 24 a0 05 00 	mov    QWORD PTR [rsp+0x5a0],rsi
    bd7a:	00 
    bd7b:	48 89 bc 24 b0 05 00 	mov    QWORD PTR [rsp+0x5b0],rdi
    bd82:	00 
    bd83:	ff d0                	call   rax
    bd85:	48 89 c3             	mov    rbx,rax
    bd88:	49 89 d6             	mov    r14,rdx
    bd8b:	4d 85 f6             	test   r14,r14
    bd8e:	0f 85 0d 00 00 00    	jne    bda1 <big_makeblock+0xbda1>
    bd94:	48 89 9c 24 78 07 00 	mov    QWORD PTR [rsp+0x778],rbx
    bd9b:	00 
    bd9c:	e9 9d 00 00 00       	jmp    be3e <big_makeblock+0xbe3e>
    bda1:	48 8b b4 24 18 08 00 	mov    rsi,QWORD PTR [rsp+0x818]
    bda8:	00 
    bda9:	4c 8b ae 98 00 00 00 	mov    r13,QWORD PTR [rsi+0x98]
    bdb0:	4d 89 f7             	mov    r15,r14
    bdb3:	49 83 c7 ff          	add    r15,0xffffffffffffffff
    bdb7:	4c 89 f2             	mov    rdx,r14
    bdba:	48 c1 e2 03          	shl    rdx,0x3
    bdbe:	4d 89 ec             	mov    r12,r13
    bdc1:	49 01 d4             	add    r12,rdx
    bdc4:	4c 89 ef             	mov    rdi,r13
    bdc7:	48 83 c7 e8          	add    rdi,0xffffffffffffffe8
    bdcb:	4c 89 ee             	mov    rsi,r13
    bdce:	48 b8 00 00 00 00 00 	movabs rax,0x0
    bdd5:	00 00 00 
			bdd0: R_X86_64_64	memmove
    bdd8:	48 89 9c 24 a0 05 00 	mov    QWORD PTR [rsp+0x5a0],rbx
    bddf:	00 
    bde0:	ff d0                	call   rax
    bde2:	48 8b 9c 24 a0 05 00 	mov    rbx,QWORD PTR [rsp+0x5a0]
    bde9:	00 
    bdea:	48 be 00 00 00 00 00 	movabs rsi,0x0
    bdf1:	00 00 00 
			bdec: R_X86_64_64	callback_return_addr
    bdf4:	bf 01 00 00 00       	mov    edi,0x1
    bdf9:	4b 89 7c f5 f8       	mov    QWORD PTR [r13+r14*8-0x8],rdi
    bdfe:	bf 01 00 00 00       	mov    edi,0x1
    be03:	4b 89 7c f5 f0       	mov    QWORD PTR [r13+r14*8-0x10],rdi
    be08:	4b 89 74 f5 e8       	mov    QWORD PTR [r13+r14*8-0x18],rsi
    be0d:	48 8b b4 24 18 08 00 	mov    rsi,QWORD PTR [rsp+0x818]
    be14:	00 
    be15:	4c 89 a6 98 00 00 00 	mov    QWORD PTR [rsi+0x98],r12
    be1c:	48 89 df             	mov    rdi,rbx
    be1f:	4c 89 fe             	mov    rsi,r15
    be22:	48 b8 00 00 00 00 00 	movabs rax,0x0
    be29:	00 00 00 
			be24: R_X86_64_64	apply_n
    be2c:	48 89 bc 24 a0 05 00 	mov    QWORD PTR [rsp+0x5a0],rdi
    be33:	00 
    be34:	ff d0                	call   rax
    be36:	48 89 84 24 78 07 00 	mov    QWORD PTR [rsp+0x778],rax
    be3d:	00 
    be3e:	48 8b b4 24 10 08 00 	mov    rsi,QWORD PTR [rsp+0x810]
    be45:	00 
    be46:	48 8b 7e 08          	mov    rdi,QWORD PTR [rsi+0x8]
    be4a:	48 8b b4 24 00 08 00 	mov    rsi,QWORD PTR [rsp+0x800]
    be51:	00 
    be52:	48 b8 00 00 00 00 00 	movabs rax,0x0
    be59:	00 00 00 
			be54: R_X86_64_64	apply1
    be5c:	48 89 b4 24 a0 05 00 	mov    QWORD PTR [rsp+0x5a0],rsi
    be63:	00 
    be64:	48 89 bc 24 b0 05 00 	mov    QWORD PTR [rsp+0x5b0],rdi
    be6b:	00 
    be6c:	ff d0                	call   rax
    be6e:	48 89 c3             	mov    rbx,rax
    be71:	49 89 d6             	mov    r14,rdx
    be74:	4d 85 f6             	test   r14,r14
    be77:	0f 85 0d 00 00 00    	jne    be8a <big_makeblock+0xbe8a>
    be7d:	48 89 9c 24 a0 05 00 	mov    QWORD PTR [rsp+0x5a0],rbx
    be84:	00 
    be85:	e9 9d 00 00 00       	jmp    bf27 <big_makeblock+0xbf27>
    be8a:	48 8b b4 24 18 08 00 	mov    rsi,QWORD PTR [rsp+0x818]
    be91:	00 
    be92:	4c 8b ae 98 00 00 00 	mov    r13,QWORD PTR [rsi+0x98]
    be99:	4d 89 f7             	mov    r15,r14
    be9c:	49 83 c7 ff          	add    r15,0xffffffffffffffff
    bea0:	4c 89 f2             	mov    rdx,r14
    bea3:	48 c1 e2 03          	shl    rdx,0x3
    bea7:	4d 89 ec             	mov    r12,r13
    beaa:	49 01 d4             	add    r12,rdx
    bead:	4c 89 ef             	mov    rdi,r13
    beb0:	48 83 c7 e8          	add    rdi,0xffffffffffffffe8
    beb4:	4c 89 ee             	mov    rsi,r13
    beb7:	48 b8 00 00 00 00 00 	movabs rax,0x0
    bebe:	00 00 00 
			beb9: R_X86_64_64	memmove
    bec1:	48 89 9c 24 b0 05 00 	mov    QWORD PTR [rsp+0x5b0],rbx
    bec8:	00 
    bec9:	ff d0                	call   rax
    becb:	48 8b 9c 24 b0 05 00 	mov    rbx,QWORD PTR [rsp+0x5b0]
    bed2:	00 
    bed3:	48 be 00 00 00 00 00 	movabs rsi,0x0
    beda:	00 00 00 
			bed5: R_X86_64_64	callback_return_addr
    bedd:	bf 01 00 00 00       	mov    edi,0x1
    bee2:	4b 89 7c f5 f8       	mov    QWORD PTR [r13+r14*8-0x8],rdi
    bee7:	bf 01 00 00 00       	mov    edi,0x1
    beec:	4b 89 7c f5 f0       	mov    QWORD PTR [r13+r14*8-0x10],rdi
    bef1:	4b 89 74 f5 e8       	mov    QWORD PTR [r13+r14*8-0x18],rsi
    bef6:	48 8b b4 24 18 08 00 	mov    rsi,QWORD PTR [rsp+0x818]
    befd:	00 
    befe:	4c 89 a6 98 00 00 00 	mov    QWORD PTR [rsi+0x98],r12
    bf05:	48 89 df             	mov    rdi,rbx
    bf08:	4c 89 fe             	mov    rsi,r15
    bf0b:	48 b8 00 00 00 00 00 	movabs rax,0x0
    bf12:	00 00 00 
			bf0d: R_X86_64_64	apply_n
    bf15:	48 89 bc 24 a0 05 00 	mov    QWORD PTR [rsp+0x5a0],rdi
    bf1c:	00 
    bf1d:	ff d0                	call   rax
    bf1f:	48 89 84 24 a0 05 00 	mov    QWORD PTR [rsp+0x5a0],rax
    bf26:	00 
    bf27:	48 8b b4 24 10 08 00 	mov    rsi,QWORD PTR [rsp+0x810]
    bf2e:	00 
    bf2f:	48 8b 7e 08          	mov    rdi,QWORD PTR [rsi+0x8]
    bf33:	48 8b b4 24 00 08 00 	mov    rsi,QWORD PTR [rsp+0x800]
    bf3a:	00 
    bf3b:	48 b8 00 00 00 00 00 	movabs rax,0x0
    bf42:	00 00 00 
			bf3d: R_X86_64_64	apply1
    bf45:	48 89 b4 24 b0 05 00 	mov    QWORD PTR [rsp+0x5b0],rsi
    bf4c:	00 
    bf4d:	48 89 bc 24 c0 05 00 	mov    QWORD PTR [rsp+0x5c0],rdi
    bf54:	00 
    bf55:	ff d0                	call   rax
    bf57:	49 89 c7             	mov    r15,rax
    bf5a:	49 89 d6             	mov    r14,rdx
    bf5d:	4d 85 f6             	test   r14,r14
    bf60:	0f 85 0d 00 00 00    	jne    bf73 <big_makeblock+0xbf73>
    bf66:	4c 89 bc 24 70 07 00 	mov    QWORD PTR [rsp+0x770],r15
    bf6d:	00 
    bf6e:	e9 9d 00 00 00       	jmp    c010 <big_makeblock+0xc010>
    bf73:	48 8b b4 24 18 08 00 	mov    rsi,QWORD PTR [rsp+0x818]
    bf7a:	00 
    bf7b:	4c 8b ae 98 00 00 00 	mov    r13,QWORD PTR [rsi+0x98]
    bf82:	4c 89 f3             	mov    rbx,r14
    bf85:	48 83 c3 ff          	add    rbx,0xffffffffffffffff
    bf89:	4c 89 f2             	mov    rdx,r14
    bf8c:	48 c1 e2 03          	shl    rdx,0x3
    bf90:	4d 89 ec             	mov    r12,r13
    bf93:	49 01 d4             	add    r12,rdx
    bf96:	4c 89 ef             	mov    rdi,r13
    bf99:	48 83 c7 e8          	add    rdi,0xffffffffffffffe8
    bf9d:	4c 89 ee             	mov    rsi,r13
    bfa0:	48 b8 00 00 00 00 00 	movabs rax,0x0
    bfa7:	00 00 00 
			bfa2: R_X86_64_64	memmove
    bfaa:	4c 89 bc 24 b0 05 00 	mov    QWORD PTR [rsp+0x5b0],r15
    bfb1:	00 
    bfb2:	ff d0                	call   rax
    bfb4:	4c 8b bc 24 b0 05 00 	mov    r15,QWORD PTR [rsp+0x5b0]
    bfbb:	00 
    bfbc:	48 be 00 00 00 00 00 	movabs rsi,0x0
    bfc3:	00 00 00 
			bfbe: R_X86_64_64	callback_return_addr
    bfc6:	bf 01 00 00 00       	mov    edi,0x1
    bfcb:	4b 89 7c f5 f8       	mov    QWORD PTR [r13+r14*8-0x8],rdi
    bfd0:	bf 01 00 00 00       	mov    edi,0x1
    bfd5:	4b 89 7c f5 f0       	mov    QWORD PTR [r13+r14*8-0x10],rdi
    bfda:	4b 89 74 f5 e8       	mov    QWORD PTR [r13+r14*8-0x18],rsi
    bfdf:	48 8b b4 24 18 08 00 	mov    rsi,QWORD PTR [rsp+0x818]
    bfe6:	00 
    bfe7:	4c 89 a6 98 00 00 00 	mov    QWORD PTR [rsi+0x98],r12
    bfee:	4c 89 ff             	mov    rdi,r15
    bff1:	48 89 de             	mov    rsi,rbx
    bff4:	48 b8 00 00 00 00 00 	movabs rax,0x0
    bffb:	00 00 00 
			bff6: R_X86_64_64	apply_n
    bffe:	48 89 bc 24 b0 05 00 	mov    QWORD PTR [rsp+0x5b0],rdi
    c005:	00 
    c006:	ff d0                	call   rax
    c008:	48 89 84 24 70 07 00 	mov    QWORD PTR [rsp+0x770],rax
    c00f:	00 
    c010:	48 8b b4 24 10 08 00 	mov    rsi,QWORD PTR [rsp+0x810]
    c017:	00 
    c018:	48 8b 7e 08          	mov    rdi,QWORD PTR [rsi+0x8]
    c01c:	48 8b b4 24 00 08 00 	mov    rsi,QWORD PTR [rsp+0x800]
    c023:	00 
    c024:	48 b8 00 00 00 00 00 	movabs rax,0x0
    c02b:	00 00 00 
			c026: R_X86_64_64	apply1
    c02e:	48 89 b4 24 b0 05 00 	mov    QWORD PTR [rsp+0x5b0],rsi
    c035:	00 
    c036:	48 89 bc 24 c0 05 00 	mov    QWORD PTR [rsp+0x5c0],rdi
    c03d:	00 
    c03e:	ff d0                	call   rax
    c040:	48 89 c3             	mov    rbx,rax
    c043:	49 89 d6             	mov    r14,rdx
    c046:	4d 85 f6             	test   r14,r14
    c049:	0f 85 0d 00 00 00    	jne    c05c <big_makeblock+0xc05c>
    c04f:	48 89 9c 24 b0 05 00 	mov    QWORD PTR [rsp+0x5b0],rbx
    c056:	00 
    c057:	e9 9d 00 00 00       	jmp    c0f9 <big_makeblock+0xc0f9>
    c05c:	48 8b b4 24 18 08 00 	mov    rsi,QWORD PTR [rsp+0x818]
    c063:	00 
    c064:	4c 8b ae 98 00 00 00 	mov    r13,QWORD PTR [rsi+0x98]
    c06b:	4d 89 f7             	mov    r15,r14
    c06e:	49 83 c7 ff          	add    r15,0xffffffffffffffff
    c072:	4c 89 f2             	mov    rdx,r14
    c075:	48 c1 e2 03          	shl    rdx,0x3
    c079:	4d 89 ec             	mov    r12,r13
    c07c:	49 01 d4             	add    r12,rdx
    c07f:	4c 89 ef             	mov    rdi,r13
    c082:	48 83 c7 e8          	add    rdi,0xffffffffffffffe8
    c086:	4c 89 ee             	mov    rsi,r13
    c089:	48 b8 00 00 00 00 00 	movabs rax,0x0
    c090:	00 00 00 
			c08b: R_X86_64_64	memmove
    c093:	48 89 9c 24 c0 05 00 	mov    QWORD PTR [rsp+0x5c0],rbx
    c09a:	00 
    c09b:	ff d0                	call   rax
    c09d:	48 8b 9c 24 c0 05 00 	mov    rbx,QWORD PTR [rsp+0x5c0]
    c0a4:	00 
    c0a5:	48 be 00 00 00 00 00 	movabs rsi,0x0
    c0ac:	00 00 00 
			c0a7: R_X86_64_64	callback_return_addr
    c0af:	bf 01 00 00 00       	mov    edi,0x1
    c0b4:	4b 89 7c f5 f8       	mov    QWORD PTR [r13+r14*8-0x8],rdi
    c0b9:	bf 01 00 00 00       	mov    edi,0x1
    c0be:	4b 89 7c f5 f0       	mov    QWORD PTR [r13+r14*8-0x10],rdi
    c0c3:	4b 89 74 f5 e8       	mov    QWORD PTR [r13+r14*8-0x18],rsi
    c0c8:	48 8b b4 24 18 08 00 	mov    rsi,QWORD PTR [rsp+0x818]
    c0cf:	00 
    c0d0:	4c 89 a6 98 00 00 00 	mov    QWORD PTR [rsi+0x98],r12
    c0d7:	48 89 df             	mov    rdi,rbx
    c0da:	4c 89 fe             	mov    rsi,r15
    c0dd:	48 b8 00 00 00 00 00 	movabs rax,0x0
    c0e4:	00 00 00 
			c0df: R_X86_64_64	apply_n
    c0e7:	48 89 bc 24 b0 05 00 	mov    QWORD PTR [rsp+0x5b0],rdi
    c0ee:	00 
    c0ef:	ff d0                	call   rax
    c0f1:	48 89 84 24 b0 05 00 	mov    QWORD PTR [rsp+0x5b0],rax
    c0f8:	00 
    c0f9:	48 8b b4 24 10 08 00 	mov    rsi,QWORD PTR [rsp+0x810]
    c100:	00 
    c101:	48 8b 7e 08          	mov    rdi,QWORD PTR [rsi+0x8]
    c105:	48 8b b4 24 00 08 00 	mov    rsi,QWORD PTR [rsp+0x800]
    c10c:	00 
    c10d:	48 b8 00 00 00 00 00 	movabs rax,0x0
    c114:	00 00 00 
			c10f: R_X86_64_64	apply1
    c117:	48 89 b4 24 c0 05 00 	mov    QWORD PTR [rsp+0x5c0],rsi
    c11e:	00 
    c11f:	48 89 bc 24 d0 05 00 	mov    QWORD PTR [rsp+0x5d0],rdi
    c126:	00 
    c127:	ff d0                	call   rax
    c129:	48 89 c3             	mov    rbx,rax
    c12c:	49 89 d6             	mov    r14,rdx
    c12f:	4d 85 f6             	test   r14,r14
    c132:	0f 85 0d 00 00 00    	jne    c145 <big_makeblock+0xc145>
    c138:	48 89 9c 24 68 07 00 	mov    QWORD PTR [rsp+0x768],rbx
    c13f:	00 
    c140:	e9 9d 00 00 00       	jmp    c1e2 <big_makeblock+0xc1e2>
    c145:	48 8b b4 24 18 08 00 	mov    rsi,QWORD PTR [rsp+0x818]
    c14c:	00 
    c14d:	4c 8b ae 98 00 00 00 	mov    r13,QWORD PTR [rsi+0x98]
    c154:	4d 89 f7             	mov    r15,r14
    c157:	49 83 c7 ff          	add    r15,0xffffffffffffffff
    c15b:	4c 89 f2             	mov    rdx,r14
    c15e:	48 c1 e2 03          	shl    rdx,0x3
    c162:	4d 89 ec             	mov    r12,r13
    c165:	49 01 d4             	add    r12,rdx
    c168:	4c 89 ef             	mov    rdi,r13
    c16b:	48 83 c7 e8          	add    rdi,0xffffffffffffffe8
    c16f:	4c 89 ee             	mov    rsi,r13
    c172:	48 b8 00 00 00 00 00 	movabs rax,0x0
    c179:	00 00 00 
			c174: R_X86_64_64	memmove
    c17c:	48 89 9c 24 c0 05 00 	mov    QWORD PTR [rsp+0x5c0],rbx
    c183:	00 
    c184:	ff d0                	call   rax
    c186:	48 8b 9c 24 c0 05 00 	mov    rbx,QWORD PTR [rsp+0x5c0]
    c18d:	00 
    c18e:	48 be 00 00 00 00 00 	movabs rsi,0x0
    c195:	00 00 00 
			c190: R_X86_64_64	callback_return_addr
    c198:	bf 01 00 00 00       	mov    edi,0x1
    c19d:	4b 89 7c f5 f8       	mov    QWORD PTR [r13+r14*8-0x8],rdi
    c1a2:	bf 01 00 00 00       	mov    edi,0x1
    c1a7:	4b 89 7c f5 f0       	mov    QWORD PTR [r13+r14*8-0x10],rdi
    c1ac:	4b 89 74 f5 e8       	mov    QWORD PTR [r13+r14*8-0x18],rsi
    c1b1:	48 8b b4 24 18 08 00 	mov    rsi,QWORD PTR [rsp+0x818]
    c1b8:	00 
    c1b9:	4c 89 a6 98 00 00 00 	mov    QWORD PTR [rsi+0x98],r12
    c1c0:	48 89 df             	mov    rdi,rbx
    c1c3:	4c 89 fe             	mov    rsi,r15
    c1c6:	48 b8 00 00 00 00 00 	movabs rax,0x0
    c1cd:	00 00 00 
			c1c8: R_X86_64_64	apply_n
    c1d0:	48 89 bc 24 c0 05 00 	mov    QWORD PTR [rsp+0x5c0],rdi
    c1d7:	00 
    c1d8:	ff d0                	call   rax
    c1da:	48 89 84 24 68 07 00 	mov    QWORD PTR [rsp+0x768],rax
    c1e1:	00 
    c1e2:	48 8b b4 24 10 08 00 	mov    rsi,QWORD PTR [rsp+0x810]
    c1e9:	00 
    c1ea:	48 8b 7e 08          	mov    rdi,QWORD PTR [rsi+0x8]
    c1ee:	48 8b b4 24 00 08 00 	mov    rsi,QWORD PTR [rsp+0x800]
    c1f5:	00 
    c1f6:	48 b8 00 00 00 00 00 	movabs rax,0x0
    c1fd:	00 00 00 
			c1f8: R_X86_64_64	apply1
    c200:	48 89 b4 24 c0 05 00 	mov    QWORD PTR [rsp+0x5c0],rsi
    c207:	00 
    c208:	48 89 bc 24 d0 05 00 	mov    QWORD PTR [rsp+0x5d0],rdi
    c20f:	00 
    c210:	ff d0                	call   rax
    c212:	49 89 c7             	mov    r15,rax
    c215:	49 89 d6             	mov    r14,rdx
    c218:	4d 85 f6             	test   r14,r14
    c21b:	0f 85 0d 00 00 00    	jne    c22e <big_makeblock+0xc22e>
    c221:	4c 89 bc 24 c0 05 00 	mov    QWORD PTR [rsp+0x5c0],r15
    c228:	00 
    c229:	e9 9d 00 00 00       	jmp    c2cb <big_makeblock+0xc2cb>
    c22e:	48 8b b4 24 18 08 00 	mov    rsi,QWORD PTR [rsp+0x818]
    c235:	00 
    c236:	4c 8b ae 98 00 00 00 	mov    r13,QWORD PTR [rsi+0x98]
    c23d:	4c 89 f3             	mov    rbx,r14
    c240:	48 83 c3 ff          	add    rbx,0xffffffffffffffff
    c244:	4c 89 f2             	mov    rdx,r14
    c247:	48 c1 e2 03          	shl    rdx,0x3
    c24b:	4d 89 ec             	mov    r12,r13
    c24e:	49 01 d4             	add    r12,rdx
    c251:	4c 89 ef             	mov    rdi,r13
    c254:	48 83 c7 e8          	add    rdi,0xffffffffffffffe8
    c258:	4c 89 ee             	mov    rsi,r13
    c25b:	48 b8 00 00 00 00 00 	movabs rax,0x0
    c262:	00 00 00 
			c25d: R_X86_64_64	memmove
    c265:	4c 89 bc 24 d0 05 00 	mov    QWORD PTR [rsp+0x5d0],r15
    c26c:	00 
    c26d:	ff d0                	call   rax
    c26f:	4c 8b bc 24 d0 05 00 	mov    r15,QWORD PTR [rsp+0x5d0]
    c276:	00 
    c277:	48 be 00 00 00 00 00 	movabs rsi,0x0
    c27e:	00 00 00 
			c279: R_X86_64_64	callback_return_addr
    c281:	bf 01 00 00 00       	mov    edi,0x1
    c286:	4b 89 7c f5 f8       	mov    QWORD PTR [r13+r14*8-0x8],rdi
    c28b:	bf 01 00 00 00       	mov    edi,0x1
    c290:	4b 89 7c f5 f0       	mov    QWORD PTR [r13+r14*8-0x10],rdi
    c295:	4b 89 74 f5 e8       	mov    QWORD PTR [r13+r14*8-0x18],rsi
    c29a:	48 8b b4 24 18 08 00 	mov    rsi,QWORD PTR [rsp+0x818]
    c2a1:	00 
    c2a2:	4c 89 a6 98 00 00 00 	mov    QWORD PTR [rsi+0x98],r12
    c2a9:	4c 89 ff             	mov    rdi,r15
    c2ac:	48 89 de             	mov    rsi,rbx
    c2af:	48 b8 00 00 00 00 00 	movabs rax,0x0
    c2b6:	00 00 00 
			c2b1: R_X86_64_64	apply_n
    c2b9:	48 89 bc 24 c0 05 00 	mov    QWORD PTR [rsp+0x5c0],rdi
    c2c0:	00 
    c2c1:	ff d0                	call   rax
    c2c3:	48 89 84 24 c0 05 00 	mov    QWORD PTR [rsp+0x5c0],rax
    c2ca:	00 
    c2cb:	48 8b b4 24 10 08 00 	mov    rsi,QWORD PTR [rsp+0x810]
    c2d2:	00 
    c2d3:	48 8b 7e 08          	mov    rdi,QWORD PTR [rsi+0x8]
    c2d7:	48 8b b4 24 00 08 00 	mov    rsi,QWORD PTR [rsp+0x800]
    c2de:	00 
    c2df:	48 b8 00 00 00 00 00 	movabs rax,0x0
    c2e6:	00 00 00 
			c2e1: R_X86_64_64	apply1
    c2e9:	48 89 b4 24 d0 05 00 	mov    QWORD PTR [rsp+0x5d0],rsi
    c2f0:	00 
    c2f1:	48 89 bc 24 d8 05 00 	mov    QWORD PTR [rsp+0x5d8],rdi
    c2f8:	00 
    c2f9:	ff d0                	call   rax
    c2fb:	48 89 c3             	mov    rbx,rax
    c2fe:	49 89 d6             	mov    r14,rdx
    c301:	4d 85 f6             	test   r14,r14
    c304:	0f 85 0d 00 00 00    	jne    c317 <big_makeblock+0xc317>
    c30a:	48 89 9c 24 60 07 00 	mov    QWORD PTR [rsp+0x760],rbx
    c311:	00 
    c312:	e9 9d 00 00 00       	jmp    c3b4 <big_makeblock+0xc3b4>
    c317:	48 8b b4 24 18 08 00 	mov    rsi,QWORD PTR [rsp+0x818]
    c31e:	00 
    c31f:	4c 8b ae 98 00 00 00 	mov    r13,QWORD PTR [rsi+0x98]
    c326:	4d 89 f7             	mov    r15,r14
    c329:	49 83 c7 ff          	add    r15,0xffffffffffffffff
    c32d:	4c 89 f2             	mov    rdx,r14
    c330:	48 c1 e2 03          	shl    rdx,0x3
    c334:	4d 89 ec             	mov    r12,r13
    c337:	49 01 d4             	add    r12,rdx
    c33a:	4c 89 ef             	mov    rdi,r13
    c33d:	48 83 c7 e8          	add    rdi,0xffffffffffffffe8
    c341:	4c 89 ee             	mov    rsi,r13
    c344:	48 b8 00 00 00 00 00 	movabs rax,0x0
    c34b:	00 00 00 
			c346: R_X86_64_64	memmove
    c34e:	48 89 9c 24 d0 05 00 	mov    QWORD PTR [rsp+0x5d0],rbx
    c355:	00 
    c356:	ff d0                	call   rax
    c358:	48 8b 9c 24 d0 05 00 	mov    rbx,QWORD PTR [rsp+0x5d0]
    c35f:	00 
    c360:	48 be 00 00 00 00 00 	movabs rsi,0x0
    c367:	00 00 00 
			c362: R_X86_64_64	callback_return_addr
    c36a:	bf 01 00 00 00       	mov    edi,0x1
    c36f:	4b 89 7c f5 f8       	mov    QWORD PTR [r13+r14*8-0x8],rdi
    c374:	bf 01 00 00 00       	mov    edi,0x1
    c379:	4b 89 7c f5 f0       	mov    QWORD PTR [r13+r14*8-0x10],rdi
    c37e:	4b 89 74 f5 e8       	mov    QWORD PTR [r13+r14*8-0x18],rsi
    c383:	48 8b b4 24 18 08 00 	mov    rsi,QWORD PTR [rsp+0x818]
    c38a:	00 
    c38b:	4c 89 a6 98 00 00 00 	mov    QWORD PTR [rsi+0x98],r12
    c392:	48 89 df             	mov    rdi,rbx
    c395:	4c 89 fe             	mov    rsi,r15
    c398:	48 b8 00 00 00 00 00 	movabs rax,0x0
    c39f:	00 00 00 
			c39a: R_X86_64_64	apply_n
    c3a2:	48 89 bc 24 d0 05 00 	mov    QWORD PTR [rsp+0x5d0],rdi
    c3a9:	00 
    c3aa:	ff d0                	call   rax
    c3ac:	48 89 84 24 60 07 00 	mov    QWORD PTR [rsp+0x760],rax
    c3b3:	00 
    c3b4:	48 8b b4 24 10 08 00 	mov    rsi,QWORD PTR [rsp+0x810]
    c3bb:	00 
    c3bc:	48 8b 7e 08          	mov    rdi,QWORD PTR [rsi+0x8]
    c3c0:	48 8b b4 24 00 08 00 	mov    rsi,QWORD PTR [rsp+0x800]
    c3c7:	00 
    c3c8:	48 b8 00 00 00 00 00 	movabs rax,0x0
    c3cf:	00 00 00 
			c3ca: R_X86_64_64	apply1
    c3d2:	48 89 b4 24 d0 05 00 	mov    QWORD PTR [rsp+0x5d0],rsi
    c3d9:	00 
    c3da:	48 89 bc 24 d8 05 00 	mov    QWORD PTR [rsp+0x5d8],rdi
    c3e1:	00 
    c3e2:	ff d0                	call   rax
    c3e4:	48 89 c3             	mov    rbx,rax
    c3e7:	49 89 d6             	mov    r14,rdx
    c3ea:	4d 85 f6             	test   r14,r14
    c3ed:	0f 85 0d 00 00 00    	jne    c400 <big_makeblock+0xc400>
    c3f3:	48 89 9c 24 d0 05 00 	mov    QWORD PTR [rsp+0x5d0],rbx
    c3fa:	00 
    c3fb:	e9 9d 00 00 00       	jmp    c49d <big_makeblock+0xc49d>
    c400:	48 8b b4 24 18 08 00 	mov    rsi,QWORD PTR [rsp+0x818]
    c407:	00 
    c408:	4c 8b ae 98 00 00 00 	mov    r13,QWORD PTR [rsi+0x98]
    c40f:	4d 89 f7             	mov    r15,r14
    c412:	49 83 c7 ff          	add    r15,0xffffffffffffffff
    c416:	4c 89 f2             	mov    rdx,r14
    c419:	48 c1 e2 03          	shl    rdx,0x3
    c41d:	4d 89 ec             	mov    r12,r13
    c420:	49 01 d4             	add    r12,rdx
    c423:	4c 89 ef             	mov    rdi,r13
    c426:	48 83 c7 e8          	add    rdi,0xffffffffffffffe8
    c42a:	4c 89 ee             	mov    rsi,r13
    c42d:	48 b8 00 00 00 00 00 	movabs rax,0x0
    c434:	00 00 00 
			c42f: R_X86_64_64	memmove
    c437:	48 89 9c 24 d8 05 00 	mov    QWORD PTR [rsp+0x5d8],rbx
    c43e:	00 
    c43f:	ff d0                	call   rax
    c441:	48 8b 9c 24 d8 05 00 	mov    rbx,QWORD PTR [rsp+0x5d8]
    c448:	00 
    c449:	48 be 00 00 00 00 00 	movabs rsi,0x0
    c450:	00 00 00 
			c44b: R_X86_64_64	callback_return_addr
    c453:	bf 01 00 00 00       	mov    edi,0x1
    c458:	4b 89 7c f5 f8       	mov    QWORD PTR [r13+r14*8-0x8],rdi
    c45d:	bf 01 00 00 00       	mov    edi,0x1
    c462:	4b 89 7c f5 f0       	mov    QWORD PTR [r13+r14*8-0x10],rdi
    c467:	4b 89 74 f5 e8       	mov    QWORD PTR [r13+r14*8-0x18],rsi
    c46c:	48 8b b4 24 18 08 00 	mov    rsi,QWORD PTR [rsp+0x818]
    c473:	00 
    c474:	4c 89 a6 98 00 00 00 	mov    QWORD PTR [rsi+0x98],r12
    c47b:	48 89 df             	mov    rdi,rbx
    c47e:	4c 89 fe             	mov    rsi,r15
    c481:	48 b8 00 00 00 00 00 	movabs rax,0x0
    c488:	00 00 00 
			c483: R_X86_64_64	apply_n
    c48b:	48 89 bc 24 d0 05 00 	mov    QWORD PTR [rsp+0x5d0],rdi
    c492:	00 
    c493:	ff d0                	call   rax
    c495:	48 89 84 24 d0 05 00 	mov    QWORD PTR [rsp+0x5d0],rax
    c49c:	00 
    c49d:	48 8b b4 24 10 08 00 	mov    rsi,QWORD PTR [rsp+0x810]
    c4a4:	00 
    c4a5:	48 8b 7e 08          	mov    rdi,QWORD PTR [rsi+0x8]
    c4a9:	48 8b b4 24 00 08 00 	mov    rsi,QWORD PTR [rsp+0x800]
    c4b0:	00 
    c4b1:	48 b8 00 00 00 00 00 	movabs rax,0x0
    c4b8:	00 00 00 
			c4b3: R_X86_64_64	apply1
    c4bb:	48 89 b4 24 d8 05 00 	mov    QWORD PTR [rsp+0x5d8],rsi
    c4c2:	00 
    c4c3:	48 89 bc 24 e0 05 00 	mov    QWORD PTR [rsp+0x5e0],rdi
    c4ca:	00 
    c4cb:	ff d0                	call   rax
    c4cd:	49 89 c7             	mov    r15,rax
    c4d0:	49 89 d6             	mov    r14,rdx
    c4d3:	4d 85 f6             	test   r14,r14
    c4d6:	0f 85 0d 00 00 00    	jne    c4e9 <big_makeblock+0xc4e9>
    c4dc:	4c 89 bc 24 58 07 00 	mov    QWORD PTR [rsp+0x758],r15
    c4e3:	00 
    c4e4:	e9 9d 00 00 00       	jmp    c586 <big_makeblock+0xc586>
    c4e9:	48 8b b4 24 18 08 00 	mov    rsi,QWORD PTR [rsp+0x818]
    c4f0:	00 
    c4f1:	4c 8b ae 98 00 00 00 	mov    r13,QWORD PTR [rsi+0x98]
    c4f8:	4c 89 f3             	mov    rbx,r14
    c4fb:	48 83 c3 ff          	add    rbx,0xffffffffffffffff
    c4ff:	4c 89 f2             	mov    rdx,r14
    c502:	48 c1 e2 03          	shl    rdx,0x3
    c506:	4d 89 ec             	mov    r12,r13
    c509:	49 01 d4             	add    r12,rdx
    c50c:	4c 89 ef             	mov    rdi,r13
    c50f:	48 83 c7 e8          	add    rdi,0xffffffffffffffe8
    c513:	4c 89 ee             	mov    rsi,r13
    c516:	48 b8 00 00 00 00 00 	movabs rax,0x0
    c51d:	00 00 00 
			c518: R_X86_64_64	memmove
    c520:	4c 89 bc 24 d8 05 00 	mov    QWORD PTR [rsp+0x5d8],r15
    c527:	00 
    c528:	ff d0                	call   rax
    c52a:	4c 8b bc 24 d8 05 00 	mov    r15,QWORD PTR [rsp+0x5d8]
    c531:	00 
    c532:	48 be 00 00 00 00 00 	movabs rsi,0x0
    c539:	00 00 00 
			c534: R_X86_64_64	callback_return_addr
    c53c:	bf 01 00 00 00       	mov    edi,0x1
    c541:	4b 89 7c f5 f8       	mov    QWORD PTR [r13+r14*8-0x8],rdi
    c546:	bf 01 00 00 00       	mov    edi,0x1
    c54b:	4b 89 7c f5 f0       	mov    QWORD PTR [r13+r14*8-0x10],rdi
    c550:	4b 89 74 f5 e8       	mov    QWORD PTR [r13+r14*8-0x18],rsi
    c555:	48 8b b4 24 18 08 00 	mov    rsi,QWORD PTR [rsp+0x818]
    c55c:	00 
    c55d:	4c 89 a6 98 00 00 00 	mov    QWORD PTR [rsi+0x98],r12
    c564:	4c 89 ff             	mov    rdi,r15
    c567:	48 89 de             	mov    rsi,rbx
    c56a:	48 b8 00 00 00 00 00 	movabs rax,0x0
    c571:	00 00 00 
			c56c: R_X86_64_64	apply_n
    c574:	48 89 bc 24 d8 05 00 	mov    QWORD PTR [rsp+0x5d8],rdi
    c57b:	00 
    c57c:	ff d0                	call   rax
    c57e:	48 89 84 24 58 07 00 	mov    QWORD PTR [rsp+0x758],rax
    c585:	00 
    c586:	48 8b b4 24 10 08 00 	mov    rsi,QWORD PTR [rsp+0x810]
    c58d:	00 
    c58e:	48 8b 7e 08          	mov    rdi,QWORD PTR [rsi+0x8]
    c592:	48 8b b4 24 00 08 00 	mov    rsi,QWORD PTR [rsp+0x800]
    c599:	00 
    c59a:	48 b8 00 00 00 00 00 	movabs rax,0x0
    c5a1:	00 00 00 
			c59c: R_X86_64_64	apply1
    c5a4:	48 89 b4 24 d8 05 00 	mov    QWORD PTR [rsp+0x5d8],rsi
    c5ab:	00 
    c5ac:	48 89 bc 24 e0 05 00 	mov    QWORD PTR [rsp+0x5e0],rdi
    c5b3:	00 
    c5b4:	ff d0                	call   rax
    c5b6:	48 89 c3             	mov    rbx,rax
    c5b9:	49 89 d6             	mov    r14,rdx
    c5bc:	4d 85 f6             	test   r14,r14
    c5bf:	0f 85 0d 00 00 00    	jne    c5d2 <big_makeblock+0xc5d2>
    c5c5:	48 89 9c 24 e0 05 00 	mov    QWORD PTR [rsp+0x5e0],rbx
    c5cc:	00 
    c5cd:	e9 9d 00 00 00       	jmp    c66f <big_makeblock+0xc66f>
    c5d2:	48 8b b4 24 18 08 00 	mov    rsi,QWORD PTR [rsp+0x818]
    c5d9:	00 
    c5da:	4c 8b ae 98 00 00 00 	mov    r13,QWORD PTR [rsi+0x98]
    c5e1:	4d 89 f7             	mov    r15,r14
    c5e4:	49 83 c7 ff          	add    r15,0xffffffffffffffff
    c5e8:	4c 89 f2             	mov    rdx,r14
    c5eb:	48 c1 e2 03          	shl    rdx,0x3
    c5ef:	4d 89 ec             	mov    r12,r13
    c5f2:	49 01 d4             	add    r12,rdx
    c5f5:	4c 89 ef             	mov    rdi,r13
    c5f8:	48 83 c7 e8          	add    rdi,0xffffffffffffffe8
    c5fc:	4c 89 ee             	mov    rsi,r13
    c5ff:	48 b8 00 00 00 00 00 	movabs rax,0x0
    c606:	00 00 00 
			c601: R_X86_64_64	memmove
    c609:	48 89 9c 24 d8 05 00 	mov    QWORD PTR [rsp+0x5d8],rbx
    c610:	00 
    c611:	ff d0                	call   rax
    c613:	48 8b 9c 24 d8 05 00 	mov    rbx,QWORD PTR [rsp+0x5d8]
    c61a:	00 
    c61b:	48 be 00 00 00 00 00 	movabs rsi,0x0
    c622:	00 00 00 
			c61d: R_X86_64_64	callback_return_addr
    c625:	bf 01 00 00 00       	mov    edi,0x1
    c62a:	4b 89 7c f5 f8       	mov    QWORD PTR [r13+r14*8-0x8],rdi
    c62f:	bf 01 00 00 00       	mov    edi,0x1
    c634:	4b 89 7c f5 f0       	mov    QWORD PTR [r13+r14*8-0x10],rdi
    c639:	4b 89 74 f5 e8       	mov    QWORD PTR [r13+r14*8-0x18],rsi
    c63e:	48 8b b4 24 18 08 00 	mov    rsi,QWORD PTR [rsp+0x818]
    c645:	00 
    c646:	4c 89 a6 98 00 00 00 	mov    QWORD PTR [rsi+0x98],r12
    c64d:	48 89 df             	mov    rdi,rbx
    c650:	4c 89 fe             	mov    rsi,r15
    c653:	48 b8 00 00 00 00 00 	movabs rax,0x0
    c65a:	00 00 00 
			c655: R_X86_64_64	apply_n
    c65d:	48 89 bc 24 d8 05 00 	mov    QWORD PTR [rsp+0x5d8],rdi
    c664:	00 
    c665:	ff d0                	call   rax
    c667:	48 89 84 24 e0 05 00 	mov    QWORD PTR [rsp+0x5e0],rax
    c66e:	00 
    c66f:	48 8b b4 24 10 08 00 	mov    rsi,QWORD PTR [rsp+0x810]
    c676:	00 
    c677:	48 8b 7e 08          	mov    rdi,QWORD PTR [rsi+0x8]
    c67b:	48 8b b4 24 00 08 00 	mov    rsi,QWORD PTR [rsp+0x800]
    c682:	00 
    c683:	48 b8 00 00 00 00 00 	movabs rax,0x0
    c68a:	00 00 00 
			c685: R_X86_64_64	apply1
    c68d:	48 89 b4 24 d8 05 00 	mov    QWORD PTR [rsp+0x5d8],rsi
    c694:	00 
    c695:	48 89 bc 24 f0 05 00 	mov    QWORD PTR [rsp+0x5f0],rdi
    c69c:	00 
    c69d:	ff d0                	call   rax
    c69f:	48 89 c3             	mov    rbx,rax
    c6a2:	49 89 d6             	mov    r14,rdx
    c6a5:	4d 85 f6             	test   r14,r14
    c6a8:	0f 85 0d 00 00 00    	jne    c6bb <big_makeblock+0xc6bb>
    c6ae:	48 89 9c 24 50 07 00 	mov    QWORD PTR [rsp+0x750],rbx
    c6b5:	00 
    c6b6:	e9 9d 00 00 00       	jmp    c758 <big_makeblock+0xc758>
    c6bb:	48 8b b4 24 18 08 00 	mov    rsi,QWORD PTR [rsp+0x818]
    c6c2:	00 
    c6c3:	4c 8b ae 98 00 00 00 	mov    r13,QWORD PTR [rsi+0x98]
    c6ca:	4d 89 f7             	mov    r15,r14
    c6cd:	49 83 c7 ff          	add    r15,0xffffffffffffffff
    c6d1:	4c 89 f2             	mov    rdx,r14
    c6d4:	48 c1 e2 03          	shl    rdx,0x3
    c6d8:	4d 89 ec             	mov    r12,r13
    c6db:	49 01 d4             	add    r12,rdx
    c6de:	4c 89 ef             	mov    rdi,r13
    c6e1:	48 83 c7 e8          	add    rdi,0xffffffffffffffe8
    c6e5:	4c 89 ee             	mov    rsi,r13
    c6e8:	48 b8 00 00 00 00 00 	movabs rax,0x0
    c6ef:	00 00 00 
			c6ea: R_X86_64_64	memmove
    c6f2:	48 89 9c 24 d8 05 00 	mov    QWORD PTR [rsp+0x5d8],rbx
    c6f9:	00 
    c6fa:	ff d0                	call   rax
    c6fc:	48 8b 9c 24 d8 05 00 	mov    rbx,QWORD PTR [rsp+0x5d8]
    c703:	00 
    c704:	48 be 00 00 00 00 00 	movabs rsi,0x0
    c70b:	00 00 00 
			c706: R_X86_64_64	callback_return_addr
    c70e:	bf 01 00 00 00       	mov    edi,0x1
    c713:	4b 89 7c f5 f8       	mov    QWORD PTR [r13+r14*8-0x8],rdi
    c718:	bf 01 00 00 00       	mov    edi,0x1
    c71d:	4b 89 7c f5 f0       	mov    QWORD PTR [r13+r14*8-0x10],rdi
    c722:	4b 89 74 f5 e8       	mov    QWORD PTR [r13+r14*8-0x18],rsi
    c727:	48 8b b4 24 18 08 00 	mov    rsi,QWORD PTR [rsp+0x818]
    c72e:	00 
    c72f:	4c 89 a6 98 00 00 00 	mov    QWORD PTR [rsi+0x98],r12
    c736:	48 89 df             	mov    rdi,rbx
    c739:	4c 89 fe             	mov    rsi,r15
    c73c:	48 b8 00 00 00 00 00 	movabs rax,0x0
    c743:	00 00 00 
			c73e: R_X86_64_64	apply_n
    c746:	48 89 bc 24 d8 05 00 	mov    QWORD PTR [rsp+0x5d8],rdi
    c74d:	00 
    c74e:	ff d0                	call   rax
    c750:	48 89 84 24 50 07 00 	mov    QWORD PTR [rsp+0x750],rax
    c757:	00 
    c758:	48 8b b4 24 10 08 00 	mov    rsi,QWORD PTR [rsp+0x810]
    c75f:	00 
    c760:	48 8b 7e 08          	mov    rdi,QWORD PTR [rsi+0x8]
    c764:	48 8b b4 24 00 08 00 	mov    rsi,QWORD PTR [rsp+0x800]
    c76b:	00 
    c76c:	48 b8 00 00 00 00 00 	movabs rax,0x0
    c773:	00 00 00 
			c76e: R_X86_64_64	apply1
    c776:	48 89 b4 24 d8 05 00 	mov    QWORD PTR [rsp+0x5d8],rsi
    c77d:	00 
    c77e:	48 89 bc 24 f0 05 00 	mov    QWORD PTR [rsp+0x5f0],rdi
    c785:	00 
    c786:	ff d0                	call   rax
    c788:	49 89 c7             	mov    r15,rax
    c78b:	49 89 d6             	mov    r14,rdx
    c78e:	4d 85 f6             	test   r14,r14
    c791:	0f 85 0d 00 00 00    	jne    c7a4 <big_makeblock+0xc7a4>
    c797:	4c 89 bc 24 f0 05 00 	mov    QWORD PTR [rsp+0x5f0],r15
    c79e:	00 
    c79f:	e9 9d 00 00 00       	jmp    c841 <big_makeblock+0xc841>
    c7a4:	48 8b b4 24 18 08 00 	mov    rsi,QWORD PTR [rsp+0x818]
    c7ab:	00 
    c7ac:	4c 8b ae 98 00 00 00 	mov    r13,QWORD PTR [rsi+0x98]
    c7b3:	4c 89 f3             	mov    rbx,r14
    c7b6:	48 83 c3 ff          	add    rbx,0xffffffffffffffff
    c7ba:	4c 89 f2             	mov    rdx,r14
    c7bd:	48 c1 e2 03          	shl    rdx,0x3
    c7c1:	4d 89 ec             	mov    r12,r13
    c7c4:	49 01 d4             	add    r12,rdx
    c7c7:	4c 89 ef             	mov    rdi,r13
    c7ca:	48 83 c7 e8          	add    rdi,0xffffffffffffffe8
    c7ce:	4c 89 ee             	mov    rsi,r13
    c7d1:	48 b8 00 00 00 00 00 	movabs rax,0x0
    c7d8:	00 00 00 
			c7d3: R_X86_64_64	memmove
    c7db:	4c 89 bc 24 d8 05 00 	mov    QWORD PTR [rsp+0x5d8],r15
    c7e2:	00 
    c7e3:	ff d0                	call   rax
    c7e5:	4c 8b bc 24 d8 05 00 	mov    r15,QWORD PTR [rsp+0x5d8]
    c7ec:	00 
    c7ed:	48 be 00 00 00 00 00 	movabs rsi,0x0
    c7f4:	00 00 00 
			c7ef: R_X86_64_64	callback_return_addr
    c7f7:	bf 01 00 00 00       	mov    edi,0x1
    c7fc:	4b 89 7c f5 f8       	mov    QWORD PTR [r13+r14*8-0x8],rdi
    c801:	bf 01 00 00 00       	mov    edi,0x1
    c806:	4b 89 7c f5 f0       	mov    QWORD PTR [r13+r14*8-0x10],rdi
    c80b:	4b 89 74 f5 e8       	mov    QWORD PTR [r13+r14*8-0x18],rsi
    c810:	48 8b b4 24 18 08 00 	mov    rsi,QWORD PTR [rsp+0x818]
    c817:	00 
    c818:	4c 89 a6 98 00 00 00 	mov    QWORD PTR [rsi+0x98],r12
    c81f:	4c 89 ff             	mov    rdi,r15
    c822:	48 89 de             	mov    rsi,rbx
    c825:	48 b8 00 00 00 00 00 	movabs rax,0x0
    c82c:	00 00 00 
			c827: R_X86_64_64	apply_n
    c82f:	48 89 bc 24 d8 05 00 	mov    QWORD PTR [rsp+0x5d8],rdi
    c836:	00 
    c837:	ff d0                	call   rax
    c839:	48 89 84 24 f0 05 00 	mov    QWORD PTR [rsp+0x5f0],rax
    c840:	00 
    c841:	48 8b b4 24 10 08 00 	mov    rsi,QWORD PTR [rsp+0x810]
    c848:	00 
    c849:	48 8b 7e 08          	mov    rdi,QWORD PTR [rsi+0x8]
    c84d:	48 8b b4 24 00 08 00 	mov    rsi,QWORD PTR [rsp+0x800]
    c854:	00 
    c855:	48 b8 00 00 00 00 00 	movabs rax,0x0
    c85c:	00 00 00 
			c857: R_X86_64_64	apply1
    c85f:	48 89 b4 24 d8 05 00 	mov    QWORD PTR [rsp+0x5d8],rsi
    c866:	00 
    c867:	48 89 bc 24 00 06 00 	mov    QWORD PTR [rsp+0x600],rdi
    c86e:	00 
    c86f:	ff d0                	call   rax
    c871:	48 89 c3             	mov    rbx,rax
    c874:	49 89 d6             	mov    r14,rdx
    c877:	4d 85 f6             	test   r14,r14
    c87a:	0f 85 0d 00 00 00    	jne    c88d <big_makeblock+0xc88d>
    c880:	48 89 9c 24 48 07 00 	mov    QWORD PTR [rsp+0x748],rbx
    c887:	00 
    c888:	e9 9d 00 00 00       	jmp    c92a <big_makeblock+0xc92a>
    c88d:	48 8b b4 24 18 08 00 	mov    rsi,QWORD PTR [rsp+0x818]
    c894:	00 
    c895:	4c 8b ae 98 00 00 00 	mov    r13,QWORD PTR [rsi+0x98]
    c89c:	4d 89 f7             	mov    r15,r14
    c89f:	49 83 c7 ff          	add    r15,0xffffffffffffffff
    c8a3:	4c 89 f2             	mov    rdx,r14
    c8a6:	48 c1 e2 03          	shl    rdx,0x3
    c8aa:	4d 89 ec             	mov    r12,r13
    c8ad:	49 01 d4             	add    r12,rdx
    c8b0:	4c 89 ef             	mov    rdi,r13
    c8b3:	48 83 c7 e8          	add    rdi,0xffffffffffffffe8
    c8b7:	4c 89 ee             	mov    rsi,r13
    c8ba:	48 b8 00 00 00 00 00 	movabs rax,0x0
    c8c1:	00 00 00 
			c8bc: R_X86_64_64	memmove
    c8c4:	48 89 9c 24 d8 05 00 	mov    QWORD PTR [rsp+0x5d8],rbx
    c8cb:	00 
    c8cc:	ff d0                	call   rax
    c8ce:	48 8b 9c 24 d8 05 00 	mov    rbx,QWORD PTR [rsp+0x5d8]
    c8d5:	00 
    c8d6:	48 be 00 00 00 00 00 	movabs rsi,0x0
    c8dd:	00 00 00 
			c8d8: R_X86_64_64	callback_return_addr
    c8e0:	bf 01 00 00 00       	mov    edi,0x1
    c8e5:	4b 89 7c f5 f8       	mov    QWORD PTR [r13+r14*8-0x8],rdi
    c8ea:	bf 01 00 00 00       	mov    edi,0x1
    c8ef:	4b 89 7c f5 f0       	mov    QWORD PTR [r13+r14*8-0x10],rdi
    c8f4:	4b 89 74 f5 e8       	mov    QWORD PTR [r13+r14*8-0x18],rsi
    c8f9:	48 8b b4 24 18 08 00 	mov    rsi,QWORD PTR [rsp+0x818]
    c900:	00 
    c901:	4c 89 a6 98 00 00 00 	mov    QWORD PTR [rsi+0x98],r12
    c908:	48 89 df             	mov    rdi,rbx
    c90b:	4c 89 fe             	mov    rsi,r15
    c90e:	48 b8 00 00 00 00 00 	movabs rax,0x0
    c915:	00 00 00 
			c910: R_X86_64_64	apply_n
    c918:	48 89 bc 24 d8 05 00 	mov    QWORD PTR [rsp+0x5d8],rdi
    c91f:	00 
    c920:	ff d0                	call   rax
    c922:	48 89 84 24 48 07 00 	mov    QWORD PTR [rsp+0x748],rax
    c929:	00 
    c92a:	48 8b b4 24 10 08 00 	mov    rsi,QWORD PTR [rsp+0x810]
    c931:	00 
    c932:	48 8b 7e 08          	mov    rdi,QWORD PTR [rsi+0x8]
    c936:	48 8b b4 24 00 08 00 	mov    rsi,QWORD PTR [rsp+0x800]
    c93d:	00 
    c93e:	48 b8 00 00 00 00 00 	movabs rax,0x0
    c945:	00 00 00 
			c940: R_X86_64_64	apply1
    c948:	48 89 b4 24 d8 05 00 	mov    QWORD PTR [rsp+0x5d8],rsi
    c94f:	00 
    c950:	48 89 bc 24 00 06 00 	mov    QWORD PTR [rsp+0x600],rdi
    c957:	00 
    c958:	ff d0                	call   rax
    c95a:	48 89 c3             	mov    rbx,rax
    c95d:	49 89 d6             	mov    r14,rdx
    c960:	4d 85 f6             	test   r14,r14
    c963:	0f 85 0d 00 00 00    	jne    c976 <big_makeblock+0xc976>
    c969:	48 89 9c 24 00 06 00 	mov    QWORD PTR [rsp+0x600],rbx
    c970:	00 
    c971:	e9 9d 00 00 00       	jmp    ca13 <big_makeblock+0xca13>
    c976:	48 8b b4 24 18 08 00 	mov    rsi,QWORD PTR [rsp+0x818]
    c97d:	00 
    c97e:	4c 8b ae 98 00 00 00 	mov    r13,QWORD PTR [rsi+0x98]
    c985:	4d 89 f7             	mov    r15,r14
    c988:	49 83 c7 ff          	add    r15,0xffffffffffffffff
    c98c:	4c 89 f2             	mov    rdx,r14
    c98f:	48 c1 e2 03          	shl    rdx,0x3
    c993:	4d 89 ec             	mov    r12,r13
    c996:	49 01 d4             	add    r12,rdx
    c999:	4c 89 ef             	mov    rdi,r13
    c99c:	48 83 c7 e8          	add    rdi,0xffffffffffffffe8
    c9a0:	4c 89 ee             	mov    rsi,r13
    c9a3:	48 b8 00 00 00 00 00 	movabs rax,0x0
    c9aa:	00 00 00 
			c9a5: R_X86_64_64	memmove
    c9ad:	48 89 9c 24 d8 05 00 	mov    QWORD PTR [rsp+0x5d8],rbx
    c9b4:	00 
    c9b5:	ff d0                	call   rax
    c9b7:	48 8b 9c 24 d8 05 00 	mov    rbx,QWORD PTR [rsp+0x5d8]
    c9be:	00 
    c9bf:	48 be 00 00 00 00 00 	movabs rsi,0x0
    c9c6:	00 00 00 
			c9c1: R_X86_64_64	callback_return_addr
    c9c9:	bf 01 00 00 00       	mov    edi,0x1
    c9ce:	4b 89 7c f5 f8       	mov    QWORD PTR [r13+r14*8-0x8],rdi
    c9d3:	bf 01 00 00 00       	mov    edi,0x1
    c9d8:	4b 89 7c f5 f0       	mov    QWORD PTR [r13+r14*8-0x10],rdi
    c9dd:	4b 89 74 f5 e8       	mov    QWORD PTR [r13+r14*8-0x18],rsi
    c9e2:	48 8b b4 24 18 08 00 	mov    rsi,QWORD PTR [rsp+0x818]
    c9e9:	00 
    c9ea:	4c 89 a6 98 00 00 00 	mov    QWORD PTR [rsi+0x98],r12
    c9f1:	48 89 df             	mov    rdi,rbx
    c9f4:	4c 89 fe             	mov    rsi,r15
    c9f7:	48 b8 00 00 00 00 00 	movabs rax,0x0
    c9fe:	00 00 00 
			c9f9: R_X86_64_64	apply_n
    ca01:	48 89 bc 24 d8 05 00 	mov    QWORD PTR [rsp+0x5d8],rdi
    ca08:	00 
    ca09:	ff d0                	call   rax
    ca0b:	48 89 84 24 00 06 00 	mov    QWORD PTR [rsp+0x600],rax
    ca12:	00 
    ca13:	48 8b b4 24 10 08 00 	mov    rsi,QWORD PTR [rsp+0x810]
    ca1a:	00 
    ca1b:	48 8b 7e 08          	mov    rdi,QWORD PTR [rsi+0x8]
    ca1f:	48 8b b4 24 00 08 00 	mov    rsi,QWORD PTR [rsp+0x800]
    ca26:	00 
    ca27:	48 b8 00 00 00 00 00 	movabs rax,0x0
    ca2e:	00 00 00 
			ca29: R_X86_64_64	apply1
    ca31:	48 89 b4 24 d8 05 00 	mov    QWORD PTR [rsp+0x5d8],rsi
    ca38:	00 
    ca39:	48 89 bc 24 10 06 00 	mov    QWORD PTR [rsp+0x610],rdi
    ca40:	00 
    ca41:	ff d0                	call   rax
    ca43:	49 89 c7             	mov    r15,rax
    ca46:	49 89 d6             	mov    r14,rdx
    ca49:	4d 85 f6             	test   r14,r14
    ca4c:	0f 85 0d 00 00 00    	jne    ca5f <big_makeblock+0xca5f>
    ca52:	4c 89 bc 24 40 07 00 	mov    QWORD PTR [rsp+0x740],r15
    ca59:	00 
    ca5a:	e9 9d 00 00 00       	jmp    cafc <big_makeblock+0xcafc>
    ca5f:	48 8b b4 24 18 08 00 	mov    rsi,QWORD PTR [rsp+0x818]
    ca66:	00 
    ca67:	4c 8b ae 98 00 00 00 	mov    r13,QWORD PTR [rsi+0x98]
    ca6e:	4c 89 f3             	mov    rbx,r14
    ca71:	48 83 c3 ff          	add    rbx,0xffffffffffffffff
    ca75:	4c 89 f2             	mov    rdx,r14
    ca78:	48 c1 e2 03          	shl    rdx,0x3
    ca7c:	4d 89 ec             	mov    r12,r13
    ca7f:	49 01 d4             	add    r12,rdx
    ca82:	4c 89 ef             	mov    rdi,r13
    ca85:	48 83 c7 e8          	add    rdi,0xffffffffffffffe8
    ca89:	4c 89 ee             	mov    rsi,r13
    ca8c:	48 b8 00 00 00 00 00 	movabs rax,0x0
    ca93:	00 00 00 
			ca8e: R_X86_64_64	memmove
    ca96:	4c 89 bc 24 d8 05 00 	mov    QWORD PTR [rsp+0x5d8],r15
    ca9d:	00 
    ca9e:	ff d0                	call   rax
    caa0:	4c 8b bc 24 d8 05 00 	mov    r15,QWORD PTR [rsp+0x5d8]
    caa7:	00 
    caa8:	48 be 00 00 00 00 00 	movabs rsi,0x0
    caaf:	00 00 00 
			caaa: R_X86_64_64	callback_return_addr
    cab2:	bf 01 00 00 00       	mov    edi,0x1
    cab7:	4b 89 7c f5 f8       	mov    QWORD PTR [r13+r14*8-0x8],rdi
    cabc:	bf 01 00 00 00       	mov    edi,0x1
    cac1:	4b 89 7c f5 f0       	mov    QWORD PTR [r13+r14*8-0x10],rdi
    cac6:	4b 89 74 f5 e8       	mov    QWORD PTR [r13+r14*8-0x18],rsi
    cacb:	48 8b b4 24 18 08 00 	mov    rsi,QWORD PTR [rsp+0x818]
    cad2:	00 
    cad3:	4c 89 a6 98 00 00 00 	mov    QWORD PTR [rsi+0x98],r12
    cada:	4c 89 ff             	mov    rdi,r15
    cadd:	48 89 de             	mov    rsi,rbx
    cae0:	48 b8 00 00 00 00 00 	movabs rax,0x0
    cae7:	00 00 00 
			cae2: R_X86_64_64	apply_n
    caea:	48 89 bc 24 d8 05 00 	mov    QWORD PTR [rsp+0x5d8],rdi
    caf1:	00 
    caf2:	ff d0                	call   rax
    caf4:	48 89 84 24 40 07 00 	mov    QWORD PTR [rsp+0x740],rax
    cafb:	00 
    cafc:	48 8b b4 24 10 08 00 	mov    rsi,QWORD PTR [rsp+0x810]
    cb03:	00 
    cb04:	48 8b 7e 08          	mov    rdi,QWORD PTR [rsi+0x8]
    cb08:	48 8b b4 24 00 08 00 	mov    rsi,QWORD PTR [rsp+0x800]
    cb0f:	00 
    cb10:	48 b8 00 00 00 00 00 	movabs rax,0x0
    cb17:	00 00 00 
			cb12: R_X86_64_64	apply1
    cb1a:	48 89 b4 24 d8 05 00 	mov    QWORD PTR [rsp+0x5d8],rsi
    cb21:	00 
    cb22:	48 89 bc 24 10 06 00 	mov    QWORD PTR [rsp+0x610],rdi
    cb29:	00 
    cb2a:	ff d0                	call   rax
    cb2c:	48 89 c3             	mov    rbx,rax
    cb2f:	49 89 d6             	mov    r14,rdx
    cb32:	4d 85 f6             	test   r14,r14
    cb35:	0f 85 0d 00 00 00    	jne    cb48 <big_makeblock+0xcb48>
    cb3b:	48 89 9c 24 10 06 00 	mov    QWORD PTR [rsp+0x610],rbx
    cb42:	00 
    cb43:	e9 9d 00 00 00       	jmp    cbe5 <big_makeblock+0xcbe5>
    cb48:	48 8b b4 24 18 08 00 	mov    rsi,QWORD PTR [rsp+0x818]
    cb4f:	00 
    cb50:	4c 8b ae 98 00 00 00 	mov    r13,QWORD PTR [rsi+0x98]
    cb57:	4d 89 f7             	mov    r15,r14
    cb5a:	49 83 c7 ff          	add    r15,0xffffffffffffffff
    cb5e:	4c 89 f2             	mov    rdx,r14
    cb61:	48 c1 e2 03          	shl    rdx,0x3
    cb65:	4d 89 ec             	mov    r12,r13
    cb68:	49 01 d4             	add    r12,rdx
    cb6b:	4c 89 ef             	mov    rdi,r13
    cb6e:	48 83 c7 e8          	add    rdi,0xffffffffffffffe8
    cb72:	4c 89 ee             	mov    rsi,r13
    cb75:	48 b8 00 00 00 00 00 	movabs rax,0x0
    cb7c:	00 00 00 
			cb77: R_X86_64_64	memmove
    cb7f:	48 89 9c 24 d8 05 00 	mov    QWORD PTR [rsp+0x5d8],rbx
    cb86:	00 
    cb87:	ff d0                	call   rax
    cb89:	48 8b 9c 24 d8 05 00 	mov    rbx,QWORD PTR [rsp+0x5d8]
    cb90:	00 
    cb91:	48 be 00 00 00 00 00 	movabs rsi,0x0
    cb98:	00 00 00 
			cb93: R_X86_64_64	callback_return_addr
    cb9b:	bf 01 00 00 00       	mov    edi,0x1
    cba0:	4b 89 7c f5 f8       	mov    QWORD PTR [r13+r14*8-0x8],rdi
    cba5:	bf 01 00 00 00       	mov    edi,0x1
    cbaa:	4b 89 7c f5 f0       	mov    QWORD PTR [r13+r14*8-0x10],rdi
    cbaf:	4b 89 74 f5 e8       	mov    QWORD PTR [r13+r14*8-0x18],rsi
    cbb4:	48 8b b4 24 18 08 00 	mov    rsi,QWORD PTR [rsp+0x818]
    cbbb:	00 
    cbbc:	4c 89 a6 98 00 00 00 	mov    QWORD PTR [rsi+0x98],r12
    cbc3:	48 89 df             	mov    rdi,rbx
    cbc6:	4c 89 fe             	mov    rsi,r15
    cbc9:	48 b8 00 00 00 00 00 	movabs rax,0x0
    cbd0:	00 00 00 
			cbcb: R_X86_64_64	apply_n
    cbd3:	48 89 bc 24 d8 05 00 	mov    QWORD PTR [rsp+0x5d8],rdi
    cbda:	00 
    cbdb:	ff d0                	call   rax
    cbdd:	48 89 84 24 10 06 00 	mov    QWORD PTR [rsp+0x610],rax
    cbe4:	00 
    cbe5:	48 8b b4 24 10 08 00 	mov    rsi,QWORD PTR [rsp+0x810]
    cbec:	00 
    cbed:	48 8b 7e 08          	mov    rdi,QWORD PTR [rsi+0x8]
    cbf1:	48 8b b4 24 00 08 00 	mov    rsi,QWORD PTR [rsp+0x800]
    cbf8:	00 
    cbf9:	48 b8 00 00 00 00 00 	movabs rax,0x0
    cc00:	00 00 00 
			cbfb: R_X86_64_64	apply1
    cc03:	48 89 b4 24 d8 05 00 	mov    QWORD PTR [rsp+0x5d8],rsi
    cc0a:	00 
    cc0b:	48 89 bc 24 20 06 00 	mov    QWORD PTR [rsp+0x620],rdi
    cc12:	00 
    cc13:	ff d0                	call   rax
    cc15:	48 89 c3             	mov    rbx,rax
    cc18:	49 89 d6             	mov    r14,rdx
    cc1b:	4d 85 f6             	test   r14,r14
    cc1e:	0f 85 0d 00 00 00    	jne    cc31 <big_makeblock+0xcc31>
    cc24:	48 89 9c 24 38 07 00 	mov    QWORD PTR [rsp+0x738],rbx
    cc2b:	00 
    cc2c:	e9 9d 00 00 00       	jmp    ccce <big_makeblock+0xccce>
    cc31:	48 8b b4 24 18 08 00 	mov    rsi,QWORD PTR [rsp+0x818]
    cc38:	00 
    cc39:	4c 8b ae 98 00 00 00 	mov    r13,QWORD PTR [rsi+0x98]
    cc40:	4d 89 f7             	mov    r15,r14
    cc43:	49 83 c7 ff          	add    r15,0xffffffffffffffff
    cc47:	4c 89 f2             	mov    rdx,r14
    cc4a:	48 c1 e2 03          	shl    rdx,0x3
    cc4e:	4d 89 ec             	mov    r12,r13
    cc51:	49 01 d4             	add    r12,rdx
    cc54:	4c 89 ef             	mov    rdi,r13
    cc57:	48 83 c7 e8          	add    rdi,0xffffffffffffffe8
    cc5b:	4c 89 ee             	mov    rsi,r13
    cc5e:	48 b8 00 00 00 00 00 	movabs rax,0x0
    cc65:	00 00 00 
			cc60: R_X86_64_64	memmove
    cc68:	48 89 9c 24 d8 05 00 	mov    QWORD PTR [rsp+0x5d8],rbx
    cc6f:	00 
    cc70:	ff d0                	call   rax
    cc72:	48 8b 9c 24 d8 05 00 	mov    rbx,QWORD PTR [rsp+0x5d8]
    cc79:	00 
    cc7a:	48 be 00 00 00 00 00 	movabs rsi,0x0
    cc81:	00 00 00 
			cc7c: R_X86_64_64	callback_return_addr
    cc84:	bf 01 00 00 00       	mov    edi,0x1
    cc89:	4b 89 7c f5 f8       	mov    QWORD PTR [r13+r14*8-0x8],rdi
    cc8e:	bf 01 00 00 00       	mov    edi,0x1
    cc93:	4b 89 7c f5 f0       	mov    QWORD PTR [r13+r14*8-0x10],rdi
    cc98:	4b 89 74 f5 e8       	mov    QWORD PTR [r13+r14*8-0x18],rsi
    cc9d:	48 8b b4 24 18 08 00 	mov    rsi,QWORD PTR [rsp+0x818]
    cca4:	00 
    cca5:	4c 89 a6 98 00 00 00 	mov    QWORD PTR [rsi+0x98],r12
    ccac:	48 89 df             	mov    rdi,rbx
    ccaf:	4c 89 fe             	mov    rsi,r15
    ccb2:	48 b8 00 00 00 00 00 	movabs rax,0x0
    ccb9:	00 00 00 
			ccb4: R_X86_64_64	apply_n
    ccbc:	48 89 bc 24 d8 05 00 	mov    QWORD PTR [rsp+0x5d8],rdi
    ccc3:	00 
    ccc4:	ff d0                	call   rax
    ccc6:	48 89 84 24 38 07 00 	mov    QWORD PTR [rsp+0x738],rax
    cccd:	00 
    ccce:	48 8b b4 24 10 08 00 	mov    rsi,QWORD PTR [rsp+0x810]
    ccd5:	00 
    ccd6:	48 8b 7e 08          	mov    rdi,QWORD PTR [rsi+0x8]
    ccda:	48 8b b4 24 00 08 00 	mov    rsi,QWORD PTR [rsp+0x800]
    cce1:	00 
    cce2:	48 b8 00 00 00 00 00 	movabs rax,0x0
    cce9:	00 00 00 
			cce4: R_X86_64_64	apply1
    ccec:	48 89 b4 24 d8 05 00 	mov    QWORD PTR [rsp+0x5d8],rsi
    ccf3:	00 
    ccf4:	48 89 bc 24 20 06 00 	mov    QWORD PTR [rsp+0x620],rdi
    ccfb:	00 
    ccfc:	ff d0                	call   rax
    ccfe:	49 89 c7             	mov    r15,rax
    cd01:	49 89 d6             	mov    r14,rdx
    cd04:	4d 85 f6             	test   r14,r14
    cd07:	0f 85 0d 00 00 00    	jne    cd1a <big_makeblock+0xcd1a>
    cd0d:	4c 89 bc 24 20 06 00 	mov    QWORD PTR [rsp+0x620],r15
    cd14:	00 
    cd15:	e9 9d 00 00 00       	jmp    cdb7 <big_makeblock+0xcdb7>
    cd1a:	48 8b b4 24 18 08 00 	mov    rsi,QWORD PTR [rsp+0x818]
    cd21:	00 
    cd22:	4c 8b ae 98 00 00 00 	mov    r13,QWORD PTR [rsi+0x98]
    cd29:	4c 89 f3             	mov    rbx,r14
    cd2c:	48 83 c3 ff          	add    rbx,0xffffffffffffffff
    cd30:	4c 89 f2             	mov    rdx,r14
    cd33:	48 c1 e2 03          	shl    rdx,0x3
    cd37:	4d 89 ec             	mov    r12,r13
    cd3a:	49 01 d4             	add    r12,rdx
    cd3d:	4c 89 ef             	mov    rdi,r13
    cd40:	48 83 c7 e8          	add    rdi,0xffffffffffffffe8
    cd44:	4c 89 ee             	mov    rsi,r13
    cd47:	48 b8 00 00 00 00 00 	movabs rax,0x0
    cd4e:	00 00 00 
			cd49: R_X86_64_64	memmove
    cd51:	4c 89 bc 24 d8 05 00 	mov    QWORD PTR [rsp+0x5d8],r15
    cd58:	00 
    cd59:	ff d0                	call   rax
    cd5b:	4c 8b bc 24 d8 05 00 	mov    r15,QWORD PTR [rsp+0x5d8]
    cd62:	00 
    cd63:	48 be 00 00 00 00 00 	movabs rsi,0x0
    cd6a:	00 00 00 
			cd65: R_X86_64_64	callback_return_addr
    cd6d:	bf 01 00 00 00       	mov    edi,0x1
    cd72:	4b 89 7c f5 f8       	mov    QWORD PTR [r13+r14*8-0x8],rdi
    cd77:	bf 01 00 00 00       	mov    edi,0x1
    cd7c:	4b 89 7c f5 f0       	mov    QWORD PTR [r13+r14*8-0x10],rdi
    cd81:	4b 89 74 f5 e8       	mov    QWORD PTR [r13+r14*8-0x18],rsi
    cd86:	48 8b b4 24 18 08 00 	mov    rsi,QWORD PTR [rsp+0x818]
    cd8d:	00 
    cd8e:	4c 89 a6 98 00 00 00 	mov    QWORD PTR [rsi+0x98],r12
    cd95:	4c 89 ff             	mov    rdi,r15
    cd98:	48 89 de             	mov    rsi,rbx
    cd9b:	48 b8 00 00 00 00 00 	movabs rax,0x0
    cda2:	00 00 00 
			cd9d: R_X86_64_64	apply_n
    cda5:	48 89 bc 24 d8 05 00 	mov    QWORD PTR [rsp+0x5d8],rdi
    cdac:	00 
    cdad:	ff d0                	call   rax
    cdaf:	48 89 84 24 20 06 00 	mov    QWORD PTR [rsp+0x620],rax
    cdb6:	00 
    cdb7:	48 8b b4 24 10 08 00 	mov    rsi,QWORD PTR [rsp+0x810]
    cdbe:	00 
    cdbf:	48 8b 7e 08          	mov    rdi,QWORD PTR [rsi+0x8]
    cdc3:	48 8b b4 24 00 08 00 	mov    rsi,QWORD PTR [rsp+0x800]
    cdca:	00 
    cdcb:	48 b8 00 00 00 00 00 	movabs rax,0x0
    cdd2:	00 00 00 
			cdcd: R_X86_64_64	apply1
    cdd5:	48 89 b4 24 d8 05 00 	mov    QWORD PTR [rsp+0x5d8],rsi
    cddc:	00 
    cddd:	48 89 bc 24 30 06 00 	mov    QWORD PTR [rsp+0x630],rdi
    cde4:	00 
    cde5:	ff d0                	call   rax
    cde7:	48 89 c3             	mov    rbx,rax
    cdea:	49 89 d6             	mov    r14,rdx
    cded:	4d 85 f6             	test   r14,r14
    cdf0:	0f 85 0d 00 00 00    	jne    ce03 <big_makeblock+0xce03>
    cdf6:	48 89 9c 24 30 07 00 	mov    QWORD PTR [rsp+0x730],rbx
    cdfd:	00 
    cdfe:	e9 9d 00 00 00       	jmp    cea0 <big_makeblock+0xcea0>
    ce03:	48 8b b4 24 18 08 00 	mov    rsi,QWORD PTR [rsp+0x818]
    ce0a:	00 
    ce0b:	4c 8b ae 98 00 00 00 	mov    r13,QWORD PTR [rsi+0x98]
    ce12:	4d 89 f7             	mov    r15,r14
    ce15:	49 83 c7 ff          	add    r15,0xffffffffffffffff
    ce19:	4c 89 f2             	mov    rdx,r14
    ce1c:	48 c1 e2 03          	shl    rdx,0x3
    ce20:	4d 89 ec             	mov    r12,r13
    ce23:	49 01 d4             	add    r12,rdx
    ce26:	4c 89 ef             	mov    rdi,r13
    ce29:	48 83 c7 e8          	add    rdi,0xffffffffffffffe8
    ce2d:	4c 89 ee             	mov    rsi,r13
    ce30:	48 b8 00 00 00 00 00 	movabs rax,0x0
    ce37:	00 00 00 
			ce32: R_X86_64_64	memmove
    ce3a:	48 89 9c 24 d8 05 00 	mov    QWORD PTR [rsp+0x5d8],rbx
    ce41:	00 
    ce42:	ff d0                	call   rax
    ce44:	48 8b 9c 24 d8 05 00 	mov    rbx,QWORD PTR [rsp+0x5d8]
    ce4b:	00 
    ce4c:	48 be 00 00 00 00 00 	movabs rsi,0x0
    ce53:	00 00 00 
			ce4e: R_X86_64_64	callback_return_addr
    ce56:	bf 01 00 00 00       	mov    edi,0x1
    ce5b:	4b 89 7c f5 f8       	mov    QWORD PTR [r13+r14*8-0x8],rdi
    ce60:	bf 01 00 00 00       	mov    edi,0x1
    ce65:	4b 89 7c f5 f0       	mov    QWORD PTR [r13+r14*8-0x10],rdi
    ce6a:	4b 89 74 f5 e8       	mov    QWORD PTR [r13+r14*8-0x18],rsi
    ce6f:	48 8b b4 24 18 08 00 	mov    rsi,QWORD PTR [rsp+0x818]
    ce76:	00 
    ce77:	4c 89 a6 98 00 00 00 	mov    QWORD PTR [rsi+0x98],r12
    ce7e:	48 89 df             	mov    rdi,rbx
    ce81:	4c 89 fe             	mov    rsi,r15
    ce84:	48 b8 00 00 00 00 00 	movabs rax,0x0
    ce8b:	00 00 00 
			ce86: R_X86_64_64	apply_n
    ce8e:	48 89 bc 24 d8 05 00 	mov    QWORD PTR [rsp+0x5d8],rdi
    ce95:	00 
    ce96:	ff d0                	call   rax
    ce98:	48 89 84 24 30 07 00 	mov    QWORD PTR [rsp+0x730],rax
    ce9f:	00 
    cea0:	48 8b b4 24 10 08 00 	mov    rsi,QWORD PTR [rsp+0x810]
    cea7:	00 
    cea8:	48 8b 7e 08          	mov    rdi,QWORD PTR [rsi+0x8]
    ceac:	48 8b b4 24 00 08 00 	mov    rsi,QWORD PTR [rsp+0x800]
    ceb3:	00 
    ceb4:	48 b8 00 00 00 00 00 	movabs rax,0x0
    cebb:	00 00 00 
			ceb6: R_X86_64_64	apply1
    cebe:	48 89 b4 24 d8 05 00 	mov    QWORD PTR [rsp+0x5d8],rsi
    cec5:	00 
    cec6:	48 89 bc 24 30 06 00 	mov    QWORD PTR [rsp+0x630],rdi
    cecd:	00 
    cece:	ff d0                	call   rax
    ced0:	48 89 c3             	mov    rbx,rax
    ced3:	49 89 d6             	mov    r14,rdx
    ced6:	4d 85 f6             	test   r14,r14
    ced9:	0f 85 0d 00 00 00    	jne    ceec <big_makeblock+0xceec>
    cedf:	48 89 9c 24 30 06 00 	mov    QWORD PTR [rsp+0x630],rbx
    cee6:	00 
    cee7:	e9 9d 00 00 00       	jmp    cf89 <big_makeblock+0xcf89>
    ceec:	48 8b b4 24 18 08 00 	mov    rsi,QWORD PTR [rsp+0x818]
    cef3:	00 
    cef4:	4c 8b ae 98 00 00 00 	mov    r13,QWORD PTR [rsi+0x98]
    cefb:	4d 89 f7             	mov    r15,r14
    cefe:	49 83 c7 ff          	add    r15,0xffffffffffffffff
    cf02:	4c 89 f2             	mov    rdx,r14
    cf05:	48 c1 e2 03          	shl    rdx,0x3
    cf09:	4d 89 ec             	mov    r12,r13
    cf0c:	49 01 d4             	add    r12,rdx
    cf0f:	4c 89 ef             	mov    rdi,r13
    cf12:	48 83 c7 e8          	add    rdi,0xffffffffffffffe8
    cf16:	4c 89 ee             	mov    rsi,r13
    cf19:	48 b8 00 00 00 00 00 	movabs rax,0x0
    cf20:	00 00 00 
			cf1b: R_X86_64_64	memmove
    cf23:	48 89 9c 24 d8 05 00 	mov    QWORD PTR [rsp+0x5d8],rbx
    cf2a:	00 
    cf2b:	ff d0                	call   rax
    cf2d:	48 8b 9c 24 d8 05 00 	mov    rbx,QWORD PTR [rsp+0x5d8]
    cf34:	00 
    cf35:	48 be 00 00 00 00 00 	movabs rsi,0x0
    cf3c:	00 00 00 
			cf37: R_X86_64_64	callback_return_addr
    cf3f:	bf 01 00 00 00       	mov    edi,0x1
    cf44:	4b 89 7c f5 f8       	mov    QWORD PTR [r13+r14*8-0x8],rdi
    cf49:	bf 01 00 00 00       	mov    edi,0x1
    cf4e:	4b 89 7c f5 f0       	mov    QWORD PTR [r13+r14*8-0x10],rdi
    cf53:	4b 89 74 f5 e8       	mov    QWORD PTR [r13+r14*8-0x18],rsi
    cf58:	48 8b b4 24 18 08 00 	mov    rsi,QWORD PTR [rsp+0x818]
    cf5f:	00 
    cf60:	4c 89 a6 98 00 00 00 	mov    QWORD PTR [rsi+0x98],r12
    cf67:	48 89 df             	mov    rdi,rbx
    cf6a:	4c 89 fe             	mov    rsi,r15
    cf6d:	48 b8 00 00 00 00 00 	movabs rax,0x0
    cf74:	00 00 00 
			cf6f: R_X86_64_64	apply_n
    cf77:	48 89 bc 24 d8 05 00 	mov    QWORD PTR [rsp+0x5d8],rdi
    cf7e:	00 
    cf7f:	ff d0                	call   rax
    cf81:	48 89 84 24 30 06 00 	mov    QWORD PTR [rsp+0x630],rax
    cf88:	00 
    cf89:	48 8b b4 24 10 08 00 	mov    rsi,QWORD PTR [rsp+0x810]
    cf90:	00 
    cf91:	48 8b 7e 08          	mov    rdi,QWORD PTR [rsi+0x8]
    cf95:	48 8b b4 24 00 08 00 	mov    rsi,QWORD PTR [rsp+0x800]
    cf9c:	00 
    cf9d:	48 b8 00 00 00 00 00 	movabs rax,0x0
    cfa4:	00 00 00 
			cf9f: R_X86_64_64	apply1
    cfa7:	48 89 b4 24 d8 05 00 	mov    QWORD PTR [rsp+0x5d8],rsi
    cfae:	00 
    cfaf:	48 89 bc 24 40 06 00 	mov    QWORD PTR [rsp+0x640],rdi
    cfb6:	00 
    cfb7:	ff d0                	call   rax
    cfb9:	49 89 c7             	mov    r15,rax
    cfbc:	49 89 d6             	mov    r14,rdx
    cfbf:	4d 85 f6             	test   r14,r14
    cfc2:	0f 85 0d 00 00 00    	jne    cfd5 <big_makeblock+0xcfd5>
    cfc8:	4c 89 bc 24 28 07 00 	mov    QWORD PTR [rsp+0x728],r15
    cfcf:	00 
    cfd0:	e9 9d 00 00 00       	jmp    d072 <big_makeblock+0xd072>
    cfd5:	48 8b b4 24 18 08 00 	mov    rsi,QWORD PTR [rsp+0x818]
    cfdc:	00 
    cfdd:	4c 8b ae 98 00 00 00 	mov    r13,QWORD PTR [rsi+0x98]
    cfe4:	4c 89 f3             	mov    rbx,r14
    cfe7:	48 83 c3 ff          	add    rbx,0xffffffffffffffff
    cfeb:	4c 89 f2             	mov    rdx,r14
    cfee:	48 c1 e2 03          	shl    rdx,0x3
    cff2:	4d 89 ec             	mov    r12,r13
    cff5:	49 01 d4             	add    r12,rdx
    cff8:	4c 89 ef             	mov    rdi,r13
    cffb:	48 83 c7 e8          	add    rdi,0xffffffffffffffe8
    cfff:	4c 89 ee             	mov    rsi,r13
    d002:	48 b8 00 00 00 00 00 	movabs rax,0x0
    d009:	00 00 00 
			d004: R_X86_64_64	memmove
    d00c:	4c 89 bc 24 d8 05 00 	mov    QWORD PTR [rsp+0x5d8],r15
    d013:	00 
    d014:	ff d0                	call   rax
    d016:	4c 8b bc 24 d8 05 00 	mov    r15,QWORD PTR [rsp+0x5d8]
    d01d:	00 
    d01e:	48 be 00 00 00 00 00 	movabs rsi,0x0
    d025:	00 00 00 
			d020: R_X86_64_64	callback_return_addr
    d028:	bf 01 00 00 00       	mov    edi,0x1
    d02d:	4b 89 7c f5 f8       	mov    QWORD PTR [r13+r14*8-0x8],rdi
    d032:	bf 01 00 00 00       	mov    edi,0x1
    d037:	4b 89 7c f5 f0       	mov    QWORD PTR [r13+r14*8-0x10],rdi
    d03c:	4b 89 74 f5 e8       	mov    QWORD PTR [r13+r14*8-0x18],rsi
    d041:	48 8b b4 24 18 08 00 	mov    rsi,QWORD PTR [rsp+0x818]
    d048:	00 
    d049:	4c 89 a6 98 00 00 00 	mov    QWORD PTR [rsi+0x98],r12
    d050:	4c 89 ff             	mov    rdi,r15
    d053:	48 89 de             	mov    rsi,rbx
    d056:	48 b8 00 00 00 00 00 	movabs rax,0x0
    d05d:	00 00 00 
			d058: R_X86_64_64	apply_n
    d060:	48 89 bc 24 d8 05 00 	mov    QWORD PTR [rsp+0x5d8],rdi
    d067:	00 
    d068:	ff d0                	call   rax
    d06a:	48 89 84 24 28 07 00 	mov    QWORD PTR [rsp+0x728],rax
    d071:	00 
    d072:	48 8b b4 24 10 08 00 	mov    rsi,QWORD PTR [rsp+0x810]
    d079:	00 
    d07a:	48 8b 7e 08          	mov    rdi,QWORD PTR [rsi+0x8]
    d07e:	48 8b b4 24 00 08 00 	mov    rsi,QWORD PTR [rsp+0x800]
    d085:	00 
    d086:	48 b8 00 00 00 00 00 	movabs rax,0x0
    d08d:	00 00 00 
			d088: R_X86_64_64	apply1
    d090:	48 89 b4 24 d8 05 00 	mov    QWORD PTR [rsp+0x5d8],rsi
    d097:	00 
    d098:	48 89 bc 24 40 06 00 	mov    QWORD PTR [rsp+0x640],rdi
    d09f:	00 
    d0a0:	ff d0                	call   rax
    d0a2:	48 89 c3             	mov    rbx,rax
    d0a5:	49 89 d6             	mov    r14,rdx
    d0a8:	4d 85 f6             	test   r14,r14
    d0ab:	0f 85 0d 00 00 00    	jne    d0be <big_makeblock+0xd0be>
    d0b1:	48 89 9c 24 40 06 00 	mov    QWORD PTR [rsp+0x640],rbx
    d0b8:	00 
    d0b9:	e9 9d 00 00 00       	jmp    d15b <big_makeblock+0xd15b>
    d0be:	48 8b b4 24 18 08 00 	mov    rsi,QWORD PTR [rsp+0x818]
    d0c5:	00 
    d0c6:	4c 8b ae 98 00 00 00 	mov    r13,QWORD PTR [rsi+0x98]
    d0cd:	4d 89 f7             	mov    r15,r14
    d0d0:	49 83 c7 ff          	add    r15,0xffffffffffffffff
    d0d4:	4c 89 f2             	mov    rdx,r14
    d0d7:	48 c1 e2 03          	shl    rdx,0x3
    d0db:	4d 89 ec             	mov    r12,r13
    d0de:	49 01 d4             	add    r12,rdx
    d0e1:	4c 89 ef             	mov    rdi,r13
    d0e4:	48 83 c7 e8          	add    rdi,0xffffffffffffffe8
    d0e8:	4c 89 ee             	mov    rsi,r13
    d0eb:	48 b8 00 00 00 00 00 	movabs rax,0x0
    d0f2:	00 00 00 
			d0ed: R_X86_64_64	memmove
    d0f5:	48 89 9c 24 d8 05 00 	mov    QWORD PTR [rsp+0x5d8],rbx
    d0fc:	00 
    d0fd:	ff d0                	call   rax
    d0ff:	48 8b 9c 24 d8 05 00 	mov    rbx,QWORD PTR [rsp+0x5d8]
    d106:	00 
    d107:	48 be 00 00 00 00 00 	movabs rsi,0x0
    d10e:	00 00 00 
			d109: R_X86_64_64	callback_return_addr
    d111:	bf 01 00 00 00       	mov    edi,0x1
    d116:	4b 89 7c f5 f8       	mov    QWORD PTR [r13+r14*8-0x8],rdi
    d11b:	bf 01 00 00 00       	mov    edi,0x1
    d120:	4b 89 7c f5 f0       	mov    QWORD PTR [r13+r14*8-0x10],rdi
    d125:	4b 89 74 f5 e8       	mov    QWORD PTR [r13+r14*8-0x18],rsi
    d12a:	48 8b b4 24 18 08 00 	mov    rsi,QWORD PTR [rsp+0x818]
    d131:	00 
    d132:	4c 89 a6 98 00 00 00 	mov    QWORD PTR [rsi+0x98],r12
    d139:	48 89 df             	mov    rdi,rbx
    d13c:	4c 89 fe             	mov    rsi,r15
    d13f:	48 b8 00 00 00 00 00 	movabs rax,0x0
    d146:	00 00 00 
			d141: R_X86_64_64	apply_n
    d149:	48 89 bc 24 d8 05 00 	mov    QWORD PTR [rsp+0x5d8],rdi
    d150:	00 
    d151:	ff d0                	call   rax
    d153:	48 89 84 24 40 06 00 	mov    QWORD PTR [rsp+0x640],rax
    d15a:	00 
    d15b:	48 8b b4 24 10 08 00 	mov    rsi,QWORD PTR [rsp+0x810]
    d162:	00 
    d163:	48 8b 7e 08          	mov    rdi,QWORD PTR [rsi+0x8]
    d167:	48 8b b4 24 00 08 00 	mov    rsi,QWORD PTR [rsp+0x800]
    d16e:	00 
    d16f:	48 b8 00 00 00 00 00 	movabs rax,0x0
    d176:	00 00 00 
			d171: R_X86_64_64	apply1
    d179:	48 89 b4 24 d8 05 00 	mov    QWORD PTR [rsp+0x5d8],rsi
    d180:	00 
    d181:	48 89 bc 24 50 06 00 	mov    QWORD PTR [rsp+0x650],rdi
    d188:	00 
    d189:	ff d0                	call   rax
    d18b:	48 89 c3             	mov    rbx,rax
    d18e:	49 89 d6             	mov    r14,rdx
    d191:	4d 85 f6             	test   r14,r14
    d194:	0f 85 0d 00 00 00    	jne    d1a7 <big_makeblock+0xd1a7>
    d19a:	48 89 9c 24 20 07 00 	mov    QWORD PTR [rsp+0x720],rbx
    d1a1:	00 
    d1a2:	e9 9d 00 00 00       	jmp    d244 <big_makeblock+0xd244>
    d1a7:	48 8b b4 24 18 08 00 	mov    rsi,QWORD PTR [rsp+0x818]
    d1ae:	00 
    d1af:	4c 8b ae 98 00 00 00 	mov    r13,QWORD PTR [rsi+0x98]
    d1b6:	4d 89 f7             	mov    r15,r14
    d1b9:	49 83 c7 ff          	add    r15,0xffffffffffffffff
    d1bd:	4c 89 f2             	mov    rdx,r14
    d1c0:	48 c1 e2 03          	shl    rdx,0x3
    d1c4:	4d 89 ec             	mov    r12,r13
    d1c7:	49 01 d4             	add    r12,rdx
    d1ca:	4c 89 ef             	mov    rdi,r13
    d1cd:	48 83 c7 e8          	add    rdi,0xffffffffffffffe8
    d1d1:	4c 89 ee             	mov    rsi,r13
    d1d4:	48 b8 00 00 00 00 00 	movabs rax,0x0
    d1db:	00 00 00 
			d1d6: R_X86_64_64	memmove
    d1de:	48 89 9c 24 d8 05 00 	mov    QWORD PTR [rsp+0x5d8],rbx
    d1e5:	00 
    d1e6:	ff d0                	call   rax
    d1e8:	48 8b 9c 24 d8 05 00 	mov    rbx,QWORD PTR [rsp+0x5d8]
    d1ef:	00 
    d1f0:	48 be 00 00 00 00 00 	movabs rsi,0x0
    d1f7:	00 00 00 
			d1f2: R_X86_64_64	callback_return_addr
    d1fa:	bf 01 00 00 00       	mov    edi,0x1
    d1ff:	4b 89 7c f5 f8       	mov    QWORD PTR [r13+r14*8-0x8],rdi
    d204:	bf 01 00 00 00       	mov    edi,0x1
    d209:	4b 89 7c f5 f0       	mov    QWORD PTR [r13+r14*8-0x10],rdi
    d20e:	4b 89 74 f5 e8       	mov    QWORD PTR [r13+r14*8-0x18],rsi
    d213:	48 8b b4 24 18 08 00 	mov    rsi,QWORD PTR [rsp+0x818]
    d21a:	00 
    d21b:	4c 89 a6 98 00 00 00 	mov    QWORD PTR [rsi+0x98],r12
    d222:	48 89 df             	mov    rdi,rbx
    d225:	4c 89 fe             	mov    rsi,r15
    d228:	48 b8 00 00 00 00 00 	movabs rax,0x0
    d22f:	00 00 00 
			d22a: R_X86_64_64	apply_n
    d232:	48 89 bc 24 d8 05 00 	mov    QWORD PTR [rsp+0x5d8],rdi
    d239:	00 
    d23a:	ff d0                	call   rax
    d23c:	48 89 84 24 20 07 00 	mov    QWORD PTR [rsp+0x720],rax
    d243:	00 
    d244:	48 8b b4 24 10 08 00 	mov    rsi,QWORD PTR [rsp+0x810]
    d24b:	00 
    d24c:	48 8b 7e 08          	mov    rdi,QWORD PTR [rsi+0x8]
    d250:	48 8b b4 24 00 08 00 	mov    rsi,QWORD PTR [rsp+0x800]
    d257:	00 
    d258:	48 b8 00 00 00 00 00 	movabs rax,0x0
    d25f:	00 00 00 
			d25a: R_X86_64_64	apply1
    d262:	48 89 b4 24 d8 05 00 	mov    QWORD PTR [rsp+0x5d8],rsi
    d269:	00 
    d26a:	48 89 bc 24 50 06 00 	mov    QWORD PTR [rsp+0x650],rdi
    d271:	00 
    d272:	ff d0                	call   rax
    d274:	49 89 c7             	mov    r15,rax
    d277:	49 89 d6             	mov    r14,rdx
    d27a:	4d 85 f6             	test   r14,r14
    d27d:	0f 85 0d 00 00 00    	jne    d290 <big_makeblock+0xd290>
    d283:	4c 89 bc 24 50 06 00 	mov    QWORD PTR [rsp+0x650],r15
    d28a:	00 
    d28b:	e9 9d 00 00 00       	jmp    d32d <big_makeblock+0xd32d>
    d290:	48 8b b4 24 18 08 00 	mov    rsi,QWORD PTR [rsp+0x818]
    d297:	00 
    d298:	4c 8b ae 98 00 00 00 	mov    r13,QWORD PTR [rsi+0x98]
    d29f:	4c 89 f3             	mov    rbx,r14
    d2a2:	48 83 c3 ff          	add    rbx,0xffffffffffffffff
    d2a6:	4c 89 f2             	mov    rdx,r14
    d2a9:	48 c1 e2 03          	shl    rdx,0x3
    d2ad:	4d 89 ec             	mov    r12,r13
    d2b0:	49 01 d4             	add    r12,rdx
    d2b3:	4c 89 ef             	mov    rdi,r13
    d2b6:	48 83 c7 e8          	add    rdi,0xffffffffffffffe8
    d2ba:	4c 89 ee             	mov    rsi,r13
    d2bd:	48 b8 00 00 00 00 00 	movabs rax,0x0
    d2c4:	00 00 00 
			d2bf: R_X86_64_64	memmove
    d2c7:	4c 89 bc 24 d8 05 00 	mov    QWORD PTR [rsp+0x5d8],r15
    d2ce:	00 
    d2cf:	ff d0                	call   rax
    d2d1:	4c 8b bc 24 d8 05 00 	mov    r15,QWORD PTR [rsp+0x5d8]
    d2d8:	00 
    d2d9:	48 be 00 00 00 00 00 	movabs rsi,0x0
    d2e0:	00 00 00 
			d2db: R_X86_64_64	callback_return_addr
    d2e3:	bf 01 00 00 00       	mov    edi,0x1
    d2e8:	4b 89 7c f5 f8       	mov    QWORD PTR [r13+r14*8-0x8],rdi
    d2ed:	bf 01 00 00 00       	mov    edi,0x1
    d2f2:	4b 89 7c f5 f0       	mov    QWORD PTR [r13+r14*8-0x10],rdi
    d2f7:	4b 89 74 f5 e8       	mov    QWORD PTR [r13+r14*8-0x18],rsi
    d2fc:	48 8b b4 24 18 08 00 	mov    rsi,QWORD PTR [rsp+0x818]
    d303:	00 
    d304:	4c 89 a6 98 00 00 00 	mov    QWORD PTR [rsi+0x98],r12
    d30b:	4c 89 ff             	mov    rdi,r15
    d30e:	48 89 de             	mov    rsi,rbx
    d311:	48 b8 00 00 00 00 00 	movabs rax,0x0
    d318:	00 00 00 
			d313: R_X86_64_64	apply_n
    d31b:	48 89 bc 24 d8 05 00 	mov    QWORD PTR [rsp+0x5d8],rdi
    d322:	00 
    d323:	ff d0                	call   rax
    d325:	48 89 84 24 50 06 00 	mov    QWORD PTR [rsp+0x650],rax
    d32c:	00 
    d32d:	48 8b b4 24 10 08 00 	mov    rsi,QWORD PTR [rsp+0x810]
    d334:	00 
    d335:	48 8b 7e 08          	mov    rdi,QWORD PTR [rsi+0x8]
    d339:	48 8b b4 24 00 08 00 	mov    rsi,QWORD PTR [rsp+0x800]
    d340:	00 
    d341:	48 b8 00 00 00 00 00 	movabs rax,0x0
    d348:	00 00 00 
			d343: R_X86_64_64	apply1
    d34b:	48 89 b4 24 d8 05 00 	mov    QWORD PTR [rsp+0x5d8],rsi
    d352:	00 
    d353:	48 89 bc 24 60 06 00 	mov    QWORD PTR [rsp+0x660],rdi
    d35a:	00 
    d35b:	ff d0                	call   rax
    d35d:	48 89 c3             	mov    rbx,rax
    d360:	49 89 d6             	mov    r14,rdx
    d363:	4d 85 f6             	test   r14,r14
    d366:	0f 85 0d 00 00 00    	jne    d379 <big_makeblock+0xd379>
    d36c:	48 89 9c 24 18 07 00 	mov    QWORD PTR [rsp+0x718],rbx
    d373:	00 
    d374:	e9 9d 00 00 00       	jmp    d416 <big_makeblock+0xd416>
    d379:	48 8b b4 24 18 08 00 	mov    rsi,QWORD PTR [rsp+0x818]
    d380:	00 
    d381:	4c 8b ae 98 00 00 00 	mov    r13,QWORD PTR [rsi+0x98]
    d388:	4d 89 f7             	mov    r15,r14
    d38b:	49 83 c7 ff          	add    r15,0xffffffffffffffff
    d38f:	4c 89 f2             	mov    rdx,r14
    d392:	48 c1 e2 03          	shl    rdx,0x3
    d396:	4d 89 ec             	mov    r12,r13
    d399:	49 01 d4             	add    r12,rdx
    d39c:	4c 89 ef             	mov    rdi,r13
    d39f:	48 83 c7 e8          	add    rdi,0xffffffffffffffe8
    d3a3:	4c 89 ee             	mov    rsi,r13
    d3a6:	48 b8 00 00 00 00 00 	movabs rax,0x0
    d3ad:	00 00 00 
			d3a8: R_X86_64_64	memmove
    d3b0:	48 89 9c 24 d8 05 00 	mov    QWORD PTR [rsp+0x5d8],rbx
    d3b7:	00 
    d3b8:	ff d0                	call   rax
    d3ba:	48 8b 9c 24 d8 05 00 	mov    rbx,QWORD PTR [rsp+0x5d8]
    d3c1:	00 
    d3c2:	48 be 00 00 00 00 00 	movabs rsi,0x0
    d3c9:	00 00 00 
			d3c4: R_X86_64_64	callback_return_addr
    d3cc:	bf 01 00 00 00       	mov    edi,0x1
    d3d1:	4b 89 7c f5 f8       	mov    QWORD PTR [r13+r14*8-0x8],rdi
    d3d6:	bf 01 00 00 00       	mov    edi,0x1
    d3db:	4b 89 7c f5 f0       	mov    QWORD PTR [r13+r14*8-0x10],rdi
    d3e0:	4b 89 74 f5 e8       	mov    QWORD PTR [r13+r14*8-0x18],rsi
    d3e5:	48 8b b4 24 18 08 00 	mov    rsi,QWORD PTR [rsp+0x818]
    d3ec:	00 
    d3ed:	4c 89 a6 98 00 00 00 	mov    QWORD PTR [rsi+0x98],r12
    d3f4:	48 89 df             	mov    rdi,rbx
    d3f7:	4c 89 fe             	mov    rsi,r15
    d3fa:	48 b8 00 00 00 00 00 	movabs rax,0x0
    d401:	00 00 00 
			d3fc: R_X86_64_64	apply_n
    d404:	48 89 bc 24 d8 05 00 	mov    QWORD PTR [rsp+0x5d8],rdi
    d40b:	00 
    d40c:	ff d0                	call   rax
    d40e:	48 89 84 24 18 07 00 	mov    QWORD PTR [rsp+0x718],rax
    d415:	00 
    d416:	48 8b b4 24 10 08 00 	mov    rsi,QWORD PTR [rsp+0x810]
    d41d:	00 
    d41e:	48 8b 7e 08          	mov    rdi,QWORD PTR [rsi+0x8]
    d422:	48 8b b4 24 00 08 00 	mov    rsi,QWORD PTR [rsp+0x800]
    d429:	00 
    d42a:	48 b8 00 00 00 00 00 	movabs rax,0x0
    d431:	00 00 00 
			d42c: R_X86_64_64	apply1
    d434:	48 89 b4 24 d8 05 00 	mov    QWORD PTR [rsp+0x5d8],rsi
    d43b:	00 
    d43c:	48 89 bc 24 60 06 00 	mov    QWORD PTR [rsp+0x660],rdi
    d443:	00 
    d444:	ff d0                	call   rax
    d446:	48 89 c3             	mov    rbx,rax
    d449:	49 89 d6             	mov    r14,rdx
    d44c:	4d 85 f6             	test   r14,r14
    d44f:	0f 85 0d 00 00 00    	jne    d462 <big_makeblock+0xd462>
    d455:	48 89 9c 24 60 06 00 	mov    QWORD PTR [rsp+0x660],rbx
    d45c:	00 
    d45d:	e9 9d 00 00 00       	jmp    d4ff <big_makeblock+0xd4ff>
    d462:	48 8b b4 24 18 08 00 	mov    rsi,QWORD PTR [rsp+0x818]
    d469:	00 
    d46a:	4c 8b ae 98 00 00 00 	mov    r13,QWORD PTR [rsi+0x98]
    d471:	4d 89 f7             	mov    r15,r14
    d474:	49 83 c7 ff          	add    r15,0xffffffffffffffff
    d478:	4c 89 f2             	mov    rdx,r14
    d47b:	48 c1 e2 03          	shl    rdx,0x3
    d47f:	4d 89 ec             	mov    r12,r13
    d482:	49 01 d4             	add    r12,rdx
    d485:	4c 89 ef             	mov    rdi,r13
    d488:	48 83 c7 e8          	add    rdi,0xffffffffffffffe8
    d48c:	4c 89 ee             	mov    rsi,r13
    d48f:	48 b8 00 00 00 00 00 	movabs rax,0x0
    d496:	00 00 00 
			d491: R_X86_64_64	memmove
    d499:	48 89 9c 24 d8 05 00 	mov    QWORD PTR [rsp+0x5d8],rbx
    d4a0:	00 
    d4a1:	ff d0                	call   rax
    d4a3:	48 8b 9c 24 d8 05 00 	mov    rbx,QWORD PTR [rsp+0x5d8]
    d4aa:	00 
    d4ab:	48 be 00 00 00 00 00 	movabs rsi,0x0
    d4b2:	00 00 00 
			d4ad: R_X86_64_64	callback_return_addr
    d4b5:	bf 01 00 00 00       	mov    edi,0x1
    d4ba:	4b 89 7c f5 f8       	mov    QWORD PTR [r13+r14*8-0x8],rdi
    d4bf:	bf 01 00 00 00       	mov    edi,0x1
    d4c4:	4b 89 7c f5 f0       	mov    QWORD PTR [r13+r14*8-0x10],rdi
    d4c9:	4b 89 74 f5 e8       	mov    QWORD PTR [r13+r14*8-0x18],rsi
    d4ce:	48 8b b4 24 18 08 00 	mov    rsi,QWORD PTR [rsp+0x818]
    d4d5:	00 
    d4d6:	4c 89 a6 98 00 00 00 	mov    QWORD PTR [rsi+0x98],r12
    d4dd:	48 89 df             	mov    rdi,rbx
    d4e0:	4c 89 fe             	mov    rsi,r15
    d4e3:	48 b8 00 00 00 00 00 	movabs rax,0x0
    d4ea:	00 00 00 
			d4e5: R_X86_64_64	apply_n
    d4ed:	48 89 bc 24 d8 05 00 	mov    QWORD PTR [rsp+0x5d8],rdi
    d4f4:	00 
    d4f5:	ff d0                	call   rax
    d4f7:	48 89 84 24 60 06 00 	mov    QWORD PTR [rsp+0x660],rax
    d4fe:	00 
    d4ff:	48 8b b4 24 10 08 00 	mov    rsi,QWORD PTR [rsp+0x810]
    d506:	00 
    d507:	48 8b 7e 08          	mov    rdi,QWORD PTR [rsi+0x8]
    d50b:	48 8b b4 24 00 08 00 	mov    rsi,QWORD PTR [rsp+0x800]
    d512:	00 
    d513:	48 b8 00 00 00 00 00 	movabs rax,0x0
    d51a:	00 00 00 
			d515: R_X86_64_64	apply1
    d51d:	48 89 b4 24 d8 05 00 	mov    QWORD PTR [rsp+0x5d8],rsi
    d524:	00 
    d525:	48 89 bc 24 70 06 00 	mov    QWORD PTR [rsp+0x670],rdi
    d52c:	00 
    d52d:	ff d0                	call   rax
    d52f:	49 89 c7             	mov    r15,rax
    d532:	49 89 d6             	mov    r14,rdx
    d535:	4d 85 f6             	test   r14,r14
    d538:	0f 85 0d 00 00 00    	jne    d54b <big_makeblock+0xd54b>
    d53e:	4c 89 bc 24 10 07 00 	mov    QWORD PTR [rsp+0x710],r15
    d545:	00 
    d546:	e9 9d 00 00 00       	jmp    d5e8 <big_makeblock+0xd5e8>
    d54b:	48 8b b4 24 18 08 00 	mov    rsi,QWORD PTR [rsp+0x818]
    d552:	00 
    d553:	4c 8b ae 98 00 00 00 	mov    r13,QWORD PTR [rsi+0x98]
    d55a:	4c 89 f3             	mov    rbx,r14
    d55d:	48 83 c3 ff          	add    rbx,0xffffffffffffffff
    d561:	4c 89 f2             	mov    rdx,r14
    d564:	48 c1 e2 03          	shl    rdx,0x3
    d568:	4d 89 ec             	mov    r12,r13
    d56b:	49 01 d4             	add    r12,rdx
    d56e:	4c 89 ef             	mov    rdi,r13
    d571:	48 83 c7 e8          	add    rdi,0xffffffffffffffe8
    d575:	4c 89 ee             	mov    rsi,r13
    d578:	48 b8 00 00 00 00 00 	movabs rax,0x0
    d57f:	00 00 00 
			d57a: R_X86_64_64	memmove
    d582:	4c 89 bc 24 d8 05 00 	mov    QWORD PTR [rsp+0x5d8],r15
    d589:	00 
    d58a:	ff d0                	call   rax
    d58c:	4c 8b bc 24 d8 05 00 	mov    r15,QWORD PTR [rsp+0x5d8]
    d593:	00 
    d594:	48 be 00 00 00 00 00 	movabs rsi,0x0
    d59b:	00 00 00 
			d596: R_X86_64_64	callback_return_addr
    d59e:	bf 01 00 00 00       	mov    edi,0x1
    d5a3:	4b 89 7c f5 f8       	mov    QWORD PTR [r13+r14*8-0x8],rdi
    d5a8:	bf 01 00 00 00       	mov    edi,0x1
    d5ad:	4b 89 7c f5 f0       	mov    QWORD PTR [r13+r14*8-0x10],rdi
    d5b2:	4b 89 74 f5 e8       	mov    QWORD PTR [r13+r14*8-0x18],rsi
    d5b7:	48 8b b4 24 18 08 00 	mov    rsi,QWORD PTR [rsp+0x818]
    d5be:	00 
    d5bf:	4c 89 a6 98 00 00 00 	mov    QWORD PTR [rsi+0x98],r12
    d5c6:	4c 89 ff             	mov    rdi,r15
    d5c9:	48 89 de             	mov    rsi,rbx
    d5cc:	48 b8 00 00 00 00 00 	movabs rax,0x0
    d5d3:	00 00 00 
			d5ce: R_X86_64_64	apply_n
    d5d6:	48 89 bc 24 d8 05 00 	mov    QWORD PTR [rsp+0x5d8],rdi
    d5dd:	00 
    d5de:	ff d0                	call   rax
    d5e0:	48 89 84 24 10 07 00 	mov    QWORD PTR [rsp+0x710],rax
    d5e7:	00 
    d5e8:	48 8b b4 24 10 08 00 	mov    rsi,QWORD PTR [rsp+0x810]
    d5ef:	00 
    d5f0:	48 8b 7e 08          	mov    rdi,QWORD PTR [rsi+0x8]
    d5f4:	48 8b b4 24 00 08 00 	mov    rsi,QWORD PTR [rsp+0x800]
    d5fb:	00 
    d5fc:	48 b8 00 00 00 00 00 	movabs rax,0x0
    d603:	00 00 00 
			d5fe: R_X86_64_64	apply1
    d606:	48 89 b4 24 d8 05 00 	mov    QWORD PTR [rsp+0x5d8],rsi
    d60d:	00 
    d60e:	48 89 bc 24 70 06 00 	mov    QWORD PTR [rsp+0x670],rdi
    d615:	00 
    d616:	ff d0                	call   rax
    d618:	48 89 c3             	mov    rbx,rax
    d61b:	49 89 d6             	mov    r14,rdx
    d61e:	4d 85 f6             	test   r14,r14
    d621:	0f 85 0d 00 00 00    	jne    d634 <big_makeblock+0xd634>
    d627:	48 89 9c 24 70 06 00 	mov    QWORD PTR [rsp+0x670],rbx
    d62e:	00 
    d62f:	e9 9d 00 00 00       	jmp    d6d1 <big_makeblock+0xd6d1>
    d634:	48 8b b4 24 18 08 00 	mov    rsi,QWORD PTR [rsp+0x818]
    d63b:	00 
    d63c:	4c 8b ae 98 00 00 00 	mov    r13,QWORD PTR [rsi+0x98]
    d643:	4d 89 f7             	mov    r15,r14
    d646:	49 83 c7 ff          	add    r15,0xffffffffffffffff
    d64a:	4c 89 f2             	mov    rdx,r14
    d64d:	48 c1 e2 03          	shl    rdx,0x3
    d651:	4d 89 ec             	mov    r12,r13
    d654:	49 01 d4             	add    r12,rdx
    d657:	4c 89 ef             	mov    rdi,r13
    d65a:	48 83 c7 e8          	add    rdi,0xffffffffffffffe8
    d65e:	4c 89 ee             	mov    rsi,r13
    d661:	48 b8 00 00 00 00 00 	movabs rax,0x0
    d668:	00 00 00 
			d663: R_X86_64_64	memmove
    d66b:	48 89 9c 24 d8 05 00 	mov    QWORD PTR [rsp+0x5d8],rbx
    d672:	00 
    d673:	ff d0                	call   rax
    d675:	48 8b 9c 24 d8 05 00 	mov    rbx,QWORD PTR [rsp+0x5d8]
    d67c:	00 
    d67d:	48 be 00 00 00 00 00 	movabs rsi,0x0
    d684:	00 00 00 
			d67f: R_X86_64_64	callback_return_addr
    d687:	bf 01 00 00 00       	mov    edi,0x1
    d68c:	4b 89 7c f5 f8       	mov    QWORD PTR [r13+r14*8-0x8],rdi
    d691:	bf 01 00 00 00       	mov    edi,0x1
    d696:	4b 89 7c f5 f0       	mov    QWORD PTR [r13+r14*8-0x10],rdi
    d69b:	4b 89 74 f5 e8       	mov    QWORD PTR [r13+r14*8-0x18],rsi
    d6a0:	48 8b b4 24 18 08 00 	mov    rsi,QWORD PTR [rsp+0x818]
    d6a7:	00 
    d6a8:	4c 89 a6 98 00 00 00 	mov    QWORD PTR [rsi+0x98],r12
    d6af:	48 89 df             	mov    rdi,rbx
    d6b2:	4c 89 fe             	mov    rsi,r15
    d6b5:	48 b8 00 00 00 00 00 	movabs rax,0x0
    d6bc:	00 00 00 
			d6b7: R_X86_64_64	apply_n
    d6bf:	48 89 bc 24 d8 05 00 	mov    QWORD PTR [rsp+0x5d8],rdi
    d6c6:	00 
    d6c7:	ff d0                	call   rax
    d6c9:	48 89 84 24 70 06 00 	mov    QWORD PTR [rsp+0x670],rax
    d6d0:	00 
    d6d1:	48 8b b4 24 10 08 00 	mov    rsi,QWORD PTR [rsp+0x810]
    d6d8:	00 
    d6d9:	48 8b 7e 08          	mov    rdi,QWORD PTR [rsi+0x8]
    d6dd:	48 8b b4 24 00 08 00 	mov    rsi,QWORD PTR [rsp+0x800]
    d6e4:	00 
    d6e5:	48 b8 00 00 00 00 00 	movabs rax,0x0
    d6ec:	00 00 00 
			d6e7: R_X86_64_64	apply1
    d6ef:	48 89 b4 24 d8 05 00 	mov    QWORD PTR [rsp+0x5d8],rsi
    d6f6:	00 
    d6f7:	48 89 bc 24 80 06 00 	mov    QWORD PTR [rsp+0x680],rdi
    d6fe:	00 
    d6ff:	ff d0                	call   rax
    d701:	48 89 c3             	mov    rbx,rax
    d704:	49 89 d6             	mov    r14,rdx
    d707:	4d 85 f6             	test   r14,r14
    d70a:	0f 85 0d 00 00 00    	jne    d71d <big_makeblock+0xd71d>
    d710:	48 89 9c 24 08 07 00 	mov    QWORD PTR [rsp+0x708],rbx
    d717:	00 
    d718:	e9 9d 00 00 00       	jmp    d7ba <big_makeblock+0xd7ba>
    d71d:	48 8b b4 24 18 08 00 	mov    rsi,QWORD PTR [rsp+0x818]
    d724:	00 
    d725:	4c 8b ae 98 00 00 00 	mov    r13,QWORD PTR [rsi+0x98]
    d72c:	4d 89 f7             	mov    r15,r14
    d72f:	49 83 c7 ff          	add    r15,0xffffffffffffffff
    d733:	4c 89 f2             	mov    rdx,r14
    d736:	48 c1 e2 03          	shl    rdx,0x3
    d73a:	4d 89 ec             	mov    r12,r13
    d73d:	49 01 d4             	add    r12,rdx
    d740:	4c 89 ef             	mov    rdi,r13
    d743:	48 83 c7 e8          	add    rdi,0xffffffffffffffe8
    d747:	4c 89 ee             	mov    rsi,r13
    d74a:	48 b8 00 00 00 00 00 	movabs rax,0x0
    d751:	00 00 00 
			d74c: R_X86_64_64	memmove
    d754:	48 89 9c 24 d8 05 00 	mov    QWORD PTR [rsp+0x5d8],rbx
    d75b:	00 
    d75c:	ff d0                	call   rax
    d75e:	48 8b 9c 24 d8 05 00 	mov    rbx,QWORD PTR [rsp+0x5d8]
    d765:	00 
    d766:	48 be 00 00 00 00 00 	movabs rsi,0x0
    d76d:	00 00 00 
			d768: R_X86_64_64	callback_return_addr
    d770:	bf 01 00 00 00       	mov    edi,0x1
    d775:	4b 89 7c f5 f8       	mov    QWORD PTR [r13+r14*8-0x8],rdi
    d77a:	bf 01 00 00 00       	mov    edi,0x1
    d77f:	4b 89 7c f5 f0       	mov    QWORD PTR [r13+r14*8-0x10],rdi
    d784:	4b 89 74 f5 e8       	mov    QWORD PTR [r13+r14*8-0x18],rsi
    d789:	48 8b b4 24 18 08 00 	mov    rsi,QWORD PTR [rsp+0x818]
    d790:	00 
    d791:	4c 89 a6 98 00 00 00 	mov    QWORD PTR [rsi+0x98],r12
    d798:	48 89 df             	mov    rdi,rbx
    d79b:	4c 89 fe             	mov    rsi,r15
    d79e:	48 b8 00 00 00 00 00 	movabs rax,0x0
    d7a5:	00 00 00 
			d7a0: R_X86_64_64	apply_n
    d7a8:	48 89 bc 24 d8 05 00 	mov    QWORD PTR [rsp+0x5d8],rdi
    d7af:	00 
    d7b0:	ff d0                	call   rax
    d7b2:	48 89 84 24 08 07 00 	mov    QWORD PTR [rsp+0x708],rax
    d7b9:	00 
    d7ba:	48 8b b4 24 10 08 00 	mov    rsi,QWORD PTR [rsp+0x810]
    d7c1:	00 
    d7c2:	48 8b 7e 08          	mov    rdi,QWORD PTR [rsi+0x8]
    d7c6:	48 8b b4 24 00 08 00 	mov    rsi,QWORD PTR [rsp+0x800]
    d7cd:	00 
    d7ce:	48 b8 00 00 00 00 00 	movabs rax,0x0
    d7d5:	00 00 00 
			d7d0: R_X86_64_64	apply1
    d7d8:	48 89 b4 24 d8 05 00 	mov    QWORD PTR [rsp+0x5d8],rsi
    d7df:	00 
    d7e0:	48 89 bc 24 80 06 00 	mov    QWORD PTR [rsp+0x680],rdi
    d7e7:	00 
    d7e8:	ff d0                	call   rax
    d7ea:	49 89 c7             	mov    r15,rax
    d7ed:	49 89 d6             	mov    r14,rdx
    d7f0:	4d 85 f6             	test   r14,r14
    d7f3:	0f 85 0d 00 00 00    	jne    d806 <big_makeblock+0xd806>
    d7f9:	4c 89 bc 24 80 06 00 	mov    QWORD PTR [rsp+0x680],r15
    d800:	00 
    d801:	e9 9d 00 00 00       	jmp    d8a3 <big_makeblock+0xd8a3>
    d806:	48 8b b4 24 18 08 00 	mov    rsi,QWORD PTR [rsp+0x818]
    d80d:	00 
    d80e:	4c 8b ae 98 00 00 00 	mov    r13,QWORD PTR [rsi+0x98]
    d815:	4c 89 f3             	mov    rbx,r14
    d818:	48 83 c3 ff          	add    rbx,0xffffffffffffffff
    d81c:	4c 89 f2             	mov    rdx,r14
    d81f:	48 c1 e2 03          	shl    rdx,0x3
    d823:	4d 89 ec             	mov    r12,r13
    d826:	49 01 d4             	add    r12,rdx
    d829:	4c 89 ef             	mov    rdi,r13
    d82c:	48 83 c7 e8          	add    rdi,0xffffffffffffffe8
    d830:	4c 89 ee             	mov    rsi,r13
    d833:	48 b8 00 00 00 00 00 	movabs rax,0x0
    d83a:	00 00 00 
			d835: R_X86_64_64	memmove
    d83d:	4c 89 bc 24 d8 05 00 	mov    QWORD PTR [rsp+0x5d8],r15
    d844:	00 
    d845:	ff d0                	call   rax
    d847:	4c 8b bc 24 d8 05 00 	mov    r15,QWORD PTR [rsp+0x5d8]
    d84e:	00 
    d84f:	48 be 00 00 00 00 00 	movabs rsi,0x0
    d856:	00 00 00 
			d851: R_X86_64_64	callback_return_addr
    d859:	bf 01 00 00 00       	mov    edi,0x1
    d85e:	4b 89 7c f5 f8       	mov    QWORD PTR [r13+r14*8-0x8],rdi
    d863:	bf 01 00 00 00       	mov    edi,0x1
    d868:	4b 89 7c f5 f0       	mov    QWORD PTR [r13+r14*8-0x10],rdi
    d86d:	4b 89 74 f5 e8       	mov    QWORD PTR [r13+r14*8-0x18],rsi
    d872:	48 8b b4 24 18 08 00 	mov    rsi,QWORD PTR [rsp+0x818]
    d879:	00 
    d87a:	4c 89 a6 98 00 00 00 	mov    QWORD PTR [rsi+0x98],r12
    d881:	4c 89 ff             	mov    rdi,r15
    d884:	48 89 de             	mov    rsi,rbx
    d887:	48 b8 00 00 00 00 00 	movabs rax,0x0
    d88e:	00 00 00 
			d889: R_X86_64_64	apply_n
    d891:	48 89 bc 24 d8 05 00 	mov    QWORD PTR [rsp+0x5d8],rdi
    d898:	00 
    d899:	ff d0                	call   rax
    d89b:	48 89 84 24 80 06 00 	mov    QWORD PTR [rsp+0x680],rax
    d8a2:	00 
    d8a3:	48 8b b4 24 10 08 00 	mov    rsi,QWORD PTR [rsp+0x810]
    d8aa:	00 
    d8ab:	48 8b 7e 08          	mov    rdi,QWORD PTR [rsi+0x8]
    d8af:	48 8b b4 24 00 08 00 	mov    rsi,QWORD PTR [rsp+0x800]
    d8b6:	00 
    d8b7:	48 b8 00 00 00 00 00 	movabs rax,0x0
    d8be:	00 00 00 
			d8b9: R_X86_64_64	apply1
    d8c1:	48 89 b4 24 d8 05 00 	mov    QWORD PTR [rsp+0x5d8],rsi
    d8c8:	00 
    d8c9:	48 89 bc 24 90 06 00 	mov    QWORD PTR [rsp+0x690],rdi
    d8d0:	00 
    d8d1:	ff d0                	call   rax
    d8d3:	48 89 c3             	mov    rbx,rax
    d8d6:	49 89 d6             	mov    r14,rdx
    d8d9:	4d 85 f6             	test   r14,r14
    d8dc:	0f 85 0d 00 00 00    	jne    d8ef <big_makeblock+0xd8ef>
    d8e2:	48 89 9c 24 00 07 00 	mov    QWORD PTR [rsp+0x700],rbx
    d8e9:	00 
    d8ea:	e9 9d 00 00 00       	jmp    d98c <big_makeblock+0xd98c>
    d8ef:	48 8b b4 24 18 08 00 	mov    rsi,QWORD PTR [rsp+0x818]
    d8f6:	00 
    d8f7:	4c 8b ae 98 00 00 00 	mov    r13,QWORD PTR [rsi+0x98]
    d8fe:	4d 89 f7             	mov    r15,r14
    d901:	49 83 c7 ff          	add    r15,0xffffffffffffffff
    d905:	4c 89 f2             	mov    rdx,r14
    d908:	48 c1 e2 03          	shl    rdx,0x3
    d90c:	4d 89 ec             	mov    r12,r13
    d90f:	49 01 d4             	add    r12,rdx
    d912:	4c 89 ef             	mov    rdi,r13
    d915:	48 83 c7 e8          	add    rdi,0xffffffffffffffe8
    d919:	4c 89 ee             	mov    rsi,r13
    d91c:	48 b8 00 00 00 00 00 	movabs rax,0x0
    d923:	00 00 00 
			d91e: R_X86_64_64	memmove
    d926:	48 89 9c 24 d8 05 00 	mov    QWORD PTR [rsp+0x5d8],rbx
    d92d:	00 
    d92e:	ff d0                	call   rax
    d930:	48 8b 9c 24 d8 05 00 	mov    rbx,QWORD PTR [rsp+0x5d8]
    d937:	00 
    d938:	48 be 00 00 00 00 00 	movabs rsi,0x0
    d93f:	00 00 00 
			d93a: R_X86_64_64	callback_return_addr
    d942:	bf 01 00 00 00       	mov    edi,0x1
    d947:	4b 89 7c f5 f8       	mov    QWORD PTR [r13+r14*8-0x8],rdi
    d94c:	bf 01 00 00 00       	mov    edi,0x1
    d951:	4b 89 7c f5 f0       	mov    QWORD PTR [r13+r14*8-0x10],rdi
    d956:	4b 89 74 f5 e8       	mov    QWORD PTR [r13+r14*8-0x18],rsi
    d95b:	48 8b b4 24 18 08 00 	mov    rsi,QWORD PTR [rsp+0x818]
    d962:	00 
    d963:	4c 89 a6 98 00 00 00 	mov    QWORD PTR [rsi+0x98],r12
    d96a:	48 89 df             	mov    rdi,rbx
    d96d:	4c 89 fe             	mov    rsi,r15
    d970:	48 b8 00 00 00 00 00 	movabs rax,0x0
    d977:	00 00 00 
			d972: R_X86_64_64	apply_n
    d97a:	48 89 bc 24 d8 05 00 	mov    QWORD PTR [rsp+0x5d8],rdi
    d981:	00 
    d982:	ff d0                	call   rax
    d984:	48 89 84 24 00 07 00 	mov    QWORD PTR [rsp+0x700],rax
    d98b:	00 
    d98c:	48 8b b4 24 10 08 00 	mov    rsi,QWORD PTR [rsp+0x810]
    d993:	00 
    d994:	48 8b 7e 08          	mov    rdi,QWORD PTR [rsi+0x8]
    d998:	48 8b b4 24 00 08 00 	mov    rsi,QWORD PTR [rsp+0x800]
    d99f:	00 
    d9a0:	48 b8 00 00 00 00 00 	movabs rax,0x0
    d9a7:	00 00 00 
			d9a2: R_X86_64_64	apply1
    d9aa:	48 89 b4 24 d8 05 00 	mov    QWORD PTR [rsp+0x5d8],rsi
    d9b1:	00 
    d9b2:	48 89 bc 24 90 06 00 	mov    QWORD PTR [rsp+0x690],rdi
    d9b9:	00 
    d9ba:	ff d0                	call   rax
    d9bc:	48 89 c3             	mov    rbx,rax
    d9bf:	49 89 d6             	mov    r14,rdx
    d9c2:	4d 85 f6             	test   r14,r14
    d9c5:	0f 85 0d 00 00 00    	jne    d9d8 <big_makeblock+0xd9d8>
    d9cb:	48 89 9c 24 90 06 00 	mov    QWORD PTR [rsp+0x690],rbx
    d9d2:	00 
    d9d3:	e9 9d 00 00 00       	jmp    da75 <big_makeblock+0xda75>
    d9d8:	48 8b b4 24 18 08 00 	mov    rsi,QWORD PTR [rsp+0x818]
    d9df:	00 
    d9e0:	4c 8b ae 98 00 00 00 	mov    r13,QWORD PTR [rsi+0x98]
    d9e7:	4d 89 f7             	mov    r15,r14
    d9ea:	49 83 c7 ff          	add    r15,0xffffffffffffffff
    d9ee:	4c 89 f2             	mov    rdx,r14
    d9f1:	48 c1 e2 03          	shl    rdx,0x3
    d9f5:	4d 89 ec             	mov    r12,r13
    d9f8:	49 01 d4             	add    r12,rdx
    d9fb:	4c 89 ef             	mov    rdi,r13
    d9fe:	48 83 c7 e8          	add    rdi,0xffffffffffffffe8
    da02:	4c 89 ee             	mov    rsi,r13
    da05:	48 b8 00 00 00 00 00 	movabs rax,0x0
    da0c:	00 00 00 
			da07: R_X86_64_64	memmove
    da0f:	48 89 9c 24 d8 05 00 	mov    QWORD PTR [rsp+0x5d8],rbx
    da16:	00 
    da17:	ff d0                	call   rax
    da19:	48 8b 9c 24 d8 05 00 	mov    rbx,QWORD PTR [rsp+0x5d8]
    da20:	00 
    da21:	48 be 00 00 00 00 00 	movabs rsi,0x0
    da28:	00 00 00 
			da23: R_X86_64_64	callback_return_addr
    da2b:	bf 01 00 00 00       	mov    edi,0x1
    da30:	4b 89 7c f5 f8       	mov    QWORD PTR [r13+r14*8-0x8],rdi
    da35:	bf 01 00 00 00       	mov    edi,0x1
    da3a:	4b 89 7c f5 f0       	mov    QWORD PTR [r13+r14*8-0x10],rdi
    da3f:	4b 89 74 f5 e8       	mov    QWORD PTR [r13+r14*8-0x18],rsi
    da44:	48 8b b4 24 18 08 00 	mov    rsi,QWORD PTR [rsp+0x818]
    da4b:	00 
    da4c:	4c 89 a6 98 00 00 00 	mov    QWORD PTR [rsi+0x98],r12
    da53:	48 89 df             	mov    rdi,rbx
    da56:	4c 89 fe             	mov    rsi,r15
    da59:	48 b8 00 00 00 00 00 	movabs rax,0x0
    da60:	00 00 00 
			da5b: R_X86_64_64	apply_n
    da63:	48 89 bc 24 d8 05 00 	mov    QWORD PTR [rsp+0x5d8],rdi
    da6a:	00 
    da6b:	ff d0                	call   rax
    da6d:	48 89 84 24 90 06 00 	mov    QWORD PTR [rsp+0x690],rax
    da74:	00 
    da75:	48 8b b4 24 10 08 00 	mov    rsi,QWORD PTR [rsp+0x810]
    da7c:	00 
    da7d:	48 8b 7e 08          	mov    rdi,QWORD PTR [rsi+0x8]
    da81:	48 8b b4 24 00 08 00 	mov    rsi,QWORD PTR [rsp+0x800]
    da88:	00 
    da89:	48 b8 00 00 00 00 00 	movabs rax,0x0
    da90:	00 00 00 
			da8b: R_X86_64_64	apply1
    da93:	48 89 b4 24 d8 05 00 	mov    QWORD PTR [rsp+0x5d8],rsi
    da9a:	00 
    da9b:	48 89 bc 24 a0 06 00 	mov    QWORD PTR [rsp+0x6a0],rdi
    daa2:	00 
    daa3:	ff d0                	call   rax
    daa5:	49 89 c7             	mov    r15,rax
    daa8:	49 89 d6             	mov    r14,rdx
    daab:	4d 85 f6             	test   r14,r14
    daae:	0f 85 0d 00 00 00    	jne    dac1 <big_makeblock+0xdac1>
    dab4:	4c 89 bc 24 f8 06 00 	mov    QWORD PTR [rsp+0x6f8],r15
    dabb:	00 
    dabc:	e9 9d 00 00 00       	jmp    db5e <big_makeblock+0xdb5e>
    dac1:	48 8b b4 24 18 08 00 	mov    rsi,QWORD PTR [rsp+0x818]
    dac8:	00 
    dac9:	4c 8b ae 98 00 00 00 	mov    r13,QWORD PTR [rsi+0x98]
    dad0:	4c 89 f3             	mov    rbx,r14
    dad3:	48 83 c3 ff          	add    rbx,0xffffffffffffffff
    dad7:	4c 89 f2             	mov    rdx,r14
    dada:	48 c1 e2 03          	shl    rdx,0x3
    dade:	4d 89 ec             	mov    r12,r13
    dae1:	49 01 d4             	add    r12,rdx
    dae4:	4c 89 ef             	mov    rdi,r13
    dae7:	48 83 c7 e8          	add    rdi,0xffffffffffffffe8
    daeb:	4c 89 ee             	mov    rsi,r13
    daee:	48 b8 00 00 00 00 00 	movabs rax,0x0
    daf5:	00 00 00 
			daf0: R_X86_64_64	memmove
    daf8:	4c 89 bc 24 d8 05 00 	mov    QWORD PTR [rsp+0x5d8],r15
    daff:	00 
    db00:	ff d0                	call   rax
    db02:	4c 8b bc 24 d8 05 00 	mov    r15,QWORD PTR [rsp+0x5d8]
    db09:	00 
    db0a:	48 be 00 00 00 00 00 	movabs rsi,0x0
    db11:	00 00 00 
			db0c: R_X86_64_64	callback_return_addr
    db14:	bf 01 00 00 00       	mov    edi,0x1
    db19:	4b 89 7c f5 f8       	mov    QWORD PTR [r13+r14*8-0x8],rdi
    db1e:	bf 01 00 00 00       	mov    edi,0x1
    db23:	4b 89 7c f5 f0       	mov    QWORD PTR [r13+r14*8-0x10],rdi
    db28:	4b 89 74 f5 e8       	mov    QWORD PTR [r13+r14*8-0x18],rsi
    db2d:	48 8b b4 24 18 08 00 	mov    rsi,QWORD PTR [rsp+0x818]
    db34:	00 
    db35:	4c 89 a6 98 00 00 00 	mov    QWORD PTR [rsi+0x98],r12
    db3c:	4c 89 ff             	mov    rdi,r15
    db3f:	48 89 de             	mov    rsi,rbx
    db42:	48 b8 00 00 00 00 00 	movabs rax,0x0
    db49:	00 00 00 
			db44: R_X86_64_64	apply_n
    db4c:	48 89 bc 24 d8 05 00 	mov    QWORD PTR [rsp+0x5d8],rdi
    db53:	00 
    db54:	ff d0                	call   rax
    db56:	48 89 84 24 f8 06 00 	mov    QWORD PTR [rsp+0x6f8],rax
    db5d:	00 
    db5e:	48 8b b4 24 10 08 00 	mov    rsi,QWORD PTR [rsp+0x810]
    db65:	00 
    db66:	48 8b 7e 08          	mov    rdi,QWORD PTR [rsi+0x8]
    db6a:	48 8b b4 24 00 08 00 	mov    rsi,QWORD PTR [rsp+0x800]
    db71:	00 
    db72:	48 b8 00 00 00 00 00 	movabs rax,0x0
    db79:	00 00 00 
			db74: R_X86_64_64	apply1
    db7c:	48 89 b4 24 d8 05 00 	mov    QWORD PTR [rsp+0x5d8],rsi
    db83:	00 
    db84:	48 89 bc 24 a0 06 00 	mov    QWORD PTR [rsp+0x6a0],rdi
    db8b:	00 
    db8c:	ff d0                	call   rax
    db8e:	48 89 c3             	mov    rbx,rax
    db91:	49 89 d6             	mov    r14,rdx
    db94:	4d 85 f6             	test   r14,r14
    db97:	0f 85 0d 00 00 00    	jne    dbaa <big_makeblock+0xdbaa>
    db9d:	48 89 9c 24 a0 06 00 	mov    QWORD PTR [rsp+0x6a0],rbx
    dba4:	00 
    dba5:	e9 9d 00 00 00       	jmp    dc47 <big_makeblock+0xdc47>
    dbaa:	48 8b b4 24 18 08 00 	mov    rsi,QWORD PTR [rsp+0x818]
    dbb1:	00 
    dbb2:	4c 8b ae 98 00 00 00 	mov    r13,QWORD PTR [rsi+0x98]
    dbb9:	4d 89 f7             	mov    r15,r14
    dbbc:	49 83 c7 ff          	add    r15,0xffffffffffffffff
    dbc0:	4c 89 f2             	mov    rdx,r14
    dbc3:	48 c1 e2 03          	shl    rdx,0x3
    dbc7:	4d 89 ec             	mov    r12,r13
    dbca:	49 01 d4             	add    r12,rdx
    dbcd:	4c 89 ef             	mov    rdi,r13
    dbd0:	48 83 c7 e8          	add    rdi,0xffffffffffffffe8
    dbd4:	4c 89 ee             	mov    rsi,r13
    dbd7:	48 b8 00 00 00 00 00 	movabs rax,0x0
    dbde:	00 00 00 
			dbd9: R_X86_64_64	memmove
    dbe1:	48 89 9c 24 d8 05 00 	mov    QWORD PTR [rsp+0x5d8],rbx
    dbe8:	00 
    dbe9:	ff d0                	call   rax
    dbeb:	48 8b 9c 24 d8 05 00 	mov    rbx,QWORD PTR [rsp+0x5d8]
    dbf2:	00 
    dbf3:	48 be 00 00 00 00 00 	movabs rsi,0x0
    dbfa:	00 00 00 
			dbf5: R_X86_64_64	callback_return_addr
    dbfd:	bf 01 00 00 00       	mov    edi,0x1
    dc02:	4b 89 7c f5 f8       	mov    QWORD PTR [r13+r14*8-0x8],rdi
    dc07:	bf 01 00 00 00       	mov    edi,0x1
    dc0c:	4b 89 7c f5 f0       	mov    QWORD PTR [r13+r14*8-0x10],rdi
    dc11:	4b 89 74 f5 e8       	mov    QWORD PTR [r13+r14*8-0x18],rsi
    dc16:	48 8b b4 24 18 08 00 	mov    rsi,QWORD PTR [rsp+0x818]
    dc1d:	00 
    dc1e:	4c 89 a6 98 00 00 00 	mov    QWORD PTR [rsi+0x98],r12
    dc25:	48 89 df             	mov    rdi,rbx
    dc28:	4c 89 fe             	mov    rsi,r15
    dc2b:	48 b8 00 00 00 00 00 	movabs rax,0x0
    dc32:	00 00 00 
			dc2d: R_X86_64_64	apply_n
    dc35:	48 89 bc 24 d8 05 00 	mov    QWORD PTR [rsp+0x5d8],rdi
    dc3c:	00 
    dc3d:	ff d0                	call   rax
    dc3f:	48 89 84 24 a0 06 00 	mov    QWORD PTR [rsp+0x6a0],rax
    dc46:	00 
    dc47:	48 8b b4 24 10 08 00 	mov    rsi,QWORD PTR [rsp+0x810]
    dc4e:	00 
    dc4f:	48 8b 7e 08          	mov    rdi,QWORD PTR [rsi+0x8]
    dc53:	48 8b b4 24 00 08 00 	mov    rsi,QWORD PTR [rsp+0x800]
    dc5a:	00 
    dc5b:	48 b8 00 00 00 00 00 	movabs rax,0x0
    dc62:	00 00 00 
			dc5d: R_X86_64_64	apply1
    dc65:	48 89 b4 24 d8 05 00 	mov    QWORD PTR [rsp+0x5d8],rsi
    dc6c:	00 
    dc6d:	48 89 bc 24 b0 06 00 	mov    QWORD PTR [rsp+0x6b0],rdi
    dc74:	00 
    dc75:	ff d0                	call   rax
    dc77:	48 89 c3             	mov    rbx,rax
    dc7a:	49 89 d6             	mov    r14,rdx
    dc7d:	4d 85 f6             	test   r14,r14
    dc80:	0f 85 0d 00 00 00    	jne    dc93 <big_makeblock+0xdc93>
    dc86:	48 89 9c 24 f0 06 00 	mov    QWORD PTR [rsp+0x6f0],rbx
    dc8d:	00 
    dc8e:	e9 9d 00 00 00       	jmp    dd30 <big_makeblock+0xdd30>
    dc93:	48 8b b4 24 18 08 00 	mov    rsi,QWORD PTR [rsp+0x818]
    dc9a:	00 
    dc9b:	4c 8b ae 98 00 00 00 	mov    r13,QWORD PTR [rsi+0x98]
    dca2:	4d 89 f7             	mov    r15,r14
    dca5:	49 83 c7 ff          	add    r15,0xffffffffffffffff
    dca9:	4c 89 f2             	mov    rdx,r14
    dcac:	48 c1 e2 03          	shl    rdx,0x3
    dcb0:	4d 89 ec             	mov    r12,r13
    dcb3:	49 01 d4             	add    r12,rdx
    dcb6:	4c 89 ef             	mov    rdi,r13
    dcb9:	48 83 c7 e8          	add    rdi,0xffffffffffffffe8
    dcbd:	4c 89 ee             	mov    rsi,r13
    dcc0:	48 b8 00 00 00 00 00 	movabs rax,0x0
    dcc7:	00 00 00 
			dcc2: R_X86_64_64	memmove
    dcca:	48 89 9c 24 d8 05 00 	mov    QWORD PTR [rsp+0x5d8],rbx
    dcd1:	00 
    dcd2:	ff d0                	call   rax
    dcd4:	48 8b 9c 24 d8 05 00 	mov    rbx,QWORD PTR [rsp+0x5d8]
    dcdb:	00 
    dcdc:	48 be 00 00 00 00 00 	movabs rsi,0x0
    dce3:	00 00 00 
			dcde: R_X86_64_64	callback_return_addr
    dce6:	bf 01 00 00 00       	mov    edi,0x1
    dceb:	4b 89 7c f5 f8       	mov    QWORD PTR [r13+r14*8-0x8],rdi
    dcf0:	bf 01 00 00 00       	mov    edi,0x1
    dcf5:	4b 89 7c f5 f0       	mov    QWORD PTR [r13+r14*8-0x10],rdi
    dcfa:	4b 89 74 f5 e8       	mov    QWORD PTR [r13+r14*8-0x18],rsi
    dcff:	48 8b b4 24 18 08 00 	mov    rsi,QWORD PTR [rsp+0x818]
    dd06:	00 
    dd07:	4c 89 a6 98 00 00 00 	mov    QWORD PTR [rsi+0x98],r12
    dd0e:	48 89 df             	mov    rdi,rbx
    dd11:	4c 89 fe             	mov    rsi,r15
    dd14:	48 b8 00 00 00 00 00 	movabs rax,0x0
    dd1b:	00 00 00 
			dd16: R_X86_64_64	apply_n
    dd1e:	48 89 bc 24 d8 05 00 	mov    QWORD PTR [rsp+0x5d8],rdi
    dd25:	00 
    dd26:	ff d0                	call   rax
    dd28:	48 89 84 24 f0 06 00 	mov    QWORD PTR [rsp+0x6f0],rax
    dd2f:	00 
    dd30:	48 8b b4 24 10 08 00 	mov    rsi,QWORD PTR [rsp+0x810]
    dd37:	00 
    dd38:	48 8b 7e 08          	mov    rdi,QWORD PTR [rsi+0x8]
    dd3c:	48 8b b4 24 00 08 00 	mov    rsi,QWORD PTR [rsp+0x800]
    dd43:	00 
    dd44:	48 b8 00 00 00 00 00 	movabs rax,0x0
    dd4b:	00 00 00 
			dd46: R_X86_64_64	apply1
    dd4e:	48 89 b4 24 d8 05 00 	mov    QWORD PTR [rsp+0x5d8],rsi
    dd55:	00 
    dd56:	48 89 bc 24 b0 06 00 	mov    QWORD PTR [rsp+0x6b0],rdi
    dd5d:	00 
    dd5e:	ff d0                	call   rax
    dd60:	49 89 c7             	mov    r15,rax
    dd63:	49 89 d6             	mov    r14,rdx
    dd66:	4d 85 f6             	test   r14,r14
    dd69:	0f 85 0d 00 00 00    	jne    dd7c <big_makeblock+0xdd7c>
    dd6f:	4c 89 bc 24 b0 06 00 	mov    QWORD PTR [rsp+0x6b0],r15
    dd76:	00 
    dd77:	e9 9d 00 00 00       	jmp    de19 <big_makeblock+0xde19>
    dd7c:	48 8b b4 24 18 08 00 	mov    rsi,QWORD PTR [rsp+0x818]
    dd83:	00 
    dd84:	4c 8b ae 98 00 00 00 	mov    r13,QWORD PTR [rsi+0x98]
    dd8b:	4c 89 f3             	mov    rbx,r14
    dd8e:	48 83 c3 ff          	add    rbx,0xffffffffffffffff
    dd92:	4c 89 f2             	mov    rdx,r14
    dd95:	48 c1 e2 03          	shl    rdx,0x3
    dd99:	4d 89 ec             	mov    r12,r13
    dd9c:	49 01 d4             	add    r12,rdx
    dd9f:	4c 89 ef             	mov    rdi,r13
    dda2:	48 83 c7 e8          	add    rdi,0xffffffffffffffe8
    dda6:	4c 89 ee             	mov    rsi,r13
    dda9:	48 b8 00 00 00 00 00 	movabs rax,0x0
    ddb0:	00 00 00 
			ddab: R_X86_64_64	memmove
    ddb3:	4c 89 bc 24 d8 05 00 	mov    QWORD PTR [rsp+0x5d8],r15
    ddba:	00 
    ddbb:	ff d0                	call   rax
    ddbd:	4c 8b bc 24 d8 05 00 	mov    r15,QWORD PTR [rsp+0x5d8]
    ddc4:	00 
    ddc5:	48 be 00 00 00 00 00 	movabs rsi,0x0
    ddcc:	00 00 00 
			ddc7: R_X86_64_64	callback_return_addr
    ddcf:	bf 01 00 00 00       	mov    edi,0x1
    ddd4:	4b 89 7c f5 f8       	mov    QWORD PTR [r13+r14*8-0x8],rdi
    ddd9:	bf 01 00 00 00       	mov    edi,0x1
    ddde:	4b 89 7c f5 f0       	mov    QWORD PTR [r13+r14*8-0x10],rdi
    dde3:	4b 89 74 f5 e8       	mov    QWORD PTR [r13+r14*8-0x18],rsi
    dde8:	48 8b b4 24 18 08 00 	mov    rsi,QWORD PTR [rsp+0x818]
    ddef:	00 
    ddf0:	4c 89 a6 98 00 00 00 	mov    QWORD PTR [rsi+0x98],r12
    ddf7:	4c 89 ff             	mov    rdi,r15
    ddfa:	48 89 de             	mov    rsi,rbx
    ddfd:	48 b8 00 00 00 00 00 	movabs rax,0x0
    de04:	00 00 00 
			ddff: R_X86_64_64	apply_n
    de07:	48 89 bc 24 d8 05 00 	mov    QWORD PTR [rsp+0x5d8],rdi
    de0e:	00 
    de0f:	ff d0                	call   rax
    de11:	48 89 84 24 b0 06 00 	mov    QWORD PTR [rsp+0x6b0],rax
    de18:	00 
    de19:	48 8b b4 24 10 08 00 	mov    rsi,QWORD PTR [rsp+0x810]
    de20:	00 
    de21:	48 8b 7e 08          	mov    rdi,QWORD PTR [rsi+0x8]
    de25:	48 8b b4 24 00 08 00 	mov    rsi,QWORD PTR [rsp+0x800]
    de2c:	00 
    de2d:	48 b8 00 00 00 00 00 	movabs rax,0x0
    de34:	00 00 00 
			de2f: R_X86_64_64	apply1
    de37:	48 89 b4 24 d8 05 00 	mov    QWORD PTR [rsp+0x5d8],rsi
    de3e:	00 
    de3f:	48 89 bc 24 c0 06 00 	mov    QWORD PTR [rsp+0x6c0],rdi
    de46:	00 
    de47:	ff d0                	call   rax
    de49:	48 89 c3             	mov    rbx,rax
    de4c:	49 89 d6             	mov    r14,rdx
    de4f:	4d 85 f6             	test   r14,r14
    de52:	0f 85 0d 00 00 00    	jne    de65 <big_makeblock+0xde65>
    de58:	48 89 9c 24 e8 06 00 	mov    QWORD PTR [rsp+0x6e8],rbx
    de5f:	00 
    de60:	e9 9d 00 00 00       	jmp    df02 <big_makeblock+0xdf02>
    de65:	48 8b b4 24 18 08 00 	mov    rsi,QWORD PTR [rsp+0x818]
    de6c:	00 
    de6d:	4c 8b ae 98 00 00 00 	mov    r13,QWORD PTR [rsi+0x98]
    de74:	4d 89 f7             	mov    r15,r14
    de77:	49 83 c7 ff          	add    r15,0xffffffffffffffff
    de7b:	4c 89 f2             	mov    rdx,r14
    de7e:	48 c1 e2 03          	shl    rdx,0x3
    de82:	4d 89 ec             	mov    r12,r13
    de85:	49 01 d4             	add    r12,rdx
    de88:	4c 89 ef             	mov    rdi,r13
    de8b:	48 83 c7 e8          	add    rdi,0xffffffffffffffe8
    de8f:	4c 89 ee             	mov    rsi,r13
    de92:	48 b8 00 00 00 00 00 	movabs rax,0x0
    de99:	00 00 00 
			de94: R_X86_64_64	memmove
    de9c:	48 89 9c 24 d8 05 00 	mov    QWORD PTR [rsp+0x5d8],rbx
    dea3:	00 
    dea4:	ff d0                	call   rax
    dea6:	48 8b 9c 24 d8 05 00 	mov    rbx,QWORD PTR [rsp+0x5d8]
    dead:	00 
    deae:	48 be 00 00 00 00 00 	movabs rsi,0x0
    deb5:	00 00 00 
			deb0: R_X86_64_64	callback_return_addr
    deb8:	bf 01 00 00 00       	mov    edi,0x1
    debd:	4b 89 7c f5 f8       	mov    QWORD PTR [r13+r14*8-0x8],rdi
    dec2:	bf 01 00 00 00       	mov    edi,0x1
    dec7:	4b 89 7c f5 f0       	mov    QWORD PTR [r13+r14*8-0x10],rdi
    decc:	4b 89 74 f5 e8       	mov    QWORD PTR [r13+r14*8-0x18],rsi
    ded1:	48 8b b4 24 18 08 00 	mov    rsi,QWORD PTR [rsp+0x818]
    ded8:	00 
    ded9:	4c 89 a6 98 00 00 00 	mov    QWORD PTR [rsi+0x98],r12
    dee0:	48 89 df             	mov    rdi,rbx
    dee3:	4c 89 fe             	mov    rsi,r15
    dee6:	48 b8 00 00 00 00 00 	movabs rax,0x0
    deed:	00 00 00 
			dee8: R_X86_64_64	apply_n
    def0:	48 89 bc 24 d8 05 00 	mov    QWORD PTR [rsp+0x5d8],rdi
    def7:	00 
    def8:	ff d0                	call   rax
    defa:	48 89 84 24 e8 06 00 	mov    QWORD PTR [rsp+0x6e8],rax
    df01:	00 
    df02:	48 8b b4 24 10 08 00 	mov    rsi,QWORD PTR [rsp+0x810]
    df09:	00 
    df0a:	48 8b 7e 08          	mov    rdi,QWORD PTR [rsi+0x8]
    df0e:	48 8b b4 24 00 08 00 	mov    rsi,QWORD PTR [rsp+0x800]
    df15:	00 
    df16:	48 b8 00 00 00 00 00 	movabs rax,0x0
    df1d:	00 00 00 
			df18: R_X86_64_64	apply1
    df20:	48 89 b4 24 d8 05 00 	mov    QWORD PTR [rsp+0x5d8],rsi
    df27:	00 
    df28:	48 89 bc 24 c0 06 00 	mov    QWORD PTR [rsp+0x6c0],rdi
    df2f:	00 
    df30:	ff d0                	call   rax
    df32:	48 89 c3             	mov    rbx,rax
    df35:	49 89 d6             	mov    r14,rdx
    df38:	4d 85 f6             	test   r14,r14
    df3b:	0f 85 0d 00 00 00    	jne    df4e <big_makeblock+0xdf4e>
    df41:	48 89 9c 24 c0 06 00 	mov    QWORD PTR [rsp+0x6c0],rbx
    df48:	00 
    df49:	e9 9d 00 00 00       	jmp    dfeb <big_makeblock+0xdfeb>
    df4e:	48 8b b4 24 18 08 00 	mov    rsi,QWORD PTR [rsp+0x818]
    df55:	00 
    df56:	4c 8b ae 98 00 00 00 	mov    r13,QWORD PTR [rsi+0x98]
    df5d:	4d 89 f7             	mov    r15,r14
    df60:	49 83 c7 ff          	add    r15,0xffffffffffffffff
    df64:	4c 89 f2             	mov    rdx,r14
    df67:	48 c1 e2 03          	shl    rdx,0x3
    df6b:	4d 89 ec             	mov    r12,r13
    df6e:	49 01 d4             	add    r12,rdx
    df71:	4c 89 ef             	mov    rdi,r13
    df74:	48 83 c7 e8          	add    rdi,0xffffffffffffffe8
    df78:	4c 89 ee             	mov    rsi,r13
    df7b:	48 b8 00 00 00 00 00 	movabs rax,0x0
    df82:	00 00 00 
			df7d: R_X86_64_64	memmove
    df85:	48 89 9c 24 d8 05 00 	mov    QWORD PTR [rsp+0x5d8],rbx
    df8c:	00 
    df8d:	ff d0                	call   rax
    df8f:	48 8b 9c 24 d8 05 00 	mov    rbx,QWORD PTR [rsp+0x5d8]
    df96:	00 
    df97:	48 be 00 00 00 00 00 	movabs rsi,0x0
    df9e:	00 00 00 
			df99: R_X86_64_64	callback_return_addr
    dfa1:	bf 01 00 00 00       	mov    edi,0x1
    dfa6:	4b 89 7c f5 f8       	mov    QWORD PTR [r13+r14*8-0x8],rdi
    dfab:	bf 01 00 00 00       	mov    edi,0x1
    dfb0:	4b 89 7c f5 f0       	mov    QWORD PTR [r13+r14*8-0x10],rdi
    dfb5:	4b 89 74 f5 e8       	mov    QWORD PTR [r13+r14*8-0x18],rsi
    dfba:	48 8b b4 24 18 08 00 	mov    rsi,QWORD PTR [rsp+0x818]
    dfc1:	00 
    dfc2:	4c 89 a6 98 00 00 00 	mov    QWORD PTR [rsi+0x98],r12
    dfc9:	48 89 df             	mov    rdi,rbx
    dfcc:	4c 89 fe             	mov    rsi,r15
    dfcf:	48 b8 00 00 00 00 00 	movabs rax,0x0
    dfd6:	00 00 00 
			dfd1: R_X86_64_64	apply_n
    dfd9:	48 89 bc 24 d8 05 00 	mov    QWORD PTR [rsp+0x5d8],rdi
    dfe0:	00 
    dfe1:	ff d0                	call   rax
    dfe3:	48 89 84 24 c0 06 00 	mov    QWORD PTR [rsp+0x6c0],rax
    dfea:	00 
    dfeb:	48 8b b4 24 10 08 00 	mov    rsi,QWORD PTR [rsp+0x810]
    dff2:	00 
    dff3:	48 8b 7e 08          	mov    rdi,QWORD PTR [rsi+0x8]
    dff7:	48 8b b4 24 00 08 00 	mov    rsi,QWORD PTR [rsp+0x800]
    dffe:	00 
    dfff:	48 b8 00 00 00 00 00 	movabs rax,0x0
    e006:	00 00 00 
			e001: R_X86_64_64	apply1
    e009:	48 89 b4 24 d8 05 00 	mov    QWORD PTR [rsp+0x5d8],rsi
    e010:	00 
    e011:	48 89 bc 24 d0 06 00 	mov    QWORD PTR [rsp+0x6d0],rdi
    e018:	00 
    e019:	ff d0                	call   rax
    e01b:	49 89 c7             	mov    r15,rax
    e01e:	49 89 d6             	mov    r14,rdx
    e021:	4d 85 f6             	test   r14,r14
    e024:	0f 85 0d 00 00 00    	jne    e037 <big_makeblock+0xe037>
    e02a:	4c 89 bc 24 e0 06 00 	mov    QWORD PTR [rsp+0x6e0],r15
    e031:	00 
    e032:	e9 9d 00 00 00       	jmp    e0d4 <big_makeblock+0xe0d4>
    e037:	48 8b b4 24 18 08 00 	mov    rsi,QWORD PTR [rsp+0x818]
    e03e:	00 
    e03f:	4c 8b ae 98 00 00 00 	mov    r13,QWORD PTR [rsi+0x98]
    e046:	4c 89 f3             	mov    rbx,r14
    e049:	48 83 c3 ff          	add    rbx,0xffffffffffffffff
    e04d:	4c 89 f2             	mov    rdx,r14
    e050:	48 c1 e2 03          	shl    rdx,0x3
    e054:	4d 89 ec             	mov    r12,r13
    e057:	49 01 d4             	add    r12,rdx
    e05a:	4c 89 ef             	mov    rdi,r13
    e05d:	48 83 c7 e8          	add    rdi,0xffffffffffffffe8
    e061:	4c 89 ee             	mov    rsi,r13
    e064:	48 b8 00 00 00 00 00 	movabs rax,0x0
    e06b:	00 00 00 
			e066: R_X86_64_64	memmove
    e06e:	4c 89 bc 24 d8 05 00 	mov    QWORD PTR [rsp+0x5d8],r15
    e075:	00 
    e076:	ff d0                	call   rax
    e078:	4c 8b bc 24 d8 05 00 	mov    r15,QWORD PTR [rsp+0x5d8]
    e07f:	00 
    e080:	48 be 00 00 00 00 00 	movabs rsi,0x0
    e087:	00 00 00 
			e082: R_X86_64_64	callback_return_addr
    e08a:	bf 01 00 00 00       	mov    edi,0x1
    e08f:	4b 89 7c f5 f8       	mov    QWORD PTR [r13+r14*8-0x8],rdi
    e094:	bf 01 00 00 00       	mov    edi,0x1
    e099:	4b 89 7c f5 f0       	mov    QWORD PTR [r13+r14*8-0x10],rdi
    e09e:	4b 89 74 f5 e8       	mov    QWORD PTR [r13+r14*8-0x18],rsi
    e0a3:	48 8b b4 24 18 08 00 	mov    rsi,QWORD PTR [rsp+0x818]
    e0aa:	00 
    e0ab:	4c 89 a6 98 00 00 00 	mov    QWORD PTR [rsi+0x98],r12
    e0b2:	4c 89 ff             	mov    rdi,r15
    e0b5:	48 89 de             	mov    rsi,rbx
    e0b8:	48 b8 00 00 00 00 00 	movabs rax,0x0
    e0bf:	00 00 00 
			e0ba: R_X86_64_64	apply_n
    e0c2:	48 89 bc 24 d8 05 00 	mov    QWORD PTR [rsp+0x5d8],rdi
    e0c9:	00 
    e0ca:	ff d0                	call   rax
    e0cc:	48 89 84 24 e0 06 00 	mov    QWORD PTR [rsp+0x6e0],rax
    e0d3:	00 
    e0d4:	48 8b b4 24 10 08 00 	mov    rsi,QWORD PTR [rsp+0x810]
    e0db:	00 
    e0dc:	48 8b 7e 08          	mov    rdi,QWORD PTR [rsi+0x8]
    e0e0:	48 8b b4 24 00 08 00 	mov    rsi,QWORD PTR [rsp+0x800]
    e0e7:	00 
    e0e8:	48 b8 00 00 00 00 00 	movabs rax,0x0
    e0ef:	00 00 00 
			e0ea: R_X86_64_64	apply1
    e0f2:	48 89 b4 24 d8 05 00 	mov    QWORD PTR [rsp+0x5d8],rsi
    e0f9:	00 
    e0fa:	48 89 bc 24 d0 06 00 	mov    QWORD PTR [rsp+0x6d0],rdi
    e101:	00 
    e102:	ff d0                	call   rax
    e104:	48 89 c3             	mov    rbx,rax
    e107:	49 89 d6             	mov    r14,rdx
    e10a:	4d 85 f6             	test   r14,r14
    e10d:	0f 85 0d 00 00 00    	jne    e120 <big_makeblock+0xe120>
    e113:	48 89 9c 24 e8 07 00 	mov    QWORD PTR [rsp+0x7e8],rbx
    e11a:	00 
    e11b:	e9 9d 00 00 00       	jmp    e1bd <big_makeblock+0xe1bd>
    e120:	48 8b b4 24 18 08 00 	mov    rsi,QWORD PTR [rsp+0x818]
    e127:	00 
    e128:	4c 8b ae 98 00 00 00 	mov    r13,QWORD PTR [rsi+0x98]
    e12f:	4d 89 f7             	mov    r15,r14
    e132:	49 83 c7 ff          	add    r15,0xffffffffffffffff
    e136:	4c 89 f2             	mov    rdx,r14
    e139:	48 c1 e2 03          	shl    rdx,0x3
    e13d:	4d 89 ec             	mov    r12,r13
    e140:	49 01 d4             	add    r12,rdx
    e143:	4c 89 ef             	mov    rdi,r13
    e146:	48 83 c7 e8          	add    rdi,0xffffffffffffffe8
    e14a:	4c 89 ee             	mov    rsi,r13
    e14d:	48 b8 00 00 00 00 00 	movabs rax,0x0
    e154:	00 00 00 
			e14f: R_X86_64_64	memmove
    e157:	48 89 9c 24 d8 05 00 	mov    QWORD PTR [rsp+0x5d8],rbx
    e15e:	00 
    e15f:	ff d0                	call   rax
    e161:	48 8b 9c 24 d8 05 00 	mov    rbx,QWORD PTR [rsp+0x5d8]
    e168:	00 
    e169:	48 be 00 00 00 00 00 	movabs rsi,0x0
    e170:	00 00 00 
			e16b: R_X86_64_64	callback_return_addr
    e173:	bf 01 00 00 00       	mov    edi,0x1
    e178:	4b 89 7c f5 f8       	mov    QWORD PTR [r13+r14*8-0x8],rdi
    e17d:	bf 01 00 00 00       	mov    edi,0x1
    e182:	4b 89 7c f5 f0       	mov    QWORD PTR [r13+r14*8-0x10],rdi
    e187:	4b 89 74 f5 e8       	mov    QWORD PTR [r13+r14*8-0x18],rsi
    e18c:	48 8b b4 24 18 08 00 	mov    rsi,QWORD PTR [rsp+0x818]
    e193:	00 
    e194:	4c 89 a6 98 00 00 00 	mov    QWORD PTR [rsi+0x98],r12
    e19b:	48 89 df             	mov    rdi,rbx
    e19e:	4c 89 fe             	mov    rsi,r15
    e1a1:	48 b8 00 00 00 00 00 	movabs rax,0x0
    e1a8:	00 00 00 
			e1a3: R_X86_64_64	apply_n
    e1ab:	48 89 bc 24 d8 05 00 	mov    QWORD PTR [rsp+0x5d8],rdi
    e1b2:	00 
    e1b3:	ff d0                	call   rax
    e1b5:	48 89 84 24 e8 07 00 	mov    QWORD PTR [rsp+0x7e8],rax
    e1bc:	00 
    e1bd:	48 8b b4 24 10 08 00 	mov    rsi,QWORD PTR [rsp+0x810]
    e1c4:	00 
    e1c5:	48 8b 7e 08          	mov    rdi,QWORD PTR [rsi+0x8]
    e1c9:	48 8b b4 24 00 08 00 	mov    rsi,QWORD PTR [rsp+0x800]
    e1d0:	00 
    e1d1:	48 b8 00 00 00 00 00 	movabs rax,0x0
    e1d8:	00 00 00 
			e1d3: R_X86_64_64	apply1
    e1db:	48 89 b4 24 d8 05 00 	mov    QWORD PTR [rsp+0x5d8],rsi
    e1e2:	00 
    e1e3:	48 89 bc 24 d0 06 00 	mov    QWORD PTR [rsp+0x6d0],rdi
    e1ea:	00 
    e1eb:	ff d0                	call   rax
    e1ed:	48 89 c3             	mov    rbx,rax
    e1f0:	49 89 d6             	mov    r14,rdx
    e1f3:	4d 85 f6             	test   r14,r14
    e1f6:	0f 85 0d 00 00 00    	jne    e209 <big_makeblock+0xe209>
    e1fc:	48 89 9c 24 d8 06 00 	mov    QWORD PTR [rsp+0x6d8],rbx
    e203:	00 
    e204:	e9 9d 00 00 00       	jmp    e2a6 <big_makeblock+0xe2a6>
    e209:	48 8b b4 24 18 08 00 	mov    rsi,QWORD PTR [rsp+0x818]
    e210:	00 
    e211:	4c 8b ae 98 00 00 00 	mov    r13,QWORD PTR [rsi+0x98]
    e218:	4d 89 f7             	mov    r15,r14
    e21b:	49 83 c7 ff          	add    r15,0xffffffffffffffff
    e21f:	4c 89 f2             	mov    rdx,r14
    e222:	48 c1 e2 03          	shl    rdx,0x3
    e226:	4d 89 ec             	mov    r12,r13
    e229:	49 01 d4             	add    r12,rdx
    e22c:	4c 89 ef             	mov    rdi,r13
    e22f:	48 83 c7 e8          	add    rdi,0xffffffffffffffe8
    e233:	4c 89 ee             	mov    rsi,r13
    e236:	48 b8 00 00 00 00 00 	movabs rax,0x0
    e23d:	00 00 00 
			e238: R_X86_64_64	memmove
    e240:	48 89 9c 24 d8 05 00 	mov    QWORD PTR [rsp+0x5d8],rbx
    e247:	00 
    e248:	ff d0                	call   rax
    e24a:	48 8b 9c 24 d8 05 00 	mov    rbx,QWORD PTR [rsp+0x5d8]
    e251:	00 
    e252:	48 be 00 00 00 00 00 	movabs rsi,0x0
    e259:	00 00 00 
			e254: R_X86_64_64	callback_return_addr
    e25c:	bf 01 00 00 00       	mov    edi,0x1
    e261:	4b 89 7c f5 f8       	mov    QWORD PTR [r13+r14*8-0x8],rdi
    e266:	bf 01 00 00 00       	mov    edi,0x1
    e26b:	4b 89 7c f5 f0       	mov    QWORD PTR [r13+r14*8-0x10],rdi
    e270:	4b 89 74 f5 e8       	mov    QWORD PTR [r13+r14*8-0x18],rsi
    e275:	48 8b b4 24 18 08 00 	mov    rsi,QWORD PTR [rsp+0x818]
    e27c:	00 
    e27d:	4c 89 a6 98 00 00 00 	mov    QWORD PTR [rsi+0x98],r12
    e284:	48 89 df             	mov    rdi,rbx
    e287:	4c 89 fe             	mov    rsi,r15
    e28a:	48 b8 00 00 00 00 00 	movabs rax,0x0
    e291:	00 00 00 
			e28c: R_X86_64_64	apply_n
    e294:	48 89 bc 24 d8 05 00 	mov    QWORD PTR [rsp+0x5d8],rdi
    e29b:	00 
    e29c:	ff d0                	call   rax
    e29e:	48 89 84 24 d8 06 00 	mov    QWORD PTR [rsp+0x6d8],rax
    e2a5:	00 
    e2a6:	48 8b b4 24 10 08 00 	mov    rsi,QWORD PTR [rsp+0x810]
    e2ad:	00 
    e2ae:	48 8b 7e 08          	mov    rdi,QWORD PTR [rsi+0x8]
    e2b2:	48 8b b4 24 00 08 00 	mov    rsi,QWORD PTR [rsp+0x800]
    e2b9:	00 
    e2ba:	48 b8 00 00 00 00 00 	movabs rax,0x0
    e2c1:	00 00 00 
			e2bc: R_X86_64_64	apply1
    e2c4:	48 89 b4 24 d8 05 00 	mov    QWORD PTR [rsp+0x5d8],rsi
    e2cb:	00 
    e2cc:	48 89 bc 24 d0 06 00 	mov    QWORD PTR [rsp+0x6d0],rdi
    e2d3:	00 
    e2d4:	ff d0                	call   rax
    e2d6:	49 89 c7             	mov    r15,rax
    e2d9:	49 89 d6             	mov    r14,rdx
    e2dc:	4d 85 f6             	test   r14,r14
    e2df:	0f 85 0d 00 00 00    	jne    e2f2 <big_makeblock+0xe2f2>
    e2e5:	4c 89 bc 24 e0 07 00 	mov    QWORD PTR [rsp+0x7e0],r15
    e2ec:	00 
    e2ed:	e9 9d 00 00 00       	jmp    e38f <big_makeblock+0xe38f>
    e2f2:	48 8b b4 24 18 08 00 	mov    rsi,QWORD PTR [rsp+0x818]
    e2f9:	00 
    e2fa:	4c 8b ae 98 00 00 00 	mov    r13,QWORD PTR [rsi+0x98]
    e301:	4c 89 f3             	mov    rbx,r14
    e304:	48 83 c3 ff          	add    rbx,0xffffffffffffffff
    e308:	4c 89 f2             	mov    rdx,r14
    e30b:	48 c1 e2 03          	shl    rdx,0x3
    e30f:	4d 89 ec             	mov    r12,r13
    e312:	49 01 d4             	add    r12,rdx
    e315:	4c 89 ef             	mov    rdi,r13
    e318:	48 83 c7 e8          	add    rdi,0xffffffffffffffe8
    e31c:	4c 89 ee             	mov    rsi,r13
    e31f:	48 b8 00 00 00 00 00 	movabs rax,0x0
    e326:	00 00 00 
			e321: R_X86_64_64	memmove
    e329:	4c 89 bc 24 d8 05 00 	mov    QWORD PTR [rsp+0x5d8],r15
    e330:	00 
    e331:	ff d0                	call   rax
    e333:	4c 8b bc 24 d8 05 00 	mov    r15,QWORD PTR [rsp+0x5d8]
    e33a:	00 
    e33b:	48 be 00 00 00 00 00 	movabs rsi,0x0
    e342:	00 00 00 
			e33d: R_X86_64_64	callback_return_addr
    e345:	bf 01 00 00 00       	mov    edi,0x1
    e34a:	4b 89 7c f5 f8       	mov    QWORD PTR [r13+r14*8-0x8],rdi
    e34f:	bf 01 00 00 00       	mov    edi,0x1
    e354:	4b 89 7c f5 f0       	mov    QWORD PTR [r13+r14*8-0x10],rdi
    e359:	4b 89 74 f5 e8       	mov    QWORD PTR [r13+r14*8-0x18],rsi
    e35e:	48 8b b4 24 18 08 00 	mov    rsi,QWORD PTR [rsp+0x818]
    e365:	00 
    e366:	4c 89 a6 98 00 00 00 	mov    QWORD PTR [rsi+0x98],r12
    e36d:	4c 89 ff             	mov    rdi,r15
    e370:	48 89 de             	mov    rsi,rbx
    e373:	48 b8 00 00 00 00 00 	movabs rax,0x0
    e37a:	00 00 00 
			e375: R_X86_64_64	apply_n
    e37d:	48 89 bc 24 d8 05 00 	mov    QWORD PTR [rsp+0x5d8],rdi
    e384:	00 
    e385:	ff d0                	call   rax
    e387:	48 89 84 24 e0 07 00 	mov    QWORD PTR [rsp+0x7e0],rax
    e38e:	00 
    e38f:	48 8b b4 24 10 08 00 	mov    rsi,QWORD PTR [rsp+0x810]
    e396:	00 
    e397:	48 8b 7e 08          	mov    rdi,QWORD PTR [rsi+0x8]
    e39b:	48 8b b4 24 00 08 00 	mov    rsi,QWORD PTR [rsp+0x800]
    e3a2:	00 
    e3a3:	48 b8 00 00 00 00 00 	movabs rax,0x0
    e3aa:	00 00 00 
			e3a5: R_X86_64_64	apply1
    e3ad:	48 89 b4 24 d8 05 00 	mov    QWORD PTR [rsp+0x5d8],rsi
    e3b4:	00 
    e3b5:	48 89 bc 24 d0 06 00 	mov    QWORD PTR [rsp+0x6d0],rdi
    e3bc:	00 
    e3bd:	ff d0                	call   rax
    e3bf:	49 89 c6             	mov    r14,rax
    e3c2:	48 89 d3             	mov    rbx,rdx
    e3c5:	48 85 db             	test   rbx,rbx
    e3c8:	0f 85 0d 00 00 00    	jne    e3db <big_makeblock+0xe3db>
    e3ce:	4c 89 b4 24 d0 06 00 	mov    QWORD PTR [rsp+0x6d0],r14
    e3d5:	00 
    e3d6:	e9 9d 00 00 00       	jmp    e478 <big_makeblock+0xe478>
    e3db:	48 8b b4 24 18 08 00 	mov    rsi,QWORD PTR [rsp+0x818]
    e3e2:	00 
    e3e3:	4c 8b ae 98 00 00 00 	mov    r13,QWORD PTR [rsi+0x98]
    e3ea:	49 89 df             	mov    r15,rbx
    e3ed:	49 83 c7 ff          	add    r15,0xffffffffffffffff
    e3f1:	48 89 da             	mov    rdx,rbx
    e3f4:	48 c1 e2 03          	shl    rdx,0x3
    e3f8:	4d 89 ec             	mov    r12,r13
    e3fb:	49 01 d4             	add    r12,rdx
    e3fe:	4c 89 ef             	mov    rdi,r13
    e401:	48 83 c7 e8          	add    rdi,0xffffffffffffffe8
    e405:	4c 89 ee             	mov    rsi,r13
    e408:	48 b8 00 00 00 00 00 	movabs rax,0x0
    e40f:	00 00 00 
			e40a: R_X86_64_64	memmove
    e412:	4c 89 b4 24 d8 05 00 	mov    QWORD PTR [rsp+0x5d8],r14
    e419:	00 
    e41a:	ff d0                	call   rax
    e41c:	4c 8b b4 24 d8 05 00 	mov    r14,QWORD PTR [rsp+0x5d8]
    e423:	00 
    e424:	48 be 00 00 00 00 00 	movabs rsi,0x0
    e42b:	00 00 00 
			e426: R_X86_64_64	callback_return_addr
    e42e:	bf 01 00 00 00       	mov    edi,0x1
    e433:	49 89 7c dd f8       	mov    QWORD PTR [r13+rbx*8-0x8],rdi
    e438:	bf 01 00 00 00       	mov    edi,0x1
    e43d:	49 89 7c dd f0       	mov    QWORD PTR [r13+rbx*8-0x10],rdi
    e442:	49 89 74 dd e8       	mov    QWORD PTR [r13+rbx*8-0x18],rsi
    e447:	48 8b b4 24 18 08 00 	mov    rsi,QWORD PTR [rsp+0x818]
    e44e:	00 
    e44f:	4c 89 a6 98 00 00 00 	mov    QWORD PTR [rsi+0x98],r12
    e456:	4c 89 f7             	mov    rdi,r14
    e459:	4c 89 fe             	mov    rsi,r15
    e45c:	48 b8 00 00 00 00 00 	movabs rax,0x0
    e463:	00 00 00 
			e45e: R_X86_64_64	apply_n
    e466:	48 89 bc 24 d8 05 00 	mov    QWORD PTR [rsp+0x5d8],rdi
    e46d:	00 
    e46e:	ff d0                	call   rax
    e470:	48 89 84 24 d0 06 00 	mov    QWORD PTR [rsp+0x6d0],rax
    e477:	00 
    e478:	48 8b b4 24 10 08 00 	mov    rsi,QWORD PTR [rsp+0x810]
    e47f:	00 
    e480:	48 8b 7e 08          	mov    rdi,QWORD PTR [rsi+0x8]
    e484:	48 8b b4 24 00 08 00 	mov    rsi,QWORD PTR [rsp+0x800]
    e48b:	00 
    e48c:	48 b8 00 00 00 00 00 	movabs rax,0x0
    e493:	00 00 00 
			e48e: R_X86_64_64	apply1
    e496:	48 89 b4 24 d8 05 00 	mov    QWORD PTR [rsp+0x5d8],rsi
    e49d:	00 
    e49e:	48 89 bc 24 f0 07 00 	mov    QWORD PTR [rsp+0x7f0],rdi
    e4a5:	00 
    e4a6:	ff d0                	call   rax
    e4a8:	49 89 c6             	mov    r14,rax
    e4ab:	48 89 d3             	mov    rbx,rdx
    e4ae:	48 85 db             	test   rbx,rbx
    e4b1:	0f 85 0d 00 00 00    	jne    e4c4 <big_makeblock+0xe4c4>
    e4b7:	4c 89 b4 24 f0 07 00 	mov    QWORD PTR [rsp+0x7f0],r14
    e4be:	00 
    e4bf:	e9 9d 00 00 00       	jmp    e561 <big_makeblock+0xe561>
    e4c4:	48 8b b4 24 18 08 00 	mov    rsi,QWORD PTR [rsp+0x818]
    e4cb:	00 
    e4cc:	4c 8b ae 98 00 00 00 	mov    r13,QWORD PTR [rsi+0x98]
    e4d3:	49 89 df             	mov    r15,rbx
    e4d6:	49 83 c7 ff          	add    r15,0xffffffffffffffff
    e4da:	48 89 da             	mov    rdx,rbx
    e4dd:	48 c1 e2 03          	shl    rdx,0x3
    e4e1:	4d 89 ec             	mov    r12,r13
    e4e4:	49 01 d4             	add    r12,rdx
    e4e7:	4c 89 ef             	mov    rdi,r13
    e4ea:	48 83 c7 e8          	add    rdi,0xffffffffffffffe8
    e4ee:	4c 89 ee             	mov    rsi,r13
    e4f1:	48 b8 00 00 00 00 00 	movabs rax,0x0
    e4f8:	00 00 00 
			e4f3: R_X86_64_64	memmove
    e4fb:	4c 89 b4 24 d8 05 00 	mov    QWORD PTR [rsp+0x5d8],r14
    e502:	00 
    e503:	ff d0                	call   rax
    e505:	4c 8b b4 24 d8 05 00 	mov    r14,QWORD PTR [rsp+0x5d8]
    e50c:	00 
    e50d:	48 be 00 00 00 00 00 	movabs rsi,0x0
    e514:	00 00 00 
			e50f: R_X86_64_64	callback_return_addr
    e517:	bf 01 00 00 00       	mov    edi,0x1
    e51c:	49 89 7c dd f8       	mov    QWORD PTR [r13+rbx*8-0x8],rdi
    e521:	bf 01 00 00 00       	mov    edi,0x1
    e526:	49 89 7c dd f0       	mov    QWORD PTR [r13+rbx*8-0x10],rdi
    e52b:	49 89 74 dd e8       	mov    QWORD PTR [r13+rbx*8-0x18],rsi
    e530:	48 8b b4 24 18 08 00 	mov    rsi,QWORD PTR [rsp+0x818]
    e537:	00 
    e538:	4c 89 a6 98 00 00 00 	mov    QWORD PTR [rsi+0x98],r12
    e53f:	4c 89 f7             	mov    rdi,r14
    e542:	4c 89 fe             	mov    rsi,r15
    e545:	48 b8 00 00 00 00 00 	movabs rax,0x0
    e54c:	00 00 00 
			e547: R_X86_64_64	apply_n
    e54f:	48 89 bc 24 d8 05 00 	mov    QWORD PTR [rsp+0x5d8],rdi
    e556:	00 
    e557:	ff d0                	call   rax
    e559:	48 89 84 24 f0 07 00 	mov    QWORD PTR [rsp+0x7f0],rax
    e560:	00 
    e561:	48 8b b4 24 10 08 00 	mov    rsi,QWORD PTR [rsp+0x810]
    e568:	00 
    e569:	48 8b 7e 08          	mov    rdi,QWORD PTR [rsi+0x8]
    e56d:	48 8b b4 24 00 08 00 	mov    rsi,QWORD PTR [rsp+0x800]
    e574:	00 
    e575:	48 b8 00 00 00 00 00 	movabs rax,0x0
    e57c:	00 00 00 
			e577: R_X86_64_64	apply1
    e57f:	48 89 b4 24 d8 05 00 	mov    QWORD PTR [rsp+0x5d8],rsi
    e586:	00 
    e587:	48 89 bc 24 f8 07 00 	mov    QWORD PTR [rsp+0x7f8],rdi
    e58e:	00 
    e58f:	ff d0                	call   rax
    e591:	49 89 c7             	mov    r15,rax
    e594:	49 89 d6             	mov    r14,rdx
    e597:	4d 85 f6             	test   r14,r14
    e59a:	0f 85 0d 00 00 00    	jne    e5ad <big_makeblock+0xe5ad>
    e5a0:	4c 89 bc 24 08 08 00 	mov    QWORD PTR [rsp+0x808],r15
    e5a7:	00 
    e5a8:	e9 9d 00 00 00       	jmp    e64a <big_makeblock+0xe64a>
    e5ad:	48 8b b4 24 18 08 00 	mov    rsi,QWORD PTR [rsp+0x818]
    e5b4:	00 
    e5b5:	4c 8b ae 98 00 00 00 	mov    r13,QWORD PTR [rsi+0x98]
    e5bc:	4c 89 f3             	mov    rbx,r14
    e5bf:	48 83 c3 ff          	add    rbx,0xffffffffffffffff
    e5c3:	4c 89 f2             	mov    rdx,r14
    e5c6:	48 c1 e2 03          	shl    rdx,0x3
    e5ca:	4d 89 ec             	mov    r12,r13
    e5cd:	49 01 d4             	add    r12,rdx
    e5d0:	4c 89 ef             	mov    rdi,r13
    e5d3:	48 83 c7 e8          	add    rdi,0xffffffffffffffe8
    e5d7:	4c 89 ee             	mov    rsi,r13
    e5da:	48 b8 00 00 00 00 00 	movabs rax,0x0
    e5e1:	00 00 00 
			e5dc: R_X86_64_64	memmove
    e5e4:	4c 89 bc 24 d8 05 00 	mov    QWORD PTR [rsp+0x5d8],r15
    e5eb:	00 
    e5ec:	ff d0                	call   rax
    e5ee:	4c 8b bc 24 d8 05 00 	mov    r15,QWORD PTR [rsp+0x5d8]
    e5f5:	00 
    e5f6:	48 be 00 00 00 00 00 	movabs rsi,0x0
    e5fd:	00 00 00 
			e5f8: R_X86_64_64	callback_return_addr
    e600:	bf 01 00 00 00       	mov    edi,0x1
    e605:	4b 89 7c f5 f8       	mov    QWORD PTR [r13+r14*8-0x8],rdi
    e60a:	bf 01 00 00 00       	mov    edi,0x1
    e60f:	4b 89 7c f5 f0       	mov    QWORD PTR [r13+r14*8-0x10],rdi
    e614:	4b 89 74 f5 e8       	mov    QWORD PTR [r13+r14*8-0x18],rsi
    e619:	48 8b b4 24 18 08 00 	mov    rsi,QWORD PTR [rsp+0x818]
    e620:	00 
    e621:	4c 89 a6 98 00 00 00 	mov    QWORD PTR [rsi+0x98],r12
    e628:	4c 89 ff             	mov    rdi,r15
    e62b:	48 89 de             	mov    rsi,rbx
    e62e:	48 b8 00 00 00 00 00 	movabs rax,0x0
    e635:	00 00 00 
			e630: R_X86_64_64	apply_n
    e638:	48 89 bc 24 d8 05 00 	mov    QWORD PTR [rsp+0x5d8],rdi
    e63f:	00 
    e640:	ff d0                	call   rax
    e642:	48 89 84 24 08 08 00 	mov    QWORD PTR [rsp+0x808],rax
    e649:	00 
    e64a:	48 8b b4 24 10 08 00 	mov    rsi,QWORD PTR [rsp+0x810]
    e651:	00 
    e652:	48 8b 7e 08          	mov    rdi,QWORD PTR [rsi+0x8]
    e656:	48 8b b4 24 00 08 00 	mov    rsi,QWORD PTR [rsp+0x800]
    e65d:	00 
    e65e:	48 b8 00 00 00 00 00 	movabs rax,0x0
    e665:	00 00 00 
			e660: R_X86_64_64	apply1
    e668:	48 89 b4 24 d8 05 00 	mov    QWORD PTR [rsp+0x5d8],rsi
    e66f:	00 
    e670:	48 89 bc 24 f8 07 00 	mov    QWORD PTR [rsp+0x7f8],rdi
    e677:	00 
    e678:	ff d0                	call   rax
    e67a:	49 89 c6             	mov    r14,rax
    e67d:	48 89 d3             	mov    rbx,rdx
    e680:	48 85 db             	test   rbx,rbx
    e683:	0f 85 0d 00 00 00    	jne    e696 <big_makeblock+0xe696>
    e689:	4c 89 b4 24 f8 07 00 	mov    QWORD PTR [rsp+0x7f8],r14
    e690:	00 
    e691:	e9 9d 00 00 00       	jmp    e733 <big_makeblock+0xe733>
    e696:	48 8b b4 24 18 08 00 	mov    rsi,QWORD PTR [rsp+0x818]
    e69d:	00 
    e69e:	4c 8b ae 98 00 00 00 	mov    r13,QWORD PTR [rsi+0x98]
    e6a5:	49 89 df             	mov    r15,rbx
    e6a8:	49 83 c7 ff          	add    r15,0xffffffffffffffff
    e6ac:	48 89 da             	mov    rdx,rbx
    e6af:	48 c1 e2 03          	shl    rdx,0x3
    e6b3:	4d 89 ec             	mov    r12,r13
    e6b6:	49 01 d4             	add    r12,rdx
    e6b9:	4c 89 ef             	mov    rdi,r13
    e6bc:	48 83 c7 e8          	add    rdi,0xffffffffffffffe8
    e6c0:	4c 89 ee             	mov    rsi,r13
    e6c3:	48 b8 00 00 00 00 00 	movabs rax,0x0
    e6ca:	00 00 00 
			e6c5: R_X86_64_64	memmove
    e6cd:	4c 89 b4 24 d8 05 00 	mov    QWORD PTR [rsp+0x5d8],r14
    e6d4:	00 
    e6d5:	ff d0                	call   rax
    e6d7:	4c 8b b4 24 d8 05 00 	mov    r14,QWORD PTR [rsp+0x5d8]
    e6de:	00 
    e6df:	48 be 00 00 00 00 00 	movabs rsi,0x0
    e6e6:	00 00 00 
			e6e1: R_X86_64_64	callback_return_addr
    e6e9:	bf 01 00 00 00       	mov    edi,0x1
    e6ee:	49 89 7c dd f8       	mov    QWORD PTR [r13+rbx*8-0x8],rdi
    e6f3:	bf 01 00 00 00       	mov    edi,0x1
    e6f8:	49 89 7c dd f0       	mov    QWORD PTR [r13+rbx*8-0x10],rdi
    e6fd:	49 89 74 dd e8       	mov    QWORD PTR [r13+rbx*8-0x18],rsi
    e702:	48 8b b4 24 18 08 00 	mov    rsi,QWORD PTR [rsp+0x818]
    e709:	00 
    e70a:	4c 89 a6 98 00 00 00 	mov    QWORD PTR [rsi+0x98],r12
    e711:	4c 89 f7             	mov    rdi,r14
    e714:	4c 89 fe             	mov    rsi,r15
    e717:	48 b8 00 00 00 00 00 	movabs rax,0x0
    e71e:	00 00 00 
			e719: R_X86_64_64	apply_n
    e721:	48 89 bc 24 d8 05 00 	mov    QWORD PTR [rsp+0x5d8],rdi
    e728:	00 
    e729:	ff d0                	call   rax
    e72b:	48 89 84 24 f8 07 00 	mov    QWORD PTR [rsp+0x7f8],rax
    e732:	00 
    e733:	48 8b b4 24 10 08 00 	mov    rsi,QWORD PTR [rsp+0x810]
    e73a:	00 
    e73b:	48 8b 7e 08          	mov    rdi,QWORD PTR [rsi+0x8]
    e73f:	48 8b b4 24 00 08 00 	mov    rsi,QWORD PTR [rsp+0x800]
    e746:	00 
    e747:	48 b8 00 00 00 00 00 	movabs rax,0x0
    e74e:	00 00 00 
			e749: R_X86_64_64	apply1
    e751:	48 89 b4 24 d8 05 00 	mov    QWORD PTR [rsp+0x5d8],rsi
    e758:	00 
    e759:	48 89 bc 24 00 08 00 	mov    QWORD PTR [rsp+0x800],rdi
    e760:	00 
    e761:	ff d0                	call   rax
    e763:	49 89 c5             	mov    r13,rax
    e766:	49 89 d6             	mov    r14,rdx
    e769:	4d 85 f6             	test   r14,r14
    e76c:	0f 85 1d 00 00 00    	jne    e78f <big_makeblock+0xe78f>
    e772:	4c 8b a4 24 08 08 00 	mov    r12,QWORD PTR [rsp+0x808]
    e779:	00 
    e77a:	4c 8b b4 24 d0 06 00 	mov    r14,QWORD PTR [rsp+0x6d0]
    e781:	00 
    e782:	48 8b 9c 24 d8 06 00 	mov    rbx,QWORD PTR [rsp+0x6d8]
    e789:	00 
    e78a:	e9 b0 00 00 00       	jmp    e83f <big_makeblock+0xe83f>
    e78f:	48 8b b4 24 18 08 00 	mov    rsi,QWORD PTR [rsp+0x818]
    e796:	00 
    e797:	4c 8b be 98 00 00 00 	mov    r15,QWORD PTR [rsi+0x98]
    e79e:	4c 89 f3             	mov    rbx,r14
    e7a1:	48 83 c3 ff          	add    rbx,0xffffffffffffffff
    e7a5:	4c 89 f2             	mov    rdx,r14
    e7a8:	48 c1 e2 03          	shl    rdx,0x3
    e7ac:	4d 89 fc             	mov    r12,r15
    e7af:	49 01 d4             	add    r12,rdx
    e7b2:	4c 89 ff             	mov    rdi,r15
    e7b5:	48 83 c7 e8          	add    rdi,0xffffffffffffffe8
    e7b9:	4c 89 fe             	mov    rsi,r15
    e7bc:	48 b8 00 00 00 00 00 	movabs rax,0x0
    e7c3:	00 00 00 
			e7be: R_X86_64_64	memmove
    e7c6:	4c 89 ac 24 d8 05 00 	mov    QWORD PTR [rsp+0x5d8],r13
    e7cd:	00 
    e7ce:	ff d0                	call   rax
    e7d0:	4c 8b ac 24 d8 05 00 	mov    r13,QWORD PTR [rsp+0x5d8]
    e7d7:	00 
    e7d8:	48 be 00 00 00 00 00 	movabs rsi,0x0
    e7df:	00 00 00 
			e7da: R_X86_64_64	callback_return_addr
    e7e2:	bf 01 00 00 00       	mov    edi,0x1
    e7e7:	4b 89 7c f7 f8       	mov    QWORD PTR [r15+r14*8-0x8],rdi
    e7ec:	bf 01 00 00 00       	mov    edi,0x1
    e7f1:	4b 89 7c f7 f0       	mov    QWORD PTR [r15+r14*8-0x10],rdi
    e7f6:	4b 89 74 f7 e8       	mov    QWORD PTR [r15+r14*8-0x18],rsi
    e7fb:	48 8b b4 24 18 08 00 	mov    rsi,QWORD PTR [rsp+0x818]
    e802:	00 
    e803:	4c 89 a6 98 00 00 00 	mov    QWORD PTR [rsi+0x98],r12
    e80a:	4c 89 ef             	mov    rdi,r13
    e80d:	48 89 de             	mov    rsi,rbx
    e810:	48 b8 00 00 00 00 00 	movabs rax,0x0
    e817:	00 00 00 
			e812: R_X86_64_64	apply_n
    e81a:	48 89 bc 24 d8 05 00 	mov    QWORD PTR [rsp+0x5d8],rdi
    e821:	00 
    e822:	ff d0                	call   rax
    e824:	49 89 c5             	mov    r13,rax
    e827:	4c 8b a4 24 08 08 00 	mov    r12,QWORD PTR [rsp+0x808]
    e82e:	00 
    e82f:	4c 8b b4 24 d0 06 00 	mov    r14,QWORD PTR [rsp+0x6d0]
    e836:	00 
    e837:	48 8b 9c 24 d8 06 00 	mov    rbx,QWORD PTR [rsp+0x6d8]
    e83e:	00 
    e83f:	bf 01 01 00 00       	mov    edi,0x101
    e844:	31 f6                	xor    esi,esi
    e846:	48 b8 00 00 00 00 00 	movabs rax,0x0
    e84d:	00 00 00 
			e848: R_X86_64_64	caml_alloc_shr
    e850:	4c 89 ac 24 d8 05 00 	mov    QWORD PTR [rsp+0x5d8],r13
    e857:	00 
    e858:	48 89 9c 24 00 08 00 	mov    QWORD PTR [rsp+0x800],rbx
    e85f:	00 
    e860:	4c 89 a4 24 10 08 00 	mov    QWORD PTR [rsp+0x810],r12
    e867:	00 
    e868:	4c 89 b4 24 18 08 00 	mov    QWORD PTR [rsp+0x818],r14
    e86f:	00 
    e870:	ff d0                	call   rax
    e872:	4c 8b ac 24 d8 05 00 	mov    r13,QWORD PTR [rsp+0x5d8]
    e879:	00 
    e87a:	48 8b 9c 24 00 08 00 	mov    rbx,QWORD PTR [rsp+0x800]
    e881:	00 
    e882:	4c 8b a4 24 10 08 00 	mov    r12,QWORD PTR [rsp+0x810]
    e889:	00 
    e88a:	4c 8b b4 24 18 08 00 	mov    r14,QWORD PTR [rsp+0x818]
    e891:	00 
    e892:	48 89 c6             	mov    rsi,rax
    e895:	48 89 b4 24 d8 05 00 	mov    QWORD PTR [rsp+0x5d8],rsi
    e89c:	00 
    e89d:	48 8b b4 24 d8 05 00 	mov    rsi,QWORD PTR [rsp+0x5d8]
    e8a4:	00 
    e8a5:	49 89 f7             	mov    r15,rsi
    e8a8:	4c 89 ff             	mov    rdi,r15
    e8ab:	4c 89 ee             	mov    rsi,r13
    e8ae:	48 b8 00 00 00 00 00 	movabs rax,0x0
    e8b5:	00 00 00 
			e8b0: R_X86_64_64	caml_initialize
    e8b8:	48 89 b4 24 00 08 00 	mov    QWORD PTR [rsp+0x800],rsi
    e8bf:	00 
    e8c0:	4c 89 bc 24 10 08 00 	mov    QWORD PTR [rsp+0x810],r15
    e8c7:	00 
    e8c8:	48 89 9c 24 18 08 00 	mov    QWORD PTR [rsp+0x818],rbx
    e8cf:	00 
    e8d0:	48 89 bc 24 20 08 00 	mov    QWORD PTR [rsp+0x820],rdi
    e8d7:	00 
    e8d8:	4c 89 a4 24 28 08 00 	mov    QWORD PTR [rsp+0x828],r12
    e8df:	00 
    e8e0:	4c 89 b4 24 30 08 00 	mov    QWORD PTR [rsp+0x830],r14
    e8e7:	00 
    e8e8:	ff d0                	call   rax
    e8ea:	4c 8b bc 24 10 08 00 	mov    r15,QWORD PTR [rsp+0x810]
    e8f1:	00 
    e8f2:	48 8b 9c 24 18 08 00 	mov    rbx,QWORD PTR [rsp+0x818]
    e8f9:	00 
    e8fa:	4c 8b a4 24 28 08 00 	mov    r12,QWORD PTR [rsp+0x828]
    e901:	00 
    e902:	4c 8b b4 24 30 08 00 	mov    r14,QWORD PTR [rsp+0x830]
    e909:	00 
    e90a:	4c 89 ff             	mov    rdi,r15
    e90d:	48 83 c7 08          	add    rdi,0x8
    e911:	48 8b b4 24 f8 07 00 	mov    rsi,QWORD PTR [rsp+0x7f8]
    e918:	00 
    e919:	48 b8 00 00 00 00 00 	movabs rax,0x0
    e920:	00 00 00 
			e91b: R_X86_64_64	caml_initialize
    e923:	48 89 b4 24 f8 07 00 	mov    QWORD PTR [rsp+0x7f8],rsi
    e92a:	00 
    e92b:	4c 89 bc 24 00 08 00 	mov    QWORD PTR [rsp+0x800],r15
    e932:	00 
    e933:	48 89 9c 24 10 08 00 	mov    QWORD PTR [rsp+0x810],rbx
    e93a:	00 
    e93b:	48 89 bc 24 18 08 00 	mov    QWORD PTR [rsp+0x818],rdi
    e942:	00 
    e943:	4c 89 a4 24 20 08 00 	mov    QWORD PTR [rsp+0x820],r12
    e94a:	00 
    e94b:	4c 89 b4 24 28 08 00 	mov    QWORD PTR [rsp+0x828],r14
    e952:	00 
    e953:	ff d0                	call   rax
    e955:	4c 8b bc 24 00 08 00 	mov    r15,QWORD PTR [rsp+0x800]
    e95c:	00 
    e95d:	48 8b 9c 24 10 08 00 	mov    rbx,QWORD PTR [rsp+0x810]
    e964:	00 
    e965:	4c 8b a4 24 20 08 00 	mov    r12,QWORD PTR [rsp+0x820]
    e96c:	00 
    e96d:	4c 8b b4 24 28 08 00 	mov    r14,QWORD PTR [rsp+0x828]
    e974:	00 
    e975:	4c 89 ff             	mov    rdi,r15
    e978:	48 83 c7 10          	add    rdi,0x10
    e97c:	4c 89 e6             	mov    rsi,r12
    e97f:	48 b8 00 00 00 00 00 	movabs rax,0x0
    e986:	00 00 00 
			e981: R_X86_64_64	caml_initialize
    e989:	48 89 b4 24 f8 07 00 	mov    QWORD PTR [rsp+0x7f8],rsi
    e990:	00 
    e991:	4c 89 bc 24 00 08 00 	mov    QWORD PTR [rsp+0x800],r15
    e998:	00 
    e999:	48 89 9c 24 08 08 00 	mov    QWORD PTR [rsp+0x808],rbx
    e9a0:	00 
    e9a1:	48 89 bc 24 10 08 00 	mov    QWORD PTR [rsp+0x810],rdi
    e9a8:	00 
    e9a9:	4c 89 b4 24 18 08 00 	mov    QWORD PTR [rsp+0x818],r14
    e9b0:	00 
    e9b1:	ff d0                	call   rax
    e9b3:	48 8b 9c 24 08 08 00 	mov    rbx,QWORD PTR [rsp+0x808]
    e9ba:	00 
    e9bb:	4c 8b bc 24 00 08 00 	mov    r15,QWORD PTR [rsp+0x800]
    e9c2:	00 
    e9c3:	4c 8b b4 24 18 08 00 	mov    r14,QWORD PTR [rsp+0x818]
    e9ca:	00 
    e9cb:	4c 89 ff             	mov    rdi,r15
    e9ce:	48 83 c7 18          	add    rdi,0x18
    e9d2:	48 8b b4 24 f0 07 00 	mov    rsi,QWORD PTR [rsp+0x7f0]
    e9d9:	00 
    e9da:	48 b8 00 00 00 00 00 	movabs rax,0x0
    e9e1:	00 00 00 
			e9dc: R_X86_64_64	caml_initialize
    e9e4:	48 89 b4 24 f0 07 00 	mov    QWORD PTR [rsp+0x7f0],rsi
    e9eb:	00 
    e9ec:	4c 89 bc 24 f8 07 00 	mov    QWORD PTR [rsp+0x7f8],r15
    e9f3:	00 
    e9f4:	48 89 9c 24 00 08 00 	mov    QWORD PTR [rsp+0x800],rbx
    e9fb:	00 
    e9fc:	48 89 bc 24 08 08 00 	mov    QWORD PTR [rsp+0x808],rdi
    ea03:	00 
    ea04:	4c 89 b4 24 10 08 00 	mov    QWORD PTR [rsp+0x810],r14
    ea0b:	00 
    ea0c:	ff d0                	call   rax
    ea0e:	48 8b 9c 24 00 08 00 	mov    rbx,QWORD PTR [rsp+0x800]
    ea15:	00 
    ea16:	4c 8b bc 24 f8 07 00 	mov    r15,QWORD PTR [rsp+0x7f8]
    ea1d:	00 
    ea1e:	4c 8b b4 24 10 08 00 	mov    r14,QWORD PTR [rsp+0x810]
    ea25:	00 
    ea26:	4c 89 ff             	mov    rdi,r15
    ea29:	48 83 c7 20          	add    rdi,0x20
    ea2d:	4c 89 f6             	mov    rsi,r14
    ea30:	48 b8 00 00 00 00 00 	movabs rax,0x0
    ea37:	00 00 00 
			ea32: R_X86_64_64	caml_initialize
    ea3a:	48 89 b4 24 d0 06 00 	mov    QWORD PTR [rsp+0x6d0],rsi
    ea41:	00 
    ea42:	4c 89 bc 24 f0 07 00 	mov    QWORD PTR [rsp+0x7f0],r15
    ea49:	00 
    ea4a:	48 89 9c 24 f8 07 00 	mov    QWORD PTR [rsp+0x7f8],rbx
    ea51:	00 
    ea52:	48 89 bc 24 00 08 00 	mov    QWORD PTR [rsp+0x800],rdi
    ea59:	00 
    ea5a:	ff d0                	call   rax
    ea5c:	48 8b 9c 24 f8 07 00 	mov    rbx,QWORD PTR [rsp+0x7f8]
    ea63:	00 
    ea64:	4c 8b bc 24 f0 07 00 	mov    r15,QWORD PTR [rsp+0x7f0]
    ea6b:	00 
    ea6c:	4c 89 ff             	mov    rdi,r15
    ea6f:	48 83 c7 28          	add    rdi,0x28
    ea73:	48 8b b4 24 e0 07 00 	mov    rsi,QWORD PTR [rsp+0x7e0]
    ea7a:	00 
    ea7b:	48 b8 00 00 00 00 00 	movabs rax,0x0
    ea82:	00 00 00 
			ea7d: R_X86_64_64	caml_initialize
    ea85:	48 89 b4 24 d0 06 00 	mov    QWORD PTR [rsp+0x6d0],rsi
    ea8c:	00 
    ea8d:	4c 89 bc 24 e0 07 00 	mov    QWORD PTR [rsp+0x7e0],r15
    ea94:	00 
    ea95:	48 89 9c 24 f0 07 00 	mov    QWORD PTR [rsp+0x7f0],rbx
    ea9c:	00 
    ea9d:	48 89 bc 24 f8 07 00 	mov    QWORD PTR [rsp+0x7f8],rdi
    eaa4:	00 
    eaa5:	ff d0                	call   rax
    eaa7:	48 8b 9c 24 f0 07 00 	mov    rbx,QWORD PTR [rsp+0x7f0]
    eaae:	00 
    eaaf:	4c 8b bc 24 e0 07 00 	mov    r15,QWORD PTR [rsp+0x7e0]
    eab6:	00 
    eab7:	4c 89 ff             	mov    rdi,r15
    eaba:	48 83 c7 30          	add    rdi,0x30
    eabe:	48 89 de             	mov    rsi,rbx
    eac1:	48 b8 00 00 00 00 00 	movabs rax,0x0
    eac8:	00 00 00 
			eac3: R_X86_64_64	caml_initialize
    eacb:	48 89 b4 24 d0 06 00 	mov    QWORD PTR [rsp+0x6d0],rsi
    ead2:	00 
    ead3:	48 89 bc 24 d8 06 00 	mov    QWORD PTR [rsp+0x6d8],rdi
    eada:	00 
    eadb:	4c 89 bc 24 e0 07 00 	mov    QWORD PTR [rsp+0x7e0],r15
    eae2:	00 
    eae3:	ff d0                	call   rax
    eae5:	4c 8b bc 24 e0 07 00 	mov    r15,QWORD PTR [rsp+0x7e0]
    eaec:	00 
    eaed:	4c 89 ff             	mov    rdi,r15
    eaf0:	48 83 c7 38          	add    rdi,0x38
    eaf4:	48 8b b4 24 e8 07 00 	mov    rsi,QWORD PTR [rsp+0x7e8]
    eafb:	00 
    eafc:	48 b8 00 00 00 00 00 	movabs rax,0x0
    eb03:	00 00 00 
			eafe: R_X86_64_64	caml_initialize
    eb06:	48 89 b4 24 d0 06 00 	mov    QWORD PTR [rsp+0x6d0],rsi
    eb0d:	00 
    eb0e:	48 89 bc 24 d8 06 00 	mov    QWORD PTR [rsp+0x6d8],rdi
    eb15:	00 
    eb16:	4c 89 bc 24 e0 07 00 	mov    QWORD PTR [rsp+0x7e0],r15
    eb1d:	00 
    eb1e:	ff d0                	call   rax
    eb20:	4c 8b bc 24 e0 07 00 	mov    r15,QWORD PTR [rsp+0x7e0]
    eb27:	00 
    eb28:	4c 89 ff             	mov    rdi,r15
    eb2b:	48 83 c7 40          	add    rdi,0x40
    eb2f:	48 8b b4 24 e0 06 00 	mov    rsi,QWORD PTR [rsp+0x6e0]
    eb36:	00 
    eb37:	48 b8 00 00 00 00 00 	movabs rax,0x0
    eb3e:	00 00 00 
			eb39: R_X86_64_64	caml_initialize
    eb41:	48 89 b4 24 d0 06 00 	mov    QWORD PTR [rsp+0x6d0],rsi
    eb48:	00 
    eb49:	48 89 bc 24 d8 06 00 	mov    QWORD PTR [rsp+0x6d8],rdi
    eb50:	00 
    eb51:	4c 89 bc 24 e0 06 00 	mov    QWORD PTR [rsp+0x6e0],r15
    eb58:	00 
    eb59:	ff d0                	call   rax
    eb5b:	4c 8b bc 24 e0 06 00 	mov    r15,QWORD PTR [rsp+0x6e0]
    eb62:	00 
    eb63:	4c 89 ff             	mov    rdi,r15
    eb66:	48 83 c7 48          	add    rdi,0x48
    eb6a:	48 8b b4 24 c0 06 00 	mov    rsi,QWORD PTR [rsp+0x6c0]
    eb71:	00 
    eb72:	48 b8 00 00 00 00 00 	movabs rax,0x0
    eb79:	00 00 00 
			eb74: R_X86_64_64	caml_initialize
    eb7c:	48 89 b4 24 c0 06 00 	mov    QWORD PTR [rsp+0x6c0],rsi
    eb83:	00 
    eb84:	48 89 bc 24 d0 06 00 	mov    QWORD PTR [rsp+0x6d0],rdi
    eb8b:	00 
    eb8c:	4c 89 bc 24 d8 06 00 	mov    QWORD PTR [rsp+0x6d8],r15
    eb93:	00 
    eb94:	ff d0                	call   rax
    eb96:	4c 8b bc 24 d8 06 00 	mov    r15,QWORD PTR [rsp+0x6d8]
    eb9d:	00 
    eb9e:	4c 89 ff             	mov    rdi,r15
    eba1:	48 83 c7 50          	add    rdi,0x50
    eba5:	48 8b b4 24 e8 06 00 	mov    rsi,QWORD PTR [rsp+0x6e8]
    ebac:	00 
    ebad:	48 b8 00 00 00 00 00 	movabs rax,0x0
    ebb4:	00 00 00 
			ebaf: R_X86_64_64	caml_initialize
    ebb7:	48 89 b4 24 c0 06 00 	mov    QWORD PTR [rsp+0x6c0],rsi
    ebbe:	00 
    ebbf:	48 89 bc 24 d0 06 00 	mov    QWORD PTR [rsp+0x6d0],rdi
    ebc6:	00 
    ebc7:	4c 89 bc 24 d8 06 00 	mov    QWORD PTR [rsp+0x6d8],r15
    ebce:	00 
    ebcf:	ff d0                	call   rax
    ebd1:	4c 8b bc 24 d8 06 00 	mov    r15,QWORD PTR [rsp+0x6d8]
    ebd8:	00 
    ebd9:	4c 89 ff             	mov    rdi,r15
    ebdc:	48 83 c7 58          	add    rdi,0x58
    ebe0:	48 8b b4 24 b0 06 00 	mov    rsi,QWORD PTR [rsp+0x6b0]
    ebe7:	00 
    ebe8:	48 b8 00 00 00 00 00 	movabs rax,0x0
    ebef:	00 00 00 
			ebea: R_X86_64_64	caml_initialize
    ebf2:	48 89 b4 24 b0 06 00 	mov    QWORD PTR [rsp+0x6b0],rsi
    ebf9:	00 
    ebfa:	48 89 bc 24 c0 06 00 	mov    QWORD PTR [rsp+0x6c0],rdi
    ec01:	00 
    ec02:	4c 89 bc 24 d0 06 00 	mov    QWORD PTR [rsp+0x6d0],r15
    ec09:	00 
    ec0a:	ff d0                	call   rax
    ec0c:	4c 8b bc 24 d0 06 00 	mov    r15,QWORD PTR [rsp+0x6d0]
    ec13:	00 
    ec14:	4c 89 ff             	mov    rdi,r15
    ec17:	48 83 c7 60          	add    rdi,0x60
    ec1b:	48 8b b4 24 f0 06 00 	mov    rsi,QWORD PTR [rsp+0x6f0]
    ec22:	00 
    ec23:	48 b8 00 00 00 00 00 	movabs rax,0x0
    ec2a:	00 00 00 
			ec25: R_X86_64_64	caml_initialize
    ec2d:	48 89 b4 24 b0 06 00 	mov    QWORD PTR [rsp+0x6b0],rsi
    ec34:	00 
    ec35:	48 89 bc 24 c0 06 00 	mov    QWORD PTR [rsp+0x6c0],rdi
    ec3c:	00 
    ec3d:	4c 89 bc 24 d0 06 00 	mov    QWORD PTR [rsp+0x6d0],r15
    ec44:	00 
    ec45:	ff d0                	call   rax
    ec47:	4c 8b bc 24 d0 06 00 	mov    r15,QWORD PTR [rsp+0x6d0]
    ec4e:	00 
    ec4f:	4c 89 ff             	mov    rdi,r15
    ec52:	48 83 c7 68          	add    rdi,0x68
    ec56:	48 8b b4 24 a0 06 00 	mov    rsi,QWORD PTR [rsp+0x6a0]
    ec5d:	00 
    ec5e:	48 b8 00 00 00 00 00 	movabs rax,0x0
    ec65:	00 00 00 
			ec60: R_X86_64_64	caml_initialize
    ec68:	48 89 b4 24 a0 06 00 	mov    QWORD PTR [rsp+0x6a0],rsi
    ec6f:	00 
    ec70:	48 89 bc 24 b0 06 00 	mov    QWORD PTR [rsp+0x6b0],rdi
    ec77:	00 
    ec78:	4c 89 bc 24 c0 06 00 	mov    QWORD PTR [rsp+0x6c0],r15
    ec7f:	00 
    ec80:	ff d0                	call   rax
    ec82:	4c 8b bc 24 c0 06 00 	mov    r15,QWORD PTR [rsp+0x6c0]
    ec89:	00 
    ec8a:	4c 89 ff             	mov    rdi,r15
    ec8d:	48 83 c7 70          	add    rdi,0x70
    ec91:	48 8b b4 24 f8 06 00 	mov    rsi,QWORD PTR [rsp+0x6f8]
    ec98:	00 
    ec99:	48 b8 00 00 00 00 00 	movabs rax,0x0
    eca0:	00 00 00 
			ec9b: R_X86_64_64	caml_initialize
    eca3:	48 89 b4 24 a0 06 00 	mov    QWORD PTR [rsp+0x6a0],rsi
    ecaa:	00 
    ecab:	48 89 bc 24 b0 06 00 	mov    QWORD PTR [rsp+0x6b0],rdi
    ecb2:	00 
    ecb3:	4c 89 bc 24 c0 06 00 	mov    QWORD PTR [rsp+0x6c0],r15
    ecba:	00 
    ecbb:	ff d0                	call   rax
    ecbd:	4c 8b bc 24 c0 06 00 	mov    r15,QWORD PTR [rsp+0x6c0]
    ecc4:	00 
    ecc5:	4c 89 ff             	mov    rdi,r15
    ecc8:	48 83 c7 78          	add    rdi,0x78
    eccc:	48 8b b4 24 90 06 00 	mov    rsi,QWORD PTR [rsp+0x690]
    ecd3:	00 
    ecd4:	48 b8 00 00 00 00 00 	movabs rax,0x0
    ecdb:	00 00 00 
			ecd6: R_X86_64_64	caml_initialize
    ecde:	48 89 b4 24 90 06 00 	mov    QWORD PTR [rsp+0x690],rsi
    ece5:	00 
    ece6:	48 89 bc 24 a0 06 00 	mov    QWORD PTR [rsp+0x6a0],rdi
    eced:	00 
    ecee:	4c 89 bc 24 b0 06 00 	mov    QWORD PTR [rsp+0x6b0],r15
    ecf5:	00 
    ecf6:	ff d0                	call   rax
    ecf8:	4c 8b bc 24 b0 06 00 	mov    r15,QWORD PTR [rsp+0x6b0]
    ecff:	00 
    ed00:	4c 89 ff             	mov    rdi,r15
    ed03:	48 81 c7 80 00 00 00 	add    rdi,0x80
    ed0a:	48 8b b4 24 00 07 00 	mov    rsi,QWORD PTR [rsp+0x700]
    ed11:	00 
    ed12:	48 b8 00 00 00 00 00 	movabs rax,0x0
    ed19:	00 00 00 
			ed14: R_X86_64_64	caml_initialize
    ed1c:	48 89 b4 24 90 06 00 	mov    QWORD PTR [rsp+0x690],rsi
    ed23:	00 
    ed24:	48 89 bc 24 a0 06 00 	mov    QWORD PTR [rsp+0x6a0],rdi
    ed2b:	00 
    ed2c:	4c 89 bc 24 b0 06 00 	mov    QWORD PTR [rsp+0x6b0],r15
    ed33:	00 
    ed34:	ff d0                	call   rax
    ed36:	4c 8b bc 24 b0 06 00 	mov    r15,QWORD PTR [rsp+0x6b0]
    ed3d:	00 
    ed3e:	4c 89 ff             	mov    rdi,r15
    ed41:	48 81 c7 88 00 00 00 	add    rdi,0x88
    ed48:	48 8b b4 24 80 06 00 	mov    rsi,QWORD PTR [rsp+0x680]
    ed4f:	00 
    ed50:	48 b8 00 00 00 00 00 	movabs rax,0x0
    ed57:	00 00 00 
			ed52: R_X86_64_64	caml_initialize
    ed5a:	48 89 b4 24 80 06 00 	mov    QWORD PTR [rsp+0x680],rsi
    ed61:	00 
    ed62:	48 89 bc 24 90 06 00 	mov    QWORD PTR [rsp+0x690],rdi
    ed69:	00 
    ed6a:	4c 89 bc 24 a0 06 00 	mov    QWORD PTR [rsp+0x6a0],r15
    ed71:	00 
    ed72:	ff d0                	call   rax
    ed74:	4c 8b bc 24 a0 06 00 	mov    r15,QWORD PTR [rsp+0x6a0]
    ed7b:	00 
    ed7c:	4c 89 ff             	mov    rdi,r15
    ed7f:	48 81 c7 90 00 00 00 	add    rdi,0x90
    ed86:	48 8b b4 24 08 07 00 	mov    rsi,QWORD PTR [rsp+0x708]
    ed8d:	00 
    ed8e:	48 b8 00 00 00 00 00 	movabs rax,0x0
    ed95:	00 00 00 
			ed90: R_X86_64_64	caml_initialize
    ed98:	48 89 b4 24 80 06 00 	mov    QWORD PTR [rsp+0x680],rsi
    ed9f:	00 
    eda0:	48 89 bc 24 90 06 00 	mov    QWORD PTR [rsp+0x690],rdi
    eda7:	00 
    eda8:	4c 89 bc 24 a0 06 00 	mov    QWORD PTR [rsp+0x6a0],r15
    edaf:	00 
    edb0:	ff d0                	call   rax
    edb2:	4c 8b bc 24 a0 06 00 	mov    r15,QWORD PTR [rsp+0x6a0]
    edb9:	00 
    edba:	4c 89 ff             	mov    rdi,r15
    edbd:	48 81 c7 98 00 00 00 	add    rdi,0x98
    edc4:	48 8b b4 24 70 06 00 	mov    rsi,QWORD PTR [rsp+0x670]
    edcb:	00 
    edcc:	48 b8 00 00 00 00 00 	movabs rax,0x0
    edd3:	00 00 00 
			edce: R_X86_64_64	caml_initialize
    edd6:	48 89 b4 24 70 06 00 	mov    QWORD PTR [rsp+0x670],rsi
    eddd:	00 
    edde:	48 89 bc 24 80 06 00 	mov    QWORD PTR [rsp+0x680],rdi
    ede5:	00 
    ede6:	4c 89 bc 24 90 06 00 	mov    QWORD PTR [rsp+0x690],r15
    eded:	00 
    edee:	ff d0                	call   rax
    edf0:	4c 8b bc 24 90 06 00 	mov    r15,QWORD PTR [rsp+0x690]
    edf7:	00 
    edf8:	4c 89 ff             	mov    rdi,r15
    edfb:	48 81 c7 a0 00 00 00 	add    rdi,0xa0
    ee02:	48 8b b4 24 10 07 00 	mov    rsi,QWORD PTR [rsp+0x710]
    ee09:	00 
    ee0a:	48 b8 00 00 00 00 00 	movabs rax,0x0
    ee11:	00 00 00 
			ee0c: R_X86_64_64	caml_initialize
    ee14:	48 89 b4 24 70 06 00 	mov    QWORD PTR [rsp+0x670],rsi
    ee1b:	00 
    ee1c:	48 89 bc 24 80 06 00 	mov    QWORD PTR [rsp+0x680],rdi
    ee23:	00 
    ee24:	4c 89 bc 24 90 06 00 	mov    QWORD PTR [rsp+0x690],r15
    ee2b:	00 
    ee2c:	ff d0                	call   rax
    ee2e:	4c 8b bc 24 90 06 00 	mov    r15,QWORD PTR [rsp+0x690]
    ee35:	00 
    ee36:	4c 89 ff             	mov    rdi,r15
    ee39:	48 81 c7 a8 00 00 00 	add    rdi,0xa8
    ee40:	48 8b b4 24 60 06 00 	mov    rsi,QWORD PTR [rsp+0x660]
    ee47:	00 
    ee48:	48 b8 00 00 00 00 00 	movabs rax,0x0
    ee4f:	00 00 00 
			ee4a: R_X86_64_64	caml_initialize
    ee52:	48 89 b4 24 60 06 00 	mov    QWORD PTR [rsp+0x660],rsi
    ee59:	00 
    ee5a:	48 89 bc 24 70 06 00 	mov    QWORD PTR [rsp+0x670],rdi
    ee61:	00 
    ee62:	4c 89 bc 24 80 06 00 	mov    QWORD PTR [rsp+0x680],r15
    ee69:	00 
    ee6a:	ff d0                	call   rax
    ee6c:	4c 8b bc 24 80 06 00 	mov    r15,QWORD PTR [rsp+0x680]
    ee73:	00 
    ee74:	4c 89 ff             	mov    rdi,r15
    ee77:	48 81 c7 b0 00 00 00 	add    rdi,0xb0
    ee7e:	48 8b b4 24 18 07 00 	mov    rsi,QWORD PTR [rsp+0x718]
    ee85:	00 
    ee86:	48 b8 00 00 00 00 00 	movabs rax,0x0
    ee8d:	00 00 00 
			ee88: R_X86_64_64	caml_initialize
    ee90:	48 89 b4 24 60 06 00 	mov    QWORD PTR [rsp+0x660],rsi
    ee97:	00 
    ee98:	48 89 bc 24 70 06 00 	mov    QWORD PTR [rsp+0x670],rdi
    ee9f:	00 
    eea0:	4c 89 bc 24 80 06 00 	mov    QWORD PTR [rsp+0x680],r15
    eea7:	00 
    eea8:	ff d0                	call   rax
    eeaa:	4c 8b bc 24 80 06 00 	mov    r15,QWORD PTR [rsp+0x680]
    eeb1:	00 
    eeb2:	4c 89 ff             	mov    rdi,r15
    eeb5:	48 81 c7 b8 00 00 00 	add    rdi,0xb8
    eebc:	48 8b b4 24 50 06 00 	mov    rsi,QWORD PTR [rsp+0x650]
    eec3:	00 
    eec4:	48 b8 00 00 00 00 00 	movabs rax,0x0
    eecb:	00 00 00 
			eec6: R_X86_64_64	caml_initialize
    eece:	48 89 b4 24 50 06 00 	mov    QWORD PTR [rsp+0x650],rsi
    eed5:	00 
    eed6:	48 89 bc 24 60 06 00 	mov    QWORD PTR [rsp+0x660],rdi
    eedd:	00 
    eede:	4c 89 bc 24 70 06 00 	mov    QWORD PTR [rsp+0x670],r15
    eee5:	00 
    eee6:	ff d0                	call   rax
    eee8:	4c 8b bc 24 70 06 00 	mov    r15,QWORD PTR [rsp+0x670]
    eeef:	00 
    eef0:	4c 89 ff             	mov    rdi,r15
    eef3:	48 81 c7 c0 00 00 00 	add    rdi,0xc0
    eefa:	48 8b b4 24 20 07 00 	mov    rsi,QWORD PTR [rsp+0x720]
    ef01:	00 
    ef02:	48 b8 00 00 00 00 00 	movabs rax,0x0
    ef09:	00 00 00 
			ef04: R_X86_64_64	caml_initialize
    ef0c:	48 89 b4 24 50 06 00 	mov    QWORD PTR [rsp+0x650],rsi
    ef13:	00 
    ef14:	48 89 bc 24 60 06 00 	mov    QWORD PTR [rsp+0x660],rdi
    ef1b:	00 
    ef1c:	4c 89 bc 24 70 06 00 	mov    QWORD PTR [rsp+0x670],r15
    ef23:	00 
    ef24:	ff d0                	call   rax
    ef26:	4c 8b bc 24 70 06 00 	mov    r15,QWORD PTR [rsp+0x670]
    ef2d:	00 
    ef2e:	4c 89 ff             	mov    rdi,r15
    ef31:	48 81 c7 c8 00 00 00 	add    rdi,0xc8
    ef38:	48 8b b4 24 40 06 00 	mov    rsi,QWORD PTR [rsp+0x640]
    ef3f:	00 
    ef40:	48 b8 00 00 00 00 00 	movabs rax,0x0
    ef47:	00 00 00 
			ef42: R_X86_64_64	caml_initialize
    ef4a:	48 89 b4 24 40 06 00 	mov    QWORD PTR [rsp+0x640],rsi
    ef51:	00 
    ef52:	48 89 bc 24 50 06 00 	mov    QWORD PTR [rsp+0x650],rdi
    ef59:	00 
    ef5a:	4c 89 bc 24 60 06 00 	mov    QWORD PTR [rsp+0x660],r15
    ef61:	00 
    ef62:	ff d0                	call   rax
    ef64:	4c 8b bc 24 60 06 00 	mov    r15,QWORD PTR [rsp+0x660]
    ef6b:	00 
    ef6c:	4c 89 ff             	mov    rdi,r15
    ef6f:	48 81 c7 d0 00 00 00 	add    rdi,0xd0
    ef76:	48 8b b4 24 28 07 00 	mov    rsi,QWORD PTR [rsp+0x728]
    ef7d:	00 
    ef7e:	48 b8 00 00 00 00 00 	movabs rax,0x0
    ef85:	00 00 00 
			ef80: R_X86_64_64	caml_initialize
    ef88:	48 89 b4 24 40 06 00 	mov    QWORD PTR [rsp+0x640],rsi
    ef8f:	00 
    ef90:	48 89 bc 24 50 06 00 	mov    QWORD PTR [rsp+0x650],rdi
    ef97:	00 
    ef98:	4c 89 bc 24 60 06 00 	mov    QWORD PTR [rsp+0x660],r15
    ef9f:	00 
    efa0:	ff d0                	call   rax
    efa2:	4c 8b bc 24 60 06 00 	mov    r15,QWORD PTR [rsp+0x660]
    efa9:	00 
    efaa:	4c 89 ff             	mov    rdi,r15
    efad:	48 81 c7 d8 00 00 00 	add    rdi,0xd8
    efb4:	48 8b b4 24 30 06 00 	mov    rsi,QWORD PTR [rsp+0x630]
    efbb:	00 
    efbc:	48 b8 00 00 00 00 00 	movabs rax,0x0
    efc3:	00 00 00 
			efbe: R_X86_64_64	caml_initialize
    efc6:	48 89 b4 24 30 06 00 	mov    QWORD PTR [rsp+0x630],rsi
    efcd:	00 
    efce:	48 89 bc 24 40 06 00 	mov    QWORD PTR [rsp+0x640],rdi
    efd5:	00 
    efd6:	4c 89 bc 24 50 06 00 	mov    QWORD PTR [rsp+0x650],r15
    efdd:	00 
    efde:	ff d0                	call   rax
    efe0:	4c 8b bc 24 50 06 00 	mov    r15,QWORD PTR [rsp+0x650]
    efe7:	00 
    efe8:	4c 89 ff             	mov    rdi,r15
    efeb:	48 81 c7 e0 00 00 00 	add    rdi,0xe0
    eff2:	48 8b b4 24 30 07 00 	mov    rsi,QWORD PTR [rsp+0x730]
    eff9:	00 
    effa:	48 b8 00 00 00 00 00 	movabs rax,0x0
    f001:	00 00 00 
			effc: R_X86_64_64	caml_initialize
    f004:	48 89 b4 24 30 06 00 	mov    QWORD PTR [rsp+0x630],rsi
    f00b:	00 
    f00c:	48 89 bc 24 40 06 00 	mov    QWORD PTR [rsp+0x640],rdi
    f013:	00 
    f014:	4c 89 bc 24 50 06 00 	mov    QWORD PTR [rsp+0x650],r15
    f01b:	00 
    f01c:	ff d0                	call   rax
    f01e:	4c 8b bc 24 50 06 00 	mov    r15,QWORD PTR [rsp+0x650]
    f025:	00 
    f026:	4c 89 ff             	mov    rdi,r15
    f029:	48 81 c7 e8 00 00 00 	add    rdi,0xe8
    f030:	48 8b b4 24 20 06 00 	mov    rsi,QWORD PTR [rsp+0x620]
    f037:	00 
    f038:	48 b8 00 00 00 00 00 	movabs rax,0x0
    f03f:	00 00 00 
			f03a: R_X86_64_64	caml_initialize
    f042:	48 89 b4 24 20 06 00 	mov    QWORD PTR [rsp+0x620],rsi
    f049:	00 
    f04a:	48 89 bc 24 30 06 00 	mov    QWORD PTR [rsp+0x630],rdi
    f051:	00 
    f052:	4c 89 bc 24 40 06 00 	mov    QWORD PTR [rsp+0x640],r15
    f059:	00 
    f05a:	ff d0                	call   rax
    f05c:	4c 8b bc 24 40 06 00 	mov    r15,QWORD PTR [rsp+0x640]
    f063:	00 
    f064:	4c 89 ff             	mov    rdi,r15
    f067:	48 81 c7 f0 00 00 00 	add    rdi,0xf0
    f06e:	48 8b b4 24 38 07 00 	mov    rsi,QWORD PTR [rsp+0x738]
    f075:	00 
    f076:	48 b8 00 00 00 00 00 	movabs rax,0x0
    f07d:	00 00 00 
			f078: R_X86_64_64	caml_initialize
    f080:	48 89 b4 24 20 06 00 	mov    QWORD PTR [rsp+0x620],rsi
    f087:	00 
    f088:	48 89 bc 24 30 06 00 	mov    QWORD PTR [rsp+0x630],rdi
    f08f:	00 
    f090:	4c 89 bc 24 40 06 00 	mov    QWORD PTR [rsp+0x640],r15
    f097:	00 
    f098:	ff d0                	call   rax
    f09a:	4c 8b bc 24 40 06 00 	mov    r15,QWORD PTR [rsp+0x640]
    f0a1:	00 
    f0a2:	4c 89 ff             	mov    rdi,r15
    f0a5:	48 81 c7 f8 00 00 00 	add    rdi,0xf8
    f0ac:	48 8b b4 24 10 06 00 	mov    rsi,QWORD PTR [rsp+0x610]
    f0b3:	00 
    f0b4:	48 b8 00 00 00 00 00 	movabs rax,0x0
    f0bb:	00 00 00 
			f0b6: R_X86_64_64	caml_initialize
    f0be:	48 89 b4 24 10 06 00 	mov    QWORD PTR [rsp+0x610],rsi
    f0c5:	00 
    f0c6:	48 89 bc 24 20 06 00 	mov    QWORD PTR [rsp+0x620],rdi
    f0cd:	00 
    f0ce:	4c 89 bc 24 30 06 00 	mov    QWORD PTR [rsp+0x630],r15
    f0d5:	00 
    f0d6:	ff d0                	call   rax
    f0d8:	4c 8b bc 24 30 06 00 	mov    r15,QWORD PTR [rsp+0x630]
    f0df:	00 
    f0e0:	4c 89 ff             	mov    rdi,r15
    f0e3:	48 81 c7 00 01 00 00 	add    rdi,0x100
    f0ea:	48 8b b4 24 40 07 00 	mov    rsi,QWORD PTR [rsp+0x740]
    f0f1:	00 
    f0f2:	48 b8 00 00 00 00 00 	movabs rax,0x0
    f0f9:	00 00 00 
			f0f4: R_X86_64_64	caml_initialize
    f0fc:	48 89 b4 24 10 06 00 	mov    QWORD PTR [rsp+0x610],rsi
    f103:	00 
    f104:	48 89 bc 24 20 06 00 	mov    QWORD PTR [rsp+0x620],rdi
    f10b:	00 
    f10c:	4c 89 bc 24 30 06 00 	mov    QWORD PTR [rsp+0x630],r15
    f113:	00 
    f114:	ff d0                	call   rax
    f116:	4c 8b bc 24 30 06 00 	mov    r15,QWORD PTR [rsp+0x630]
    f11d:	00 
    f11e:	4c 89 ff             	mov    rdi,r15
    f121:	48 81 c7 08 01 00 00 	add    rdi,0x108
    f128:	48 8b b4 24 00 06 00 	mov    rsi,QWORD PTR [rsp+0x600]
    f12f:	00 
    f130:	48 b8 00 00 00 00 00 	movabs rax,0x0
    f137:	00 00 00 
			f132: R_X86_64_64	caml_initialize
    f13a:	48 89 b4 24 00 06 00 	mov    QWORD PTR [rsp+0x600],rsi
    f141:	00 
    f142:	48 89 bc 24 10 06 00 	mov    QWORD PTR [rsp+0x610],rdi
    f149:	00 
    f14a:	4c 89 bc 24 20 06 00 	mov    QWORD PTR [rsp+0x620],r15
    f151:	00 
    f152:	ff d0                	call   rax
    f154:	4c 8b bc 24 20 06 00 	mov    r15,QWORD PTR [rsp+0x620]
    f15b:	00 
    f15c:	4c 89 ff             	mov    rdi,r15
    f15f:	48 81 c7 10 01 00 00 	add    rdi,0x110
    f166:	48 8b b4 24 48 07 00 	mov    rsi,QWORD PTR [rsp+0x748]
    f16d:	00 
    f16e:	48 b8 00 00 00 00 00 	movabs rax,0x0
    f175:	00 00 00 
			f170: R_X86_64_64	caml_initialize
    f178:	48 89 b4 24 00 06 00 	mov    QWORD PTR [rsp+0x600],rsi
    f17f:	00 
    f180:	48 89 bc 24 10 06 00 	mov    QWORD PTR [rsp+0x610],rdi
    f187:	00 
    f188:	4c 89 bc 24 20 06 00 	mov    QWORD PTR [rsp+0x620],r15
    f18f:	00 
    f190:	ff d0                	call   rax
    f192:	4c 8b bc 24 20 06 00 	mov    r15,QWORD PTR [rsp+0x620]
    f199:	00 
    f19a:	4c 89 ff             	mov    rdi,r15
    f19d:	48 81 c7 18 01 00 00 	add    rdi,0x118
    f1a4:	48 8b b4 24 f0 05 00 	mov    rsi,QWORD PTR [rsp+0x5f0]
    f1ab:	00 
    f1ac:	48 b8 00 00 00 00 00 	movabs rax,0x0
    f1b3:	00 00 00 
			f1ae: R_X86_64_64	caml_initialize
    f1b6:	48 89 b4 24 f0 05 00 	mov    QWORD PTR [rsp+0x5f0],rsi
    f1bd:	00 
    f1be:	48 89 bc 24 00 06 00 	mov    QWORD PTR [rsp+0x600],rdi
    f1c5:	00 
    f1c6:	4c 89 bc 24 10 06 00 	mov    QWORD PTR [rsp+0x610],r15
    f1cd:	00 
    f1ce:	ff d0                	call   rax
    f1d0:	4c 8b bc 24 10 06 00 	mov    r15,QWORD PTR [rsp+0x610]
    f1d7:	00 
    f1d8:	4c 89 ff             	mov    rdi,r15
    f1db:	48 81 c7 20 01 00 00 	add    rdi,0x120
    f1e2:	48 8b b4 24 50 07 00 	mov    rsi,QWORD PTR [rsp+0x750]
    f1e9:	00 
    f1ea:	48 b8 00 00 00 00 00 	movabs rax,0x0
    f1f1:	00 00 00 
			f1ec: R_X86_64_64	caml_initialize
    f1f4:	48 89 b4 24 f0 05 00 	mov    QWORD PTR [rsp+0x5f0],rsi
    f1fb:	00 
    f1fc:	48 89 bc 24 00 06 00 	mov    QWORD PTR [rsp+0x600],rdi
    f203:	00 
    f204:	4c 89 bc 24 10 06 00 	mov    QWORD PTR [rsp+0x610],r15
    f20b:	00 
    f20c:	ff d0                	call   rax
    f20e:	4c 8b bc 24 10 06 00 	mov    r15,QWORD PTR [rsp+0x610]
    f215:	00 
    f216:	4c 89 ff             	mov    rdi,r15
    f219:	48 81 c7 28 01 00 00 	add    rdi,0x128
    f220:	48 8b b4 24 e0 05 00 	mov    rsi,QWORD PTR [rsp+0x5e0]
    f227:	00 
    f228:	48 b8 00 00 00 00 00 	movabs rax,0x0
    f22f:	00 00 00 
			f22a: R_X86_64_64	caml_initialize
    f232:	48 89 b4 24 e0 05 00 	mov    QWORD PTR [rsp+0x5e0],rsi
    f239:	00 
    f23a:	48 89 bc 24 f0 05 00 	mov    QWORD PTR [rsp+0x5f0],rdi
    f241:	00 
    f242:	4c 89 bc 24 00 06 00 	mov    QWORD PTR [rsp+0x600],r15
    f249:	00 
    f24a:	ff d0                	call   rax
    f24c:	4c 8b bc 24 00 06 00 	mov    r15,QWORD PTR [rsp+0x600]
    f253:	00 
    f254:	4c 89 ff             	mov    rdi,r15
    f257:	48 81 c7 30 01 00 00 	add    rdi,0x130
    f25e:	48 8b b4 24 58 07 00 	mov    rsi,QWORD PTR [rsp+0x758]
    f265:	00 
    f266:	48 b8 00 00 00 00 00 	movabs rax,0x0
    f26d:	00 00 00 
			f268: R_X86_64_64	caml_initialize
    f270:	48 89 b4 24 e0 05 00 	mov    QWORD PTR [rsp+0x5e0],rsi
    f277:	00 
    f278:	48 89 bc 24 f0 05 00 	mov    QWORD PTR [rsp+0x5f0],rdi
    f27f:	00 
    f280:	4c 89 bc 24 00 06 00 	mov    QWORD PTR [rsp+0x600],r15
    f287:	00 
    f288:	ff d0                	call   rax
    f28a:	4c 8b bc 24 00 06 00 	mov    r15,QWORD PTR [rsp+0x600]
    f291:	00 
    f292:	4c 89 ff             	mov    rdi,r15
    f295:	48 81 c7 38 01 00 00 	add    rdi,0x138
    f29c:	48 8b b4 24 d0 05 00 	mov    rsi,QWORD PTR [rsp+0x5d0]
    f2a3:	00 
    f2a4:	48 b8 00 00 00 00 00 	movabs rax,0x0
    f2ab:	00 00 00 
			f2a6: R_X86_64_64	caml_initialize
    f2ae:	48 89 b4 24 d0 05 00 	mov    QWORD PTR [rsp+0x5d0],rsi
    f2b5:	00 
    f2b6:	48 89 bc 24 e0 05 00 	mov    QWORD PTR [rsp+0x5e0],rdi
    f2bd:	00 
    f2be:	4c 89 bc 24 f0 05 00 	mov    QWORD PTR [rsp+0x5f0],r15
    f2c5:	00 
    f2c6:	ff d0                	call   rax
    f2c8:	4c 8b bc 24 f0 05 00 	mov    r15,QWORD PTR [rsp+0x5f0]
    f2cf:	00 
    f2d0:	4c 89 ff             	mov    rdi,r15
    f2d3:	48 81 c7 40 01 00 00 	add    rdi,0x140
    f2da:	48 8b b4 24 60 07 00 	mov    rsi,QWORD PTR [rsp+0x760]
    f2e1:	00 
    f2e2:	48 b8 00 00 00 00 00 	movabs rax,0x0
    f2e9:	00 00 00 
			f2e4: R_X86_64_64	caml_initialize
    f2ec:	48 89 b4 24 d0 05 00 	mov    QWORD PTR [rsp+0x5d0],rsi
    f2f3:	00 
    f2f4:	48 89 bc 24 e0 05 00 	mov    QWORD PTR [rsp+0x5e0],rdi
    f2fb:	00 
    f2fc:	4c 89 bc 24 f0 05 00 	mov    QWORD PTR [rsp+0x5f0],r15
    f303:	00 
    f304:	ff d0                	call   rax
    f306:	4c 8b bc 24 f0 05 00 	mov    r15,QWORD PTR [rsp+0x5f0]
    f30d:	00 
    f30e:	4c 89 ff             	mov    rdi,r15
    f311:	48 81 c7 48 01 00 00 	add    rdi,0x148
    f318:	48 8b b4 24 c0 05 00 	mov    rsi,QWORD PTR [rsp+0x5c0]
    f31f:	00 
    f320:	48 b8 00 00 00 00 00 	movabs rax,0x0
    f327:	00 00 00 
			f322: R_X86_64_64	caml_initialize
    f32a:	48 89 b4 24 c0 05 00 	mov    QWORD PTR [rsp+0x5c0],rsi
    f331:	00 
    f332:	48 89 bc 24 d0 05 00 	mov    QWORD PTR [rsp+0x5d0],rdi
    f339:	00 
    f33a:	4c 89 bc 24 e0 05 00 	mov    QWORD PTR [rsp+0x5e0],r15
    f341:	00 
    f342:	ff d0                	call   rax
    f344:	4c 8b bc 24 e0 05 00 	mov    r15,QWORD PTR [rsp+0x5e0]
    f34b:	00 
    f34c:	4c 89 ff             	mov    rdi,r15
    f34f:	48 81 c7 50 01 00 00 	add    rdi,0x150
    f356:	48 8b b4 24 68 07 00 	mov    rsi,QWORD PTR [rsp+0x768]
    f35d:	00 
    f35e:	48 b8 00 00 00 00 00 	movabs rax,0x0
    f365:	00 00 00 
			f360: R_X86_64_64	caml_initialize
    f368:	48 89 b4 24 c0 05 00 	mov    QWORD PTR [rsp+0x5c0],rsi
    f36f:	00 
    f370:	48 89 bc 24 d0 05 00 	mov    QWORD PTR [rsp+0x5d0],rdi
    f377:	00 
    f378:	4c 89 bc 24 e0 05 00 	mov    QWORD PTR [rsp+0x5e0],r15
    f37f:	00 
    f380:	ff d0                	call   rax
    f382:	4c 8b bc 24 e0 05 00 	mov    r15,QWORD PTR [rsp+0x5e0]
    f389:	00 
    f38a:	4c 89 ff             	mov    rdi,r15
    f38d:	48 81 c7 58 01 00 00 	add    rdi,0x158
    f394:	48 8b b4 24 b0 05 00 	mov    rsi,QWORD PTR [rsp+0x5b0]
    f39b:	00 
    f39c:	48 b8 00 00 00 00 00 	movabs rax,0x0
    f3a3:	00 00 00 
			f39e: R_X86_64_64	caml_initialize
    f3a6:	48 89 b4 24 b0 05 00 	mov    QWORD PTR [rsp+0x5b0],rsi
    f3ad:	00 
    f3ae:	48 89 bc 24 c0 05 00 	mov    QWORD PTR [rsp+0x5c0],rdi
    f3b5:	00 
    f3b6:	4c 89 bc 24 d0 05 00 	mov    QWORD PTR [rsp+0x5d0],r15
    f3bd:	00 
    f3be:	ff d0                	call   rax
    f3c0:	4c 8b bc 24 d0 05 00 	mov    r15,QWORD PTR [rsp+0x5d0]
    f3c7:	00 
    f3c8:	4c 89 ff             	mov    rdi,r15
    f3cb:	48 81 c7 60 01 00 00 	add    rdi,0x160
    f3d2:	48 8b b4 24 70 07 00 	mov    rsi,QWORD PTR [rsp+0x770]
    f3d9:	00 
    f3da:	48 b8 00 00 00 00 00 	movabs rax,0x0
    f3e1:	00 00 00 
			f3dc: R_X86_64_64	caml_initialize
    f3e4:	48 89 b4 24 b0 05 00 	mov    QWORD PTR [rsp+0x5b0],rsi
    f3eb:	00 
    f3ec:	48 89 bc 24 c0 05 00 	mov    QWORD PTR [rsp+0x5c0],rdi
    f3f3:	00 
    f3f4:	4c 89 bc 24 d0 05 00 	mov    QWORD PTR [rsp+0x5d0],r15
    f3fb:	00 
    f3fc:	ff d0                	call   rax
    f3fe:	4c 8b bc 24 d0 05 00 	mov    r15,QWORD PTR [rsp+0x5d0]
    f405:	00 
    f406:	4c 89 ff             	mov    rdi,r15
    f409:	48 81 c7 68 01 00 00 	add    rdi,0x168
    f410:	48 8b b4 24 a0 05 00 	mov    rsi,QWORD PTR [rsp+0x5a0]
    f417:	00 
    f418:	48 b8 00 00 00 00 00 	movabs rax,0x0
    f41f:	00 00 00 
			f41a: R_X86_64_64	caml_initialize
    f422:	48 89 b4 24 a0 05 00 	mov    QWORD PTR [rsp+0x5a0],rsi
    f429:	00 
    f42a:	48 89 bc 24 b0 05 00 	mov    QWORD PTR [rsp+0x5b0],rdi
    f431:	00 
    f432:	4c 89 bc 24 c0 05 00 	mov    QWORD PTR [rsp+0x5c0],r15
    f439:	00 
    f43a:	ff d0                	call   rax
    f43c:	4c 8b bc 24 c0 05 00 	mov    r15,QWORD PTR [rsp+0x5c0]
    f443:	00 
    f444:	4c 89 ff             	mov    rdi,r15
    f447:	48 81 c7 70 01 00 00 	add    rdi,0x170
    f44e:	48 8b b4 24 78 07 00 	mov    rsi,QWORD PTR [rsp+0x778]
    f455:	00 
    f456:	48 b8 00 00 00 00 00 	movabs rax,0x0
    f45d:	00 00 00 
			f458: R_X86_64_64	caml_initialize
    f460:	48 89 b4 24 a0 05 00 	mov    QWORD PTR [rsp+0x5a0],rsi
    f467:	00 
    f468:	48 89 bc 24 b0 05 00 	mov    QWORD PTR [rsp+0x5b0],rdi
    f46f:	00 
    f470:	4c 89 bc 24 c0 05 00 	mov    QWORD PTR [rsp+0x5c0],r15
    f477:	00 
    f478:	ff d0                	call   rax
    f47a:	4c 8b bc 24 c0 05 00 	mov    r15,QWORD PTR [rsp+0x5c0]
    f481:	00 
    f482:	4c 89 ff             	mov    rdi,r15
    f485:	48 81 c7 78 01 00 00 	add    rdi,0x178
    f48c:	48 8b b4 24 90 05 00 	mov    rsi,QWORD PTR [rsp+0x590]
    f493:	00 
    f494:	48 b8 00 00 00 00 00 	movabs rax,0x0
    f49b:	00 00 00 
			f496: R_X86_64_64	caml_initialize
    f49e:	48 89 b4 24 90 05 00 	mov    QWORD PTR [rsp+0x590],rsi
    f4a5:	00 
    f4a6:	48 89 bc 24 a0 05 00 	mov    QWORD PTR [rsp+0x5a0],rdi
    f4ad:	00 
    f4ae:	4c 89 bc 24 b0 05 00 	mov    QWORD PTR [rsp+0x5b0],r15
    f4b5:	00 
    f4b6:	ff d0                	call   rax
    f4b8:	4c 8b bc 24 b0 05 00 	mov    r15,QWORD PTR [rsp+0x5b0]
    f4bf:	00 
    f4c0:	4c 89 ff             	mov    rdi,r15
    f4c3:	48 81 c7 80 01 00 00 	add    rdi,0x180
    f4ca:	48 8b b4 24 80 07 00 	mov    rsi,QWORD PTR [rsp+0x780]
    f4d1:	00 
    f4d2:	48 b8 00 00 00 00 00 	movabs rax,0x0
    f4d9:	00 00 00 
			f4d4: R_X86_64_64	caml_initialize
    f4dc:	48 89 b4 24 90 05 00 	mov    QWORD PTR [rsp+0x590],rsi
    f4e3:	00 
    f4e4:	48 89 bc 24 a0 05 00 	mov    QWORD PTR [rsp+0x5a0],rdi
    f4eb:	00 
    f4ec:	4c 89 bc 24 b0 05 00 	mov    QWORD PTR [rsp+0x5b0],r15
    f4f3:	00 
    f4f4:	ff d0                	call   rax
    f4f6:	4c 8b bc 24 b0 05 00 	mov    r15,QWORD PTR [rsp+0x5b0]
    f4fd:	00 
    f4fe:	4c 89 ff             	mov    rdi,r15
    f501:	48 81 c7 88 01 00 00 	add    rdi,0x188
    f508:	48 8b b4 24 80 05 00 	mov    rsi,QWORD PTR [rsp+0x580]
    f50f:	00 
    f510:	48 b8 00 00 00 00 00 	movabs rax,0x0
    f517:	00 00 00 
			f512: R_X86_64_64	caml_initialize
    f51a:	48 89 b4 24 80 05 00 	mov    QWORD PTR [rsp+0x580],rsi
    f521:	00 
    f522:	48 89 bc 24 90 05 00 	mov    QWORD PTR [rsp+0x590],rdi
    f529:	00 
    f52a:	4c 89 bc 24 a0 05 00 	mov    QWORD PTR [rsp+0x5a0],r15
    f531:	00 
    f532:	ff d0                	call   rax
    f534:	4c 8b bc 24 a0 05 00 	mov    r15,QWORD PTR [rsp+0x5a0]
    f53b:	00 
    f53c:	4c 89 ff             	mov    rdi,r15
    f53f:	48 81 c7 90 01 00 00 	add    rdi,0x190
    f546:	48 8b b4 24 88 07 00 	mov    rsi,QWORD PTR [rsp+0x788]
    f54d:	00 
    f54e:	48 b8 00 00 00 00 00 	movabs rax,0x0
    f555:	00 00 00 
			f550: R_X86_64_64	caml_initialize
    f558:	48 89 b4 24 80 05 00 	mov    QWORD PTR [rsp+0x580],rsi
    f55f:	00 
    f560:	48 89 bc 24 90 05 00 	mov    QWORD PTR [rsp+0x590],rdi
    f567:	00 
    f568:	4c 89 bc 24 a0 05 00 	mov    QWORD PTR [rsp+0x5a0],r15
    f56f:	00 
    f570:	ff d0                	call   rax
    f572:	4c 8b bc 24 a0 05 00 	mov    r15,QWORD PTR [rsp+0x5a0]
    f579:	00 
    f57a:	4c 89 ff             	mov    rdi,r15
    f57d:	48 81 c7 98 01 00 00 	add    rdi,0x198
    f584:	48 8b b4 24 70 05 00 	mov    rsi,QWORD PTR [rsp+0x570]
    f58b:	00 
    f58c:	48 b8 00 00 00 00 00 	movabs rax,0x0
    f593:	00 00 00 
			f58e: R_X86_64_64	caml_initialize
    f596:	48 89 b4 24 70 05 00 	mov    QWORD PTR [rsp+0x570],rsi
    f59d:	00 
    f59e:	48 89 bc 24 80 05 00 	mov    QWORD PTR [rsp+0x580],rdi
    f5a5:	00 
    f5a6:	4c 89 bc 24 90 05 00 	mov    QWORD PTR [rsp+0x590],r15
    f5ad:	00 
    f5ae:	ff d0                	call   rax
    f5b0:	4c 8b bc 24 90 05 00 	mov    r15,QWORD PTR [rsp+0x590]
    f5b7:	00 
    f5b8:	4c 89 ff             	mov    rdi,r15
    f5bb:	48 81 c7 a0 01 00 00 	add    rdi,0x1a0
    f5c2:	48 8b b4 24 90 07 00 	mov    rsi,QWORD PTR [rsp+0x790]
    f5c9:	00 
    f5ca:	48 b8 00 00 00 00 00 	movabs rax,0x0
    f5d1:	00 00 00 
			f5cc: R_X86_64_64	caml_initialize
    f5d4:	48 89 b4 24 70 05 00 	mov    QWORD PTR [rsp+0x570],rsi
    f5db:	00 
    f5dc:	48 89 bc 24 80 05 00 	mov    QWORD PTR [rsp+0x580],rdi
    f5e3:	00 
    f5e4:	4c 89 bc 24 90 05 00 	mov    QWORD PTR [rsp+0x590],r15
    f5eb:	00 
    f5ec:	ff d0                	call   rax
    f5ee:	4c 8b bc 24 90 05 00 	mov    r15,QWORD PTR [rsp+0x590]
    f5f5:	00 
    f5f6:	4c 89 ff             	mov    rdi,r15
    f5f9:	48 81 c7 a8 01 00 00 	add    rdi,0x1a8
    f600:	48 8b b4 24 60 05 00 	mov    rsi,QWORD PTR [rsp+0x560]
    f607:	00 
    f608:	48 b8 00 00 00 00 00 	movabs rax,0x0
    f60f:	00 00 00 
			f60a: R_X86_64_64	caml_initialize
    f612:	48 89 b4 24 60 05 00 	mov    QWORD PTR [rsp+0x560],rsi
    f619:	00 
    f61a:	48 89 bc 24 70 05 00 	mov    QWORD PTR [rsp+0x570],rdi
    f621:	00 
    f622:	4c 89 bc 24 80 05 00 	mov    QWORD PTR [rsp+0x580],r15
    f629:	00 
    f62a:	ff d0                	call   rax
    f62c:	4c 8b bc 24 80 05 00 	mov    r15,QWORD PTR [rsp+0x580]
    f633:	00 
    f634:	4c 89 ff             	mov    rdi,r15
    f637:	48 81 c7 b0 01 00 00 	add    rdi,0x1b0
    f63e:	48 8b b4 24 98 07 00 	mov    rsi,QWORD PTR [rsp+0x798]
    f645:	00 
    f646:	48 b8 00 00 00 00 00 	movabs rax,0x0
    f64d:	00 00 00 
			f648: R_X86_64_64	caml_initialize
    f650:	48 89 b4 24 60 05 00 	mov    QWORD PTR [rsp+0x560],rsi
    f657:	00 
    f658:	48 89 bc 24 70 05 00 	mov    QWORD PTR [rsp+0x570],rdi
    f65f:	00 
    f660:	4c 89 bc 24 80 05 00 	mov    QWORD PTR [rsp+0x580],r15
    f667:	00 
    f668:	ff d0                	call   rax
    f66a:	4c 8b bc 24 80 05 00 	mov    r15,QWORD PTR [rsp+0x580]
    f671:	00 
    f672:	4c 89 ff             	mov    rdi,r15
    f675:	48 81 c7 b8 01 00 00 	add    rdi,0x1b8
    f67c:	48 8b b4 24 50 05 00 	mov    rsi,QWORD PTR [rsp+0x550]
    f683:	00 
    f684:	48 b8 00 00 00 00 00 	movabs rax,0x0
    f68b:	00 00 00 
			f686: R_X86_64_64	caml_initialize
    f68e:	48 89 b4 24 50 05 00 	mov    QWORD PTR [rsp+0x550],rsi
    f695:	00 
    f696:	48 89 bc 24 60 05 00 	mov    QWORD PTR [rsp+0x560],rdi
    f69d:	00 
    f69e:	4c 89 bc 24 70 05 00 	mov    QWORD PTR [rsp+0x570],r15
    f6a5:	00 
    f6a6:	ff d0                	call   rax
    f6a8:	4c 8b bc 24 70 05 00 	mov    r15,QWORD PTR [rsp+0x570]
    f6af:	00 
    f6b0:	4c 89 ff             	mov    rdi,r15
    f6b3:	48 81 c7 c0 01 00 00 	add    rdi,0x1c0
    f6ba:	48 8b b4 24 a0 07 00 	mov    rsi,QWORD PTR [rsp+0x7a0]
    f6c1:	00 
    f6c2:	48 b8 00 00 00 00 00 	movabs rax,0x0
    f6c9:	00 00 00 
			f6c4: R_X86_64_64	caml_initialize
    f6cc:	48 89 b4 24 50 05 00 	mov    QWORD PTR [rsp+0x550],rsi
    f6d3:	00 
    f6d4:	48 89 bc 24 60 05 00 	mov    QWORD PTR [rsp+0x560],rdi
    f6db:	00 
    f6dc:	4c 89 bc 24 70 05 00 	mov    QWORD PTR [rsp+0x570],r15
    f6e3:	00 
    f6e4:	ff d0                	call   rax
    f6e6:	4c 8b bc 24 70 05 00 	mov    r15,QWORD PTR [rsp+0x570]
    f6ed:	00 
    f6ee:	4c 89 ff             	mov    rdi,r15
    f6f1:	48 81 c7 c8 01 00 00 	add    rdi,0x1c8
    f6f8:	48 8b b4 24 40 05 00 	mov    rsi,QWORD PTR [rsp+0x540]
    f6ff:	00 
    f700:	48 b8 00 00 00 00 00 	movabs rax,0x0
    f707:	00 00 00 
			f702: R_X86_64_64	caml_initialize
    f70a:	48 89 b4 24 40 05 00 	mov    QWORD PTR [rsp+0x540],rsi
    f711:	00 
    f712:	48 89 bc 24 50 05 00 	mov    QWORD PTR [rsp+0x550],rdi
    f719:	00 
    f71a:	4c 89 bc 24 60 05 00 	mov    QWORD PTR [rsp+0x560],r15
    f721:	00 
    f722:	ff d0                	call   rax
    f724:	4c 8b bc 24 60 05 00 	mov    r15,QWORD PTR [rsp+0x560]
    f72b:	00 
    f72c:	4c 89 ff             	mov    rdi,r15
    f72f:	48 81 c7 d0 01 00 00 	add    rdi,0x1d0
    f736:	48 8b b4 24 a8 07 00 	mov    rsi,QWORD PTR [rsp+0x7a8]
    f73d:	00 
    f73e:	48 b8 00 00 00 00 00 	movabs rax,0x0
    f745:	00 00 00 
			f740: R_X86_64_64	caml_initialize
    f748:	48 89 b4 24 40 05 00 	mov    QWORD PTR [rsp+0x540],rsi
    f74f:	00 
    f750:	48 89 bc 24 50 05 00 	mov    QWORD PTR [rsp+0x550],rdi
    f757:	00 
    f758:	4c 89 bc 24 60 05 00 	mov    QWORD PTR [rsp+0x560],r15
    f75f:	00 
    f760:	ff d0                	call   rax
    f762:	4c 8b bc 24 60 05 00 	mov    r15,QWORD PTR [rsp+0x560]
    f769:	00 
    f76a:	4c 89 ff             	mov    rdi,r15
    f76d:	48 81 c7 d8 01 00 00 	add    rdi,0x1d8
    f774:	48 8b b4 24 30 05 00 	mov    rsi,QWORD PTR [rsp+0x530]
    f77b:	00 
    f77c:	48 b8 00 00 00 00 00 	movabs rax,0x0
    f783:	00 00 00 
			f77e: R_X86_64_64	caml_initialize
    f786:	48 89 b4 24 30 05 00 	mov    QWORD PTR [rsp+0x530],rsi
    f78d:	00 
    f78e:	48 89 bc 24 40 05 00 	mov    QWORD PTR [rsp+0x540],rdi
    f795:	00 
    f796:	4c 89 bc 24 50 05 00 	mov    QWORD PTR [rsp+0x550],r15
    f79d:	00 
    f79e:	ff d0                	call   rax
    f7a0:	4c 8b bc 24 50 05 00 	mov    r15,QWORD PTR [rsp+0x550]
    f7a7:	00 
    f7a8:	4c 89 ff             	mov    rdi,r15
    f7ab:	48 81 c7 e0 01 00 00 	add    rdi,0x1e0
    f7b2:	48 8b b4 24 b0 07 00 	mov    rsi,QWORD PTR [rsp+0x7b0]
    f7b9:	00 
    f7ba:	48 b8 00 00 00 00 00 	movabs rax,0x0
    f7c1:	00 00 00 
			f7bc: R_X86_64_64	caml_initialize
    f7c4:	48 89 b4 24 30 05 00 	mov    QWORD PTR [rsp+0x530],rsi
    f7cb:	00 
    f7cc:	48 89 bc 24 40 05 00 	mov    QWORD PTR [rsp+0x540],rdi
    f7d3:	00 
    f7d4:	4c 89 bc 24 50 05 00 	mov    QWORD PTR [rsp+0x550],r15
    f7db:	00 
    f7dc:	ff d0                	call   rax
    f7de:	4c 8b bc 24 50 05 00 	mov    r15,QWORD PTR [rsp+0x550]
    f7e5:	00 
    f7e6:	4c 89 ff             	mov    rdi,r15
    f7e9:	48 81 c7 e8 01 00 00 	add    rdi,0x1e8
    f7f0:	48 8b b4 24 20 05 00 	mov    rsi,QWORD PTR [rsp+0x520]
    f7f7:	00 
    f7f8:	48 b8 00 00 00 00 00 	movabs rax,0x0
    f7ff:	00 00 00 
			f7fa: R_X86_64_64	caml_initialize
    f802:	48 89 b4 24 20 05 00 	mov    QWORD PTR [rsp+0x520],rsi
    f809:	00 
    f80a:	48 89 bc 24 30 05 00 	mov    QWORD PTR [rsp+0x530],rdi
    f811:	00 
    f812:	4c 89 bc 24 40 05 00 	mov    QWORD PTR [rsp+0x540],r15
    f819:	00 
    f81a:	ff d0                	call   rax
    f81c:	4c 8b bc 24 40 05 00 	mov    r15,QWORD PTR [rsp+0x540]
    f823:	00 
    f824:	4c 89 ff             	mov    rdi,r15
    f827:	48 81 c7 f0 01 00 00 	add    rdi,0x1f0
    f82e:	48 8b b4 24 b8 07 00 	mov    rsi,QWORD PTR [rsp+0x7b8]
    f835:	00 
    f836:	48 b8 00 00 00 00 00 	movabs rax,0x0
    f83d:	00 00 00 
			f838: R_X86_64_64	caml_initialize
    f840:	48 89 b4 24 20 05 00 	mov    QWORD PTR [rsp+0x520],rsi
    f847:	00 
    f848:	48 89 bc 24 30 05 00 	mov    QWORD PTR [rsp+0x530],rdi
    f84f:	00 
    f850:	4c 89 bc 24 40 05 00 	mov    QWORD PTR [rsp+0x540],r15
    f857:	00 
    f858:	ff d0                	call   rax
    f85a:	4c 8b bc 24 40 05 00 	mov    r15,QWORD PTR [rsp+0x540]
    f861:	00 
    f862:	4c 89 ff             	mov    rdi,r15
    f865:	48 81 c7 f8 01 00 00 	add    rdi,0x1f8
    f86c:	48 8b b4 24 10 05 00 	mov    rsi,QWORD PTR [rsp+0x510]
    f873:	00 
    f874:	48 b8 00 00 00 00 00 	movabs rax,0x0
    f87b:	00 00 00 
			f876: R_X86_64_64	caml_initialize
    f87e:	48 89 b4 24 10 05 00 	mov    QWORD PTR [rsp+0x510],rsi
    f885:	00 
    f886:	48 89 bc 24 20 05 00 	mov    QWORD PTR [rsp+0x520],rdi
    f88d:	00 
    f88e:	4c 89 bc 24 30 05 00 	mov    QWORD PTR [rsp+0x530],r15
    f895:	00 
    f896:	ff d0                	call   rax
    f898:	4c 8b bc 24 30 05 00 	mov    r15,QWORD PTR [rsp+0x530]
    f89f:	00 
    f8a0:	4c 89 ff             	mov    rdi,r15
    f8a3:	48 81 c7 00 02 00 00 	add    rdi,0x200
    f8aa:	48 8b b4 24 c0 07 00 	mov    rsi,QWORD PTR [rsp+0x7c0]
    f8b1:	00 
    f8b2:	48 b8 00 00 00 00 00 	movabs rax,0x0
    f8b9:	00 00 00 
			f8b4: R_X86_64_64	caml_initialize
    f8bc:	48 89 b4 24 10 05 00 	mov    QWORD PTR [rsp+0x510],rsi
    f8c3:	00 
    f8c4:	48 89 bc 24 20 05 00 	mov    QWORD PTR [rsp+0x520],rdi
    f8cb:	00 
    f8cc:	4c 89 bc 24 30 05 00 	mov    QWORD PTR [rsp+0x530],r15
    f8d3:	00 
    f8d4:	ff d0                	call   rax
    f8d6:	4c 8b bc 24 30 05 00 	mov    r15,QWORD PTR [rsp+0x530]
    f8dd:	00 
    f8de:	4c 89 ff             	mov    rdi,r15
    f8e1:	48 81 c7 08 02 00 00 	add    rdi,0x208
    f8e8:	48 8b b4 24 00 05 00 	mov    rsi,QWORD PTR [rsp+0x500]
    f8ef:	00 
    f8f0:	48 b8 00 00 00 00 00 	movabs rax,0x0
    f8f7:	00 00 00 
			f8f2: R_X86_64_64	caml_initialize
    f8fa:	48 89 b4 24 00 05 00 	mov    QWORD PTR [rsp+0x500],rsi
    f901:	00 
    f902:	48 89 bc 24 10 05 00 	mov    QWORD PTR [rsp+0x510],rdi
    f909:	00 
    f90a:	4c 89 bc 24 20 05 00 	mov    QWORD PTR [rsp+0x520],r15
    f911:	00 
    f912:	ff d0                	call   rax
    f914:	4c 8b bc 24 20 05 00 	mov    r15,QWORD PTR [rsp+0x520]
    f91b:	00 
    f91c:	4c 89 ff             	mov    rdi,r15
    f91f:	48 81 c7 10 02 00 00 	add    rdi,0x210
    f926:	48 8b b4 24 c8 07 00 	mov    rsi,QWORD PTR [rsp+0x7c8]
    f92d:	00 
    f92e:	48 b8 00 00 00 00 00 	movabs rax,0x0
    f935:	00 00 00 
			f930: R_X86_64_64	caml_initialize
    f938:	48 89 b4 24 00 05 00 	mov    QWORD PTR [rsp+0x500],rsi
    f93f:	00 
    f940:	48 89 bc 24 10 05 00 	mov    QWORD PTR [rsp+0x510],rdi
    f947:	00 
    f948:	4c 89 bc 24 20 05 00 	mov    QWORD PTR [rsp+0x520],r15
    f94f:	00 
    f950:	ff d0                	call   rax
    f952:	4c 8b bc 24 20 05 00 	mov    r15,QWORD PTR [rsp+0x520]
    f959:	00 
    f95a:	4c 89 ff             	mov    rdi,r15
    f95d:	48 81 c7 18 02 00 00 	add    rdi,0x218
    f964:	48 8b b4 24 f0 04 00 	mov    rsi,QWORD PTR [rsp+0x4f0]
    f96b:	00 
    f96c:	48 b8 00 00 00 00 00 	movabs rax,0x0
    f973:	00 00 00 
			f96e: R_X86_64_64	caml_initialize
    f976:	48 89 b4 24 f0 04 00 	mov    QWORD PTR [rsp+0x4f0],rsi
    f97d:	00 
    f97e:	48 89 bc 24 00 05 00 	mov    QWORD PTR [rsp+0x500],rdi
    f985:	00 
    f986:	4c 89 bc 24 10 05 00 	mov    QWORD PTR [rsp+0x510],r15
    f98d:	00 
    f98e:	ff d0                	call   rax
    f990:	4c 8b bc 24 10 05 00 	mov    r15,QWORD PTR [rsp+0x510]
    f997:	00 
    f998:	4c 89 ff             	mov    rdi,r15
    f99b:	48 81 c7 20 02 00 00 	add    rdi,0x220
    f9a2:	48 8b b4 24 d0 07 00 	mov    rsi,QWORD PTR [rsp+0x7d0]
    f9a9:	00 
    f9aa:	48 b8 00 00 00 00 00 	movabs rax,0x0
    f9b1:	00 00 00 
			f9ac: R_X86_64_64	caml_initialize
    f9b4:	48 89 b4 24 f0 04 00 	mov    QWORD PTR [rsp+0x4f0],rsi
    f9bb:	00 
    f9bc:	48 89 bc 24 00 05 00 	mov    QWORD PTR [rsp+0x500],rdi
    f9c3:	00 
    f9c4:	4c 89 bc 24 10 05 00 	mov    QWORD PTR [rsp+0x510],r15
    f9cb:	00 
    f9cc:	ff d0                	call   rax
    f9ce:	4c 8b bc 24 10 05 00 	mov    r15,QWORD PTR [rsp+0x510]
    f9d5:	00 
    f9d6:	4c 89 ff             	mov    rdi,r15
    f9d9:	48 81 c7 28 02 00 00 	add    rdi,0x228
    f9e0:	48 8b b4 24 e0 04 00 	mov    rsi,QWORD PTR [rsp+0x4e0]
    f9e7:	00 
    f9e8:	48 b8 00 00 00 00 00 	movabs rax,0x0
    f9ef:	00 00 00 
			f9ea: R_X86_64_64	caml_initialize
    f9f2:	48 89 b4 24 e0 04 00 	mov    QWORD PTR [rsp+0x4e0],rsi
    f9f9:	00 
    f9fa:	48 89 bc 24 f0 04 00 	mov    QWORD PTR [rsp+0x4f0],rdi
    fa01:	00 
    fa02:	4c 89 bc 24 00 05 00 	mov    QWORD PTR [rsp+0x500],r15
    fa09:	00 
    fa0a:	ff d0                	call   rax
    fa0c:	4c 8b bc 24 00 05 00 	mov    r15,QWORD PTR [rsp+0x500]
    fa13:	00 
    fa14:	4c 89 ff             	mov    rdi,r15
    fa17:	48 81 c7 30 02 00 00 	add    rdi,0x230
    fa1e:	48 8b b4 24 d8 07 00 	mov    rsi,QWORD PTR [rsp+0x7d8]
    fa25:	00 
    fa26:	48 b8 00 00 00 00 00 	movabs rax,0x0
    fa2d:	00 00 00 
			fa28: R_X86_64_64	caml_initialize
    fa30:	48 89 b4 24 e0 04 00 	mov    QWORD PTR [rsp+0x4e0],rsi
    fa37:	00 
    fa38:	48 89 bc 24 f0 04 00 	mov    QWORD PTR [rsp+0x4f0],rdi
    fa3f:	00 
    fa40:	4c 89 bc 24 00 05 00 	mov    QWORD PTR [rsp+0x500],r15
    fa47:	00 
    fa48:	ff d0                	call   rax
    fa4a:	4c 8b bc 24 00 05 00 	mov    r15,QWORD PTR [rsp+0x500]
    fa51:	00 
    fa52:	4c 89 ff             	mov    rdi,r15
    fa55:	48 81 c7 38 02 00 00 	add    rdi,0x238
    fa5c:	48 8b b4 24 d0 04 00 	mov    rsi,QWORD PTR [rsp+0x4d0]
    fa63:	00 
    fa64:	48 b8 00 00 00 00 00 	movabs rax,0x0
    fa6b:	00 00 00 
			fa66: R_X86_64_64	caml_initialize
    fa6e:	48 89 b4 24 d0 04 00 	mov    QWORD PTR [rsp+0x4d0],rsi
    fa75:	00 
    fa76:	48 89 bc 24 e0 04 00 	mov    QWORD PTR [rsp+0x4e0],rdi
    fa7d:	00 
    fa7e:	4c 89 bc 24 f0 04 00 	mov    QWORD PTR [rsp+0x4f0],r15
    fa85:	00 
    fa86:	ff d0                	call   rax
    fa88:	4c 8b bc 24 f0 04 00 	mov    r15,QWORD PTR [rsp+0x4f0]
    fa8f:	00 
    fa90:	4c 89 ff             	mov    rdi,r15
    fa93:	48 81 c7 40 02 00 00 	add    rdi,0x240
    fa9a:	48 8b b4 24 c8 06 00 	mov    rsi,QWORD PTR [rsp+0x6c8]
    faa1:	00 
    faa2:	48 b8 00 00 00 00 00 	movabs rax,0x0
    faa9:	00 00 00 
			faa4: R_X86_64_64	caml_initialize
    faac:	48 89 b4 24 d0 04 00 	mov    QWORD PTR [rsp+0x4d0],rsi
    fab3:	00 
    fab4:	48 89 bc 24 e0 04 00 	mov    QWORD PTR [rsp+0x4e0],rdi
    fabb:	00 
    fabc:	4c 89 bc 24 f0 04 00 	mov    QWORD PTR [rsp+0x4f0],r15
    fac3:	00 
    fac4:	ff d0                	call   rax
    fac6:	4c 8b bc 24 f0 04 00 	mov    r15,QWORD PTR [rsp+0x4f0]
    facd:	00 
    face:	4c 89 ff             	mov    rdi,r15
    fad1:	48 81 c7 48 02 00 00 	add    rdi,0x248
    fad8:	48 8b b4 24 c0 04 00 	mov    rsi,QWORD PTR [rsp+0x4c0]
    fadf:	00 
    fae0:	48 b8 00 00 00 00 00 	movabs rax,0x0
    fae7:	00 00 00 
			fae2: R_X86_64_64	caml_initialize
    faea:	48 89 b4 24 c0 04 00 	mov    QWORD PTR [rsp+0x4c0],rsi
    faf1:	00 
    faf2:	48 89 bc 24 d0 04 00 	mov    QWORD PTR [rsp+0x4d0],rdi
    faf9:	00 
    fafa:	4c 89 bc 24 e0 04 00 	mov    QWORD PTR [rsp+0x4e0],r15
    fb01:	00 
    fb02:	ff d0                	call   rax
    fb04:	4c 8b bc 24 e0 04 00 	mov    r15,QWORD PTR [rsp+0x4e0]
    fb0b:	00 
    fb0c:	4c 89 ff             	mov    rdi,r15
    fb0f:	48 81 c7 50 02 00 00 	add    rdi,0x250
    fb16:	48 8b b4 24 b8 06 00 	mov    rsi,QWORD PTR [rsp+0x6b8]
    fb1d:	00 
    fb1e:	48 b8 00 00 00 00 00 	movabs rax,0x0
    fb25:	00 00 00 
			fb20: R_X86_64_64	caml_initialize
    fb28:	48 89 b4 24 c0 04 00 	mov    QWORD PTR [rsp+0x4c0],rsi
    fb2f:	00 
    fb30:	48 89 bc 24 d0 04 00 	mov    QWORD PTR [rsp+0x4d0],rdi
    fb37:	00 
    fb38:	4c 89 bc 24 e0 04 00 	mov    QWORD PTR [rsp+0x4e0],r15
    fb3f:	00 
    fb40:	ff d0                	call   rax
    fb42:	4c 8b bc 24 e0 04 00 	mov    r15,QWORD PTR [rsp+0x4e0]
    fb49:	00 
    fb4a:	4c 89 ff             	mov    rdi,r15
    fb4d:	48 81 c7 58 02 00 00 	add    rdi,0x258
    fb54:	48 8b b4 24 b0 04 00 	mov    rsi,QWORD PTR [rsp+0x4b0]
    fb5b:	00 
    fb5c:	48 b8 00 00 00 00 00 	movabs rax,0x0
    fb63:	00 00 00 
			fb5e: R_X86_64_64	caml_initialize
    fb66:	48 89 b4 24 b0 04 00 	mov    QWORD PTR [rsp+0x4b0],rsi
    fb6d:	00 
    fb6e:	48 89 bc 24 c0 04 00 	mov    QWORD PTR [rsp+0x4c0],rdi
    fb75:	00 
    fb76:	4c 89 bc 24 d0 04 00 	mov    QWORD PTR [rsp+0x4d0],r15
    fb7d:	00 
    fb7e:	ff d0                	call   rax
    fb80:	4c 8b bc 24 d0 04 00 	mov    r15,QWORD PTR [rsp+0x4d0]
    fb87:	00 
    fb88:	4c 89 ff             	mov    rdi,r15
    fb8b:	48 81 c7 60 02 00 00 	add    rdi,0x260
    fb92:	48 8b b4 24 a8 06 00 	mov    rsi,QWORD PTR [rsp+0x6a8]
    fb99:	00 
    fb9a:	48 b8 00 00 00 00 00 	movabs rax,0x0
    fba1:	00 00 00 
			fb9c: R_X86_64_64	caml_initialize
    fba4:	48 89 b4 24 b0 04 00 	mov    QWORD PTR [rsp+0x4b0],rsi
    fbab:	00 
    fbac:	48 89 bc 24 c0 04 00 	mov    QWORD PTR [rsp+0x4c0],rdi
    fbb3:	00 
    fbb4:	4c 89 bc 24 d0 04 00 	mov    QWORD PTR [rsp+0x4d0],r15
    fbbb:	00 
    fbbc:	ff d0                	call   rax
    fbbe:	4c 8b bc 24 d0 04 00 	mov    r15,QWORD PTR [rsp+0x4d0]
    fbc5:	00 
    fbc6:	4c 89 ff             	mov    rdi,r15
    fbc9:	48 81 c7 68 02 00 00 	add    rdi,0x268
    fbd0:	48 8b b4 24 a0 04 00 	mov    rsi,QWORD PTR [rsp+0x4a0]
    fbd7:	00 
    fbd8:	48 b8 00 00 00 00 00 	movabs rax,0x0
    fbdf:	00 00 00 
			fbda: R_X86_64_64	caml_initialize
    fbe2:	48 89 b4 24 a0 04 00 	mov    QWORD PTR [rsp+0x4a0],rsi
    fbe9:	00 
    fbea:	48 89 bc 24 b0 04 00 	mov    QWORD PTR [rsp+0x4b0],rdi
    fbf1:	00 
    fbf2:	4c 89 bc 24 c0 04 00 	mov    QWORD PTR [rsp+0x4c0],r15
    fbf9:	00 
    fbfa:	ff d0                	call   rax
    fbfc:	4c 8b bc 24 c0 04 00 	mov    r15,QWORD PTR [rsp+0x4c0]
    fc03:	00 
    fc04:	4c 89 ff             	mov    rdi,r15
    fc07:	48 81 c7 70 02 00 00 	add    rdi,0x270
    fc0e:	48 8b b4 24 98 06 00 	mov    rsi,QWORD PTR [rsp+0x698]
    fc15:	00 
    fc16:	48 b8 00 00 00 00 00 	movabs rax,0x0
    fc1d:	00 00 00 
			fc18: R_X86_64_64	caml_initialize
    fc20:	48 89 b4 24 a0 04 00 	mov    QWORD PTR [rsp+0x4a0],rsi
    fc27:	00 
    fc28:	48 89 bc 24 b0 04 00 	mov    QWORD PTR [rsp+0x4b0],rdi
    fc2f:	00 
    fc30:	4c 89 bc 24 c0 04 00 	mov    QWORD PTR [rsp+0x4c0],r15
    fc37:	00 
    fc38:	ff d0                	call   rax
    fc3a:	4c 8b bc 24 c0 04 00 	mov    r15,QWORD PTR [rsp+0x4c0]
    fc41:	00 
    fc42:	4c 89 ff             	mov    rdi,r15
    fc45:	48 81 c7 78 02 00 00 	add    rdi,0x278
    fc4c:	48 8b b4 24 90 04 00 	mov    rsi,QWORD PTR [rsp+0x490]
    fc53:	00 
    fc54:	48 b8 00 00 00 00 00 	movabs rax,0x0
    fc5b:	00 00 00 
			fc56: R_X86_64_64	caml_initialize
    fc5e:	48 89 b4 24 90 04 00 	mov    QWORD PTR [rsp+0x490],rsi
    fc65:	00 
    fc66:	48 89 bc 24 a0 04 00 	mov    QWORD PTR [rsp+0x4a0],rdi
    fc6d:	00 
    fc6e:	4c 89 bc 24 b0 04 00 	mov    QWORD PTR [rsp+0x4b0],r15
    fc75:	00 
    fc76:	ff d0                	call   rax
    fc78:	4c 8b bc 24 b0 04 00 	mov    r15,QWORD PTR [rsp+0x4b0]
    fc7f:	00 
    fc80:	4c 89 ff             	mov    rdi,r15
    fc83:	48 81 c7 80 02 00 00 	add    rdi,0x280
    fc8a:	48 8b b4 24 88 06 00 	mov    rsi,QWORD PTR [rsp+0x688]
    fc91:	00 
    fc92:	48 b8 00 00 00 00 00 	movabs rax,0x0
    fc99:	00 00 00 
			fc94: R_X86_64_64	caml_initialize
    fc9c:	48 89 b4 24 90 04 00 	mov    QWORD PTR [rsp+0x490],rsi
    fca3:	00 
    fca4:	48 89 bc 24 a0 04 00 	mov    QWORD PTR [rsp+0x4a0],rdi
    fcab:	00 
    fcac:	4c 89 bc 24 b0 04 00 	mov    QWORD PTR [rsp+0x4b0],r15
    fcb3:	00 
    fcb4:	ff d0                	call   rax
    fcb6:	4c 8b bc 24 b0 04 00 	mov    r15,QWORD PTR [rsp+0x4b0]
    fcbd:	00 
    fcbe:	4c 89 ff             	mov    rdi,r15
    fcc1:	48 81 c7 88 02 00 00 	add    rdi,0x288
    fcc8:	48 8b b4 24 80 04 00 	mov    rsi,QWORD PTR [rsp+0x480]
    fccf:	00 
    fcd0:	48 b8 00 00 00 00 00 	movabs rax,0x0
    fcd7:	00 00 00 
			fcd2: R_X86_64_64	caml_initialize
    fcda:	48 89 b4 24 80 04 00 	mov    QWORD PTR [rsp+0x480],rsi
    fce1:	00 
    fce2:	48 89 bc 24 90 04 00 	mov    QWORD PTR [rsp+0x490],rdi
    fce9:	00 
    fcea:	4c 89 bc 24 a0 04 00 	mov    QWORD PTR [rsp+0x4a0],r15
    fcf1:	00 
    fcf2:	ff d0                	call   rax
    fcf4:	4c 8b bc 24 a0 04 00 	mov    r15,QWORD PTR [rsp+0x4a0]
    fcfb:	00 
    fcfc:	4c 89 ff             	mov    rdi,r15
    fcff:	48 81 c7 90 02 00 00 	add    rdi,0x290
    fd06:	48 8b b4 24 78 06 00 	mov    rsi,QWORD PTR [rsp+0x678]
    fd0d:	00 
    fd0e:	48 b8 00 00 00 00 00 	movabs rax,0x0
    fd15:	00 00 00 
			fd10: R_X86_64_64	caml_initialize
    fd18:	48 89 b4 24 80 04 00 	mov    QWORD PTR [rsp+0x480],rsi
    fd1f:	00 
    fd20:	48 89 bc 24 90 04 00 	mov    QWORD PTR [rsp+0x490],rdi
    fd27:	00 
    fd28:	4c 89 bc 24 a0 04 00 	mov    QWORD PTR [rsp+0x4a0],r15
    fd2f:	00 
    fd30:	ff d0                	call   rax
    fd32:	4c 8b bc 24 a0 04 00 	mov    r15,QWORD PTR [rsp+0x4a0]
    fd39:	00 
    fd3a:	4c 89 ff             	mov    rdi,r15
    fd3d:	48 81 c7 98 02 00 00 	add    rdi,0x298
    fd44:	48 8b b4 24 70 04 00 	mov    rsi,QWORD PTR [rsp+0x470]
    fd4b:	00 
    fd4c:	48 b8 00 00 00 00 00 	movabs rax,0x0
    fd53:	00 00 00 
			fd4e: R_X86_64_64	caml_initialize
    fd56:	48 89 b4 24 70 04 00 	mov    QWORD PTR [rsp+0x470],rsi
    fd5d:	00 
    fd5e:	48 89 bc 24 80 04 00 	mov    QWORD PTR [rsp+0x480],rdi
    fd65:	00 
    fd66:	4c 89 bc 24 90 04 00 	mov    QWORD PTR [rsp+0x490],r15
    fd6d:	00 
    fd6e:	ff d0                	call   rax
    fd70:	4c 8b bc 24 90 04 00 	mov    r15,QWORD PTR [rsp+0x490]
    fd77:	00 
    fd78:	4c 89 ff             	mov    rdi,r15
    fd7b:	48 81 c7 a0 02 00 00 	add    rdi,0x2a0
    fd82:	48 8b b4 24 68 06 00 	mov    rsi,QWORD PTR [rsp+0x668]
    fd89:	00 
    fd8a:	48 b8 00 00 00 00 00 	movabs rax,0x0
    fd91:	00 00 00 
			fd8c: R_X86_64_64	caml_initialize
    fd94:	48 89 b4 24 70 04 00 	mov    QWORD PTR [rsp+0x470],rsi
    fd9b:	00 
    fd9c:	48 89 bc 24 80 04 00 	mov    QWORD PTR [rsp+0x480],rdi
    fda3:	00 
    fda4:	4c 89 bc 24 90 04 00 	mov    QWORD PTR [rsp+0x490],r15
    fdab:	00 
    fdac:	ff d0                	call   rax
    fdae:	4c 8b bc 24 90 04 00 	mov    r15,QWORD PTR [rsp+0x490]
    fdb5:	00 
    fdb6:	4c 89 ff             	mov    rdi,r15
    fdb9:	48 81 c7 a8 02 00 00 	add    rdi,0x2a8
    fdc0:	48 8b b4 24 60 04 00 	mov    rsi,QWORD PTR [rsp+0x460]
    fdc7:	00 
    fdc8:	48 b8 00 00 00 00 00 	movabs rax,0x0
    fdcf:	00 00 00 
			fdca: R_X86_64_64	caml_initialize
    fdd2:	48 89 b4 24 60 04 00 	mov    QWORD PTR [rsp+0x460],rsi
    fdd9:	00 
    fdda:	48 89 bc 24 70 04 00 	mov    QWORD PTR [rsp+0x470],rdi
    fde1:	00 
    fde2:	4c 89 bc 24 80 04 00 	mov    QWORD PTR [rsp+0x480],r15
    fde9:	00 
    fdea:	ff d0                	call   rax
    fdec:	4c 8b bc 24 80 04 00 	mov    r15,QWORD PTR [rsp+0x480]
    fdf3:	00 
    fdf4:	4c 89 ff             	mov    rdi,r15
    fdf7:	48 81 c7 b0 02 00 00 	add    rdi,0x2b0
    fdfe:	48 8b b4 24 58 06 00 	mov    rsi,QWORD PTR [rsp+0x658]
    fe05:	00 
    fe06:	48 b8 00 00 00 00 00 	movabs rax,0x0
    fe0d:	00 00 00 
			fe08: R_X86_64_64	caml_initialize
    fe10:	48 89 b4 24 60 04 00 	mov    QWORD PTR [rsp+0x460],rsi
    fe17:	00 
    fe18:	48 89 bc 24 70 04 00 	mov    QWORD PTR [rsp+0x470],rdi
    fe1f:	00 
    fe20:	4c 89 bc 24 80 04 00 	mov    QWORD PTR [rsp+0x480],r15
    fe27:	00 
    fe28:	ff d0                	call   rax
    fe2a:	4c 8b bc 24 80 04 00 	mov    r15,QWORD PTR [rsp+0x480]
    fe31:	00 
    fe32:	4c 89 ff             	mov    rdi,r15
    fe35:	48 81 c7 b8 02 00 00 	add    rdi,0x2b8
    fe3c:	48 8b b4 24 50 04 00 	mov    rsi,QWORD PTR [rsp+0x450]
    fe43:	00 
    fe44:	48 b8 00 00 00 00 00 	movabs rax,0x0
    fe4b:	00 00 00 
			fe46: R_X86_64_64	caml_initialize
    fe4e:	48 89 b4 24 50 04 00 	mov    QWORD PTR [rsp+0x450],rsi
    fe55:	00 
    fe56:	48 89 bc 24 60 04 00 	mov    QWORD PTR [rsp+0x460],rdi
    fe5d:	00 
    fe5e:	4c 89 bc 24 70 04 00 	mov    QWORD PTR [rsp+0x470],r15
    fe65:	00 
    fe66:	ff d0                	call   rax
    fe68:	4c 8b bc 24 70 04 00 	mov    r15,QWORD PTR [rsp+0x470]
    fe6f:	00 
    fe70:	4c 89 ff             	mov    rdi,r15
    fe73:	48 81 c7 c0 02 00 00 	add    rdi,0x2c0
    fe7a:	48 8b b4 24 48 06 00 	mov    rsi,QWORD PTR [rsp+0x648]
    fe81:	00 
    fe82:	48 b8 00 00 00 00 00 	movabs rax,0x0
    fe89:	00 00 00 
			fe84: R_X86_64_64	caml_initialize
    fe8c:	48 89 b4 24 50 04 00 	mov    QWORD PTR [rsp+0x450],rsi
    fe93:	00 
    fe94:	48 89 bc 24 60 04 00 	mov    QWORD PTR [rsp+0x460],rdi
    fe9b:	00 
    fe9c:	4c 89 bc 24 70 04 00 	mov    QWORD PTR [rsp+0x470],r15
    fea3:	00 
    fea4:	ff d0                	call   rax
    fea6:	4c 8b bc 24 70 04 00 	mov    r15,QWORD PTR [rsp+0x470]
    fead:	00 
    feae:	4c 89 ff             	mov    rdi,r15
    feb1:	48 81 c7 c8 02 00 00 	add    rdi,0x2c8
    feb8:	48 8b b4 24 40 04 00 	mov    rsi,QWORD PTR [rsp+0x440]
    febf:	00 
    fec0:	48 b8 00 00 00 00 00 	movabs rax,0x0
    fec7:	00 00 00 
			fec2: R_X86_64_64	caml_initialize
    feca:	48 89 b4 24 40 04 00 	mov    QWORD PTR [rsp+0x440],rsi
    fed1:	00 
    fed2:	48 89 bc 24 50 04 00 	mov    QWORD PTR [rsp+0x450],rdi
    fed9:	00 
    feda:	4c 89 bc 24 60 04 00 	mov    QWORD PTR [rsp+0x460],r15
    fee1:	00 
    fee2:	ff d0                	call   rax
    fee4:	4c 8b bc 24 60 04 00 	mov    r15,QWORD PTR [rsp+0x460]
    feeb:	00 
    feec:	4c 89 ff             	mov    rdi,r15
    feef:	48 81 c7 d0 02 00 00 	add    rdi,0x2d0
    fef6:	48 8b b4 24 38 06 00 	mov    rsi,QWORD PTR [rsp+0x638]
    fefd:	00 
    fefe:	48 b8 00 00 00 00 00 	movabs rax,0x0
    ff05:	00 00 00 
			ff00: R_X86_64_64	caml_initialize
    ff08:	48 89 b4 24 40 04 00 	mov    QWORD PTR [rsp+0x440],rsi
    ff0f:	00 
    ff10:	48 89 bc 24 50 04 00 	mov    QWORD PTR [rsp+0x450],rdi
    ff17:	00 
    ff18:	4c 89 bc 24 60 04 00 	mov    QWORD PTR [rsp+0x460],r15
    ff1f:	00 
    ff20:	ff d0                	call   rax
    ff22:	4c 8b bc 24 60 04 00 	mov    r15,QWORD PTR [rsp+0x460]
    ff29:	00 
    ff2a:	4c 89 ff             	mov    rdi,r15
    ff2d:	48 81 c7 d8 02 00 00 	add    rdi,0x2d8
    ff34:	48 8b b4 24 30 04 00 	mov    rsi,QWORD PTR [rsp+0x430]
    ff3b:	00 
    ff3c:	48 b8 00 00 00 00 00 	movabs rax,0x0
    ff43:	00 00 00 
			ff3e: R_X86_64_64	caml_initialize
    ff46:	48 89 b4 24 30 04 00 	mov    QWORD PTR [rsp+0x430],rsi
    ff4d:	00 
    ff4e:	48 89 bc 24 40 04 00 	mov    QWORD PTR [rsp+0x440],rdi
    ff55:	00 
    ff56:	4c 89 bc 24 50 04 00 	mov    QWORD PTR [rsp+0x450],r15
    ff5d:	00 
    ff5e:	ff d0                	call   rax
    ff60:	4c 8b bc 24 50 04 00 	mov    r15,QWORD PTR [rsp+0x450]
    ff67:	00 
    ff68:	4c 89 ff             	mov    rdi,r15
    ff6b:	48 81 c7 e0 02 00 00 	add    rdi,0x2e0
    ff72:	48 8b b4 24 28 06 00 	mov    rsi,QWORD PTR [rsp+0x628]
    ff79:	00 
    ff7a:	48 b8 00 00 00 00 00 	movabs rax,0x0
    ff81:	00 00 00 
			ff7c: R_X86_64_64	caml_initialize
    ff84:	48 89 b4 24 30 04 00 	mov    QWORD PTR [rsp+0x430],rsi
    ff8b:	00 
    ff8c:	48 89 bc 24 40 04 00 	mov    QWORD PTR [rsp+0x440],rdi
    ff93:	00 
    ff94:	4c 89 bc 24 50 04 00 	mov    QWORD PTR [rsp+0x450],r15
    ff9b:	00 
    ff9c:	ff d0                	call   rax
    ff9e:	4c 8b bc 24 50 04 00 	mov    r15,QWORD PTR [rsp+0x450]
    ffa5:	00 
    ffa6:	4c 89 ff             	mov    rdi,r15
    ffa9:	48 81 c7 e8 02 00 00 	add    rdi,0x2e8
    ffb0:	48 8b b4 24 20 04 00 	mov    rsi,QWORD PTR [rsp+0x420]
    ffb7:	00 
    ffb8:	48 b8 00 00 00 00 00 	movabs rax,0x0
    ffbf:	00 00 00 
			ffba: R_X86_64_64	caml_initialize
    ffc2:	48 89 b4 24 20 04 00 	mov    QWORD PTR [rsp+0x420],rsi
    ffc9:	00 
    ffca:	48 89 bc 24 30 04 00 	mov    QWORD PTR [rsp+0x430],rdi
    ffd1:	00 
    ffd2:	4c 89 bc 24 40 04 00 	mov    QWORD PTR [rsp+0x440],r15
    ffd9:	00 
    ffda:	ff d0                	call   rax
    ffdc:	4c 8b bc 24 40 04 00 	mov    r15,QWORD PTR [rsp+0x440]
    ffe3:	00 
    ffe4:	4c 89 ff             	mov    rdi,r15
    ffe7:	48 81 c7 f0 02 00 00 	add    rdi,0x2f0
    ffee:	48 8b b4 24 18 06 00 	mov    rsi,QWORD PTR [rsp+0x618]
    fff5:	00 
    fff6:	48 b8 00 00 00 00 00 	movabs rax,0x0
    fffd:	00 00 00 
			fff8: R_X86_64_64	caml_initialize
   10000:	48 89 b4 24 20 04 00 	mov    QWORD PTR [rsp+0x420],rsi
   10007:	00 
   10008:	48 89 bc 24 30 04 00 	mov    QWORD PTR [rsp+0x430],rdi
   1000f:	00 
   10010:	4c 89 bc 24 40 04 00 	mov    QWORD PTR [rsp+0x440],r15
   10017:	00 
   10018:	ff d0                	call   rax
   1001a:	4c 8b bc 24 40 04 00 	mov    r15,QWORD PTR [rsp+0x440]
   10021:	00 
   10022:	4c 89 ff             	mov    rdi,r15
   10025:	48 81 c7 f8 02 00 00 	add    rdi,0x2f8
   1002c:	48 8b b4 24 10 04 00 	mov    rsi,QWORD PTR [rsp+0x410]
   10033:	00 
   10034:	48 b8 00 00 00 00 00 	movabs rax,0x0
   1003b:	00 00 00 
			10036: R_X86_64_64	caml_initialize
   1003e:	48 89 b4 24 10 04 00 	mov    QWORD PTR [rsp+0x410],rsi
   10045:	00 
   10046:	48 89 bc 24 20 04 00 	mov    QWORD PTR [rsp+0x420],rdi
   1004d:	00 
   1004e:	4c 89 bc 24 30 04 00 	mov    QWORD PTR [rsp+0x430],r15
   10055:	00 
   10056:	ff d0                	call   rax
   10058:	4c 8b bc 24 30 04 00 	mov    r15,QWORD PTR [rsp+0x430]
   1005f:	00 
   10060:	4c 89 ff             	mov    rdi,r15
   10063:	48 81 c7 00 03 00 00 	add    rdi,0x300
   1006a:	48 8b b4 24 08 06 00 	mov    rsi,QWORD PTR [rsp+0x608]
   10071:	00 
   10072:	48 b8 00 00 00 00 00 	movabs rax,0x0
   10079:	00 00 00 
			10074: R_X86_64_64	caml_initialize
   1007c:	48 89 b4 24 10 04 00 	mov    QWORD PTR [rsp+0x410],rsi
   10083:	00 
   10084:	48 89 bc 24 20 04 00 	mov    QWORD PTR [rsp+0x420],rdi
   1008b:	00 
   1008c:	4c 89 bc 24 30 04 00 	mov    QWORD PTR [rsp+0x430],r15
   10093:	00 
   10094:	ff d0                	call   rax
   10096:	4c 8b bc 24 30 04 00 	mov    r15,QWORD PTR [rsp+0x430]
   1009d:	00 
   1009e:	4c 89 ff             	mov    rdi,r15
   100a1:	48 81 c7 08 03 00 00 	add    rdi,0x308
   100a8:	48 8b b4 24 00 04 00 	mov    rsi,QWORD PTR [rsp+0x400]
   100af:	00 
   100b0:	48 b8 00 00 00 00 00 	movabs rax,0x0
   100b7:	00 00 00 
			100b2: R_X86_64_64	caml_initialize
   100ba:	48 89 b4 24 00 04 00 	mov    QWORD PTR [rsp+0x400],rsi
   100c1:	00 
   100c2:	48 89 bc 24 10 04 00 	mov    QWORD PTR [rsp+0x410],rdi
   100c9:	00 
   100ca:	4c 89 bc 24 20 04 00 	mov    QWORD PTR [rsp+0x420],r15
   100d1:	00 
   100d2:	ff d0                	call   rax
   100d4:	4c 8b bc 24 20 04 00 	mov    r15,QWORD PTR [rsp+0x420]
   100db:	00 
   100dc:	4c 89 ff             	mov    rdi,r15
   100df:	48 81 c7 10 03 00 00 	add    rdi,0x310
   100e6:	48 8b b4 24 f8 05 00 	mov    rsi,QWORD PTR [rsp+0x5f8]
   100ed:	00 
   100ee:	48 b8 00 00 00 00 00 	movabs rax,0x0
   100f5:	00 00 00 
			100f0: R_X86_64_64	caml_initialize
   100f8:	48 89 b4 24 00 04 00 	mov    QWORD PTR [rsp+0x400],rsi
   100ff:	00 
   10100:	48 89 bc 24 10 04 00 	mov    QWORD PTR [rsp+0x410],rdi
   10107:	00 
   10108:	4c 89 bc 24 20 04 00 	mov    QWORD PTR [rsp+0x420],r15
   1010f:	00 
   10110:	ff d0                	call   rax
   10112:	4c 8b bc 24 20 04 00 	mov    r15,QWORD PTR [rsp+0x420]
   10119:	00 
   1011a:	4c 89 ff             	mov    rdi,r15
   1011d:	48 81 c7 18 03 00 00 	add    rdi,0x318
   10124:	48 8b b4 24 f0 03 00 	mov    rsi,QWORD PTR [rsp+0x3f0]
   1012b:	00 
   1012c:	48 b8 00 00 00 00 00 	movabs rax,0x0
   10133:	00 00 00 
			1012e: R_X86_64_64	caml_initialize
   10136:	48 89 b4 24 f0 03 00 	mov    QWORD PTR [rsp+0x3f0],rsi
   1013d:	00 
   1013e:	48 89 bc 24 00 04 00 	mov    QWORD PTR [rsp+0x400],rdi
   10145:	00 
   10146:	4c 89 bc 24 10 04 00 	mov    QWORD PTR [rsp+0x410],r15
   1014d:	00 
   1014e:	ff d0                	call   rax
   10150:	4c 8b bc 24 10 04 00 	mov    r15,QWORD PTR [rsp+0x410]
   10157:	00 
   10158:	4c 89 ff             	mov    rdi,r15
   1015b:	48 81 c7 20 03 00 00 	add    rdi,0x320
   10162:	48 8b b4 24 e8 05 00 	mov    rsi,QWORD PTR [rsp+0x5e8]
   10169:	00 
   1016a:	48 b8 00 00 00 00 00 	movabs rax,0x0
   10171:	00 00 00 
			1016c: R_X86_64_64	caml_initialize
   10174:	48 89 b4 24 f0 03 00 	mov    QWORD PTR [rsp+0x3f0],rsi
   1017b:	00 
   1017c:	48 89 bc 24 00 04 00 	mov    QWORD PTR [rsp+0x400],rdi
   10183:	00 
   10184:	4c 89 bc 24 10 04 00 	mov    QWORD PTR [rsp+0x410],r15
   1018b:	00 
   1018c:	ff d0                	call   rax
   1018e:	4c 8b bc 24 10 04 00 	mov    r15,QWORD PTR [rsp+0x410]
   10195:	00 
   10196:	4c 89 ff             	mov    rdi,r15
   10199:	48 81 c7 28 03 00 00 	add    rdi,0x328
   101a0:	48 8b b4 24 e0 03 00 	mov    rsi,QWORD PTR [rsp+0x3e0]
   101a7:	00 
   101a8:	48 b8 00 00 00 00 00 	movabs rax,0x0
   101af:	00 00 00 
			101aa: R_X86_64_64	caml_initialize
   101b2:	48 89 b4 24 e0 03 00 	mov    QWORD PTR [rsp+0x3e0],rsi
   101b9:	00 
   101ba:	48 89 bc 24 f0 03 00 	mov    QWORD PTR [rsp+0x3f0],rdi
   101c1:	00 
   101c2:	4c 89 bc 24 00 04 00 	mov    QWORD PTR [rsp+0x400],r15
   101c9:	00 
   101ca:	ff d0                	call   rax
   101cc:	4c 8b bc 24 00 04 00 	mov    r15,QWORD PTR [rsp+0x400]
   101d3:	00 
   101d4:	4c 89 ff             	mov    rdi,r15
   101d7:	48 81 c7 30 03 00 00 	add    rdi,0x330
   101de:	48 8b b4 24 c8 05 00 	mov    rsi,QWORD PTR [rsp+0x5c8]
   101e5:	00 
   101e6:	48 b8 00 00 00 00 00 	movabs rax,0x0
   101ed:	00 00 00 
			101e8: R_X86_64_64	caml_initialize
   101f0:	48 89 b4 24 e0 03 00 	mov    QWORD PTR [rsp+0x3e0],rsi
   101f7:	00 
   101f8:	48 89 bc 24 f0 03 00 	mov    QWORD PTR [rsp+0x3f0],rdi
   101ff:	00 
   10200:	4c 89 bc 24 00 04 00 	mov    QWORD PTR [rsp+0x400],r15
   10207:	00 
   10208:	ff d0                	call   rax
   1020a:	4c 8b bc 24 00 04 00 	mov    r15,QWORD PTR [rsp+0x400]
   10211:	00 
   10212:	4c 89 ff             	mov    rdi,r15
   10215:	48 81 c7 38 03 00 00 	add    rdi,0x338
   1021c:	48 8b b4 24 d0 03 00 	mov    rsi,QWORD PTR [rsp+0x3d0]
   10223:	00 
   10224:	48 b8 00 00 00 00 00 	movabs rax,0x0
   1022b:	00 00 00 
			10226: R_X86_64_64	caml_initialize
   1022e:	48 89 b4 24 d0 03 00 	mov    QWORD PTR [rsp+0x3d0],rsi
   10235:	00 
   10236:	48 89 bc 24 e0 03 00 	mov    QWORD PTR [rsp+0x3e0],rdi
   1023d:	00 
   1023e:	4c 89 bc 24 f0 03 00 	mov    QWORD PTR [rsp+0x3f0],r15
   10245:	00 
   10246:	ff d0                	call   rax
   10248:	4c 8b bc 24 f0 03 00 	mov    r15,QWORD PTR [rsp+0x3f0]
   1024f:	00 
   10250:	4c 89 ff             	mov    rdi,r15
   10253:	48 81 c7 40 03 00 00 	add    rdi,0x340
   1025a:	48 8b b4 24 b8 05 00 	mov    rsi,QWORD PTR [rsp+0x5b8]
   10261:	00 
   10262:	48 b8 00 00 00 00 00 	movabs rax,0x0
   10269:	00 00 00 
			10264: R_X86_64_64	caml_initialize
   1026c:	48 89 b4 24 d0 03 00 	mov    QWORD PTR [rsp+0x3d0],rsi
   10273:	00 
   10274:	48 89 bc 24 e0 03 00 	mov    QWORD PTR [rsp+0x3e0],rdi
   1027b:	00 
   1027c:	4c 89 bc 24 f0 03 00 	mov    QWORD PTR [rsp+0x3f0],r15
   10283:	00 
   10284:	ff d0                	call   rax
   10286:	4c 8b bc 24 f0 03 00 	mov    r15,QWORD PTR [rsp+0x3f0]
   1028d:	00 
   1028e:	4c 89 ff             	mov    rdi,r15
   10291:	48 81 c7 48 03 00 00 	add    rdi,0x348
   10298:	48 8b b4 24 c0 03 00 	mov    rsi,QWORD PTR [rsp+0x3c0]
   1029f:	00 
   102a0:	48 b8 00 00 00 00 00 	movabs rax,0x0
   102a7:	00 00 00 
			102a2: R_X86_64_64	caml_initialize
   102aa:	48 89 b4 24 c0 03 00 	mov    QWORD PTR [rsp+0x3c0],rsi
   102b1:	00 
   102b2:	48 89 bc 24 d0 03 00 	mov    QWORD PTR [rsp+0x3d0],rdi
   102b9:	00 
   102ba:	4c 89 bc 24 e0 03 00 	mov    QWORD PTR [rsp+0x3e0],r15
   102c1:	00 
   102c2:	ff d0                	call   rax
   102c4:	4c 8b bc 24 e0 03 00 	mov    r15,QWORD PTR [rsp+0x3e0]
   102cb:	00 
   102cc:	4c 89 ff             	mov    rdi,r15
   102cf:	48 81 c7 50 03 00 00 	add    rdi,0x350
   102d6:	48 8b b4 24 a8 05 00 	mov    rsi,QWORD PTR [rsp+0x5a8]
   102dd:	00 
   102de:	48 b8 00 00 00 00 00 	movabs rax,0x0
   102e5:	00 00 00 
			102e0: R_X86_64_64	caml_initialize
   102e8:	48 89 b4 24 c0 03 00 	mov    QWORD PTR [rsp+0x3c0],rsi
   102ef:	00 
   102f0:	48 89 bc 24 d0 03 00 	mov    QWORD PTR [rsp+0x3d0],rdi
   102f7:	00 
   102f8:	4c 89 bc 24 e0 03 00 	mov    QWORD PTR [rsp+0x3e0],r15
   102ff:	00 
   10300:	ff d0                	call   rax
   10302:	4c 8b bc 24 e0 03 00 	mov    r15,QWORD PTR [rsp+0x3e0]
   10309:	00 
   1030a:	4c 89 ff             	mov    rdi,r15
   1030d:	48 81 c7 58 03 00 00 	add    rdi,0x358
   10314:	48 8b b4 24 b0 03 00 	mov    rsi,QWORD PTR [rsp+0x3b0]
   1031b:	00 
   1031c:	48 b8 00 00 00 00 00 	movabs rax,0x0
   10323:	00 00 00 
			1031e: R_X86_64_64	caml_initialize
   10326:	48 89 b4 24 b0 03 00 	mov    QWORD PTR [rsp+0x3b0],rsi
   1032d:	00 
   1032e:	48 89 bc 24 c0 03 00 	mov    QWORD PTR [rsp+0x3c0],rdi
   10335:	00 
   10336:	4c 89 bc 24 d0 03 00 	mov    QWORD PTR [rsp+0x3d0],r15
   1033d:	00 
   1033e:	ff d0                	call   rax
   10340:	4c 8b bc 24 d0 03 00 	mov    r15,QWORD PTR [rsp+0x3d0]
   10347:	00 
   10348:	4c 89 ff             	mov    rdi,r15
   1034b:	48 81 c7 60 03 00 00 	add    rdi,0x360
   10352:	48 8b b4 24 98 05 00 	mov    rsi,QWORD PTR [rsp+0x598]
   10359:	00 
   1035a:	48 b8 00 00 00 00 00 	movabs rax,0x0
   10361:	00 00 00 
			1035c: R_X86_64_64	caml_initialize
   10364:	48 89 b4 24 b0 03 00 	mov    QWORD PTR [rsp+0x3b0],rsi
   1036b:	00 
   1036c:	48 89 bc 24 c0 03 00 	mov    QWORD PTR [rsp+0x3c0],rdi
   10373:	00 
   10374:	4c 89 bc 24 d0 03 00 	mov    QWORD PTR [rsp+0x3d0],r15
   1037b:	00 
   1037c:	ff d0                	call   rax
   1037e:	4c 8b bc 24 d0 03 00 	mov    r15,QWORD PTR [rsp+0x3d0]
   10385:	00 
   10386:	4c 89 ff             	mov    rdi,r15
   10389:	48 81 c7 68 03 00 00 	add    rdi,0x368
   10390:	48 8b b4 24 a0 03 00 	mov    rsi,QWORD PTR [rsp+0x3a0]
   10397:	00 
   10398:	48 b8 00 00 00 00 00 	movabs rax,0x0
   1039f:	00 00 00 
			1039a: R_X86_64_64	caml_initialize
   103a2:	48 89 b4 24 a0 03 00 	mov    QWORD PTR [rsp+0x3a0],rsi
   103a9:	00 
   103aa:	48 89 bc 24 b0 03 00 	mov    QWORD PTR [rsp+0x3b0],rdi
   103b1:	00 
   103b2:	4c 89 bc 24 c0 03 00 	mov    QWORD PTR [rsp+0x3c0],r15
   103b9:	00 
   103ba:	ff d0                	call   rax
   103bc:	4c 8b bc 24 c0 03 00 	mov    r15,QWORD PTR [rsp+0x3c0]
   103c3:	00 
   103c4:	4c 89 ff             	mov    rdi,r15
   103c7:	48 81 c7 70 03 00 00 	add    rdi,0x370
   103ce:	48 8b b4 24 88 05 00 	mov    rsi,QWORD PTR [rsp+0x588]
   103d5:	00 
   103d6:	48 b8 00 00 00 00 00 	movabs rax,0x0
   103dd:	00 00 00 
			103d8: R_X86_64_64	caml_initialize
   103e0:	48 89 b4 24 a0 03 00 	mov    QWORD PTR [rsp+0x3a0],rsi
   103e7:	00 
   103e8:	48 89 bc 24 b0 03 00 	mov    QWORD PTR [rsp+0x3b0],rdi
   103ef:	00 
   103f0:	4c 89 bc 24 c0 03 00 	mov    QWORD PTR [rsp+0x3c0],r15
   103f7:	00 
   103f8:	ff d0                	call   rax
   103fa:	4c 8b bc 24 c0 03 00 	mov    r15,QWORD PTR [rsp+0x3c0]
   10401:	00 
   10402:	4c 89 ff             	mov    rdi,r15
   10405:	48 81 c7 78 03 00 00 	add    rdi,0x378
   1040c:	48 8b b4 24 90 03 00 	mov    rsi,QWORD PTR [rsp+0x390]
   10413:	00 
   10414:	48 b8 00 00 00 00 00 	movabs rax,0x0
   1041b:	00 00 00 
			10416: R_X86_64_64	caml_initialize
   1041e:	48 89 b4 24 90 03 00 	mov    QWORD PTR [rsp+0x390],rsi
   10425:	00 
   10426:	48 89 bc 24 a0 03 00 	mov    QWORD PTR [rsp+0x3a0],rdi
   1042d:	00 
   1042e:	4c 89 bc 24 b0 03 00 	mov    QWORD PTR [rsp+0x3b0],r15
   10435:	00 
   10436:	ff d0                	call   rax
   10438:	4c 8b bc 24 b0 03 00 	mov    r15,QWORD PTR [rsp+0x3b0]
   1043f:	00 
   10440:	4c 89 ff             	mov    rdi,r15
   10443:	48 81 c7 80 03 00 00 	add    rdi,0x380
   1044a:	48 8b b4 24 78 05 00 	mov    rsi,QWORD PTR [rsp+0x578]
   10451:	00 
   10452:	48 b8 00 00 00 00 00 	movabs rax,0x0
   10459:	00 00 00 
			10454: R_X86_64_64	caml_initialize
   1045c:	48 89 b4 24 90 03 00 	mov    QWORD PTR [rsp+0x390],rsi
   10463:	00 
   10464:	48 89 bc 24 a0 03 00 	mov    QWORD PTR [rsp+0x3a0],rdi
   1046b:	00 
   1046c:	4c 89 bc 24 b0 03 00 	mov    QWORD PTR [rsp+0x3b0],r15
   10473:	00 
   10474:	ff d0                	call   rax
   10476:	4c 8b bc 24 b0 03 00 	mov    r15,QWORD PTR [rsp+0x3b0]
   1047d:	00 
   1047e:	4c 89 ff             	mov    rdi,r15
   10481:	48 81 c7 88 03 00 00 	add    rdi,0x388
   10488:	48 8b b4 24 80 03 00 	mov    rsi,QWORD PTR [rsp+0x380]
   1048f:	00 
   10490:	48 b8 00 00 00 00 00 	movabs rax,0x0
   10497:	00 00 00 
			10492: R_X86_64_64	caml_initialize
   1049a:	48 89 b4 24 80 03 00 	mov    QWORD PTR [rsp+0x380],rsi
   104a1:	00 
   104a2:	48 89 bc 24 90 03 00 	mov    QWORD PTR [rsp+0x390],rdi
   104a9:	00 
   104aa:	4c 89 bc 24 a0 03 00 	mov    QWORD PTR [rsp+0x3a0],r15
   104b1:	00 
   104b2:	ff d0                	call   rax
   104b4:	4c 8b bc 24 a0 03 00 	mov    r15,QWORD PTR [rsp+0x3a0]
   104bb:	00 
   104bc:	4c 89 ff             	mov    rdi,r15
   104bf:	48 81 c7 90 03 00 00 	add    rdi,0x390
   104c6:	48 8b b4 24 68 05 00 	mov    rsi,QWORD PTR [rsp+0x568]
   104cd:	00 
   104ce:	48 b8 00 00 00 00 00 	movabs rax,0x0
   104d5:	00 00 00 
			104d0: R_X86_64_64	caml_initialize
   104d8:	48 89 b4 24 80 03 00 	mov    QWORD PTR [rsp+0x380],rsi
   104df:	00 
   104e0:	48 89 bc 24 90 03 00 	mov    QWORD PTR [rsp+0x390],rdi
   104e7:	00 
   104e8:	4c 89 bc 24 a0 03 00 	mov    QWORD PTR [rsp+0x3a0],r15
   104ef:	00 
   104f0:	ff d0                	call   rax
   104f2:	4c 8b bc 24 a0 03 00 	mov    r15,QWORD PTR [rsp+0x3a0]
   104f9:	00 
   104fa:	4c 89 ff             	mov    rdi,r15
   104fd:	48 81 c7 98 03 00 00 	add    rdi,0x398
   10504:	48 8b b4 24 70 03 00 	mov    rsi,QWORD PTR [rsp+0x370]
   1050b:	00 
   1050c:	48 b8 00 00 00 00 00 	movabs rax,0x0
   10513:	00 00 00 
			1050e: R_X86_64_64	caml_initialize
   10516:	48 89 b4 24 70 03 00 	mov    QWORD PTR [rsp+0x370],rsi
   1051d:	00 
   1051e:	48 89 bc 24 80 03 00 	mov    QWORD PTR [rsp+0x380],rdi
   10525:	00 
   10526:	4c 89 bc 24 90 03 00 	mov    QWORD PTR [rsp+0x390],r15
   1052d:	00 
   1052e:	ff d0                	call   rax
   10530:	4c 8b bc 24 90 03 00 	mov    r15,QWORD PTR [rsp+0x390]
   10537:	00 
   10538:	4c 89 ff             	mov    rdi,r15
   1053b:	48 81 c7 a0 03 00 00 	add    rdi,0x3a0
   10542:	48 8b b4 24 58 05 00 	mov    rsi,QWORD PTR [rsp+0x558]
   10549:	00 
   1054a:	48 b8 00 00 00 00 00 	movabs rax,0x0
   10551:	00 00 00 
			1054c: R_X86_64_64	caml_initialize
   10554:	48 89 b4 24 70 03 00 	mov    QWORD PTR [rsp+0x370],rsi
   1055b:	00 
   1055c:	48 89 bc 24 80 03 00 	mov    QWORD PTR [rsp+0x380],rdi
   10563:	00 
   10564:	4c 89 bc 24 90 03 00 	mov    QWORD PTR [rsp+0x390],r15
   1056b:	00 
   1056c:	ff d0                	call   rax
   1056e:	4c 8b bc 24 90 03 00 	mov    r15,QWORD PTR [rsp+0x390]
   10575:	00 
   10576:	4c 89 ff             	mov    rdi,r15
   10579:	48 81 c7 a8 03 00 00 	add    rdi,0x3a8
   10580:	48 8b b4 24 60 03 00 	mov    rsi,QWORD PTR [rsp+0x360]
   10587:	00 
   10588:	48 b8 00 00 00 00 00 	movabs rax,0x0
   1058f:	00 00 00 
			1058a: R_X86_64_64	caml_initialize
   10592:	48 89 b4 24 60 03 00 	mov    QWORD PTR [rsp+0x360],rsi
   10599:	00 
   1059a:	48 89 bc 24 70 03 00 	mov    QWORD PTR [rsp+0x370],rdi
   105a1:	00 
   105a2:	4c 89 bc 24 80 03 00 	mov    QWORD PTR [rsp+0x380],r15
   105a9:	00 
   105aa:	ff d0                	call   rax
   105ac:	4c 8b bc 24 80 03 00 	mov    r15,QWORD PTR [rsp+0x380]
   105b3:	00 
   105b4:	4c 89 ff             	mov    rdi,r15
   105b7:	48 81 c7 b0 03 00 00 	add    rdi,0x3b0
   105be:	48 8b b4 24 48 05 00 	mov    rsi,QWORD PTR [rsp+0x548]
   105c5:	00 
   105c6:	48 b8 00 00 00 00 00 	movabs rax,0x0
   105cd:	00 00 00 
			105c8: R_X86_64_64	caml_initialize
   105d0:	48 89 b4 24 60 03 00 	mov    QWORD PTR [rsp+0x360],rsi
   105d7:	00 
   105d8:	48 89 bc 24 70 03 00 	mov    QWORD PTR [rsp+0x370],rdi
   105df:	00 
   105e0:	4c 89 bc 24 80 03 00 	mov    QWORD PTR [rsp+0x380],r15
   105e7:	00 
   105e8:	ff d0                	call   rax
   105ea:	4c 8b bc 24 80 03 00 	mov    r15,QWORD PTR [rsp+0x380]
   105f1:	00 
   105f2:	4c 89 ff             	mov    rdi,r15
   105f5:	48 81 c7 b8 03 00 00 	add    rdi,0x3b8
   105fc:	48 8b b4 24 50 03 00 	mov    rsi,QWORD PTR [rsp+0x350]
   10603:	00 
   10604:	48 b8 00 00 00 00 00 	movabs rax,0x0
   1060b:	00 00 00 
			10606: R_X86_64_64	caml_initialize
   1060e:	48 89 b4 24 50 03 00 	mov    QWORD PTR [rsp+0x350],rsi
   10615:	00 
   10616:	48 89 bc 24 60 03 00 	mov    QWORD PTR [rsp+0x360],rdi
   1061d:	00 
   1061e:	4c 89 bc 24 70 03 00 	mov    QWORD PTR [rsp+0x370],r15
   10625:	00 
   10626:	ff d0                	call   rax
   10628:	4c 8b bc 24 70 03 00 	mov    r15,QWORD PTR [rsp+0x370]
   1062f:	00 
   10630:	4c 89 ff             	mov    rdi,r15
   10633:	48 81 c7 c0 03 00 00 	add    rdi,0x3c0
   1063a:	48 8b b4 24 38 05 00 	mov    rsi,QWORD PTR [rsp+0x538]
   10641:	00 
   10642:	48 b8 00 00 00 00 00 	movabs rax,0x0
   10649:	00 00 00 
			10644: R_X86_64_64	caml_initialize
   1064c:	48 89 b4 24 50 03 00 	mov    QWORD PTR [rsp+0x350],rsi
   10653:	00 
   10654:	48 89 bc 24 60 03 00 	mov    QWORD PTR [rsp+0x360],rdi
   1065b:	00 
   1065c:	4c 89 bc 24 70 03 00 	mov    QWORD PTR [rsp+0x370],r15
   10663:	00 
   10664:	ff d0                	call   rax
   10666:	4c 8b bc 24 70 03 00 	mov    r15,QWORD PTR [rsp+0x370]
   1066d:	00 
   1066e:	4c 89 ff             	mov    rdi,r15
   10671:	48 81 c7 c8 03 00 00 	add    rdi,0x3c8
   10678:	48 8b b4 24 40 03 00 	mov    rsi,QWORD PTR [rsp+0x340]
   1067f:	00 
   10680:	48 b8 00 00 00 00 00 	movabs rax,0x0
   10687:	00 00 00 
			10682: R_X86_64_64	caml_initialize
   1068a:	48 89 b4 24 40 03 00 	mov    QWORD PTR [rsp+0x340],rsi
   10691:	00 
   10692:	48 89 bc 24 50 03 00 	mov    QWORD PTR [rsp+0x350],rdi
   10699:	00 
   1069a:	4c 89 bc 24 60 03 00 	mov    QWORD PTR [rsp+0x360],r15
   106a1:	00 
   106a2:	ff d0                	call   rax
   106a4:	4c 8b bc 24 60 03 00 	mov    r15,QWORD PTR [rsp+0x360]
   106ab:	00 
   106ac:	4c 89 ff             	mov    rdi,r15
   106af:	48 81 c7 d0 03 00 00 	add    rdi,0x3d0
   106b6:	48 8b b4 24 28 05 00 	mov    rsi,QWORD PTR [rsp+0x528]
   106bd:	00 
   106be:	48 b8 00 00 00 00 00 	movabs rax,0x0
   106c5:	00 00 00 
			106c0: R_X86_64_64	caml_initialize
   106c8:	48 89 b4 24 40 03 00 	mov    QWORD PTR [rsp+0x340],rsi
   106cf:	00 
   106d0:	48 89 bc 24 50 03 00 	mov    QWORD PTR [rsp+0x350],rdi
   106d7:	00 
   106d8:	4c 89 bc 24 60 03 00 	mov    QWORD PTR [rsp+0x360],r15
   106df:	00 
   106e0:	ff d0                	call   rax
   106e2:	4c 8b bc 24 60 03 00 	mov    r15,QWORD PTR [rsp+0x360]
   106e9:	00 
   106ea:	4c 89 ff             	mov    rdi,r15
   106ed:	48 81 c7 d8 03 00 00 	add    rdi,0x3d8
   106f4:	48 8b b4 24 30 03 00 	mov    rsi,QWORD PTR [rsp+0x330]
   106fb:	00 
   106fc:	48 b8 00 00 00 00 00 	movabs rax,0x0
   10703:	00 00 00 
			106fe: R_X86_64_64	caml_initialize
   10706:	48 89 b4 24 30 03 00 	mov    QWORD PTR [rsp+0x330],rsi
   1070d:	00 
   1070e:	48 89 bc 24 40 03 00 	mov    QWORD PTR [rsp+0x340],rdi
   10715:	00 
   10716:	4c 89 bc 24 50 03 00 	mov    QWORD PTR [rsp+0x350],r15
   1071d:	00 
   1071e:	ff d0                	call   rax
   10720:	4c 8b bc 24 50 03 00 	mov    r15,QWORD PTR [rsp+0x350]
   10727:	00 
   10728:	4c 89 ff             	mov    rdi,r15
   1072b:	48 81 c7 e0 03 00 00 	add    rdi,0x3e0
   10732:	48 8b b4 24 18 05 00 	mov    rsi,QWORD PTR [rsp+0x518]
   10739:	00 
   1073a:	48 b8 00 00 00 00 00 	movabs rax,0x0
   10741:	00 00 00 
			1073c: R_X86_64_64	caml_initialize
   10744:	48 89 b4 24 30 03 00 	mov    QWORD PTR [rsp+0x330],rsi
   1074b:	00 
   1074c:	48 89 bc 24 40 03 00 	mov    QWORD PTR [rsp+0x340],rdi
   10753:	00 
   10754:	4c 89 bc 24 50 03 00 	mov    QWORD PTR [rsp+0x350],r15
   1075b:	00 
   1075c:	ff d0                	call   rax
   1075e:	4c 8b bc 24 50 03 00 	mov    r15,QWORD PTR [rsp+0x350]
   10765:	00 
   10766:	4c 89 ff             	mov    rdi,r15
   10769:	48 81 c7 e8 03 00 00 	add    rdi,0x3e8
   10770:	48 8b b4 24 20 03 00 	mov    rsi,QWORD PTR [rsp+0x320]
   10777:	00 
   10778:	48 b8 00 00 00 00 00 	movabs rax,0x0
   1077f:	00 00 00 
			1077a: R_X86_64_64	caml_initialize
   10782:	48 89 b4 24 20 03 00 	mov    QWORD PTR [rsp+0x320],rsi
   10789:	00 
   1078a:	48 89 bc 24 30 03 00 	mov    QWORD PTR [rsp+0x330],rdi
   10791:	00 
   10792:	4c 89 bc 24 40 03 00 	mov    QWORD PTR [rsp+0x340],r15
   10799:	00 
   1079a:	ff d0                	call   rax
   1079c:	4c 8b bc 24 40 03 00 	mov    r15,QWORD PTR [rsp+0x340]
   107a3:	00 
   107a4:	4c 89 ff             	mov    rdi,r15
   107a7:	48 81 c7 f0 03 00 00 	add    rdi,0x3f0
   107ae:	48 8b b4 24 08 05 00 	mov    rsi,QWORD PTR [rsp+0x508]
   107b5:	00 
   107b6:	48 b8 00 00 00 00 00 	movabs rax,0x0
   107bd:	00 00 00 
			107b8: R_X86_64_64	caml_initialize
   107c0:	48 89 b4 24 20 03 00 	mov    QWORD PTR [rsp+0x320],rsi
   107c7:	00 
   107c8:	48 89 bc 24 30 03 00 	mov    QWORD PTR [rsp+0x330],rdi
   107cf:	00 
   107d0:	4c 89 bc 24 40 03 00 	mov    QWORD PTR [rsp+0x340],r15
   107d7:	00 
   107d8:	ff d0                	call   rax
   107da:	4c 8b bc 24 40 03 00 	mov    r15,QWORD PTR [rsp+0x340]
   107e1:	00 
   107e2:	4c 89 ff             	mov    rdi,r15
   107e5:	48 81 c7 f8 03 00 00 	add    rdi,0x3f8
   107ec:	48 8b b4 24 10 03 00 	mov    rsi,QWORD PTR [rsp+0x310]
   107f3:	00 
   107f4:	48 b8 00 00 00 00 00 	movabs rax,0x0
   107fb:	00 00 00 
			107f6: R_X86_64_64	caml_initialize
   107fe:	48 89 b4 24 10 03 00 	mov    QWORD PTR [rsp+0x310],rsi
   10805:	00 
   10806:	48 89 bc 24 20 03 00 	mov    QWORD PTR [rsp+0x320],rdi
   1080d:	00 
   1080e:	4c 89 bc 24 30 03 00 	mov    QWORD PTR [rsp+0x330],r15
   10815:	00 
   10816:	ff d0                	call   rax
   10818:	4c 8b bc 24 30 03 00 	mov    r15,QWORD PTR [rsp+0x330]
   1081f:	00 
   10820:	4c 89 ff             	mov    rdi,r15
   10823:	48 81 c7 00 04 00 00 	add    rdi,0x400
   1082a:	48 8b b4 24 f8 04 00 	mov    rsi,QWORD PTR [rsp+0x4f8]
   10831:	00 
   10832:	48 b8 00 00 00 00 00 	movabs rax,0x0
   10839:	00 00 00 
			10834: R_X86_64_64	caml_initialize
   1083c:	48 89 b4 24 10 03 00 	mov    QWORD PTR [rsp+0x310],rsi
   10843:	00 
   10844:	48 89 bc 24 20 03 00 	mov    QWORD PTR [rsp+0x320],rdi
   1084b:	00 
   1084c:	4c 89 bc 24 30 03 00 	mov    QWORD PTR [rsp+0x330],r15
   10853:	00 
   10854:	ff d0                	call   rax
   10856:	4c 8b bc 24 30 03 00 	mov    r15,QWORD PTR [rsp+0x330]
   1085d:	00 
   1085e:	4c 89 ff             	mov    rdi,r15
   10861:	48 81 c7 08 04 00 00 	add    rdi,0x408
   10868:	48 8b b4 24 00 03 00 	mov    rsi,QWORD PTR [rsp+0x300]
   1086f:	00 
   10870:	48 b8 00 00 00 00 00 	movabs rax,0x0
   10877:	00 00 00 
			10872: R_X86_64_64	caml_initialize
   1087a:	48 89 b4 24 00 03 00 	mov    QWORD PTR [rsp+0x300],rsi
   10881:	00 
   10882:	48 89 bc 24 10 03 00 	mov    QWORD PTR [rsp+0x310],rdi
   10889:	00 
   1088a:	4c 89 bc 24 20 03 00 	mov    QWORD PTR [rsp+0x320],r15
   10891:	00 
   10892:	ff d0                	call   rax
   10894:	4c 8b bc 24 20 03 00 	mov    r15,QWORD PTR [rsp+0x320]
   1089b:	00 
   1089c:	4c 89 ff             	mov    rdi,r15
   1089f:	48 81 c7 10 04 00 00 	add    rdi,0x410
   108a6:	48 8b b4 24 e8 04 00 	mov    rsi,QWORD PTR [rsp+0x4e8]
   108ad:	00 
   108ae:	48 b8 00 00 00 00 00 	movabs rax,0x0
   108b5:	00 00 00 
			108b0: R_X86_64_64	caml_initialize
   108b8:	48 89 b4 24 00 03 00 	mov    QWORD PTR [rsp+0x300],rsi
   108bf:	00 
   108c0:	48 89 bc 24 10 03 00 	mov    QWORD PTR [rsp+0x310],rdi
   108c7:	00 
   108c8:	4c 89 bc 24 20 03 00 	mov    QWORD PTR [rsp+0x320],r15
   108cf:	00 
   108d0:	ff d0                	call   rax
   108d2:	4c 8b bc 24 20 03 00 	mov    r15,QWORD PTR [rsp+0x320]
   108d9:	00 
   108da:	4c 89 ff             	mov    rdi,r15
   108dd:	48 81 c7 18 04 00 00 	add    rdi,0x418
   108e4:	48 8b b4 24 f0 02 00 	mov    rsi,QWORD PTR [rsp+0x2f0]
   108eb:	00 
   108ec:	48 b8 00 00 00 00 00 	movabs rax,0x0
   108f3:	00 00 00 
			108ee: R_X86_64_64	caml_initialize
   108f6:	48 89 b4 24 f0 02 00 	mov    QWORD PTR [rsp+0x2f0],rsi
   108fd:	00 
   108fe:	48 89 bc 24 00 03 00 	mov    QWORD PTR [rsp+0x300],rdi
   10905:	00 
   10906:	4c 89 bc 24 10 03 00 	mov    QWORD PTR [rsp+0x310],r15
   1090d:	00 
   1090e:	ff d0                	call   rax
   10910:	4c 8b bc 24 10 03 00 	mov    r15,QWORD PTR [rsp+0x310]
   10917:	00 
   10918:	4c 89 ff             	mov    rdi,r15
   1091b:	48 81 c7 20 04 00 00 	add    rdi,0x420
   10922:	48 8b b4 24 d8 04 00 	mov    rsi,QWORD PTR [rsp+0x4d8]
   10929:	00 
   1092a:	48 b8 00 00 00 00 00 	movabs rax,0x0
   10931:	00 00 00 
			1092c: R_X86_64_64	caml_initialize
   10934:	48 89 b4 24 f0 02 00 	mov    QWORD PTR [rsp+0x2f0],rsi
   1093b:	00 
   1093c:	48 89 bc 24 00 03 00 	mov    QWORD PTR [rsp+0x300],rdi
   10943:	00 
   10944:	4c 89 bc 24 10 03 00 	mov    QWORD PTR [rsp+0x310],r15
   1094b:	00 
   1094c:	ff d0                	call   rax
   1094e:	4c 8b bc 24 10 03 00 	mov    r15,QWORD PTR [rsp+0x310]
   10955:	00 
   10956:	4c 89 ff             	mov    rdi,r15
   10959:	48 81 c7 28 04 00 00 	add    rdi,0x428
   10960:	48 8b b4 24 e0 02 00 	mov    rsi,QWORD PTR [rsp+0x2e0]
   10967:	00 
   10968:	48 b8 00 00 00 00 00 	movabs rax,0x0
   1096f:	00 00 00 
			1096a: R_X86_64_64	caml_initialize
   10972:	48 89 b4 24 e0 02 00 	mov    QWORD PTR [rsp+0x2e0],rsi
   10979:	00 
   1097a:	48 89 bc 24 f0 02 00 	mov    QWORD PTR [rsp+0x2f0],rdi
   10981:	00 
   10982:	4c 89 bc 24 00 03 00 	mov    QWORD PTR [rsp+0x300],r15
   10989:	00 
   1098a:	ff d0                	call   rax
   1098c:	4c 8b bc 24 00 03 00 	mov    r15,QWORD PTR [rsp+0x300]
   10993:	00 
   10994:	4c 89 ff             	mov    rdi,r15
   10997:	48 81 c7 30 04 00 00 	add    rdi,0x430
   1099e:	48 8b b4 24 c8 04 00 	mov    rsi,QWORD PTR [rsp+0x4c8]
   109a5:	00 
   109a6:	48 b8 00 00 00 00 00 	movabs rax,0x0
   109ad:	00 00 00 
			109a8: R_X86_64_64	caml_initialize
   109b0:	48 89 b4 24 e0 02 00 	mov    QWORD PTR [rsp+0x2e0],rsi
   109b7:	00 
   109b8:	48 89 bc 24 f0 02 00 	mov    QWORD PTR [rsp+0x2f0],rdi
   109bf:	00 
   109c0:	4c 89 bc 24 00 03 00 	mov    QWORD PTR [rsp+0x300],r15
   109c7:	00 
   109c8:	ff d0                	call   rax
   109ca:	4c 8b bc 24 00 03 00 	mov    r15,QWORD PTR [rsp+0x300]
   109d1:	00 
   109d2:	4c 89 ff             	mov    rdi,r15
   109d5:	48 81 c7 38 04 00 00 	add    rdi,0x438
   109dc:	48 8b b4 24 d0 02 00 	mov    rsi,QWORD PTR [rsp+0x2d0]
   109e3:	00 
   109e4:	48 b8 00 00 00 00 00 	movabs rax,0x0
   109eb:	00 00 00 
			109e6: R_X86_64_64	caml_initialize
   109ee:	48 89 b4 24 d0 02 00 	mov    QWORD PTR [rsp+0x2d0],rsi
   109f5:	00 
   109f6:	48 89 bc 24 e0 02 00 	mov    QWORD PTR [rsp+0x2e0],rdi
   109fd:	00 
   109fe:	4c 89 bc 24 f0 02 00 	mov    QWORD PTR [rsp+0x2f0],r15
   10a05:	00 
   10a06:	ff d0                	call   rax
   10a08:	4c 8b bc 24 f0 02 00 	mov    r15,QWORD PTR [rsp+0x2f0]
   10a0f:	00 
   10a10:	4c 89 ff             	mov    rdi,r15
   10a13:	48 81 c7 40 04 00 00 	add    rdi,0x440
   10a1a:	48 8b b4 24 b8 04 00 	mov    rsi,QWORD PTR [rsp+0x4b8]
   10a21:	00 
   10a22:	48 b8 00 00 00 00 00 	movabs rax,0x0
   10a29:	00 00 00 
			10a24: R_X86_64_64	caml_initialize
   10a2c:	48 89 b4 24 d0 02 00 	mov    QWORD PTR [rsp+0x2d0],rsi
   10a33:	00 
   10a34:	48 89 bc 24 e0 02 00 	mov    QWORD PTR [rsp+0x2e0],rdi
   10a3b:	00 
   10a3c:	4c 89 bc 24 f0 02 00 	mov    QWORD PTR [rsp+0x2f0],r15
   10a43:	00 
   10a44:	ff d0                	call   rax
   10a46:	4c 8b bc 24 f0 02 00 	mov    r15,QWORD PTR [rsp+0x2f0]
   10a4d:	00 
   10a4e:	4c 89 ff             	mov    rdi,r15
   10a51:	48 81 c7 48 04 00 00 	add    rdi,0x448
   10a58:	48 8b b4 24 c0 02 00 	mov    rsi,QWORD PTR [rsp+0x2c0]
   10a5f:	00 
   10a60:	48 b8 00 00 00 00 00 	movabs rax,0x0
   10a67:	00 00 00 
			10a62: R_X86_64_64	caml_initialize
   10a6a:	48 89 b4 24 c0 02 00 	mov    QWORD PTR [rsp+0x2c0],rsi
   10a71:	00 
   10a72:	48 89 bc 24 d0 02 00 	mov    QWORD PTR [rsp+0x2d0],rdi
   10a79:	00 
   10a7a:	4c 89 bc 24 e0 02 00 	mov    QWORD PTR [rsp+0x2e0],r15
   10a81:	00 
   10a82:	ff d0                	call   rax
   10a84:	4c 8b bc 24 e0 02 00 	mov    r15,QWORD PTR [rsp+0x2e0]
   10a8b:	00 
   10a8c:	4c 89 ff             	mov    rdi,r15
   10a8f:	48 81 c7 50 04 00 00 	add    rdi,0x450
   10a96:	48 8b b4 24 a8 04 00 	mov    rsi,QWORD PTR [rsp+0x4a8]
   10a9d:	00 
   10a9e:	48 b8 00 00 00 00 00 	movabs rax,0x0
   10aa5:	00 00 00 
			10aa0: R_X86_64_64	caml_initialize
   10aa8:	48 89 b4 24 c0 02 00 	mov    QWORD PTR [rsp+0x2c0],rsi
   10aaf:	00 
   10ab0:	48 89 bc 24 d0 02 00 	mov    QWORD PTR [rsp+0x2d0],rdi
   10ab7:	00 
   10ab8:	4c 89 bc 24 e0 02 00 	mov    QWORD PTR [rsp+0x2e0],r15
   10abf:	00 
   10ac0:	ff d0                	call   rax
   10ac2:	4c 8b bc 24 e0 02 00 	mov    r15,QWORD PTR [rsp+0x2e0]
   10ac9:	00 
   10aca:	4c 89 ff             	mov    rdi,r15
   10acd:	48 81 c7 58 04 00 00 	add    rdi,0x458
   10ad4:	48 8b b4 24 b0 02 00 	mov    rsi,QWORD PTR [rsp+0x2b0]
   10adb:	00 
   10adc:	48 b8 00 00 00 00 00 	movabs rax,0x0
   10ae3:	00 00 00 
			10ade: R_X86_64_64	caml_initialize
   10ae6:	48 89 b4 24 b0 02 00 	mov    QWORD PTR [rsp+0x2b0],rsi
   10aed:	00 
   10aee:	48 89 bc 24 c0 02 00 	mov    QWORD PTR [rsp+0x2c0],rdi
   10af5:	00 
   10af6:	4c 89 bc 24 d0 02 00 	mov    QWORD PTR [rsp+0x2d0],r15
   10afd:	00 
   10afe:	ff d0                	call   rax
   10b00:	4c 8b bc 24 d0 02 00 	mov    r15,QWORD PTR [rsp+0x2d0]
   10b07:	00 
   10b08:	4c 89 ff             	mov    rdi,r15
   10b0b:	48 81 c7 60 04 00 00 	add    rdi,0x460
   10b12:	48 8b b4 24 98 04 00 	mov    rsi,QWORD PTR [rsp+0x498]
   10b19:	00 
   10b1a:	48 b8 00 00 00 00 00 	movabs rax,0x0
   10b21:	00 00 00 
			10b1c: R_X86_64_64	caml_initialize
   10b24:	48 89 b4 24 b0 02 00 	mov    QWORD PTR [rsp+0x2b0],rsi
   10b2b:	00 
   10b2c:	48 89 bc 24 c0 02 00 	mov    QWORD PTR [rsp+0x2c0],rdi
   10b33:	00 
   10b34:	4c 89 bc 24 d0 02 00 	mov    QWORD PTR [rsp+0x2d0],r15
   10b3b:	00 
   10b3c:	ff d0                	call   rax
   10b3e:	4c 8b bc 24 d0 02 00 	mov    r15,QWORD PTR [rsp+0x2d0]
   10b45:	00 
   10b46:	4c 89 ff             	mov    rdi,r15
   10b49:	48 81 c7 68 04 00 00 	add    rdi,0x468
   10b50:	48 8b b4 24 a0 02 00 	mov    rsi,QWORD PTR [rsp+0x2a0]
   10b57:	00 
   10b58:	48 b8 00 00 00 00 00 	movabs rax,0x0
   10b5f:	00 00 00 
			10b5a: R_X86_64_64	caml_initialize
   10b62:	48 89 b4 24 a0 02 00 	mov    QWORD PTR [rsp+0x2a0],rsi
   10b69:	00 
   10b6a:	48 89 bc 24 b0 02 00 	mov    QWORD PTR [rsp+0x2b0],rdi
   10b71:	00 
   10b72:	4c 89 bc 24 c0 02 00 	mov    QWORD PTR [rsp+0x2c0],r15
   10b79:	00 
   10b7a:	ff d0                	call   rax
   10b7c:	4c 8b bc 24 c0 02 00 	mov    r15,QWORD PTR [rsp+0x2c0]
   10b83:	00 
   10b84:	4c 89 ff             	mov    rdi,r15
   10b87:	48 81 c7 70 04 00 00 	add    rdi,0x470
   10b8e:	48 8b b4 24 88 04 00 	mov    rsi,QWORD PTR [rsp+0x488]
   10b95:	00 
   10b96:	48 b8 00 00 00 00 00 	movabs rax,0x0
   10b9d:	00 00 00 
			10b98: R_X86_64_64	caml_initialize
   10ba0:	48 89 b4 24 a0 02 00 	mov    QWORD PTR [rsp+0x2a0],rsi
   10ba7:	00 
   10ba8:	48 89 bc 24 b0 02 00 	mov    QWORD PTR [rsp+0x2b0],rdi
   10baf:	00 
   10bb0:	4c 89 bc 24 c0 02 00 	mov    QWORD PTR [rsp+0x2c0],r15
   10bb7:	00 
   10bb8:	ff d0                	call   rax
   10bba:	4c 8b bc 24 c0 02 00 	mov    r15,QWORD PTR [rsp+0x2c0]
   10bc1:	00 
   10bc2:	4c 89 ff             	mov    rdi,r15
   10bc5:	48 81 c7 78 04 00 00 	add    rdi,0x478
   10bcc:	48 8b b4 24 90 02 00 	mov    rsi,QWORD PTR [rsp+0x290]
   10bd3:	00 
   10bd4:	48 b8 00 00 00 00 00 	movabs rax,0x0
   10bdb:	00 00 00 
			10bd6: R_X86_64_64	caml_initialize
   10bde:	48 89 b4 24 90 02 00 	mov    QWORD PTR [rsp+0x290],rsi
   10be5:	00 
   10be6:	48 89 bc 24 a0 02 00 	mov    QWORD PTR [rsp+0x2a0],rdi
   10bed:	00 
   10bee:	4c 89 bc 24 b0 02 00 	mov    QWORD PTR [rsp+0x2b0],r15
   10bf5:	00 
   10bf6:	ff d0                	call   rax
   10bf8:	4c 8b bc 24 b0 02 00 	mov    r15,QWORD PTR [rsp+0x2b0]
   10bff:	00 
   10c00:	4c 89 ff             	mov    rdi,r15
   10c03:	48 81 c7 80 04 00 00 	add    rdi,0x480
   10c0a:	48 8b b4 24 78 04 00 	mov    rsi,QWORD PTR [rsp+0x478]
   10c11:	00 
   10c12:	48 b8 00 00 00 00 00 	movabs rax,0x0
   10c19:	00 00 00 
			10c14: R_X86_64_64	caml_initialize
   10c1c:	48 89 b4 24 90 02 00 	mov    QWORD PTR [rsp+0x290],rsi
   10c23:	00 
   10c24:	48 89 bc 24 a0 02 00 	mov    QWORD PTR [rsp+0x2a0],rdi
   10c2b:	00 
   10c2c:	4c 89 bc 24 b0 02 00 	mov    QWORD PTR [rsp+0x2b0],r15
   10c33:	00 
   10c34:	ff d0                	call   rax
   10c36:	4c 8b bc 24 b0 02 00 	mov    r15,QWORD PTR [rsp+0x2b0]
   10c3d:	00 
   10c3e:	4c 89 ff             	mov    rdi,r15
   10c41:	48 81 c7 88 04 00 00 	add    rdi,0x488
   10c48:	48 8b b4 24 80 02 00 	mov    rsi,QWORD PTR [rsp+0x280]
   10c4f:	00 
   10c50:	48 b8 00 00 00 00 00 	movabs rax,0x0
   10c57:	00 00 00 
			10c52: R_X86_64_64	caml_initialize
   10c5a:	48 89 b4 24 80 02 00 	mov    QWORD PTR [rsp+0x280],rsi
   10c61:	00 
   10c62:	48 89 bc 24 90 02 00 	mov    QWORD PTR [rsp+0x290],rdi
   10c69:	00 
   10c6a:	4c 89 bc 24 a0 02 00 	mov    QWORD PTR [rsp+0x2a0],r15
   10c71:	00 
   10c72:	ff d0                	call   rax
   10c74:	4c 8b bc 24 a0 02 00 	mov    r15,QWORD PTR [rsp+0x2a0]
   10c7b:	00 
   10c7c:	4c 89 ff             	mov    rdi,r15
   10c7f:	48 81 c7 90 04 00 00 	add    rdi,0x490
   10c86:	48 8b b4 24 68 04 00 	mov    rsi,QWORD PTR [rsp+0x468]
   10c8d:	00 
   10c8e:	48 b8 00 00 00 00 00 	movabs rax,0x0
   10c95:	00 00 00 
			10c90: R_X86_64_64	caml_initialize
   10c98:	48 89 b4 24 80 02 00 	mov    QWORD PTR [rsp+0x280],rsi
   10c9f:	00 
   10ca0:	48 89 bc 24 90 02 00 	mov    QWORD PTR [rsp+0x290],rdi
   10ca7:	00 
   10ca8:	4c 89 bc 24 a0 02 00 	mov    QWORD PTR [rsp+0x2a0],r15
   10caf:	00 
   10cb0:	ff d0                	call   rax
   10cb2:	4c 8b bc 24 a0 02 00 	mov    r15,QWORD PTR [rsp+0x2a0]
   10cb9:	00 
   10cba:	4c 89 ff             	mov    rdi,r15
   10cbd:	48 81 c7 98 04 00 00 	add    rdi,0x498
   10cc4:	48 8b b4 24 70 02 00 	mov    rsi,QWORD PTR [rsp+0x270]
   10ccb:	00 
   10ccc:	48 b8 00 00 00 00 00 	movabs rax,0x0
   10cd3:	00 00 00 
			10cce: R_X86_64_64	caml_initialize
   10cd6:	48 89 b4 24 70 02 00 	mov    QWORD PTR [rsp+0x270],rsi
   10cdd:	00 
   10cde:	48 89 bc 24 80 02 00 	mov    QWORD PTR [rsp+0x280],rdi
   10ce5:	00 
   10ce6:	4c 89 bc 24 90 02 00 	mov    QWORD PTR [rsp+0x290],r15
   10ced:	00 
   10cee:	ff d0                	call   rax
   10cf0:	4c 8b bc 24 90 02 00 	mov    r15,QWORD PTR [rsp+0x290]
   10cf7:	00 
   10cf8:	4c 89 ff             	mov    rdi,r15
   10cfb:	48 81 c7 a0 04 00 00 	add    rdi,0x4a0
   10d02:	48 8b b4 24 58 04 00 	mov    rsi,QWORD PTR [rsp+0x458]
   10d09:	00 
   10d0a:	48 b8 00 00 00 00 00 	movabs rax,0x0
   10d11:	00 00 00 
			10d0c: R_X86_64_64	caml_initialize
   10d14:	48 89 b4 24 70 02 00 	mov    QWORD PTR [rsp+0x270],rsi
   10d1b:	00 
   10d1c:	48 89 bc 24 80 02 00 	mov    QWORD PTR [rsp+0x280],rdi
   10d23:	00 
   10d24:	4c 89 bc 24 90 02 00 	mov    QWORD PTR [rsp+0x290],r15
   10d2b:	00 
   10d2c:	ff d0                	call   rax
   10d2e:	4c 8b bc 24 90 02 00 	mov    r15,QWORD PTR [rsp+0x290]
   10d35:	00 
   10d36:	4c 89 ff             	mov    rdi,r15
   10d39:	48 81 c7 a8 04 00 00 	add    rdi,0x4a8
   10d40:	48 8b b4 24 60 02 00 	mov    rsi,QWORD PTR [rsp+0x260]
   10d47:	00 
   10d48:	48 b8 00 00 00 00 00 	movabs rax,0x0
   10d4f:	00 00 00 
			10d4a: R_X86_64_64	caml_initialize
   10d52:	48 89 b4 24 60 02 00 	mov    QWORD PTR [rsp+0x260],rsi
   10d59:	00 
   10d5a:	48 89 bc 24 70 02 00 	mov    QWORD PTR [rsp+0x270],rdi
   10d61:	00 
   10d62:	4c 89 bc 24 80 02 00 	mov    QWORD PTR [rsp+0x280],r15
   10d69:	00 
   10d6a:	ff d0                	call   rax
   10d6c:	4c 8b bc 24 80 02 00 	mov    r15,QWORD PTR [rsp+0x280]
   10d73:	00 
   10d74:	4c 89 ff             	mov    rdi,r15
   10d77:	48 81 c7 b0 04 00 00 	add    rdi,0x4b0
   10d7e:	48 8b b4 24 48 04 00 	mov    rsi,QWORD PTR [rsp+0x448]
   10d85:	00 
   10d86:	48 b8 00 00 00 00 00 	movabs rax,0x0
   10d8d:	00 00 00 
			10d88: R_X86_64_64	caml_initialize
   10d90:	48 89 b4 24 60 02 00 	mov    QWORD PTR [rsp+0x260],rsi
   10d97:	00 
   10d98:	48 89 bc 24 70 02 00 	mov    QWORD PTR [rsp+0x270],rdi
   10d9f:	00 
   10da0:	4c 89 bc 24 80 02 00 	mov    QWORD PTR [rsp+0x280],r15
   10da7:	00 
   10da8:	ff d0                	call   rax
   10daa:	4c 8b bc 24 80 02 00 	mov    r15,QWORD PTR [rsp+0x280]
   10db1:	00 
   10db2:	4c 89 ff             	mov    rdi,r15
   10db5:	48 81 c7 b8 04 00 00 	add    rdi,0x4b8
   10dbc:	48 8b b4 24 50 02 00 	mov    rsi,QWORD PTR [rsp+0x250]
   10dc3:	00 
   10dc4:	48 b8 00 00 00 00 00 	movabs rax,0x0
   10dcb:	00 00 00 
			10dc6: R_X86_64_64	caml_initialize
   10dce:	48 89 b4 24 50 02 00 	mov    QWORD PTR [rsp+0x250],rsi
   10dd5:	00 
   10dd6:	48 89 bc 24 60 02 00 	mov    QWORD PTR [rsp+0x260],rdi
   10ddd:	00 
   10dde:	4c 89 bc 24 70 02 00 	mov    QWORD PTR [rsp+0x270],r15
   10de5:	00 
   10de6:	ff d0                	call   rax
   10de8:	4c 8b bc 24 70 02 00 	mov    r15,QWORD PTR [rsp+0x270]
   10def:	00 
   10df0:	4c 89 ff             	mov    rdi,r15
   10df3:	48 81 c7 c0 04 00 00 	add    rdi,0x4c0
   10dfa:	48 8b b4 24 38 04 00 	mov    rsi,QWORD PTR [rsp+0x438]
   10e01:	00 
   10e02:	48 b8 00 00 00 00 00 	movabs rax,0x0
   10e09:	00 00 00 
			10e04: R_X86_64_64	caml_initialize
   10e0c:	48 89 b4 24 50 02 00 	mov    QWORD PTR [rsp+0x250],rsi
   10e13:	00 
   10e14:	48 89 bc 24 60 02 00 	mov    QWORD PTR [rsp+0x260],rdi
   10e1b:	00 
   10e1c:	4c 89 bc 24 70 02 00 	mov    QWORD PTR [rsp+0x270],r15
   10e23:	00 
   10e24:	ff d0                	call   rax
   10e26:	4c 8b bc 24 70 02 00 	mov    r15,QWORD PTR [rsp+0x270]
   10e2d:	00 
   10e2e:	4c 89 ff             	mov    rdi,r15
   10e31:	48 81 c7 c8 04 00 00 	add    rdi,0x4c8
   10e38:	48 8b b4 24 40 02 00 	mov    rsi,QWORD PTR [rsp+0x240]
   10e3f:	00 
   10e40:	48 b8 00 00 00 00 00 	movabs rax,0x0
   10e47:	00 00 00 
			10e42: R_X86_64_64	caml_initialize
   10e4a:	48 89 b4 24 40 02 00 	mov    QWORD PTR [rsp+0x240],rsi
   10e51:	00 
   10e52:	48 89 bc 24 50 02 00 	mov    QWORD PTR [rsp+0x250],rdi
   10e59:	00 
   10e5a:	4c 89 bc 24 60 02 00 	mov    QWORD PTR [rsp+0x260],r15
   10e61:	00 
   10e62:	ff d0                	call   rax
   10e64:	4c 8b bc 24 60 02 00 	mov    r15,QWORD PTR [rsp+0x260]
   10e6b:	00 
   10e6c:	4c 89 ff             	mov    rdi,r15
   10e6f:	48 81 c7 d0 04 00 00 	add    rdi,0x4d0
   10e76:	48 8b b4 24 28 04 00 	mov    rsi,QWORD PTR [rsp+0x428]
   10e7d:	00 
   10e7e:	48 b8 00 00 00 00 00 	movabs rax,0x0
   10e85:	00 00 00 
			10e80: R_X86_64_64	caml_initialize
   10e88:	48 89 b4 24 40 02 00 	mov    QWORD PTR [rsp+0x240],rsi
   10e8f:	00 
   10e90:	48 89 bc 24 50 02 00 	mov    QWORD PTR [rsp+0x250],rdi
   10e97:	00 
   10e98:	4c 89 bc 24 60 02 00 	mov    QWORD PTR [rsp+0x260],r15
   10e9f:	00 
   10ea0:	ff d0                	call   rax
   10ea2:	4c 8b bc 24 60 02 00 	mov    r15,QWORD PTR [rsp+0x260]
   10ea9:	00 
   10eaa:	4c 89 ff             	mov    rdi,r15
   10ead:	48 81 c7 d8 04 00 00 	add    rdi,0x4d8
   10eb4:	48 8b b4 24 30 02 00 	mov    rsi,QWORD PTR [rsp+0x230]
   10ebb:	00 
   10ebc:	48 b8 00 00 00 00 00 	movabs rax,0x0
   10ec3:	00 00 00 
			10ebe: R_X86_64_64	caml_initialize
   10ec6:	48 89 b4 24 30 02 00 	mov    QWORD PTR [rsp+0x230],rsi
   10ecd:	00 
   10ece:	48 89 bc 24 40 02 00 	mov    QWORD PTR [rsp+0x240],rdi
   10ed5:	00 
   10ed6:	4c 89 bc 24 50 02 00 	mov    QWORD PTR [rsp+0x250],r15
   10edd:	00 
   10ede:	ff d0                	call   rax
   10ee0:	4c 8b bc 24 50 02 00 	mov    r15,QWORD PTR [rsp+0x250]
   10ee7:	00 
   10ee8:	4c 89 ff             	mov    rdi,r15
   10eeb:	48 81 c7 e0 04 00 00 	add    rdi,0x4e0
   10ef2:	48 8b b4 24 18 04 00 	mov    rsi,QWORD PTR [rsp+0x418]
   10ef9:	00 
   10efa:	48 b8 00 00 00 00 00 	movabs rax,0x0
   10f01:	00 00 00 
			10efc: R_X86_64_64	caml_initialize
   10f04:	48 89 b4 24 30 02 00 	mov    QWORD PTR [rsp+0x230],rsi
   10f0b:	00 
   10f0c:	48 89 bc 24 40 02 00 	mov    QWORD PTR [rsp+0x240],rdi
   10f13:	00 
   10f14:	4c 89 bc 24 50 02 00 	mov    QWORD PTR [rsp+0x250],r15
   10f1b:	00 
   10f1c:	ff d0                	call   rax
   10f1e:	4c 8b bc 24 50 02 00 	mov    r15,QWORD PTR [rsp+0x250]
   10f25:	00 
   10f26:	4c 89 ff             	mov    rdi,r15
   10f29:	48 81 c7 e8 04 00 00 	add    rdi,0x4e8
   10f30:	48 8b b4 24 20 02 00 	mov    rsi,QWORD PTR [rsp+0x220]
   10f37:	00 
   10f38:	48 b8 00 00 00 00 00 	movabs rax,0x0
   10f3f:	00 00 00 
			10f3a: R_X86_64_64	caml_initialize
   10f42:	48 89 b4 24 20 02 00 	mov    QWORD PTR [rsp+0x220],rsi
   10f49:	00 
   10f4a:	48 89 bc 24 30 02 00 	mov    QWORD PTR [rsp+0x230],rdi
   10f51:	00 
   10f52:	4c 89 bc 24 40 02 00 	mov    QWORD PTR [rsp+0x240],r15
   10f59:	00 
   10f5a:	ff d0                	call   rax
   10f5c:	4c 8b bc 24 40 02 00 	mov    r15,QWORD PTR [rsp+0x240]
   10f63:	00 
   10f64:	4c 89 ff             	mov    rdi,r15
   10f67:	48 81 c7 f0 04 00 00 	add    rdi,0x4f0
   10f6e:	48 8b b4 24 08 04 00 	mov    rsi,QWORD PTR [rsp+0x408]
   10f75:	00 
   10f76:	48 b8 00 00 00 00 00 	movabs rax,0x0
   10f7d:	00 00 00 
			10f78: R_X86_64_64	caml_initialize
   10f80:	48 89 b4 24 20 02 00 	mov    QWORD PTR [rsp+0x220],rsi
   10f87:	00 
   10f88:	48 89 bc 24 30 02 00 	mov    QWORD PTR [rsp+0x230],rdi
   10f8f:	00 
   10f90:	4c 89 bc 24 40 02 00 	mov    QWORD PTR [rsp+0x240],r15
   10f97:	00 
   10f98:	ff d0                	call   rax
   10f9a:	4c 8b bc 24 40 02 00 	mov    r15,QWORD PTR [rsp+0x240]
   10fa1:	00 
   10fa2:	4c 89 ff             	mov    rdi,r15
   10fa5:	48 81 c7 f8 04 00 00 	add    rdi,0x4f8
   10fac:	48 8b b4 24 10 02 00 	mov    rsi,QWORD PTR [rsp+0x210]
   10fb3:	00 
   10fb4:	48 b8 00 00 00 00 00 	movabs rax,0x0
   10fbb:	00 00 00 
			10fb6: R_X86_64_64	caml_initialize
   10fbe:	48 89 b4 24 10 02 00 	mov    QWORD PTR [rsp+0x210],rsi
   10fc5:	00 
   10fc6:	48 89 bc 24 20 02 00 	mov    QWORD PTR [rsp+0x220],rdi
   10fcd:	00 
   10fce:	4c 89 bc 24 30 02 00 	mov    QWORD PTR [rsp+0x230],r15
   10fd5:	00 
   10fd6:	ff d0                	call   rax
   10fd8:	4c 8b bc 24 30 02 00 	mov    r15,QWORD PTR [rsp+0x230]
   10fdf:	00 
   10fe0:	4c 89 ff             	mov    rdi,r15
   10fe3:	48 81 c7 00 05 00 00 	add    rdi,0x500
   10fea:	48 8b b4 24 f8 03 00 	mov    rsi,QWORD PTR [rsp+0x3f8]
   10ff1:	00 
   10ff2:	48 b8 00 00 00 00 00 	movabs rax,0x0
   10ff9:	00 00 00 
			10ff4: R_X86_64_64	caml_initialize
   10ffc:	48 89 b4 24 10 02 00 	mov    QWORD PTR [rsp+0x210],rsi
   11003:	00 
   11004:	48 89 bc 24 20 02 00 	mov    QWORD PTR [rsp+0x220],rdi
   1100b:	00 
   1100c:	4c 89 bc 24 30 02 00 	mov    QWORD PTR [rsp+0x230],r15
   11013:	00 
   11014:	ff d0                	call   rax
   11016:	4c 8b bc 24 30 02 00 	mov    r15,QWORD PTR [rsp+0x230]
   1101d:	00 
   1101e:	4c 89 ff             	mov    rdi,r15
   11021:	48 81 c7 08 05 00 00 	add    rdi,0x508
   11028:	48 8b b4 24 00 02 00 	mov    rsi,QWORD PTR [rsp+0x200]
   1102f:	00 
   11030:	48 b8 00 00 00 00 00 	movabs rax,0x0
   11037:	00 00 00 
			11032: R_X86_64_64	caml_initialize
   1103a:	48 89 b4 24 00 02 00 	mov    QWORD PTR [rsp+0x200],rsi
   11041:	00 
   11042:	48 89 bc 24 10 02 00 	mov    QWORD PTR [rsp+0x210],rdi
   11049:	00 
   1104a:	4c 89 bc 24 20 02 00 	mov    QWORD PTR [rsp+0x220],r15
   11051:	00 
   11052:	ff d0                	call   rax
   11054:	4c 8b bc 24 20 02 00 	mov    r15,QWORD PTR [rsp+0x220]
   1105b:	00 
   1105c:	4c 89 ff             	mov    rdi,r15
   1105f:	48 81 c7 10 05 00 00 	add    rdi,0x510
   11066:	48 8b b4 24 e8 03 00 	mov    rsi,QWORD PTR [rsp+0x3e8]
   1106d:	00 
   1106e:	48 b8 00 00 00 00 00 	movabs rax,0x0
   11075:	00 00 00 
			11070: R_X86_64_64	caml_initialize
   11078:	48 89 b4 24 00 02 00 	mov    QWORD PTR [rsp+0x200],rsi
   1107f:	00 
   11080:	48 89 bc 24 10 02 00 	mov    QWORD PTR [rsp+0x210],rdi
   11087:	00 
   11088:	4c 89 bc 24 20 02 00 	mov    QWORD PTR [rsp+0x220],r15
   1108f:	00 
   11090:	ff d0                	call   rax
   11092:	4c 8b bc 24 20 02 00 	mov    r15,QWORD PTR [rsp+0x220]
   11099:	00 
   1109a:	4c 89 ff             	mov    rdi,r15
   1109d:	48 81 c7 18 05 00 00 	add    rdi,0x518
   110a4:	48 8b b4 24 f0 01 00 	mov    rsi,QWORD PTR [rsp+0x1f0]
   110ab:	00 
   110ac:	48 b8 00 00 00 00 00 	movabs rax,0x0
   110b3:	00 00 00 
			110ae: R_X86_64_64	caml_initialize
   110b6:	48 89 b4 24 f0 01 00 	mov    QWORD PTR [rsp+0x1f0],rsi
   110bd:	00 
   110be:	48 89 bc 24 00 02 00 	mov    QWORD PTR [rsp+0x200],rdi
   110c5:	00 
   110c6:	4c 89 bc 24 10 02 00 	mov    QWORD PTR [rsp+0x210],r15
   110cd:	00 
   110ce:	ff d0                	call   rax
   110d0:	4c 8b bc 24 10 02 00 	mov    r15,QWORD PTR [rsp+0x210]
   110d7:	00 
   110d8:	4c 89 ff             	mov    rdi,r15
   110db:	48 81 c7 20 05 00 00 	add    rdi,0x520
   110e2:	48 8b b4 24 d8 03 00 	mov    rsi,QWORD PTR [rsp+0x3d8]
   110e9:	00 
   110ea:	48 b8 00 00 00 00 00 	movabs rax,0x0
   110f1:	00 00 00 
			110ec: R_X86_64_64	caml_initialize
   110f4:	48 89 b4 24 f0 01 00 	mov    QWORD PTR [rsp+0x1f0],rsi
   110fb:	00 
   110fc:	48 89 bc 24 00 02 00 	mov    QWORD PTR [rsp+0x200],rdi
   11103:	00 
   11104:	4c 89 bc 24 10 02 00 	mov    QWORD PTR [rsp+0x210],r15
   1110b:	00 
   1110c:	ff d0                	call   rax
   1110e:	4c 8b bc 24 10 02 00 	mov    r15,QWORD PTR [rsp+0x210]
   11115:	00 
   11116:	4c 89 ff             	mov    rdi,r15
   11119:	48 81 c7 28 05 00 00 	add    rdi,0x528
   11120:	48 8b b4 24 e0 01 00 	mov    rsi,QWORD PTR [rsp+0x1e0]
   11127:	00 
   11128:	48 b8 00 00 00 00 00 	movabs rax,0x0
   1112f:	00 00 00 
			1112a: R_X86_64_64	caml_initialize
   11132:	48 89 b4 24 e0 01 00 	mov    QWORD PTR [rsp+0x1e0],rsi
   11139:	00 
   1113a:	48 89 bc 24 f0 01 00 	mov    QWORD PTR [rsp+0x1f0],rdi
   11141:	00 
   11142:	4c 89 bc 24 00 02 00 	mov    QWORD PTR [rsp+0x200],r15
   11149:	00 
   1114a:	ff d0                	call   rax
   1114c:	4c 8b bc 24 00 02 00 	mov    r15,QWORD PTR [rsp+0x200]
   11153:	00 
   11154:	4c 89 ff             	mov    rdi,r15
   11157:	48 81 c7 30 05 00 00 	add    rdi,0x530
   1115e:	48 8b b4 24 c8 03 00 	mov    rsi,QWORD PTR [rsp+0x3c8]
   11165:	00 
   11166:	48 b8 00 00 00 00 00 	movabs rax,0x0
   1116d:	00 00 00 
			11168: R_X86_64_64	caml_initialize
   11170:	48 89 b4 24 e0 01 00 	mov    QWORD PTR [rsp+0x1e0],rsi
   11177:	00 
   11178:	48 89 bc 24 f0 01 00 	mov    QWORD PTR [rsp+0x1f0],rdi
   1117f:	00 
   11180:	4c 89 bc 24 00 02 00 	mov    QWORD PTR [rsp+0x200],r15
   11187:	00 
   11188:	ff d0                	call   rax
   1118a:	4c 8b bc 24 00 02 00 	mov    r15,QWORD PTR [rsp+0x200]
   11191:	00 
   11192:	4c 89 ff             	mov    rdi,r15
   11195:	48 81 c7 38 05 00 00 	add    rdi,0x538
   1119c:	48 8b b4 24 d0 01 00 	mov    rsi,QWORD PTR [rsp+0x1d0]
   111a3:	00 
   111a4:	48 b8 00 00 00 00 00 	movabs rax,0x0
   111ab:	00 00 00 
			111a6: R_X86_64_64	caml_initialize
   111ae:	48 89 b4 24 d0 01 00 	mov    QWORD PTR [rsp+0x1d0],rsi
   111b5:	00 
   111b6:	48 89 bc 24 e0 01 00 	mov    QWORD PTR [rsp+0x1e0],rdi
   111bd:	00 
   111be:	4c 89 bc 24 f0 01 00 	mov    QWORD PTR [rsp+0x1f0],r15
   111c5:	00 
   111c6:	ff d0                	call   rax
   111c8:	4c 8b bc 24 f0 01 00 	mov    r15,QWORD PTR [rsp+0x1f0]
   111cf:	00 
   111d0:	4c 89 ff             	mov    rdi,r15
   111d3:	48 81 c7 40 05 00 00 	add    rdi,0x540
   111da:	48 8b b4 24 b8 03 00 	mov    rsi,QWORD PTR [rsp+0x3b8]
   111e1:	00 
   111e2:	48 b8 00 00 00 00 00 	movabs rax,0x0
   111e9:	00 00 00 
			111e4: R_X86_64_64	caml_initialize
   111ec:	48 89 b4 24 d0 01 00 	mov    QWORD PTR [rsp+0x1d0],rsi
   111f3:	00 
   111f4:	48 89 bc 24 e0 01 00 	mov    QWORD PTR [rsp+0x1e0],rdi
   111fb:	00 
   111fc:	4c 89 bc 24 f0 01 00 	mov    QWORD PTR [rsp+0x1f0],r15
   11203:	00 
   11204:	ff d0                	call   rax
   11206:	4c 8b bc 24 f0 01 00 	mov    r15,QWORD PTR [rsp+0x1f0]
   1120d:	00 
   1120e:	4c 89 ff             	mov    rdi,r15
   11211:	48 81 c7 48 05 00 00 	add    rdi,0x548
   11218:	48 8b b4 24 c0 01 00 	mov    rsi,QWORD PTR [rsp+0x1c0]
   1121f:	00 
   11220:	48 b8 00 00 00 00 00 	movabs rax,0x0
   11227:	00 00 00 
			11222: R_X86_64_64	caml_initialize
   1122a:	48 89 b4 24 c0 01 00 	mov    QWORD PTR [rsp+0x1c0],rsi
   11231:	00 
   11232:	48 89 bc 24 d0 01 00 	mov    QWORD PTR [rsp+0x1d0],rdi
   11239:	00 
   1123a:	4c 89 bc 24 e0 01 00 	mov    QWORD PTR [rsp+0x1e0],r15
   11241:	00 
   11242:	ff d0                	call   rax
   11244:	4c 8b bc 24 e0 01 00 	mov    r15,QWORD PTR [rsp+0x1e0]
   1124b:	00 
   1124c:	4c 89 ff             	mov    rdi,r15
   1124f:	48 81 c7 50 05 00 00 	add    rdi,0x550
   11256:	48 8b b4 24 a8 03 00 	mov    rsi,QWORD PTR [rsp+0x3a8]
   1125d:	00 
   1125e:	48 b8 00 00 00 00 00 	movabs rax,0x0
   11265:	00 00 00 
			11260: R_X86_64_64	caml_initialize
   11268:	48 89 b4 24 c0 01 00 	mov    QWORD PTR [rsp+0x1c0],rsi
   1126f:	00 
   11270:	48 89 bc 24 d0 01 00 	mov    QWORD PTR [rsp+0x1d0],rdi
   11277:	00 
   11278:	4c 89 bc 24 e0 01 00 	mov    QWORD PTR [rsp+0x1e0],r15
   1127f:	00 
   11280:	ff d0                	call   rax
   11282:	4c 8b bc 24 e0 01 00 	mov    r15,QWORD PTR [rsp+0x1e0]
   11289:	00 
   1128a:	4c 89 ff             	mov    rdi,r15
   1128d:	48 81 c7 58 05 00 00 	add    rdi,0x558
   11294:	48 8b b4 24 b0 01 00 	mov    rsi,QWORD PTR [rsp+0x1b0]
   1129b:	00 
   1129c:	48 b8 00 00 00 00 00 	movabs rax,0x0
   112a3:	00 00 00 
			1129e: R_X86_64_64	caml_initialize
   112a6:	48 89 b4 24 b0 01 00 	mov    QWORD PTR [rsp+0x1b0],rsi
   112ad:	00 
   112ae:	48 89 bc 24 c0 01 00 	mov    QWORD PTR [rsp+0x1c0],rdi
   112b5:	00 
   112b6:	4c 89 bc 24 d0 01 00 	mov    QWORD PTR [rsp+0x1d0],r15
   112bd:	00 
   112be:	ff d0                	call   rax
   112c0:	4c 8b bc 24 d0 01 00 	mov    r15,QWORD PTR [rsp+0x1d0]
   112c7:	00 
   112c8:	4c 89 ff             	mov    rdi,r15
   112cb:	48 81 c7 60 05 00 00 	add    rdi,0x560
   112d2:	48 8b b4 24 98 03 00 	mov    rsi,QWORD PTR [rsp+0x398]
   112d9:	00 
   112da:	48 b8 00 00 00 00 00 	movabs rax,0x0
   112e1:	00 00 00 
			112dc: R_X86_64_64	caml_initialize
   112e4:	48 89 b4 24 b0 01 00 	mov    QWORD PTR [rsp+0x1b0],rsi
   112eb:	00 
   112ec:	48 89 bc 24 c0 01 00 	mov    QWORD PTR [rsp+0x1c0],rdi
   112f3:	00 
   112f4:	4c 89 bc 24 d0 01 00 	mov    QWORD PTR [rsp+0x1d0],r15
   112fb:	00 
   112fc:	ff d0                	call   rax
   112fe:	4c 8b bc 24 d0 01 00 	mov    r15,QWORD PTR [rsp+0x1d0]
   11305:	00 
   11306:	4c 89 ff             	mov    rdi,r15
   11309:	48 81 c7 68 05 00 00 	add    rdi,0x568
   11310:	48 8b b4 24 a0 01 00 	mov    rsi,QWORD PTR [rsp+0x1a0]
   11317:	00 
   11318:	48 b8 00 00 00 00 00 	movabs rax,0x0
   1131f:	00 00 00 
			1131a: R_X86_64_64	caml_initialize
   11322:	48 89 b4 24 a0 01 00 	mov    QWORD PTR [rsp+0x1a0],rsi
   11329:	00 
   1132a:	48 89 bc 24 b0 01 00 	mov    QWORD PTR [rsp+0x1b0],rdi
   11331:	00 
   11332:	4c 89 bc 24 c0 01 00 	mov    QWORD PTR [rsp+0x1c0],r15
   11339:	00 
   1133a:	ff d0                	call   rax
   1133c:	4c 8b bc 24 c0 01 00 	mov    r15,QWORD PTR [rsp+0x1c0]
   11343:	00 
   11344:	4c 89 ff             	mov    rdi,r15
   11347:	48 81 c7 70 05 00 00 	add    rdi,0x570
   1134e:	48 8b b4 24 88 03 00 	mov    rsi,QWORD PTR [rsp+0x388]
   11355:	00 
   11356:	48 b8 00 00 00 00 00 	movabs rax,0x0
   1135d:	00 00 00 
			11358: R_X86_64_64	caml_initialize
   11360:	48 89 b4 24 a0 01 00 	mov    QWORD PTR [rsp+0x1a0],rsi
   11367:	00 
   11368:	48 89 bc 24 b0 01 00 	mov    QWORD PTR [rsp+0x1b0],rdi
   1136f:	00 
   11370:	4c 89 bc 24 c0 01 00 	mov    QWORD PTR [rsp+0x1c0],r15
   11377:	00 
   11378:	ff d0                	call   rax
   1137a:	4c 8b bc 24 c0 01 00 	mov    r15,QWORD PTR [rsp+0x1c0]
   11381:	00 
   11382:	4c 89 ff             	mov    rdi,r15
   11385:	48 81 c7 78 05 00 00 	add    rdi,0x578
   1138c:	48 8b b4 24 90 01 00 	mov    rsi,QWORD PTR [rsp+0x190]
   11393:	00 
   11394:	48 b8 00 00 00 00 00 	movabs rax,0x0
   1139b:	00 00 00 
			11396: R_X86_64_64	caml_initialize
   1139e:	48 89 b4 24 90 01 00 	mov    QWORD PTR [rsp+0x190],rsi
   113a5:	00 
   113a6:	48 89 bc 24 a0 01 00 	mov    QWORD PTR [rsp+0x1a0],rdi
   113ad:	00 
   113ae:	4c 89 bc 24 b0 01 00 	mov    QWORD PTR [rsp+0x1b0],r15
   113b5:	00 
   113b6:	ff d0                	call   rax
   113b8:	4c 8b bc 24 b0 01 00 	mov    r15,QWORD PTR [rsp+0x1b0]
   113bf:	00 
   113c0:	4c 89 ff             	mov    rdi,r15
   113c3:	48 81 c7 80 05 00 00 	add    rdi,0x580
   113ca:	48 8b b4 24 78 03 00 	mov    rsi,QWORD PTR [rsp+0x378]
   113d1:	00 
   113d2:	48 b8 00 00 00 00 00 	movabs rax,0x0
   113d9:	00 00 00 
			113d4: R_X86_64_64	caml_initialize
   113dc:	48 89 b4 24 90 01 00 	mov    QWORD PTR [rsp+0x190],rsi
   113e3:	00 
   113e4:	48 89 bc 24 a0 01 00 	mov    QWORD PTR [rsp+0x1a0],rdi
   113eb:	00 
   113ec:	4c 89 bc 24 b0 01 00 	mov    QWORD PTR [rsp+0x1b0],r15
   113f3:	00 
   113f4:	ff d0                	call   rax
   113f6:	4c 8b bc 24 b0 01 00 	mov    r15,QWORD PTR [rsp+0x1b0]
   113fd:	00 
   113fe:	4c 89 ff             	mov    rdi,r15
   11401:	48 81 c7 88 05 00 00 	add    rdi,0x588
   11408:	48 8b b4 24 80 01 00 	mov    rsi,QWORD PTR [rsp+0x180]
   1140f:	00 
   11410:	48 b8 00 00 00 00 00 	movabs rax,0x0
   11417:	00 00 00 
			11412: R_X86_64_64	caml_initialize
   1141a:	48 89 b4 24 80 01 00 	mov    QWORD PTR [rsp+0x180],rsi
   11421:	00 
   11422:	48 89 bc 24 90 01 00 	mov    QWORD PTR [rsp+0x190],rdi
   11429:	00 
   1142a:	4c 89 bc 24 a0 01 00 	mov    QWORD PTR [rsp+0x1a0],r15
   11431:	00 
   11432:	ff d0                	call   rax
   11434:	4c 8b bc 24 a0 01 00 	mov    r15,QWORD PTR [rsp+0x1a0]
   1143b:	00 
   1143c:	4c 89 ff             	mov    rdi,r15
   1143f:	48 81 c7 90 05 00 00 	add    rdi,0x590
   11446:	48 8b b4 24 68 03 00 	mov    rsi,QWORD PTR [rsp+0x368]
   1144d:	00 
   1144e:	48 b8 00 00 00 00 00 	movabs rax,0x0
   11455:	00 00 00 
			11450: R_X86_64_64	caml_initialize
   11458:	48 89 b4 24 80 01 00 	mov    QWORD PTR [rsp+0x180],rsi
   1145f:	00 
   11460:	48 89 bc 24 90 01 00 	mov    QWORD PTR [rsp+0x190],rdi
   11467:	00 
   11468:	4c 89 bc 24 a0 01 00 	mov    QWORD PTR [rsp+0x1a0],r15
   1146f:	00 
   11470:	ff d0                	call   rax
   11472:	4c 8b bc 24 a0 01 00 	mov    r15,QWORD PTR [rsp+0x1a0]
   11479:	00 
   1147a:	4c 89 ff             	mov    rdi,r15
   1147d:	48 81 c7 98 05 00 00 	add    rdi,0x598
   11484:	48 8b b4 24 70 01 00 	mov    rsi,QWORD PTR [rsp+0x170]
   1148b:	00 
   1148c:	48 b8 00 00 00 00 00 	movabs rax,0x0
   11493:	00 00 00 
			1148e: R_X86_64_64	caml_initialize
   11496:	48 89 b4 24 70 01 00 	mov    QWORD PTR [rsp+0x170],rsi
   1149d:	00 
   1149e:	48 89 bc 24 80 01 00 	mov    QWORD PTR [rsp+0x180],rdi
   114a5:	00 
   114a6:	4c 89 bc 24 90 01 00 	mov    QWORD PTR [rsp+0x190],r15
   114ad:	00 
   114ae:	ff d0                	call   rax
   114b0:	4c 8b bc 24 90 01 00 	mov    r15,QWORD PTR [rsp+0x190]
   114b7:	00 
   114b8:	4c 89 ff             	mov    rdi,r15
   114bb:	48 81 c7 a0 05 00 00 	add    rdi,0x5a0
   114c2:	48 8b b4 24 58 03 00 	mov    rsi,QWORD PTR [rsp+0x358]
   114c9:	00 
   114ca:	48 b8 00 00 00 00 00 	movabs rax,0x0
   114d1:	00 00 00 
			114cc: R_X86_64_64	caml_initialize
   114d4:	48 89 b4 24 70 01 00 	mov    QWORD PTR [rsp+0x170],rsi
   114db:	00 
   114dc:	48 89 bc 24 80 01 00 	mov    QWORD PTR [rsp+0x180],rdi
   114e3:	00 
   114e4:	4c 89 bc 24 90 01 00 	mov    QWORD PTR [rsp+0x190],r15
   114eb:	00 
   114ec:	ff d0                	call   rax
   114ee:	4c 8b bc 24 90 01 00 	mov    r15,QWORD PTR [rsp+0x190]
   114f5:	00 
   114f6:	4c 89 ff             	mov    rdi,r15
   114f9:	48 81 c7 a8 05 00 00 	add    rdi,0x5a8
   11500:	48 8b b4 24 60 01 00 	mov    rsi,QWORD PTR [rsp+0x160]
   11507:	00 
   11508:	48 b8 00 00 00 00 00 	movabs rax,0x0
   1150f:	00 00 00 
			1150a: R_X86_64_64	caml_initialize
   11512:	48 89 b4 24 60 01 00 	mov    QWORD PTR [rsp+0x160],rsi
   11519:	00 
   1151a:	48 89 bc 24 70 01 00 	mov    QWORD PTR [rsp+0x170],rdi
   11521:	00 
   11522:	4c 89 bc 24 80 01 00 	mov    QWORD PTR [rsp+0x180],r15
   11529:	00 
   1152a:	ff d0                	call   rax
   1152c:	4c 8b bc 24 80 01 00 	mov    r15,QWORD PTR [rsp+0x180]
   11533:	00 
   11534:	4c 89 ff             	mov    rdi,r15
   11537:	48 81 c7 b0 05 00 00 	add    rdi,0x5b0
   1153e:	48 8b b4 24 48 03 00 	mov    rsi,QWORD PTR [rsp+0x348]
   11545:	00 
   11546:	48 b8 00 00 00 00 00 	movabs rax,0x0
   1154d:	00 00 00 
			11548: R_X86_64_64	caml_initialize
   11550:	48 89 b4 24 60 01 00 	mov    QWORD PTR [rsp+0x160],rsi
   11557:	00 
   11558:	48 89 bc 24 70 01 00 	mov    QWORD PTR [rsp+0x170],rdi
   1155f:	00 
   11560:	4c 89 bc 24 80 01 00 	mov    QWORD PTR [rsp+0x180],r15
   11567:	00 
   11568:	ff d0                	call   rax
   1156a:	4c 8b bc 24 80 01 00 	mov    r15,QWORD PTR [rsp+0x180]
   11571:	00 
   11572:	4c 89 ff             	mov    rdi,r15
   11575:	48 81 c7 b8 05 00 00 	add    rdi,0x5b8
   1157c:	48 8b b4 24 50 01 00 	mov    rsi,QWORD PTR [rsp+0x150]
   11583:	00 
   11584:	48 b8 00 00 00 00 00 	movabs rax,0x0
   1158b:	00 00 00 
			11586: R_X86_64_64	caml_initialize
   1158e:	48 89 b4 24 50 01 00 	mov    QWORD PTR [rsp+0x150],rsi
   11595:	00 
   11596:	48 89 bc 24 60 01 00 	mov    QWORD PTR [rsp+0x160],rdi
   1159d:	00 
   1159e:	4c 89 bc 24 70 01 00 	mov    QWORD PTR [rsp+0x170],r15
   115a5:	00 
   115a6:	ff d0                	call   rax
   115a8:	4c 8b bc 24 70 01 00 	mov    r15,QWORD PTR [rsp+0x170]
   115af:	00 
   115b0:	4c 89 ff             	mov    rdi,r15
   115b3:	48 81 c7 c0 05 00 00 	add    rdi,0x5c0
   115ba:	48 8b b4 24 38 03 00 	mov    rsi,QWORD PTR [rsp+0x338]
   115c1:	00 
   115c2:	48 b8 00 00 00 00 00 	movabs rax,0x0
   115c9:	00 00 00 
			115c4: R_X86_64_64	caml_initialize
   115cc:	48 89 b4 24 50 01 00 	mov    QWORD PTR [rsp+0x150],rsi
   115d3:	00 
   115d4:	48 89 bc 24 60 01 00 	mov    QWORD PTR [rsp+0x160],rdi
   115db:	00 
   115dc:	4c 89 bc 24 70 01 00 	mov    QWORD PTR [rsp+0x170],r15
   115e3:	00 
   115e4:	ff d0                	call   rax
   115e6:	4c 8b bc 24 70 01 00 	mov    r15,QWORD PTR [rsp+0x170]
   115ed:	00 
   115ee:	4c 89 ff             	mov    rdi,r15
   115f1:	48 81 c7 c8 05 00 00 	add    rdi,0x5c8
   115f8:	48 8b b4 24 40 01 00 	mov    rsi,QWORD PTR [rsp+0x140]
   115ff:	00 
   11600:	48 b8 00 00 00 00 00 	movabs rax,0x0
   11607:	00 00 00 
			11602: R_X86_64_64	caml_initialize
   1160a:	48 89 b4 24 40 01 00 	mov    QWORD PTR [rsp+0x140],rsi
   11611:	00 
   11612:	48 89 bc 24 50 01 00 	mov    QWORD PTR [rsp+0x150],rdi
   11619:	00 
   1161a:	4c 89 bc 24 60 01 00 	mov    QWORD PTR [rsp+0x160],r15
   11621:	00 
   11622:	ff d0                	call   rax
   11624:	4c 8b bc 24 60 01 00 	mov    r15,QWORD PTR [rsp+0x160]
   1162b:	00 
   1162c:	4c 89 ff             	mov    rdi,r15
   1162f:	48 81 c7 d0 05 00 00 	add    rdi,0x5d0
   11636:	48 8b b4 24 28 03 00 	mov    rsi,QWORD PTR [rsp+0x328]
   1163d:	00 
   1163e:	48 b8 00 00 00 00 00 	movabs rax,0x0
   11645:	00 00 00 
			11640: R_X86_64_64	caml_initialize
   11648:	48 89 b4 24 40 01 00 	mov    QWORD PTR [rsp+0x140],rsi
   1164f:	00 
   11650:	48 89 bc 24 50 01 00 	mov    QWORD PTR [rsp+0x150],rdi
   11657:	00 
   11658:	4c 89 bc 24 60 01 00 	mov    QWORD PTR [rsp+0x160],r15
   1165f:	00 
   11660:	ff d0                	call   rax
   11662:	4c 8b bc 24 60 01 00 	mov    r15,QWORD PTR [rsp+0x160]
   11669:	00 
   1166a:	4c 89 ff             	mov    rdi,r15
   1166d:	48 81 c7 d8 05 00 00 	add    rdi,0x5d8
   11674:	48 8b b4 24 30 01 00 	mov    rsi,QWORD PTR [rsp+0x130]
   1167b:	00 
   1167c:	48 b8 00 00 00 00 00 	movabs rax,0x0
   11683:	00 00 00 
			1167e: R_X86_64_64	caml_initialize
   11686:	48 89 b4 24 30 01 00 	mov    QWORD PTR [rsp+0x130],rsi
   1168d:	00 
   1168e:	48 89 bc 24 40 01 00 	mov    QWORD PTR [rsp+0x140],rdi
   11695:	00 
   11696:	4c 89 bc 24 50 01 00 	mov    QWORD PTR [rsp+0x150],r15
   1169d:	00 
   1169e:	ff d0                	call   rax
   116a0:	4c 8b bc 24 50 01 00 	mov    r15,QWORD PTR [rsp+0x150]
   116a7:	00 
   116a8:	4c 89 ff             	mov    rdi,r15
   116ab:	48 81 c7 e0 05 00 00 	add    rdi,0x5e0
   116b2:	48 8b b4 24 18 03 00 	mov    rsi,QWORD PTR [rsp+0x318]
   116b9:	00 
   116ba:	48 b8 00 00 00 00 00 	movabs rax,0x0
   116c1:	00 00 00 
			116bc: R_X86_64_64	caml_initialize
   116c4:	48 89 b4 24 30 01 00 	mov    QWORD PTR [rsp+0x130],rsi
   116cb:	00 
   116cc:	48 89 bc 24 40 01 00 	mov    QWORD PTR [rsp+0x140],rdi
   116d3:	00 
   116d4:	4c 89 bc 24 50 01 00 	mov    QWORD PTR [rsp+0x150],r15
   116db:	00 
   116dc:	ff d0                	call   rax
   116de:	4c 8b bc 24 50 01 00 	mov    r15,QWORD PTR [rsp+0x150]
   116e5:	00 
   116e6:	4c 89 ff             	mov    rdi,r15
   116e9:	48 81 c7 e8 05 00 00 	add    rdi,0x5e8
   116f0:	48 8b b4 24 20 01 00 	mov    rsi,QWORD PTR [rsp+0x120]
   116f7:	00 
   116f8:	48 b8 00 00 00 00 00 	movabs rax,0x0
   116ff:	00 00 00 
			116fa: R_X86_64_64	caml_initialize
   11702:	48 89 b4 24 20 01 00 	mov    QWORD PTR [rsp+0x120],rsi
   11709:	00 
   1170a:	48 89 bc 24 30 01 00 	mov    QWORD PTR [rsp+0x130],rdi
   11711:	00 
   11712:	4c 89 bc 24 40 01 00 	mov    QWORD PTR [rsp+0x140],r15
   11719:	00 
   1171a:	ff d0                	call   rax
   1171c:	4c 8b bc 24 40 01 00 	mov    r15,QWORD PTR [rsp+0x140]
   11723:	00 
   11724:	4c 89 ff             	mov    rdi,r15
   11727:	48 81 c7 f0 05 00 00 	add    rdi,0x5f0
   1172e:	48 8b b4 24 08 03 00 	mov    rsi,QWORD PTR [rsp+0x308]
   11735:	00 
   11736:	48 b8 00 00 00 00 00 	movabs rax,0x0
   1173d:	00 00 00 
			11738: R_X86_64_64	caml_initialize
   11740:	48 89 b4 24 20 01 00 	mov    QWORD PTR [rsp+0x120],rsi
   11747:	00 
   11748:	48 89 bc 24 30 01 00 	mov    QWORD PTR [rsp+0x130],rdi
   1174f:	00 
   11750:	4c 89 bc 24 40 01 00 	mov    QWORD PTR [rsp+0x140],r15
   11757:	00 
   11758:	ff d0                	call   rax
   1175a:	4c 8b bc 24 40 01 00 	mov    r15,QWORD PTR [rsp+0x140]
   11761:	00 
   11762:	4c 89 ff             	mov    rdi,r15
   11765:	48 81 c7 f8 05 00 00 	add    rdi,0x5f8
   1176c:	48 8b b4 24 10 01 00 	mov    rsi,QWORD PTR [rsp+0x110]
   11773:	00 
   11774:	48 b8 00 00 00 00 00 	movabs rax,0x0
   1177b:	00 00 00 
			11776: R_X86_64_64	caml_initialize
   1177e:	48 89 b4 24 10 01 00 	mov    QWORD PTR [rsp+0x110],rsi
   11785:	00 
   11786:	48 89 bc 24 20 01 00 	mov    QWORD PTR [rsp+0x120],rdi
   1178d:	00 
   1178e:	4c 89 bc 24 30 01 00 	mov    QWORD PTR [rsp+0x130],r15
   11795:	00 
   11796:	ff d0                	call   rax
   11798:	4c 8b bc 24 30 01 00 	mov    r15,QWORD PTR [rsp+0x130]
   1179f:	00 
   117a0:	4c 89 ff             	mov    rdi,r15
   117a3:	48 81 c7 00 06 00 00 	add    rdi,0x600
   117aa:	48 8b b4 24 f8 02 00 	mov    rsi,QWORD PTR [rsp+0x2f8]
   117b1:	00 
   117b2:	48 b8 00 00 00 00 00 	movabs rax,0x0
   117b9:	00 00 00 
			117b4: R_X86_64_64	caml_initialize
   117bc:	48 89 b4 24 10 01 00 	mov    QWORD PTR [rsp+0x110],rsi
   117c3:	00 
   117c4:	48 89 bc 24 20 01 00 	mov    QWORD PTR [rsp+0x120],rdi
   117cb:	00 
   117cc:	4c 89 bc 24 30 01 00 	mov    QWORD PTR [rsp+0x130],r15
   117d3:	00 
   117d4:	ff d0                	call   rax
   117d6:	4c 8b bc 24 30 01 00 	mov    r15,QWORD PTR [rsp+0x130]
   117dd:	00 
   117de:	4c 89 ff             	mov    rdi,r15
   117e1:	48 81 c7 08 06 00 00 	add    rdi,0x608
   117e8:	48 8b b4 24 00 01 00 	mov    rsi,QWORD PTR [rsp+0x100]
   117ef:	00 
   117f0:	48 b8 00 00 00 00 00 	movabs rax,0x0
   117f7:	00 00 00 
			117f2: R_X86_64_64	caml_initialize
   117fa:	48 89 b4 24 00 01 00 	mov    QWORD PTR [rsp+0x100],rsi
   11801:	00 
   11802:	48 89 bc 24 10 01 00 	mov    QWORD PTR [rsp+0x110],rdi
   11809:	00 
   1180a:	4c 89 bc 24 20 01 00 	mov    QWORD PTR [rsp+0x120],r15
   11811:	00 
   11812:	ff d0                	call   rax
   11814:	4c 8b bc 24 20 01 00 	mov    r15,QWORD PTR [rsp+0x120]
   1181b:	00 
   1181c:	4c 89 ff             	mov    rdi,r15
   1181f:	48 81 c7 10 06 00 00 	add    rdi,0x610
   11826:	48 8b b4 24 e8 02 00 	mov    rsi,QWORD PTR [rsp+0x2e8]
   1182d:	00 
   1182e:	48 b8 00 00 00 00 00 	movabs rax,0x0
   11835:	00 00 00 
			11830: R_X86_64_64	caml_initialize
   11838:	48 89 b4 24 00 01 00 	mov    QWORD PTR [rsp+0x100],rsi
   1183f:	00 
   11840:	48 89 bc 24 10 01 00 	mov    QWORD PTR [rsp+0x110],rdi
   11847:	00 
   11848:	4c 89 bc 24 20 01 00 	mov    QWORD PTR [rsp+0x120],r15
   1184f:	00 
   11850:	ff d0                	call   rax
   11852:	4c 8b bc 24 20 01 00 	mov    r15,QWORD PTR [rsp+0x120]
   11859:	00 
   1185a:	4c 89 ff             	mov    rdi,r15
   1185d:	48 81 c7 18 06 00 00 	add    rdi,0x618
   11864:	48 8b b4 24 f0 00 00 	mov    rsi,QWORD PTR [rsp+0xf0]
   1186b:	00 
   1186c:	48 b8 00 00 00 00 00 	movabs rax,0x0
   11873:	00 00 00 
			1186e: R_X86_64_64	caml_initialize
   11876:	48 89 b4 24 f0 00 00 	mov    QWORD PTR [rsp+0xf0],rsi
   1187d:	00 
   1187e:	48 89 bc 24 00 01 00 	mov    QWORD PTR [rsp+0x100],rdi
   11885:	00 
   11886:	4c 89 bc 24 10 01 00 	mov    QWORD PTR [rsp+0x110],r15
   1188d:	00 
   1188e:	ff d0                	call   rax
   11890:	4c 8b bc 24 10 01 00 	mov    r15,QWORD PTR [rsp+0x110]
   11897:	00 
   11898:	4c 89 ff             	mov    rdi,r15
   1189b:	48 81 c7 20 06 00 00 	add    rdi,0x620
   118a2:	48 8b b4 24 d8 02 00 	mov    rsi,QWORD PTR [rsp+0x2d8]
   118a9:	00 
   118aa:	48 b8 00 00 00 00 00 	movabs rax,0x0
   118b1:	00 00 00 
			118ac: R_X86_64_64	caml_initialize
   118b4:	48 89 b4 24 f0 00 00 	mov    QWORD PTR [rsp+0xf0],rsi
   118bb:	00 
   118bc:	48 89 bc 24 00 01 00 	mov    QWORD PTR [rsp+0x100],rdi
   118c3:	00 
   118c4:	4c 89 bc 24 10 01 00 	mov    QWORD PTR [rsp+0x110],r15
   118cb:	00 
   118cc:	ff d0                	call   rax
   118ce:	4c 8b bc 24 10 01 00 	mov    r15,QWORD PTR [rsp+0x110]
   118d5:	00 
   118d6:	4c 89 ff             	mov    rdi,r15
   118d9:	48 81 c7 28 06 00 00 	add    rdi,0x628
   118e0:	48 8b b4 24 e8 00 00 	mov    rsi,QWORD PTR [rsp+0xe8]
   118e7:	00 
   118e8:	48 b8 00 00 00 00 00 	movabs rax,0x0
   118ef:	00 00 00 
			118ea: R_X86_64_64	caml_initialize
   118f2:	48 89 b4 24 e8 00 00 	mov    QWORD PTR [rsp+0xe8],rsi
   118f9:	00 
   118fa:	48 89 bc 24 f0 00 00 	mov    QWORD PTR [rsp+0xf0],rdi
   11901:	00 
   11902:	4c 89 bc 24 00 01 00 	mov    QWORD PTR [rsp+0x100],r15
   11909:	00 
   1190a:	ff d0                	call   rax
   1190c:	4c 8b bc 24 00 01 00 	mov    r15,QWORD PTR [rsp+0x100]
   11913:	00 
   11914:	4c 89 ff             	mov    rdi,r15
   11917:	48 81 c7 30 06 00 00 	add    rdi,0x630
   1191e:	48 8b b4 24 c8 02 00 	mov    rsi,QWORD PTR [rsp+0x2c8]
   11925:	00 
   11926:	48 b8 00 00 00 00 00 	movabs rax,0x0
   1192d:	00 00 00 
			11928: R_X86_64_64	caml_initialize
   11930:	48 89 b4 24 e8 00 00 	mov    QWORD PTR [rsp+0xe8],rsi
   11937:	00 
   11938:	48 89 bc 24 f0 00 00 	mov    QWORD PTR [rsp+0xf0],rdi
   1193f:	00 
   11940:	4c 89 bc 24 00 01 00 	mov    QWORD PTR [rsp+0x100],r15
   11947:	00 
   11948:	ff d0                	call   rax
   1194a:	4c 8b bc 24 00 01 00 	mov    r15,QWORD PTR [rsp+0x100]
   11951:	00 
   11952:	4c 89 ff             	mov    rdi,r15
   11955:	48 81 c7 38 06 00 00 	add    rdi,0x638
   1195c:	48 8b b4 24 e0 00 00 	mov    rsi,QWORD PTR [rsp+0xe0]
   11963:	00 
   11964:	48 b8 00 00 00 00 00 	movabs rax,0x0
   1196b:	00 00 00 
			11966: R_X86_64_64	caml_initialize
   1196e:	48 89 b4 24 e0 00 00 	mov    QWORD PTR [rsp+0xe0],rsi
   11975:	00 
   11976:	48 89 bc 24 e8 00 00 	mov    QWORD PTR [rsp+0xe8],rdi
   1197d:	00 
   1197e:	4c 89 bc 24 f0 00 00 	mov    QWORD PTR [rsp+0xf0],r15
   11985:	00 
   11986:	ff d0                	call   rax
   11988:	4c 8b bc 24 f0 00 00 	mov    r15,QWORD PTR [rsp+0xf0]
   1198f:	00 
   11990:	4c 89 ff             	mov    rdi,r15
   11993:	48 81 c7 40 06 00 00 	add    rdi,0x640
   1199a:	48 8b b4 24 b8 02 00 	mov    rsi,QWORD PTR [rsp+0x2b8]
   119a1:	00 
   119a2:	48 b8 00 00 00 00 00 	movabs rax,0x0
   119a9:	00 00 00 
			119a4: R_X86_64_64	caml_initialize
   119ac:	48 89 b4 24 e0 00 00 	mov    QWORD PTR [rsp+0xe0],rsi
   119b3:	00 
   119b4:	48 89 bc 24 e8 00 00 	mov    QWORD PTR [rsp+0xe8],rdi
   119bb:	00 
   119bc:	4c 89 bc 24 f0 00 00 	mov    QWORD PTR [rsp+0xf0],r15
   119c3:	00 
   119c4:	ff d0                	call   rax
   119c6:	4c 8b bc 24 f0 00 00 	mov    r15,QWORD PTR [rsp+0xf0]
   119cd:	00 
   119ce:	4c 89 ff             	mov    rdi,r15
   119d1:	48 81 c7 48 06 00 00 	add    rdi,0x648
   119d8:	48 8b b4 24 d8 00 00 	mov    rsi,QWORD PTR [rsp+0xd8]
   119df:	00 
   119e0:	48 b8 00 00 00 00 00 	movabs rax,0x0
   119e7:	00 00 00 
			119e2: R_X86_64_64	caml_initialize
   119ea:	48 89 b4 24 d8 00 00 	mov    QWORD PTR [rsp+0xd8],rsi
   119f1:	00 
   119f2:	48 89 bc 24 e0 00 00 	mov    QWORD PTR [rsp+0xe0],rdi
   119f9:	00 
   119fa:	4c 89 bc 24 e8 00 00 	mov    QWORD PTR [rsp+0xe8],r15
   11a01:	00 
   11a02:	ff d0                	call   rax
   11a04:	4c 8b bc 24 e8 00 00 	mov    r15,QWORD PTR [rsp+0xe8]
   11a0b:	00 
   11a0c:	4c 89 ff             	mov    rdi,r15
   11a0f:	48 81 c7 50 06 00 00 	add    rdi,0x650
   11a16:	48 8b b4 24 a8 02 00 	mov    rsi,QWORD PTR [rsp+0x2a8]
   11a1d:	00 
   11a1e:	48 b8 00 00 00 00 00 	movabs rax,0x0
   11a25:	00 00 00 
			11a20: R_X86_64_64	caml_initialize
   11a28:	48 89 b4 24 d8 00 00 	mov    QWORD PTR [rsp+0xd8],rsi
   11a2f:	00 
   11a30:	48 89 bc 24 e0 00 00 	mov    QWORD PTR [rsp+0xe0],rdi
   11a37:	00 
   11a38:	4c 89 bc 24 e8 00 00 	mov    QWORD PTR [rsp+0xe8],r15
   11a3f:	00 
   11a40:	ff d0                	call   rax
   11a42:	4c 8b bc 24 e8 00 00 	mov    r15,QWORD PTR [rsp+0xe8]
   11a49:	00 
   11a4a:	4c 89 ff             	mov    rdi,r15
   11a4d:	48 81 c7 58 06 00 00 	add    rdi,0x658
   11a54:	48 8b b4 24 d0 00 00 	mov    rsi,QWORD PTR [rsp+0xd0]
   11a5b:	00 
   11a5c:	48 b8 00 00 00 00 00 	movabs rax,0x0
   11a63:	00 00 00 
			11a5e: R_X86_64_64	caml_initialize
   11a66:	48 89 b4 24 d0 00 00 	mov    QWORD PTR [rsp+0xd0],rsi
   11a6d:	00 
   11a6e:	48 89 bc 24 d8 00 00 	mov    QWORD PTR [rsp+0xd8],rdi
   11a75:	00 
   11a76:	4c 89 bc 24 e0 00 00 	mov    QWORD PTR [rsp+0xe0],r15
   11a7d:	00 
   11a7e:	ff d0                	call   rax
   11a80:	4c 8b bc 24 e0 00 00 	mov    r15,QWORD PTR [rsp+0xe0]
   11a87:	00 
   11a88:	4c 89 ff             	mov    rdi,r15
   11a8b:	48 81 c7 60 06 00 00 	add    rdi,0x660
   11a92:	48 8b b4 24 98 02 00 	mov    rsi,QWORD PTR [rsp+0x298]
   11a99:	00 
   11a9a:	48 b8 00 00 00 00 00 	movabs rax,0x0
   11aa1:	00 00 00 
			11a9c: R_X86_64_64	caml_initialize
   11aa4:	48 89 b4 24 d0 00 00 	mov    QWORD PTR [rsp+0xd0],rsi
   11aab:	00 
   11aac:	48 89 bc 24 d8 00 00 	mov    QWORD PTR [rsp+0xd8],rdi
   11ab3:	00 
   11ab4:	4c 89 bc 24 e0 00 00 	mov    QWORD PTR [rsp+0xe0],r15
   11abb:	00 
   11abc:	ff d0                	call   rax
   11abe:	4c 8b bc 24 e0 00 00 	mov    r15,QWORD PTR [rsp+0xe0]
   11ac5:	00 
   11ac6:	4c 89 ff             	mov    rdi,r15
   11ac9:	48 81 c7 68 06 00 00 	add    rdi,0x668
   11ad0:	48 8b b4 24 c8 00 00 	mov    rsi,QWORD PTR [rsp+0xc8]
   11ad7:	00 
   11ad8:	48 b8 00 00 00 00 00 	movabs rax,0x0
   11adf:	00 00 00 
			11ada: R_X86_64_64	caml_initialize
   11ae2:	48 89 b4 24 c8 00 00 	mov    QWORD PTR [rsp+0xc8],rsi
   11ae9:	00 
   11aea:	48 89 bc 24 d0 00 00 	mov    QWORD PTR [rsp+0xd0],rdi
   11af1:	00 
   11af2:	4c 89 bc 24 d8 00 00 	mov    QWORD PTR [rsp+0xd8],r15
   11af9:	00 
   11afa:	ff d0                	call   rax
   11afc:	4c 8b bc 24 d8 00 00 	mov    r15,QWORD PTR [rsp+0xd8]
   11b03:	00 
   11b04:	4c 89 ff             	mov    rdi,r15
   11b07:	48 81 c7 70 06 00 00 	add    rdi,0x670
   11b0e:	48 8b b4 24 88 02 00 	mov    rsi,QWORD PTR [rsp+0x288]
   11b15:	00 
   11b16:	48 b8 00 00 00 00 00 	movabs rax,0x0
   11b1d:	00 00 00 
			11b18: R_X86_64_64	caml_initialize
   11b20:	48 89 b4 24 c8 00 00 	mov    QWORD PTR [rsp+0xc8],rsi
   11b27:	00 
   11b28:	48 89 bc 24 d0 00 00 	mov    QWORD PTR [rsp+0xd0],rdi
   11b2f:	00 
   11b30:	4c 89 bc 24 d8 00 00 	mov    QWORD PTR [rsp+0xd8],r15
   11b37:	00 
   11b38:	ff d0                	call   rax
   11b3a:	4c 8b bc 24 d8 00 00 	mov    r15,QWORD PTR [rsp+0xd8]
   11b41:	00 
   11b42:	4c 89 ff             	mov    rdi,r15
   11b45:	48 81 c7 78 06 00 00 	add    rdi,0x678
   11b4c:	48 8b b4 24 c0 00 00 	mov    rsi,QWORD PTR [rsp+0xc0]
   11b53:	00 
   11b54:	48 b8 00 00 00 00 00 	movabs rax,0x0
   11b5b:	00 00 00 
			11b56: R_X86_64_64	caml_initialize
   11b5e:	48 89 b4 24 c0 00 00 	mov    QWORD PTR [rsp+0xc0],rsi
   11b65:	00 
   11b66:	48 89 bc 24 c8 00 00 	mov    QWORD PTR [rsp+0xc8],rdi
   11b6d:	00 
   11b6e:	4c 89 bc 24 d0 00 00 	mov    QWORD PTR [rsp+0xd0],r15
   11b75:	00 
   11b76:	ff d0                	call   rax
   11b78:	4c 8b bc 24 d0 00 00 	mov    r15,QWORD PTR [rsp+0xd0]
   11b7f:	00 
   11b80:	4c 89 ff             	mov    rdi,r15
   11b83:	48 81 c7 80 06 00 00 	add    rdi,0x680
   11b8a:	48 8b b4 24 78 02 00 	mov    rsi,QWORD PTR [rsp+0x278]
   11b91:	00 
   11b92:	48 b8 00 00 00 00 00 	movabs rax,0x0
   11b99:	00 00 00 
			11b94: R_X86_64_64	caml_initialize
   11b9c:	48 89 b4 24 c0 00 00 	mov    QWORD PTR [rsp+0xc0],rsi
   11ba3:	00 
   11ba4:	48 89 bc 24 c8 00 00 	mov    QWORD PTR [rsp+0xc8],rdi
   11bab:	00 
   11bac:	4c 89 bc 24 d0 00 00 	mov    QWORD PTR [rsp+0xd0],r15
   11bb3:	00 
   11bb4:	ff d0                	call   rax
   11bb6:	4c 8b bc 24 d0 00 00 	mov    r15,QWORD PTR [rsp+0xd0]
   11bbd:	00 
   11bbe:	4c 89 ff             	mov    rdi,r15
   11bc1:	48 81 c7 88 06 00 00 	add    rdi,0x688
   11bc8:	48 8b b4 24 b8 00 00 	mov    rsi,QWORD PTR [rsp+0xb8]
   11bcf:	00 
   11bd0:	48 b8 00 00 00 00 00 	movabs rax,0x0
   11bd7:	00 00 00 
			11bd2: R_X86_64_64	caml_initialize
   11bda:	48 89 b4 24 b8 00 00 	mov    QWORD PTR [rsp+0xb8],rsi
   11be1:	00 
   11be2:	48 89 bc 24 c0 00 00 	mov    QWORD PTR [rsp+0xc0],rdi
   11be9:	00 
   11bea:	4c 89 bc 24 c8 00 00 	mov    QWORD PTR [rsp+0xc8],r15
   11bf1:	00 
   11bf2:	ff d0                	call   rax
   11bf4:	4c 8b bc 24 c8 00 00 	mov    r15,QWORD PTR [rsp+0xc8]
   11bfb:	00 
   11bfc:	4c 89 ff             	mov    rdi,r15
   11bff:	48 81 c7 90 06 00 00 	add    rdi,0x690
   11c06:	48 8b b4 24 68 02 00 	mov    rsi,QWORD PTR [rsp+0x268]
   11c0d:	00 
   11c0e:	48 b8 00 00 00 00 00 	movabs rax,0x0
   11c15:	00 00 00 
			11c10: R_X86_64_64	caml_initialize
   11c18:	48 89 b4 24 b8 00 00 	mov    QWORD PTR [rsp+0xb8],rsi
   11c1f:	00 
   11c20:	48 89 bc 24 c0 00 00 	mov    QWORD PTR [rsp+0xc0],rdi
   11c27:	00 
   11c28:	4c 89 bc 24 c8 00 00 	mov    QWORD PTR [rsp+0xc8],r15
   11c2f:	00 
   11c30:	ff d0                	call   rax
   11c32:	4c 8b bc 24 c8 00 00 	mov    r15,QWORD PTR [rsp+0xc8]
   11c39:	00 
   11c3a:	4c 89 ff             	mov    rdi,r15
   11c3d:	48 81 c7 98 06 00 00 	add    rdi,0x698
   11c44:	48 8b b4 24 b0 00 00 	mov    rsi,QWORD PTR [rsp+0xb0]
   11c4b:	00 
   11c4c:	48 b8 00 00 00 00 00 	movabs rax,0x0
   11c53:	00 00 00 
			11c4e: R_X86_64_64	caml_initialize
   11c56:	48 89 b4 24 b0 00 00 	mov    QWORD PTR [rsp+0xb0],rsi
   11c5d:	00 
   11c5e:	48 89 bc 24 b8 00 00 	mov    QWORD PTR [rsp+0xb8],rdi
   11c65:	00 
   11c66:	4c 89 bc 24 c0 00 00 	mov    QWORD PTR [rsp+0xc0],r15
   11c6d:	00 
   11c6e:	ff d0                	call   rax
   11c70:	4c 8b bc 24 c0 00 00 	mov    r15,QWORD PTR [rsp+0xc0]
   11c77:	00 
   11c78:	4c 89 ff             	mov    rdi,r15
   11c7b:	48 81 c7 a0 06 00 00 	add    rdi,0x6a0
   11c82:	48 8b b4 24 58 02 00 	mov    rsi,QWORD PTR [rsp+0x258]
   11c89:	00 
   11c8a:	48 b8 00 00 00 00 00 	movabs rax,0x0
   11c91:	00 00 00 
			11c8c: R_X86_64_64	caml_initialize
   11c94:	48 89 b4 24 b0 00 00 	mov    QWORD PTR [rsp+0xb0],rsi
   11c9b:	00 
   11c9c:	48 89 bc 24 b8 00 00 	mov    QWORD PTR [rsp+0xb8],rdi
   11ca3:	00 
   11ca4:	4c 89 bc 24 c0 00 00 	mov    QWORD PTR [rsp+0xc0],r15
   11cab:	00 
   11cac:	ff d0                	call   rax
   11cae:	4c 8b bc 24 c0 00 00 	mov    r15,QWORD PTR [rsp+0xc0]
   11cb5:	00 
   11cb6:	4c 89 ff             	mov    rdi,r15
   11cb9:	48 81 c7 a8 06 00 00 	add    rdi,0x6a8
   11cc0:	48 8b b4 24 a8 00 00 	mov    rsi,QWORD PTR [rsp+0xa8]
   11cc7:	00 
   11cc8:	48 b8 00 00 00 00 00 	movabs rax,0x0
   11ccf:	00 00 00 
			11cca: R_X86_64_64	caml_initialize
   11cd2:	48 89 b4 24 a8 00 00 	mov    QWORD PTR [rsp+0xa8],rsi
   11cd9:	00 
   11cda:	48 89 bc 24 b0 00 00 	mov    QWORD PTR [rsp+0xb0],rdi
   11ce1:	00 
   11ce2:	4c 89 bc 24 b8 00 00 	mov    QWORD PTR [rsp+0xb8],r15
   11ce9:	00 
   11cea:	ff d0                	call   rax
   11cec:	4c 8b bc 24 b8 00 00 	mov    r15,QWORD PTR [rsp+0xb8]
   11cf3:	00 
   11cf4:	4c 89 ff             	mov    rdi,r15
   11cf7:	48 81 c7 b0 06 00 00 	add    rdi,0x6b0
   11cfe:	48 8b b4 24 48 02 00 	mov    rsi,QWORD PTR [rsp+0x248]
   11d05:	00 
   11d06:	48 b8 00 00 00 00 00 	movabs rax,0x0
   11d0d:	00 00 00 
			11d08: R_X86_64_64	caml_initialize
   11d10:	48 89 b4 24 a8 00 00 	mov    QWORD PTR [rsp+0xa8],rsi
   11d17:	00 
   11d18:	48 89 bc 24 b0 00 00 	mov    QWORD PTR [rsp+0xb0],rdi
   11d1f:	00 
   11d20:	4c 89 bc 24 b8 00 00 	mov    QWORD PTR [rsp+0xb8],r15
   11d27:	00 
   11d28:	ff d0                	call   rax
   11d2a:	4c 8b bc 24 b8 00 00 	mov    r15,QWORD PTR [rsp+0xb8]
   11d31:	00 
   11d32:	4c 89 ff             	mov    rdi,r15
   11d35:	48 81 c7 b8 06 00 00 	add    rdi,0x6b8
   11d3c:	48 8b b4 24 a0 00 00 	mov    rsi,QWORD PTR [rsp+0xa0]
   11d43:	00 
   11d44:	48 b8 00 00 00 00 00 	movabs rax,0x0
   11d4b:	00 00 00 
			11d46: R_X86_64_64	caml_initialize
   11d4e:	48 89 b4 24 a0 00 00 	mov    QWORD PTR [rsp+0xa0],rsi
   11d55:	00 
   11d56:	48 89 bc 24 a8 00 00 	mov    QWORD PTR [rsp+0xa8],rdi
   11d5d:	00 
   11d5e:	4c 89 bc 24 b0 00 00 	mov    QWORD PTR [rsp+0xb0],r15
   11d65:	00 
   11d66:	ff d0                	call   rax
   11d68:	4c 8b bc 24 b0 00 00 	mov    r15,QWORD PTR [rsp+0xb0]
   11d6f:	00 
   11d70:	4c 89 ff             	mov    rdi,r15
   11d73:	48 81 c7 c0 06 00 00 	add    rdi,0x6c0
   11d7a:	48 8b b4 24 38 02 00 	mov    rsi,QWORD PTR [rsp+0x238]
   11d81:	00 
   11d82:	48 b8 00 00 00 00 00 	movabs rax,0x0
   11d89:	00 00 00 
			11d84: R_X86_64_64	caml_initialize
   11d8c:	48 89 b4 24 a0 00 00 	mov    QWORD PTR [rsp+0xa0],rsi
   11d93:	00 
   11d94:	48 89 bc 24 a8 00 00 	mov    QWORD PTR [rsp+0xa8],rdi
   11d9b:	00 
   11d9c:	4c 89 bc 24 b0 00 00 	mov    QWORD PTR [rsp+0xb0],r15
   11da3:	00 
   11da4:	ff d0                	call   rax
   11da6:	4c 8b bc 24 b0 00 00 	mov    r15,QWORD PTR [rsp+0xb0]
   11dad:	00 
   11dae:	4c 89 ff             	mov    rdi,r15
   11db1:	48 81 c7 c8 06 00 00 	add    rdi,0x6c8
   11db8:	48 8b b4 24 98 00 00 	mov    rsi,QWORD PTR [rsp+0x98]
   11dbf:	00 
   11dc0:	48 b8 00 00 00 00 00 	movabs rax,0x0
   11dc7:	00 00 00 
			11dc2: R_X86_64_64	caml_initialize
   11dca:	48 89 b4 24 98 00 00 	mov    QWORD PTR [rsp+0x98],rsi
   11dd1:	00 
   11dd2:	48 89 bc 24 a0 00 00 	mov    QWORD PTR [rsp+0xa0],rdi
   11dd9:	00 
   11dda:	4c 89 bc 24 a8 00 00 	mov    QWORD PTR [rsp+0xa8],r15
   11de1:	00 
   11de2:	ff d0                	call   rax
   11de4:	4c 8b bc 24 a8 00 00 	mov    r15,QWORD PTR [rsp+0xa8]
   11deb:	00 
   11dec:	4c 89 ff             	mov    rdi,r15
   11def:	48 81 c7 d0 06 00 00 	add    rdi,0x6d0
   11df6:	48 8b b4 24 28 02 00 	mov    rsi,QWORD PTR [rsp+0x228]
   11dfd:	00 
   11dfe:	48 b8 00 00 00 00 00 	movabs rax,0x0
   11e05:	00 00 00 
			11e00: R_X86_64_64	caml_initialize
   11e08:	48 89 b4 24 98 00 00 	mov    QWORD PTR [rsp+0x98],rsi
   11e0f:	00 
   11e10:	48 89 bc 24 a0 00 00 	mov    QWORD PTR [rsp+0xa0],rdi
   11e17:	00 
   11e18:	4c 89 bc 24 a8 00 00 	mov    QWORD PTR [rsp+0xa8],r15
   11e1f:	00 
   11e20:	ff d0                	call   rax
   11e22:	4c 8b bc 24 a8 00 00 	mov    r15,QWORD PTR [rsp+0xa8]
   11e29:	00 
   11e2a:	4c 89 ff             	mov    rdi,r15
   11e2d:	48 81 c7 d8 06 00 00 	add    rdi,0x6d8
   11e34:	48 8b b4 24 90 00 00 	mov    rsi,QWORD PTR [rsp+0x90]
   11e3b:	00 
   11e3c:	48 b8 00 00 00 00 00 	movabs rax,0x0
   11e43:	00 00 00 
			11e3e: R_X86_64_64	caml_initialize
   11e46:	48 89 b4 24 90 00 00 	mov    QWORD PTR [rsp+0x90],rsi
   11e4d:	00 
   11e4e:	48 89 bc 24 98 00 00 	mov    QWORD PTR [rsp+0x98],rdi
   11e55:	00 
   11e56:	4c 89 bc 24 a0 00 00 	mov    QWORD PTR [rsp+0xa0],r15
   11e5d:	00 
   11e5e:	ff d0                	call   rax
   11e60:	4c 8b bc 24 a0 00 00 	mov    r15,QWORD PTR [rsp+0xa0]
   11e67:	00 
   11e68:	4c 89 ff             	mov    rdi,r15
   11e6b:	48 81 c7 e0 06 00 00 	add    rdi,0x6e0
   11e72:	48 8b b4 24 18 02 00 	mov    rsi,QWORD PTR [rsp+0x218]
   11e79:	00 
   11e7a:	48 b8 00 00 00 00 00 	movabs rax,0x0
   11e81:	00 00 00 
			11e7c: R_X86_64_64	caml_initialize
   11e84:	48 89 b4 24 90 00 00 	mov    QWORD PTR [rsp+0x90],rsi
   11e8b:	00 
   11e8c:	48 89 bc 24 98 00 00 	mov    QWORD PTR [rsp+0x98],rdi
   11e93:	00 
   11e94:	4c 89 bc 24 a0 00 00 	mov    QWORD PTR [rsp+0xa0],r15
   11e9b:	00 
   11e9c:	ff d0                	call   rax
   11e9e:	4c 8b bc 24 a0 00 00 	mov    r15,QWORD PTR [rsp+0xa0]
   11ea5:	00 
   11ea6:	4c 89 ff             	mov    rdi,r15
   11ea9:	48 81 c7 e8 06 00 00 	add    rdi,0x6e8
   11eb0:	48 8b b4 24 88 00 00 	mov    rsi,QWORD PTR [rsp+0x88]
   11eb7:	00 
   11eb8:	48 b8 00 00 00 00 00 	movabs rax,0x0
   11ebf:	00 00 00 
			11eba: R_X86_64_64	caml_initialize
   11ec2:	48 89 b4 24 88 00 00 	mov    QWORD PTR [rsp+0x88],rsi
   11ec9:	00 
   11eca:	48 89 bc 24 90 00 00 	mov    QWORD PTR [rsp+0x90],rdi
   11ed1:	00 
   11ed2:	4c 89 bc 24 98 00 00 	mov    QWORD PTR [rsp+0x98],r15
   11ed9:	00 
   11eda:	ff d0                	call   rax
   11edc:	4c 8b bc 24 98 00 00 	mov    r15,QWORD PTR [rsp+0x98]
   11ee3:	00 
   11ee4:	4c 89 ff             	mov    rdi,r15
   11ee7:	48 81 c7 f0 06 00 00 	add    rdi,0x6f0
   11eee:	48 8b b4 24 08 02 00 	mov    rsi,QWORD PTR [rsp+0x208]
   11ef5:	00 
   11ef6:	48 b8 00 00 00 00 00 	movabs rax,0x0
   11efd:	00 00 00 
			11ef8: R_X86_64_64	caml_initialize
   11f00:	48 89 b4 24 88 00 00 	mov    QWORD PTR [rsp+0x88],rsi
   11f07:	00 
   11f08:	48 89 bc 24 90 00 00 	mov    QWORD PTR [rsp+0x90],rdi
   11f0f:	00 
   11f10:	4c 89 bc 24 98 00 00 	mov    QWORD PTR [rsp+0x98],r15
   11f17:	00 
   11f18:	ff d0                	call   rax
   11f1a:	4c 8b bc 24 98 00 00 	mov    r15,QWORD PTR [rsp+0x98]
   11f21:	00 
   11f22:	4c 89 ff             	mov    rdi,r15
   11f25:	48 81 c7 f8 06 00 00 	add    rdi,0x6f8
   11f2c:	48 8b b4 24 80 00 00 	mov    rsi,QWORD PTR [rsp+0x80]
   11f33:	00 
   11f34:	48 b8 00 00 00 00 00 	movabs rax,0x0
   11f3b:	00 00 00 
			11f36: R_X86_64_64	caml_initialize
   11f3e:	48 89 b4 24 80 00 00 	mov    QWORD PTR [rsp+0x80],rsi
   11f45:	00 
   11f46:	48 89 bc 24 88 00 00 	mov    QWORD PTR [rsp+0x88],rdi
   11f4d:	00 
   11f4e:	4c 89 bc 24 90 00 00 	mov    QWORD PTR [rsp+0x90],r15
   11f55:	00 
   11f56:	ff d0                	call   rax
   11f58:	4c 8b bc 24 90 00 00 	mov    r15,QWORD PTR [rsp+0x90]
   11f5f:	00 
   11f60:	4c 89 ff             	mov    rdi,r15
   11f63:	48 81 c7 00 07 00 00 	add    rdi,0x700
   11f6a:	48 8b b4 24 f8 01 00 	mov    rsi,QWORD PTR [rsp+0x1f8]
   11f71:	00 
   11f72:	48 b8 00 00 00 00 00 	movabs rax,0x0
   11f79:	00 00 00 
			11f74: R_X86_64_64	caml_initialize
   11f7c:	48 89 b4 24 80 00 00 	mov    QWORD PTR [rsp+0x80],rsi
   11f83:	00 
   11f84:	48 89 bc 24 88 00 00 	mov    QWORD PTR [rsp+0x88],rdi
   11f8b:	00 
   11f8c:	4c 89 bc 24 90 00 00 	mov    QWORD PTR [rsp+0x90],r15
   11f93:	00 
   11f94:	ff d0                	call   rax
   11f96:	4c 8b bc 24 90 00 00 	mov    r15,QWORD PTR [rsp+0x90]
   11f9d:	00 
   11f9e:	4c 89 ff             	mov    rdi,r15
   11fa1:	48 81 c7 08 07 00 00 	add    rdi,0x708
   11fa8:	48 8b 74 24 78       	mov    rsi,QWORD PTR [rsp+0x78]
   11fad:	48 b8 00 00 00 00 00 	movabs rax,0x0
   11fb4:	00 00 00 
			11faf: R_X86_64_64	caml_initialize
   11fb7:	48 89 74 24 78       	mov    QWORD PTR [rsp+0x78],rsi
   11fbc:	48 89 bc 24 80 00 00 	mov    QWORD PTR [rsp+0x80],rdi
   11fc3:	00 
   11fc4:	4c 89 bc 24 88 00 00 	mov    QWORD PTR [rsp+0x88],r15
   11fcb:	00 
   11fcc:	ff d0                	call   rax
   11fce:	4c 8b bc 24 88 00 00 	mov    r15,QWORD PTR [rsp+0x88]
   11fd5:	00 
   11fd6:	4c 89 ff             	mov    rdi,r15
   11fd9:	48 81 c7 10 07 00 00 	add    rdi,0x710
   11fe0:	48 8b b4 24 e8 01 00 	mov    rsi,QWORD PTR [rsp+0x1e8]
   11fe7:	00 
   11fe8:	48 b8 00 00 00 00 00 	movabs rax,0x0
   11fef:	00 00 00 
			11fea: R_X86_64_64	caml_initialize
   11ff2:	48 89 74 24 78       	mov    QWORD PTR [rsp+0x78],rsi
   11ff7:	48 89 bc 24 80 00 00 	mov    QWORD PTR [rsp+0x80],rdi
   11ffe:	00 
   11fff:	4c 89 bc 24 88 00 00 	mov    QWORD PTR [rsp+0x88],r15
   12006:	00 
   12007:	ff d0                	call   rax
   12009:	4c 8b bc 24 88 00 00 	mov    r15,QWORD PTR [rsp+0x88]
   12010:	00 
   12011:	4c 89 ff             	mov    rdi,r15
   12014:	48 81 c7 18 07 00 00 	add    rdi,0x718
   1201b:	48 8b 74 24 70       	mov    rsi,QWORD PTR [rsp+0x70]
   12020:	48 b8 00 00 00 00 00 	movabs rax,0x0
   12027:	00 00 00 
			12022: R_X86_64_64	caml_initialize
   1202a:	48 89 74 24 70       	mov    QWORD PTR [rsp+0x70],rsi
   1202f:	48 89 7c 24 78       	mov    QWORD PTR [rsp+0x78],rdi
   12034:	4c 89 bc 24 80 00 00 	mov    QWORD PTR [rsp+0x80],r15
   1203b:	00 
   1203c:	ff d0                	call   rax
   1203e:	4c 8b bc 24 80 00 00 	mov    r15,QWORD PTR [rsp+0x80]
   12045:	00 
   12046:	4c 89 ff             	mov    rdi,r15
   12049:	48 81 c7 20 07 00 00 	add    rdi,0x720
   12050:	48 8b b4 24 d8 01 00 	mov    rsi,QWORD PTR [rsp+0x1d8]
   12057:	00 
   12058:	48 b8 00 00 00 00 00 	movabs rax,0x0
   1205f:	00 00 00 
			1205a: R_X86_64_64	caml_initialize
   12062:	48 89 74 24 70       	mov    QWORD PTR [rsp+0x70],rsi
   12067:	48 89 7c 24 78       	mov    QWORD PTR [rsp+0x78],rdi
   1206c:	4c 89 bc 24 80 00 00 	mov    QWORD PTR [rsp+0x80],r15
   12073:	00 
   12074:	ff d0                	call   rax
   12076:	4c 8b bc 24 80 00 00 	mov    r15,QWORD PTR [rsp+0x80]
   1207d:	00 
   1207e:	4c 89 ff             	mov    rdi,r15
   12081:	48 81 c7 28 07 00 00 	add    rdi,0x728
   12088:	48 8b 74 24 68       	mov    rsi,QWORD PTR [rsp+0x68]
   1208d:	48 b8 00 00 00 00 00 	movabs rax,0x0
   12094:	00 00 00 
			1208f: R_X86_64_64	caml_initialize
   12097:	48 89 74 24 68       	mov    QWORD PTR [rsp+0x68],rsi
   1209c:	48 89 7c 24 70       	mov    QWORD PTR [rsp+0x70],rdi
   120a1:	4c 89 7c 24 78       	mov    QWORD PTR [rsp+0x78],r15
   120a6:	ff d0                	call   rax
   120a8:	4c 8b 7c 24 78       	mov    r15,QWORD PTR [rsp+0x78]
   120ad:	4c 89 ff             	mov    rdi,r15
   120b0:	48 81 c7 30 07 00 00 	add    rdi,0x730
   120b7:	48 8b b4 24 c8 01 00 	mov    rsi,QWORD PTR [rsp+0x1c8]
   120be:	00 
   120bf:	48 b8 00 00 00 00 00 	movabs rax,0x0
   120c6:	00 00 00 
			120c1: R_X86_64_64	caml_initialize
   120c9:	48 89 74 24 68       	mov    QWORD PTR [rsp+0x68],rsi
   120ce:	48 89 7c 24 70       	mov    QWORD PTR [rsp+0x70],rdi
   120d3:	4c 89 7c 24 78       	mov    QWORD PTR [rsp+0x78],r15
   120d8:	ff d0                	call   rax
   120da:	4c 8b 7c 24 78       	mov    r15,QWORD PTR [rsp+0x78]
   120df:	4c 89 ff             	mov    rdi,r15
   120e2:	48 81 c7 38 07 00 00 	add    rdi,0x738
   120e9:	48 8b 74 24 60       	mov    rsi,QWORD PTR [rsp+0x60]
   120ee:	48 b8 00 00 00 00 00 	movabs rax,0x0
   120f5:	00 00 00 
			120f0: R_X86_64_64	caml_initialize
   120f8:	48 89 74 24 60       	mov    QWORD PTR [rsp+0x60],rsi
   120fd:	48 89 7c 24 68       	mov    QWORD PTR [rsp+0x68],rdi
   12102:	4c 89 7c 24 70       	mov    QWORD PTR [rsp+0x70],r15
   12107:	ff d0                	call   rax
   12109:	4c 8b 7c 24 70       	mov    r15,QWORD PTR [rsp+0x70]
   1210e:	4c 89 ff             	mov    rdi,r15
   12111:	48 81 c7 40 07 00 00 	add    rdi,0x740
   12118:	48 8b b4 24 b8 01 00 	mov    rsi,QWORD PTR [rsp+0x1b8]
   1211f:	00 
   12120:	48 b8 00 00 00 00 00 	movabs rax,0x0
   12127:	00 00 00 
			12122: R_X86_64_64	caml_initialize
   1212a:	48 89 74 24 60       	mov    QWORD PTR [rsp+0x60],rsi
   1212f:	48 89 7c 24 68       	mov    QWORD PTR [rsp+0x68],rdi
   12134:	4c 89 7c 24 70       	mov    QWORD PTR [rsp+0x70],r15
   12139:	ff d0                	call   rax
   1213b:	4c 8b 7c 24 70       	mov    r15,QWORD PTR [rsp+0x70]
   12140:	4c 89 ff             	mov    rdi,r15
   12143:	48 81 c7 48 07 00 00 	add    rdi,0x748
   1214a:	48 8b 74 24 58       	mov    rsi,QWORD PTR [rsp+0x58]
   1214f:	48 b8 00 00 00 00 00 	movabs rax,0x0
   12156:	00 00 00 
			12151: R_X86_64_64	caml_initialize
   12159:	48 89 74 24 58       	mov    QWORD PTR [rsp+0x58],rsi
   1215e:	48 89 7c 24 60       	mov    QWORD PTR [rsp+0x60],rdi
   12163:	4c 89 7c 24 68       	mov    QWORD PTR [rsp+0x68],r15
   12168:	ff d0                	call   rax
   1216a:	4c 8b 7c 24 68       	mov    r15,QWORD PTR [rsp+0x68]
   1216f:	4c 89 ff             	mov    rdi,r15
   12172:	48 81 c7 50 07 00 00 	add    rdi,0x750
   12179:	48 8b b4 24 a8 01 00 	mov    rsi,QWORD PTR [rsp+0x1a8]
   12180:	00 
   12181:	48 b8 00 00 00 00 00 	movabs rax,0x0
   12188:	00 00 00 
			12183: R_X86_64_64	caml_initialize
   1218b:	48 89 74 24 58       	mov    QWORD PTR [rsp+0x58],rsi
   12190:	48 89 7c 24 60       	mov    QWORD PTR [rsp+0x60],rdi
   12195:	4c 89 7c 24 68       	mov    QWORD PTR [rsp+0x68],r15
   1219a:	ff d0                	call   rax
   1219c:	4c 8b 7c 24 68       	mov    r15,QWORD PTR [rsp+0x68]
   121a1:	4c 89 ff             	mov    rdi,r15
   121a4:	48 81 c7 58 07 00 00 	add    rdi,0x758
   121ab:	48 8b 74 24 50       	mov    rsi,QWORD PTR [rsp+0x50]
   121b0:	48 b8 00 00 00 00 00 	movabs rax,0x0
   121b7:	00 00 00 
			121b2: R_X86_64_64	caml_initialize
   121ba:	48 89 74 24 50       	mov    QWORD PTR [rsp+0x50],rsi
   121bf:	48 89 7c 24 58       	mov    QWORD PTR [rsp+0x58],rdi
   121c4:	4c 89 7c 24 60       	mov    QWORD PTR [rsp+0x60],r15
   121c9:	ff d0                	call   rax
   121cb:	4c 8b 7c 24 60       	mov    r15,QWORD PTR [rsp+0x60]
   121d0:	4c 89 ff             	mov    rdi,r15
   121d3:	48 81 c7 60 07 00 00 	add    rdi,0x760
   121da:	48 8b b4 24 98 01 00 	mov    rsi,QWORD PTR [rsp+0x198]
   121e1:	00 
   121e2:	48 b8 00 00 00 00 00 	movabs rax,0x0
   121e9:	00 00 00 
			121e4: R_X86_64_64	caml_initialize
   121ec:	48 89 74 24 50       	mov    QWORD PTR [rsp+0x50],rsi
   121f1:	48 89 7c 24 58       	mov    QWORD PTR [rsp+0x58],rdi
   121f6:	4c 89 7c 24 60       	mov    QWORD PTR [rsp+0x60],r15
   121fb:	ff d0                	call   rax
   121fd:	4c 8b 7c 24 60       	mov    r15,QWORD PTR [rsp+0x60]
   12202:	4c 89 ff             	mov    rdi,r15
   12205:	48 81 c7 68 07 00 00 	add    rdi,0x768
   1220c:	48 8b 74 24 48       	mov    rsi,QWORD PTR [rsp+0x48]
   12211:	48 b8 00 00 00 00 00 	movabs rax,0x0
   12218:	00 00 00 
			12213: R_X86_64_64	caml_initialize
   1221b:	48 89 74 24 48       	mov    QWORD PTR [rsp+0x48],rsi
   12220:	48 89 7c 24 50       	mov    QWORD PTR [rsp+0x50],rdi
   12225:	4c 89 7c 24 58       	mov    QWORD PTR [rsp+0x58],r15
   1222a:	ff d0                	call   rax
   1222c:	4c 8b 7c 24 58       	mov    r15,QWORD PTR [rsp+0x58]
   12231:	4c 89 ff             	mov    rdi,r15
   12234:	48 81 c7 70 07 00 00 	add    rdi,0x770
   1223b:	48 8b b4 24 88 01 00 	mov    rsi,QWORD PTR [rsp+0x188]
   12242:	00 
   12243:	48 b8 00 00 00 00 00 	movabs rax,0x0
   1224a:	00 00 00 
			12245: R_X86_64_64	caml_initialize
   1224d:	48 89 74 24 48       	mov    QWORD PTR [rsp+0x48],rsi
   12252:	48 89 7c 24 50       	mov    QWORD PTR [rsp+0x50],rdi
   12257:	4c 89 7c 24 58       	mov    QWORD PTR [rsp+0x58],r15
   1225c:	ff d0                	call   rax
   1225e:	4c 8b 7c 24 58       	mov    r15,QWORD PTR [rsp+0x58]
   12263:	4c 89 ff             	mov    rdi,r15
   12266:	48 81 c7 78 07 00 00 	add    rdi,0x778
   1226d:	48 8b 74 24 40       	mov    rsi,QWORD PTR [rsp+0x40]
   12272:	48 b8 00 00 00 00 00 	movabs rax,0x0
   12279:	00 00 00 
			12274: R_X86_64_64	caml_initialize
   1227c:	48 89 74 24 40       	mov    QWORD PTR [rsp+0x40],rsi
   12281:	48 89 7c 24 48       	mov    QWORD PTR [rsp+0x48],rdi
   12286:	4c 89 7c 24 50       	mov    QWORD PTR [rsp+0x50],r15
   1228b:	ff d0                	call   rax
   1228d:	4c 8b 7c 24 50       	mov    r15,QWORD PTR [rsp+0x50]
   12292:	4c 89 ff             	mov    rdi,r15
   12295:	48 81 c7 80 07 00 00 	add    rdi,0x780
   1229c:	48 8b b4 24 78 01 00 	mov    rsi,QWORD PTR [rsp+0x178]
   122a3:	00 
   122a4:	48 b8 00 00 00 00 00 	movabs rax,0x0
   122ab:	00 00 00 
			122a6: R_X86_64_64	caml_initialize
   122ae:	48 89 74 24 40       	mov    QWORD PTR [rsp+0x40],rsi
   122b3:	48 89 7c 24 48       	mov    QWORD PTR [rsp+0x48],rdi
   122b8:	4c 89 7c 24 50       	mov    QWORD PTR [rsp+0x50],r15
   122bd:	ff d0                	call   rax
   122bf:	4c 8b 7c 24 50       	mov    r15,QWORD PTR [rsp+0x50]
   122c4:	4c 89 ff             	mov    rdi,r15
   122c7:	48 81 c7 88 07 00 00 	add    rdi,0x788
   122ce:	48 8b 74 24 38       	mov    rsi,QWORD PTR [rsp+0x38]
   122d3:	48 b8 00 00 00 00 00 	movabs rax,0x0
   122da:	00 00 00 
			122d5: R_X86_64_64	caml_initialize
   122dd:	48 89 74 24 38       	mov    QWORD PTR [rsp+0x38],rsi
   122e2:	48 89 7c 24 40       	mov    QWORD PTR [rsp+0x40],rdi
   122e7:	4c 89 7c 24 48       	mov    QWORD PTR [rsp+0x48],r15
   122ec:	ff d0                	call   rax
   122ee:	4c 8b 7c 24 48       	mov    r15,QWORD PTR [rsp+0x48]
   122f3:	4c 89 ff             	mov    rdi,r15
   122f6:	48 81 c7 90 07 00 00 	add    rdi,0x790
   122fd:	48 8b b4 24 68 01 00 	mov    rsi,QWORD PTR [rsp+0x168]
   12304:	00 
   12305:	48 b8 00 00 00 00 00 	movabs rax,0x0
   1230c:	00 00 00 
			12307: R_X86_64_64	caml_initialize
   1230f:	48 89 74 24 38       	mov    QWORD PTR [rsp+0x38],rsi
   12314:	48 89 7c 24 40       	mov    QWORD PTR [rsp+0x40],rdi
   12319:	4c 89 7c 24 48       	mov    QWORD PTR [rsp+0x48],r15
   1231e:	ff d0                	call   rax
   12320:	4c 8b 7c 24 48       	mov    r15,QWORD PTR [rsp+0x48]
   12325:	4c 89 ff             	mov    rdi,r15
   12328:	48 81 c7 98 07 00 00 	add    rdi,0x798
   1232f:	48 8b 74 24 30       	mov    rsi,QWORD PTR [rsp+0x30]
   12334:	48 b8 00 00 00 00 00 	movabs rax,0x0
   1233b:	00 00 00 
			12336: R_X86_64_64	caml_initialize
   1233e:	48 89 74 24 30       	mov    QWORD PTR [rsp+0x30],rsi
   12343:	48 89 7c 24 38       	mov    QWORD PTR [rsp+0x38],rdi
   12348:	4c 89 7c 24 40       	mov    QWORD PTR [rsp+0x40],r15
   1234d:	ff d0                	call   rax
   1234f:	4c 8b 7c 24 40       	mov    r15,QWORD PTR [rsp+0x40]
   12354:	4c 89 ff             	mov    rdi,r15
   12357:	48 81 c7 a0 07 00 00 	add    rdi,0x7a0
   1235e:	48 8b b4 24 58 01 00 	mov    rsi,QWORD PTR [rsp+0x158]
   12365:	00 
   12366:	48 b8 00 00 00 00 00 	movabs rax,0x0
   1236d:	00 00 00 
			12368: R_X86_64_64	caml_initialize
   12370:	48 89 74 24 30       	mov    QWORD PTR [rsp+0x30],rsi
   12375:	48 89 7c 24 38       	mov    QWORD PTR [rsp+0x38],rdi
   1237a:	4c 89 7c 24 40       	mov    QWORD PTR [rsp+0x40],r15
   1237f:	ff d0                	call   rax
   12381:	4c 8b 7c 24 40       	mov    r15,QWORD PTR [rsp+0x40]
   12386:	4c 89 ff             	mov    rdi,r15
   12389:	48 81 c7 a8 07 00 00 	add    rdi,0x7a8
   12390:	48 8b 74 24 28       	mov    rsi,QWORD PTR [rsp+0x28]
   12395:	48 b8 00 00 00 00 00 	movabs rax,0x0
   1239c:	00 00 00 
			12397: R_X86_64_64	caml_initialize
   1239f:	48 89 74 24 28       	mov    QWORD PTR [rsp+0x28],rsi
   123a4:	48 89 7c 24 30       	mov    QWORD PTR [rsp+0x30],rdi
   123a9:	4c 89 7c 24 38       	mov    QWORD PTR [rsp+0x38],r15
   123ae:	ff d0                	call   rax
   123b0:	4c 8b 7c 24 38       	mov    r15,QWORD PTR [rsp+0x38]
   123b5:	4c 89 ff             	mov    rdi,r15
   123b8:	48 81 c7 b0 07 00 00 	add    rdi,0x7b0
   123bf:	48 8b b4 24 48 01 00 	mov    rsi,QWORD PTR [rsp+0x148]
   123c6:	00 
   123c7:	48 b8 00 00 00 00 00 	movabs rax,0x0
   123ce:	00 00 00 
			123c9: R_X86_64_64	caml_initialize
   123d1:	48 89 74 24 28       	mov    QWORD PTR [rsp+0x28],rsi
   123d6:	48 89 7c 24 30       	mov    QWORD PTR [rsp+0x30],rdi
   123db:	4c 89 7c 24 38       	mov    QWORD PTR [rsp+0x38],r15
   123e0:	ff d0                	call   rax
   123e2:	4c 8b 7c 24 38       	mov    r15,QWORD PTR [rsp+0x38]
   123e7:	4c 89 ff             	mov    rdi,r15
   123ea:	48 81 c7 b8 07 00 00 	add    rdi,0x7b8
   123f1:	48 8b 74 24 20       	mov    rsi,QWORD PTR [rsp+0x20]
   123f6:	48 b8 00 00 00 00 00 	movabs rax,0x0
   123fd:	00 00 00 
			123f8: R_X86_64_64	caml_initialize
   12400:	48 89 74 24 20       	mov    QWORD PTR [rsp+0x20],rsi
   12405:	48 89 7c 24 28       	mov    QWORD PTR [rsp+0x28],rdi
   1240a:	4c 89 7c 24 30       	mov    QWORD PTR [rsp+0x30],r15
   1240f:	ff d0                	call   rax
   12411:	4c 8b 7c 24 30       	mov    r15,QWORD PTR [rsp+0x30]
   12416:	4c 89 ff             	mov    rdi,r15
   12419:	48 81 c7 c0 07 00 00 	add    rdi,0x7c0
   12420:	48 8b b4 24 38 01 00 	mov    rsi,QWORD PTR [rsp+0x138]
   12427:	00 
   12428:	48 b8 00 00 00 00 00 	movabs rax,0x0
   1242f:	00 00 00 
			1242a: R_X86_64_64	caml_initialize
   12432:	48 89 74 24 20       	mov    QWORD PTR [rsp+0x20],rsi
   12437:	48 89 7c 24 28       	mov    QWORD PTR [rsp+0x28],rdi
   1243c:	4c 89 7c 24 30       	mov    QWORD PTR [rsp+0x30],r15
   12441:	ff d0                	call   rax
   12443:	4c 8b 7c 24 30       	mov    r15,QWORD PTR [rsp+0x30]
   12448:	4c 89 ff             	mov    rdi,r15
   1244b:	48 81 c7 c8 07 00 00 	add    rdi,0x7c8
   12452:	48 8b 74 24 18       	mov    rsi,QWORD PTR [rsp+0x18]
   12457:	48 b8 00 00 00 00 00 	movabs rax,0x0
   1245e:	00 00 00 
			12459: R_X86_64_64	caml_initialize
   12461:	48 89 74 24 18       	mov    QWORD PTR [rsp+0x18],rsi
   12466:	48 89 7c 24 20       	mov    QWORD PTR [rsp+0x20],rdi
   1246b:	4c 89 7c 24 28       	mov    QWORD PTR [rsp+0x28],r15
   12470:	ff d0                	call   rax
   12472:	4c 8b 7c 24 28       	mov    r15,QWORD PTR [rsp+0x28]
   12477:	4c 89 ff             	mov    rdi,r15
   1247a:	48 81 c7 d0 07 00 00 	add    rdi,0x7d0
   12481:	48 8b b4 24 28 01 00 	mov    rsi,QWORD PTR [rsp+0x128]
   12488:	00 
   12489:	48 b8 00 00 00 00 00 	movabs rax,0x0
   12490:	00 00 00 
			1248b: R_X86_64_64	caml_initialize
   12493:	48 89 74 24 18       	mov    QWORD PTR [rsp+0x18],rsi
   12498:	48 89 7c 24 20       	mov    QWORD PTR [rsp+0x20],rdi
   1249d:	4c 89 7c 24 28       	mov    QWORD PTR [rsp+0x28],r15
   124a2:	ff d0                	call   rax
   124a4:	4c 8b 7c 24 28       	mov    r15,QWORD PTR [rsp+0x28]
   124a9:	4c 89 ff             	mov    rdi,r15
   124ac:	48 81 c7 d8 07 00 00 	add    rdi,0x7d8
   124b3:	48 8b 74 24 10       	mov    rsi,QWORD PTR [rsp+0x10]
   124b8:	48 b8 00 00 00 00 00 	movabs rax,0x0
   124bf:	00 00 00 
			124ba: R_X86_64_64	caml_initialize
   124c2:	48 89 74 24 10       	mov    QWORD PTR [rsp+0x10],rsi
   124c7:	48 89 7c 24 18       	mov    QWORD PTR [rsp+0x18],rdi
   124cc:	4c 89 7c 24 20       	mov    QWORD PTR [rsp+0x20],r15
   124d1:	ff d0                	call   rax
   124d3:	4c 8b 7c 24 20       	mov    r15,QWORD PTR [rsp+0x20]
   124d8:	4c 89 ff             	mov    rdi,r15
   124db:	48 81 c7 e0 07 00 00 	add    rdi,0x7e0
   124e2:	48 8b b4 24 18 01 00 	mov    rsi,QWORD PTR [rsp+0x118]
   124e9:	00 
   124ea:	48 b8 00 00 00 00 00 	movabs rax,0x0
   124f1:	00 00 00 
			124ec: R_X86_64_64	caml_initialize
   124f4:	48 89 74 24 10       	mov    QWORD PTR [rsp+0x10],rsi
   124f9:	48 89 7c 24 18       	mov    QWORD PTR [rsp+0x18],rdi
   124fe:	4c 89 7c 24 20       	mov    QWORD PTR [rsp+0x20],r15
   12503:	ff d0                	call   rax
   12505:	4c 8b 7c 24 20       	mov    r15,QWORD PTR [rsp+0x20]
   1250a:	4c 89 ff             	mov    rdi,r15
   1250d:	48 81 c7 e8 07 00 00 	add    rdi,0x7e8
   12514:	48 8b 74 24 08       	mov    rsi,QWORD PTR [rsp+0x8]
   12519:	48 b8 00 00 00 00 00 	movabs rax,0x0
   12520:	00 00 00 
			1251b: R_X86_64_64	caml_initialize
   12523:	48 89 74 24 08       	mov    QWORD PTR [rsp+0x8],rsi
   12528:	48 89 7c 24 10       	mov    QWORD PTR [rsp+0x10],rdi
   1252d:	4c 89 7c 24 18       	mov    QWORD PTR [rsp+0x18],r15
   12532:	ff d0                	call   rax
   12534:	4c 8b 7c 24 18       	mov    r15,QWORD PTR [rsp+0x18]
   12539:	4c 89 ff             	mov    rdi,r15
   1253c:	48 81 c7 f0 07 00 00 	add    rdi,0x7f0
   12543:	48 8b b4 24 08 01 00 	mov    rsi,QWORD PTR [rsp+0x108]
   1254a:	00 
   1254b:	48 b8 00 00 00 00 00 	movabs rax,0x0
   12552:	00 00 00 
			1254d: R_X86_64_64	caml_initialize
   12555:	48 89 74 24 08       	mov    QWORD PTR [rsp+0x8],rsi
   1255a:	48 89 7c 24 10       	mov    QWORD PTR [rsp+0x10],rdi
   1255f:	4c 89 7c 24 18       	mov    QWORD PTR [rsp+0x18],r15
   12564:	ff d0                	call   rax
   12566:	4c 8b 7c 24 18       	mov    r15,QWORD PTR [rsp+0x18]
   1256b:	4c 89 ff             	mov    rdi,r15
   1256e:	48 81 c7 f8 07 00 00 	add    rdi,0x7f8
   12575:	48 8b 34 24          	mov    rsi,QWORD PTR [rsp]
   12579:	48 b8 00 00 00 00 00 	movabs rax,0x0
   12580:	00 00 00 
			1257b: R_X86_64_64	caml_initialize
   12583:	48 89 34 24          	mov    QWORD PTR [rsp],rsi
   12587:	48 89 7c 24 08       	mov    QWORD PTR [rsp+0x8],rdi
   1258c:	4c 89 7c 24 10       	mov    QWORD PTR [rsp+0x10],r15
   12591:	ff d0                	call   rax
   12593:	4c 8b 7c 24 10       	mov    r15,QWORD PTR [rsp+0x10]
   12598:	49 81 c7 00 08 00 00 	add    r15,0x800
   1259f:	4c 89 ff             	mov    rdi,r15
   125a2:	48 8b b4 24 f8 00 00 	mov    rsi,QWORD PTR [rsp+0xf8]
   125a9:	00 
   125aa:	48 b8 00 00 00 00 00 	movabs rax,0x0
   125b1:	00 00 00 
			125ac: R_X86_64_64	caml_initialize
   125b4:	48 89 34 24          	mov    QWORD PTR [rsp],rsi
   125b8:	48 89 7c 24 08       	mov    QWORD PTR [rsp+0x8],rdi
   125bd:	ff d0                	call   rax
   125bf:	48 8b 84 24 d8 05 00 	mov    rax,QWORD PTR [rsp+0x5d8]
   125c6:	00 
   125c7:	48 31 d2             	xor    rdx,rdx
   125ca:	4c 8b a4 24 40 08 00 	mov    r12,QWORD PTR [rsp+0x840]
   125d1:	00 
   125d2:	4c 8b ac 24 48 08 00 	mov    r13,QWORD PTR [rsp+0x848]
   125d9:	00 
   125da:	4c 8b b4 24 50 08 00 	mov    r14,QWORD PTR [rsp+0x850]
   125e1:	00 
   125e2:	48 8b 9c 24 58 08 00 	mov    rbx,QWORD PTR [rsp+0x858]
   125e9:	00 
   125ea:	4c 8b bc 24 60 08 00 	mov    r15,QWORD PTR [rsp+0x860]
   125f1:	00 
   125f2:	48 81 c4 70 08 00 00 	add    rsp,0x870
   125f9:	48 89 ec             	mov    rsp,rbp
   125fc:	5d                   	pop    rbp
   125fd:	c3                   	ret    
