
<input>:     file format elf64-x86-64


Disassembly of section .text:

0000000000000000 <big_makeblock>:
       0:	55                   	push   rbp
       1:	48 89 e5             	mov    rbp,rsp
       4:	48 81 ec 60 08 00 00 	sub    rsp,0x860
       b:	4c 89 a4 24 30 08 00 	mov    QWORD PTR [rsp+0x830],r12
      12:	00 
      13:	4c 89 ac 24 38 08 00 	mov    QWORD PTR [rsp+0x838],r13
      1a:	00 
      1b:	4c 89 b4 24 40 08 00 	mov    QWORD PTR [rsp+0x840],r14
      22:	00 
      23:	48 89 9c 24 48 08 00 	mov    QWORD PTR [rsp+0x848],rbx
      2a:	00 
      2b:	4c 89 bc 24 50 08 00 	mov    QWORD PTR [rsp+0x850],r15
      32:	00 
      33:	49 89 fd             	mov    r13,rdi
      36:	49 89 d4             	mov    r12,rdx
      39:	49 be 00 00 00 00 00 	movabs r14,0x0
      40:	00 00 00 
			3b: R_X86_64_64	caml_state_addr
      43:	48 83 c6 08          	add    rsi,0x8
      47:	bf 7d 02 00 00       	mov    edi,0x27d
      4c:	49 89 b6 98 00 00 00 	mov    QWORD PTR [r14+0x98],rsi
      53:	48 be 00 00 00 00 00 	movabs rsi,0x0
      5a:	00 00 00 
			55: R_X86_64_64	oc_prim92
      5d:	48 89 3c 24          	mov    QWORD PTR [rsp],rdi
      61:	4c 89 6c 24 08       	mov    QWORD PTR [rsp+0x8],r13
      66:	ff d6                	call   rsi
      68:	4c 8b 6c 24 08       	mov    r13,QWORD PTR [rsp+0x8]
      6d:	49 8b b6 98 00 00 00 	mov    rsi,QWORD PTR [r14+0x98]
      74:	bb 01 00 00 00       	mov    ebx,0x1
      79:	49 8b 7d 08          	mov    rdi,QWORD PTR [r13+0x8]
      7d:	49 bf 00 00 00 00 00 	movabs r15,0x0
      84:	00 00 00 
			7f: R_X86_64_64	callback_return_addr
      87:	48 89 f1             	mov    rcx,rsi
      8a:	48 83 c1 e0          	add    rcx,0xffffffffffffffe0
      8e:	48 89 5e e0          	mov    QWORD PTR [rsi-0x20],rbx
      92:	4c 89 7e e8          	mov    QWORD PTR [rsi-0x18],r15
      96:	b8 01 00 00 00       	mov    eax,0x1
      9b:	48 89 46 f0          	mov    QWORD PTR [rsi-0x10],rax
      9f:	b8 01 00 00 00       	mov    eax,0x1
      a4:	48 89 46 f8          	mov    QWORD PTR [rsi-0x8],rax
      a8:	48 31 f6             	xor    rsi,rsi
      ab:	4c 89 e2             	mov    rdx,r12
      ae:	48 b8 00 00 00 00 00 	movabs rax,0x0
      b5:	00 00 00 
			b0: R_X86_64_64	do_callback
      b8:	48 89 1c 24          	mov    QWORD PTR [rsp],rbx
      bc:	48 89 7c 24 08       	mov    QWORD PTR [rsp+0x8],rdi
      c1:	4c 89 6c 24 10       	mov    QWORD PTR [rsp+0x10],r13
      c6:	ff d0                	call   rax
      c8:	48 8b 1c 24          	mov    rbx,QWORD PTR [rsp]
      cc:	4c 8b 6c 24 10       	mov    r13,QWORD PTR [rsp+0x10]
      d1:	48 89 c6             	mov    rsi,rax
      d4:	48 89 34 24          	mov    QWORD PTR [rsp],rsi
      d8:	49 8b 7d 08          	mov    rdi,QWORD PTR [r13+0x8]
      dc:	48 89 d1             	mov    rcx,rdx
      df:	48 83 c1 e0          	add    rcx,0xffffffffffffffe0
      e3:	48 89 5a e0          	mov    QWORD PTR [rdx-0x20],rbx
      e7:	4c 89 7a e8          	mov    QWORD PTR [rdx-0x18],r15
      eb:	be 01 00 00 00       	mov    esi,0x1
      f0:	48 89 72 f0          	mov    QWORD PTR [rdx-0x10],rsi
      f4:	be 01 00 00 00       	mov    esi,0x1
      f9:	48 89 72 f8          	mov    QWORD PTR [rdx-0x8],rsi
      fd:	48 31 f6             	xor    rsi,rsi
     100:	4c 89 e2             	mov    rdx,r12
     103:	48 b8 00 00 00 00 00 	movabs rax,0x0
     10a:	00 00 00 
			105: R_X86_64_64	do_callback
     10d:	48 89 5c 24 08       	mov    QWORD PTR [rsp+0x8],rbx
     112:	48 89 7c 24 10       	mov    QWORD PTR [rsp+0x10],rdi
     117:	4c 89 6c 24 18       	mov    QWORD PTR [rsp+0x18],r13
     11c:	ff d0                	call   rax
     11e:	48 8b 5c 24 08       	mov    rbx,QWORD PTR [rsp+0x8]
     123:	4c 8b 6c 24 18       	mov    r13,QWORD PTR [rsp+0x18]
     128:	48 89 c6             	mov    rsi,rax
     12b:	48 89 74 24 08       	mov    QWORD PTR [rsp+0x8],rsi
     130:	49 8b 7d 08          	mov    rdi,QWORD PTR [r13+0x8]
     134:	48 89 d1             	mov    rcx,rdx
     137:	48 83 c1 e0          	add    rcx,0xffffffffffffffe0
     13b:	48 89 5a e0          	mov    QWORD PTR [rdx-0x20],rbx
     13f:	4c 89 7a e8          	mov    QWORD PTR [rdx-0x18],r15
     143:	be 01 00 00 00       	mov    esi,0x1
     148:	48 89 72 f0          	mov    QWORD PTR [rdx-0x10],rsi
     14c:	be 01 00 00 00       	mov    esi,0x1
     151:	48 89 72 f8          	mov    QWORD PTR [rdx-0x8],rsi
     155:	48 31 f6             	xor    rsi,rsi
     158:	4c 89 e2             	mov    rdx,r12
     15b:	48 b8 00 00 00 00 00 	movabs rax,0x0
     162:	00 00 00 
			15d: R_X86_64_64	do_callback
     165:	48 89 5c 24 10       	mov    QWORD PTR [rsp+0x10],rbx
     16a:	48 89 7c 24 18       	mov    QWORD PTR [rsp+0x18],rdi
     16f:	4c 89 6c 24 20       	mov    QWORD PTR [rsp+0x20],r13
     174:	ff d0                	call   rax
     176:	48 8b 5c 24 10       	mov    rbx,QWORD PTR [rsp+0x10]
     17b:	4c 8b 6c 24 20       	mov    r13,QWORD PTR [rsp+0x20]
     180:	48 89 c6             	mov    rsi,rax
     183:	48 89 74 24 10       	mov    QWORD PTR [rsp+0x10],rsi
     188:	49 8b 7d 08          	mov    rdi,QWORD PTR [r13+0x8]
     18c:	48 89 d1             	mov    rcx,rdx
     18f:	48 83 c1 e0          	add    rcx,0xffffffffffffffe0
     193:	48 89 5a e0          	mov    QWORD PTR [rdx-0x20],rbx
     197:	4c 89 7a e8          	mov    QWORD PTR [rdx-0x18],r15
     19b:	be 01 00 00 00       	mov    esi,0x1
     1a0:	48 89 72 f0          	mov    QWORD PTR [rdx-0x10],rsi
     1a4:	be 01 00 00 00       	mov    esi,0x1
     1a9:	48 89 72 f8          	mov    QWORD PTR [rdx-0x8],rsi
     1ad:	48 31 f6             	xor    rsi,rsi
     1b0:	4c 89 e2             	mov    rdx,r12
     1b3:	48 b8 00 00 00 00 00 	movabs rax,0x0
     1ba:	00 00 00 
			1b5: R_X86_64_64	do_callback
     1bd:	48 89 5c 24 18       	mov    QWORD PTR [rsp+0x18],rbx
     1c2:	48 89 7c 24 20       	mov    QWORD PTR [rsp+0x20],rdi
     1c7:	4c 89 6c 24 28       	mov    QWORD PTR [rsp+0x28],r13
     1cc:	ff d0                	call   rax
     1ce:	48 8b 5c 24 18       	mov    rbx,QWORD PTR [rsp+0x18]
     1d3:	4c 8b 6c 24 28       	mov    r13,QWORD PTR [rsp+0x28]
     1d8:	48 89 c6             	mov    rsi,rax
     1db:	48 89 74 24 18       	mov    QWORD PTR [rsp+0x18],rsi
     1e0:	49 8b 7d 08          	mov    rdi,QWORD PTR [r13+0x8]
     1e4:	48 89 d1             	mov    rcx,rdx
     1e7:	48 83 c1 e0          	add    rcx,0xffffffffffffffe0
     1eb:	48 89 5a e0          	mov    QWORD PTR [rdx-0x20],rbx
     1ef:	4c 89 7a e8          	mov    QWORD PTR [rdx-0x18],r15
     1f3:	be 01 00 00 00       	mov    esi,0x1
     1f8:	48 89 72 f0          	mov    QWORD PTR [rdx-0x10],rsi
     1fc:	be 01 00 00 00       	mov    esi,0x1
     201:	48 89 72 f8          	mov    QWORD PTR [rdx-0x8],rsi
     205:	48 31 f6             	xor    rsi,rsi
     208:	4c 89 e2             	mov    rdx,r12
     20b:	48 b8 00 00 00 00 00 	movabs rax,0x0
     212:	00 00 00 
			20d: R_X86_64_64	do_callback
     215:	48 89 5c 24 20       	mov    QWORD PTR [rsp+0x20],rbx
     21a:	48 89 7c 24 28       	mov    QWORD PTR [rsp+0x28],rdi
     21f:	4c 89 6c 24 30       	mov    QWORD PTR [rsp+0x30],r13
     224:	ff d0                	call   rax
     226:	48 8b 5c 24 20       	mov    rbx,QWORD PTR [rsp+0x20]
     22b:	4c 8b 6c 24 30       	mov    r13,QWORD PTR [rsp+0x30]
     230:	48 89 c6             	mov    rsi,rax
     233:	48 89 74 24 20       	mov    QWORD PTR [rsp+0x20],rsi
     238:	49 8b 7d 08          	mov    rdi,QWORD PTR [r13+0x8]
     23c:	48 89 d1             	mov    rcx,rdx
     23f:	48 83 c1 e0          	add    rcx,0xffffffffffffffe0
     243:	48 89 5a e0          	mov    QWORD PTR [rdx-0x20],rbx
     247:	4c 89 7a e8          	mov    QWORD PTR [rdx-0x18],r15
     24b:	be 01 00 00 00       	mov    esi,0x1
     250:	48 89 72 f0          	mov    QWORD PTR [rdx-0x10],rsi
     254:	be 01 00 00 00       	mov    esi,0x1
     259:	48 89 72 f8          	mov    QWORD PTR [rdx-0x8],rsi
     25d:	48 31 f6             	xor    rsi,rsi
     260:	4c 89 e2             	mov    rdx,r12
     263:	48 b8 00 00 00 00 00 	movabs rax,0x0
     26a:	00 00 00 
			265: R_X86_64_64	do_callback
     26d:	48 89 5c 24 28       	mov    QWORD PTR [rsp+0x28],rbx
     272:	48 89 7c 24 30       	mov    QWORD PTR [rsp+0x30],rdi
     277:	4c 89 6c 24 38       	mov    QWORD PTR [rsp+0x38],r13
     27c:	ff d0                	call   rax
     27e:	48 8b 5c 24 28       	mov    rbx,QWORD PTR [rsp+0x28]
     283:	4c 8b 6c 24 38       	mov    r13,QWORD PTR [rsp+0x38]
     288:	48 89 c6             	mov    rsi,rax
     28b:	48 89 74 24 28       	mov    QWORD PTR [rsp+0x28],rsi
     290:	49 8b 7d 08          	mov    rdi,QWORD PTR [r13+0x8]
     294:	48 89 d1             	mov    rcx,rdx
     297:	48 83 c1 e0          	add    rcx,0xffffffffffffffe0
     29b:	48 89 5a e0          	mov    QWORD PTR [rdx-0x20],rbx
     29f:	4c 89 7a e8          	mov    QWORD PTR [rdx-0x18],r15
     2a3:	be 01 00 00 00       	mov    esi,0x1
     2a8:	48 89 72 f0          	mov    QWORD PTR [rdx-0x10],rsi
     2ac:	be 01 00 00 00       	mov    esi,0x1
     2b1:	48 89 72 f8          	mov    QWORD PTR [rdx-0x8],rsi
     2b5:	48 31 f6             	xor    rsi,rsi
     2b8:	4c 89 e2             	mov    rdx,r12
     2bb:	48 b8 00 00 00 00 00 	movabs rax,0x0
     2c2:	00 00 00 
			2bd: R_X86_64_64	do_callback
     2c5:	48 89 5c 24 30       	mov    QWORD PTR [rsp+0x30],rbx
     2ca:	48 89 7c 24 38       	mov    QWORD PTR [rsp+0x38],rdi
     2cf:	4c 89 6c 24 40       	mov    QWORD PTR [rsp+0x40],r13
     2d4:	ff d0                	call   rax
     2d6:	48 8b 5c 24 30       	mov    rbx,QWORD PTR [rsp+0x30]
     2db:	4c 8b 6c 24 40       	mov    r13,QWORD PTR [rsp+0x40]
     2e0:	48 89 c6             	mov    rsi,rax
     2e3:	48 89 74 24 30       	mov    QWORD PTR [rsp+0x30],rsi
     2e8:	49 8b 7d 08          	mov    rdi,QWORD PTR [r13+0x8]
     2ec:	48 89 d1             	mov    rcx,rdx
     2ef:	48 83 c1 e0          	add    rcx,0xffffffffffffffe0
     2f3:	48 89 5a e0          	mov    QWORD PTR [rdx-0x20],rbx
     2f7:	4c 89 7a e8          	mov    QWORD PTR [rdx-0x18],r15
     2fb:	be 01 00 00 00       	mov    esi,0x1
     300:	48 89 72 f0          	mov    QWORD PTR [rdx-0x10],rsi
     304:	be 01 00 00 00       	mov    esi,0x1
     309:	48 89 72 f8          	mov    QWORD PTR [rdx-0x8],rsi
     30d:	48 31 f6             	xor    rsi,rsi
     310:	4c 89 e2             	mov    rdx,r12
     313:	48 b8 00 00 00 00 00 	movabs rax,0x0
     31a:	00 00 00 
			315: R_X86_64_64	do_callback
     31d:	48 89 5c 24 38       	mov    QWORD PTR [rsp+0x38],rbx
     322:	48 89 7c 24 40       	mov    QWORD PTR [rsp+0x40],rdi
     327:	4c 89 6c 24 48       	mov    QWORD PTR [rsp+0x48],r13
     32c:	ff d0                	call   rax
     32e:	48 8b 5c 24 38       	mov    rbx,QWORD PTR [rsp+0x38]
     333:	4c 8b 6c 24 48       	mov    r13,QWORD PTR [rsp+0x48]
     338:	48 89 c6             	mov    rsi,rax
     33b:	48 89 74 24 38       	mov    QWORD PTR [rsp+0x38],rsi
     340:	49 8b 7d 08          	mov    rdi,QWORD PTR [r13+0x8]
     344:	48 89 d1             	mov    rcx,rdx
     347:	48 83 c1 e0          	add    rcx,0xffffffffffffffe0
     34b:	48 89 5a e0          	mov    QWORD PTR [rdx-0x20],rbx
     34f:	4c 89 7a e8          	mov    QWORD PTR [rdx-0x18],r15
     353:	be 01 00 00 00       	mov    esi,0x1
     358:	48 89 72 f0          	mov    QWORD PTR [rdx-0x10],rsi
     35c:	be 01 00 00 00       	mov    esi,0x1
     361:	48 89 72 f8          	mov    QWORD PTR [rdx-0x8],rsi
     365:	48 31 f6             	xor    rsi,rsi
     368:	4c 89 e2             	mov    rdx,r12
     36b:	48 b8 00 00 00 00 00 	movabs rax,0x0
     372:	00 00 00 
			36d: R_X86_64_64	do_callback
     375:	48 89 5c 24 40       	mov    QWORD PTR [rsp+0x40],rbx
     37a:	48 89 7c 24 48       	mov    QWORD PTR [rsp+0x48],rdi
     37f:	4c 89 6c 24 50       	mov    QWORD PTR [rsp+0x50],r13
     384:	ff d0                	call   rax
     386:	48 8b 5c 24 40       	mov    rbx,QWORD PTR [rsp+0x40]
     38b:	4c 8b 6c 24 50       	mov    r13,QWORD PTR [rsp+0x50]
     390:	48 89 c6             	mov    rsi,rax
     393:	48 89 74 24 40       	mov    QWORD PTR [rsp+0x40],rsi
     398:	49 8b 7d 08          	mov    rdi,QWORD PTR [r13+0x8]
     39c:	48 89 d1             	mov    rcx,rdx
     39f:	48 83 c1 e0          	add    rcx,0xffffffffffffffe0
     3a3:	48 89 5a e0          	mov    QWORD PTR [rdx-0x20],rbx
     3a7:	4c 89 7a e8          	mov    QWORD PTR [rdx-0x18],r15
     3ab:	be 01 00 00 00       	mov    esi,0x1
     3b0:	48 89 72 f0          	mov    QWORD PTR [rdx-0x10],rsi
     3b4:	be 01 00 00 00       	mov    esi,0x1
     3b9:	48 89 72 f8          	mov    QWORD PTR [rdx-0x8],rsi
     3bd:	48 31 f6             	xor    rsi,rsi
     3c0:	4c 89 e2             	mov    rdx,r12
     3c3:	48 b8 00 00 00 00 00 	movabs rax,0x0
     3ca:	00 00 00 
			3c5: R_X86_64_64	do_callback
     3cd:	48 89 5c 24 48       	mov    QWORD PTR [rsp+0x48],rbx
     3d2:	48 89 7c 24 50       	mov    QWORD PTR [rsp+0x50],rdi
     3d7:	4c 89 6c 24 58       	mov    QWORD PTR [rsp+0x58],r13
     3dc:	ff d0                	call   rax
     3de:	48 8b 5c 24 48       	mov    rbx,QWORD PTR [rsp+0x48]
     3e3:	4c 8b 6c 24 58       	mov    r13,QWORD PTR [rsp+0x58]
     3e8:	48 89 c6             	mov    rsi,rax
     3eb:	48 89 74 24 48       	mov    QWORD PTR [rsp+0x48],rsi
     3f0:	49 8b 7d 08          	mov    rdi,QWORD PTR [r13+0x8]
     3f4:	48 89 d1             	mov    rcx,rdx
     3f7:	48 83 c1 e0          	add    rcx,0xffffffffffffffe0
     3fb:	48 89 5a e0          	mov    QWORD PTR [rdx-0x20],rbx
     3ff:	4c 89 7a e8          	mov    QWORD PTR [rdx-0x18],r15
     403:	be 01 00 00 00       	mov    esi,0x1
     408:	48 89 72 f0          	mov    QWORD PTR [rdx-0x10],rsi
     40c:	be 01 00 00 00       	mov    esi,0x1
     411:	48 89 72 f8          	mov    QWORD PTR [rdx-0x8],rsi
     415:	48 31 f6             	xor    rsi,rsi
     418:	4c 89 e2             	mov    rdx,r12
     41b:	48 b8 00 00 00 00 00 	movabs rax,0x0
     422:	00 00 00 
			41d: R_X86_64_64	do_callback
     425:	48 89 5c 24 50       	mov    QWORD PTR [rsp+0x50],rbx
     42a:	48 89 7c 24 58       	mov    QWORD PTR [rsp+0x58],rdi
     42f:	4c 89 6c 24 60       	mov    QWORD PTR [rsp+0x60],r13
     434:	ff d0                	call   rax
     436:	48 8b 5c 24 50       	mov    rbx,QWORD PTR [rsp+0x50]
     43b:	4c 8b 6c 24 60       	mov    r13,QWORD PTR [rsp+0x60]
     440:	48 89 c6             	mov    rsi,rax
     443:	48 89 74 24 50       	mov    QWORD PTR [rsp+0x50],rsi
     448:	49 8b 7d 08          	mov    rdi,QWORD PTR [r13+0x8]
     44c:	48 89 d1             	mov    rcx,rdx
     44f:	48 83 c1 e0          	add    rcx,0xffffffffffffffe0
     453:	48 89 5a e0          	mov    QWORD PTR [rdx-0x20],rbx
     457:	4c 89 7a e8          	mov    QWORD PTR [rdx-0x18],r15
     45b:	be 01 00 00 00       	mov    esi,0x1
     460:	48 89 72 f0          	mov    QWORD PTR [rdx-0x10],rsi
     464:	be 01 00 00 00       	mov    esi,0x1
     469:	48 89 72 f8          	mov    QWORD PTR [rdx-0x8],rsi
     46d:	48 31 f6             	xor    rsi,rsi
     470:	4c 89 e2             	mov    rdx,r12
     473:	48 b8 00 00 00 00 00 	movabs rax,0x0
     47a:	00 00 00 
			475: R_X86_64_64	do_callback
     47d:	48 89 5c 24 58       	mov    QWORD PTR [rsp+0x58],rbx
     482:	48 89 7c 24 60       	mov    QWORD PTR [rsp+0x60],rdi
     487:	4c 89 6c 24 68       	mov    QWORD PTR [rsp+0x68],r13
     48c:	ff d0                	call   rax
     48e:	48 8b 5c 24 58       	mov    rbx,QWORD PTR [rsp+0x58]
     493:	4c 8b 6c 24 68       	mov    r13,QWORD PTR [rsp+0x68]
     498:	48 89 c6             	mov    rsi,rax
     49b:	48 89 74 24 58       	mov    QWORD PTR [rsp+0x58],rsi
     4a0:	49 8b 7d 08          	mov    rdi,QWORD PTR [r13+0x8]
     4a4:	48 89 d1             	mov    rcx,rdx
     4a7:	48 83 c1 e0          	add    rcx,0xffffffffffffffe0
     4ab:	48 89 5a e0          	mov    QWORD PTR [rdx-0x20],rbx
     4af:	4c 89 7a e8          	mov    QWORD PTR [rdx-0x18],r15
     4b3:	be 01 00 00 00       	mov    esi,0x1
     4b8:	48 89 72 f0          	mov    QWORD PTR [rdx-0x10],rsi
     4bc:	be 01 00 00 00       	mov    esi,0x1
     4c1:	48 89 72 f8          	mov    QWORD PTR [rdx-0x8],rsi
     4c5:	48 31 f6             	xor    rsi,rsi
     4c8:	4c 89 e2             	mov    rdx,r12
     4cb:	48 b8 00 00 00 00 00 	movabs rax,0x0
     4d2:	00 00 00 
			4cd: R_X86_64_64	do_callback
     4d5:	48 89 5c 24 60       	mov    QWORD PTR [rsp+0x60],rbx
     4da:	48 89 7c 24 68       	mov    QWORD PTR [rsp+0x68],rdi
     4df:	4c 89 6c 24 70       	mov    QWORD PTR [rsp+0x70],r13
     4e4:	ff d0                	call   rax
     4e6:	48 8b 5c 24 60       	mov    rbx,QWORD PTR [rsp+0x60]
     4eb:	4c 8b 6c 24 70       	mov    r13,QWORD PTR [rsp+0x70]
     4f0:	48 89 c6             	mov    rsi,rax
     4f3:	48 89 74 24 60       	mov    QWORD PTR [rsp+0x60],rsi
     4f8:	49 8b 7d 08          	mov    rdi,QWORD PTR [r13+0x8]
     4fc:	48 89 d1             	mov    rcx,rdx
     4ff:	48 83 c1 e0          	add    rcx,0xffffffffffffffe0
     503:	48 89 5a e0          	mov    QWORD PTR [rdx-0x20],rbx
     507:	4c 89 7a e8          	mov    QWORD PTR [rdx-0x18],r15
     50b:	be 01 00 00 00       	mov    esi,0x1
     510:	48 89 72 f0          	mov    QWORD PTR [rdx-0x10],rsi
     514:	be 01 00 00 00       	mov    esi,0x1
     519:	48 89 72 f8          	mov    QWORD PTR [rdx-0x8],rsi
     51d:	48 31 f6             	xor    rsi,rsi
     520:	4c 89 e2             	mov    rdx,r12
     523:	48 b8 00 00 00 00 00 	movabs rax,0x0
     52a:	00 00 00 
			525: R_X86_64_64	do_callback
     52d:	48 89 5c 24 68       	mov    QWORD PTR [rsp+0x68],rbx
     532:	48 89 7c 24 70       	mov    QWORD PTR [rsp+0x70],rdi
     537:	4c 89 6c 24 78       	mov    QWORD PTR [rsp+0x78],r13
     53c:	ff d0                	call   rax
     53e:	48 8b 5c 24 68       	mov    rbx,QWORD PTR [rsp+0x68]
     543:	4c 8b 6c 24 78       	mov    r13,QWORD PTR [rsp+0x78]
     548:	48 89 c6             	mov    rsi,rax
     54b:	48 89 74 24 68       	mov    QWORD PTR [rsp+0x68],rsi
     550:	49 8b 7d 08          	mov    rdi,QWORD PTR [r13+0x8]
     554:	48 89 d1             	mov    rcx,rdx
     557:	48 83 c1 e0          	add    rcx,0xffffffffffffffe0
     55b:	48 89 5a e0          	mov    QWORD PTR [rdx-0x20],rbx
     55f:	4c 89 7a e8          	mov    QWORD PTR [rdx-0x18],r15
     563:	be 01 00 00 00       	mov    esi,0x1
     568:	48 89 72 f0          	mov    QWORD PTR [rdx-0x10],rsi
     56c:	be 01 00 00 00       	mov    esi,0x1
     571:	48 89 72 f8          	mov    QWORD PTR [rdx-0x8],rsi
     575:	48 31 f6             	xor    rsi,rsi
     578:	4c 89 e2             	mov    rdx,r12
     57b:	48 b8 00 00 00 00 00 	movabs rax,0x0
     582:	00 00 00 
			57d: R_X86_64_64	do_callback
     585:	48 89 5c 24 70       	mov    QWORD PTR [rsp+0x70],rbx
     58a:	48 89 7c 24 78       	mov    QWORD PTR [rsp+0x78],rdi
     58f:	4c 89 ac 24 80 00 00 	mov    QWORD PTR [rsp+0x80],r13
     596:	00 
     597:	ff d0                	call   rax
     599:	48 8b 5c 24 70       	mov    rbx,QWORD PTR [rsp+0x70]
     59e:	4c 8b ac 24 80 00 00 	mov    r13,QWORD PTR [rsp+0x80]
     5a5:	00 
     5a6:	48 89 c6             	mov    rsi,rax
     5a9:	48 89 74 24 70       	mov    QWORD PTR [rsp+0x70],rsi
     5ae:	49 8b 7d 08          	mov    rdi,QWORD PTR [r13+0x8]
     5b2:	48 89 d1             	mov    rcx,rdx
     5b5:	48 83 c1 e0          	add    rcx,0xffffffffffffffe0
     5b9:	48 89 5a e0          	mov    QWORD PTR [rdx-0x20],rbx
     5bd:	4c 89 7a e8          	mov    QWORD PTR [rdx-0x18],r15
     5c1:	be 01 00 00 00       	mov    esi,0x1
     5c6:	48 89 72 f0          	mov    QWORD PTR [rdx-0x10],rsi
     5ca:	be 01 00 00 00       	mov    esi,0x1
     5cf:	48 89 72 f8          	mov    QWORD PTR [rdx-0x8],rsi
     5d3:	48 31 f6             	xor    rsi,rsi
     5d6:	4c 89 e2             	mov    rdx,r12
     5d9:	48 b8 00 00 00 00 00 	movabs rax,0x0
     5e0:	00 00 00 
			5db: R_X86_64_64	do_callback
     5e3:	48 89 5c 24 78       	mov    QWORD PTR [rsp+0x78],rbx
     5e8:	48 89 bc 24 80 00 00 	mov    QWORD PTR [rsp+0x80],rdi
     5ef:	00 
     5f0:	4c 89 ac 24 88 00 00 	mov    QWORD PTR [rsp+0x88],r13
     5f7:	00 
     5f8:	ff d0                	call   rax
     5fa:	48 8b 5c 24 78       	mov    rbx,QWORD PTR [rsp+0x78]
     5ff:	4c 8b ac 24 88 00 00 	mov    r13,QWORD PTR [rsp+0x88]
     606:	00 
     607:	48 89 c6             	mov    rsi,rax
     60a:	48 89 74 24 78       	mov    QWORD PTR [rsp+0x78],rsi
     60f:	49 8b 7d 08          	mov    rdi,QWORD PTR [r13+0x8]
     613:	48 89 d1             	mov    rcx,rdx
     616:	48 83 c1 e0          	add    rcx,0xffffffffffffffe0
     61a:	48 89 5a e0          	mov    QWORD PTR [rdx-0x20],rbx
     61e:	4c 89 7a e8          	mov    QWORD PTR [rdx-0x18],r15
     622:	be 01 00 00 00       	mov    esi,0x1
     627:	48 89 72 f0          	mov    QWORD PTR [rdx-0x10],rsi
     62b:	be 01 00 00 00       	mov    esi,0x1
     630:	48 89 72 f8          	mov    QWORD PTR [rdx-0x8],rsi
     634:	48 31 f6             	xor    rsi,rsi
     637:	4c 89 e2             	mov    rdx,r12
     63a:	48 b8 00 00 00 00 00 	movabs rax,0x0
     641:	00 00 00 
			63c: R_X86_64_64	do_callback
     644:	48 89 9c 24 80 00 00 	mov    QWORD PTR [rsp+0x80],rbx
     64b:	00 
     64c:	48 89 bc 24 88 00 00 	mov    QWORD PTR [rsp+0x88],rdi
     653:	00 
     654:	4c 89 ac 24 90 00 00 	mov    QWORD PTR [rsp+0x90],r13
     65b:	00 
     65c:	ff d0                	call   rax
     65e:	48 8b 9c 24 80 00 00 	mov    rbx,QWORD PTR [rsp+0x80]
     665:	00 
     666:	4c 8b ac 24 90 00 00 	mov    r13,QWORD PTR [rsp+0x90]
     66d:	00 
     66e:	48 89 c6             	mov    rsi,rax
     671:	48 89 b4 24 80 00 00 	mov    QWORD PTR [rsp+0x80],rsi
     678:	00 
     679:	49 8b 7d 08          	mov    rdi,QWORD PTR [r13+0x8]
     67d:	48 89 d1             	mov    rcx,rdx
     680:	48 83 c1 e0          	add    rcx,0xffffffffffffffe0
     684:	48 89 5a e0          	mov    QWORD PTR [rdx-0x20],rbx
     688:	4c 89 7a e8          	mov    QWORD PTR [rdx-0x18],r15
     68c:	be 01 00 00 00       	mov    esi,0x1
     691:	48 89 72 f0          	mov    QWORD PTR [rdx-0x10],rsi
     695:	be 01 00 00 00       	mov    esi,0x1
     69a:	48 89 72 f8          	mov    QWORD PTR [rdx-0x8],rsi
     69e:	48 31 f6             	xor    rsi,rsi
     6a1:	4c 89 e2             	mov    rdx,r12
     6a4:	48 b8 00 00 00 00 00 	movabs rax,0x0
     6ab:	00 00 00 
			6a6: R_X86_64_64	do_callback
     6ae:	48 89 9c 24 88 00 00 	mov    QWORD PTR [rsp+0x88],rbx
     6b5:	00 
     6b6:	48 89 bc 24 90 00 00 	mov    QWORD PTR [rsp+0x90],rdi
     6bd:	00 
     6be:	4c 89 ac 24 98 00 00 	mov    QWORD PTR [rsp+0x98],r13
     6c5:	00 
     6c6:	ff d0                	call   rax
     6c8:	48 8b 9c 24 88 00 00 	mov    rbx,QWORD PTR [rsp+0x88]
     6cf:	00 
     6d0:	4c 8b ac 24 98 00 00 	mov    r13,QWORD PTR [rsp+0x98]
     6d7:	00 
     6d8:	48 89 c6             	mov    rsi,rax
     6db:	48 89 b4 24 88 00 00 	mov    QWORD PTR [rsp+0x88],rsi
     6e2:	00 
     6e3:	49 8b 7d 08          	mov    rdi,QWORD PTR [r13+0x8]
     6e7:	48 89 d1             	mov    rcx,rdx
     6ea:	48 83 c1 e0          	add    rcx,0xffffffffffffffe0
     6ee:	48 89 5a e0          	mov    QWORD PTR [rdx-0x20],rbx
     6f2:	4c 89 7a e8          	mov    QWORD PTR [rdx-0x18],r15
     6f6:	be 01 00 00 00       	mov    esi,0x1
     6fb:	48 89 72 f0          	mov    QWORD PTR [rdx-0x10],rsi
     6ff:	be 01 00 00 00       	mov    esi,0x1
     704:	48 89 72 f8          	mov    QWORD PTR [rdx-0x8],rsi
     708:	48 31 f6             	xor    rsi,rsi
     70b:	4c 89 e2             	mov    rdx,r12
     70e:	48 b8 00 00 00 00 00 	movabs rax,0x0
     715:	00 00 00 
			710: R_X86_64_64	do_callback
     718:	48 89 9c 24 90 00 00 	mov    QWORD PTR [rsp+0x90],rbx
     71f:	00 
     720:	48 89 bc 24 98 00 00 	mov    QWORD PTR [rsp+0x98],rdi
     727:	00 
     728:	4c 89 ac 24 a0 00 00 	mov    QWORD PTR [rsp+0xa0],r13
     72f:	00 
     730:	ff d0                	call   rax
     732:	48 8b 9c 24 90 00 00 	mov    rbx,QWORD PTR [rsp+0x90]
     739:	00 
     73a:	4c 8b ac 24 a0 00 00 	mov    r13,QWORD PTR [rsp+0xa0]
     741:	00 
     742:	48 89 c6             	mov    rsi,rax
     745:	48 89 b4 24 90 00 00 	mov    QWORD PTR [rsp+0x90],rsi
     74c:	00 
     74d:	49 8b 7d 08          	mov    rdi,QWORD PTR [r13+0x8]
     751:	48 89 d1             	mov    rcx,rdx
     754:	48 83 c1 e0          	add    rcx,0xffffffffffffffe0
     758:	48 89 5a e0          	mov    QWORD PTR [rdx-0x20],rbx
     75c:	4c 89 7a e8          	mov    QWORD PTR [rdx-0x18],r15
     760:	be 01 00 00 00       	mov    esi,0x1
     765:	48 89 72 f0          	mov    QWORD PTR [rdx-0x10],rsi
     769:	be 01 00 00 00       	mov    esi,0x1
     76e:	48 89 72 f8          	mov    QWORD PTR [rdx-0x8],rsi
     772:	48 31 f6             	xor    rsi,rsi
     775:	4c 89 e2             	mov    rdx,r12
     778:	48 b8 00 00 00 00 00 	movabs rax,0x0
     77f:	00 00 00 
			77a: R_X86_64_64	do_callback
     782:	48 89 9c 24 98 00 00 	mov    QWORD PTR [rsp+0x98],rbx
     789:	00 
     78a:	48 89 bc 24 a0 00 00 	mov    QWORD PTR [rsp+0xa0],rdi
     791:	00 
     792:	4c 89 ac 24 a8 00 00 	mov    QWORD PTR [rsp+0xa8],r13
     799:	00 
     79a:	ff d0                	call   rax
     79c:	48 8b 9c 24 98 00 00 	mov    rbx,QWORD PTR [rsp+0x98]
     7a3:	00 
     7a4:	4c 8b ac 24 a8 00 00 	mov    r13,QWORD PTR [rsp+0xa8]
     7ab:	00 
     7ac:	48 89 c6             	mov    rsi,rax
     7af:	48 89 b4 24 98 00 00 	mov    QWORD PTR [rsp+0x98],rsi
     7b6:	00 
     7b7:	49 8b 7d 08          	mov    rdi,QWORD PTR [r13+0x8]
     7bb:	48 89 d1             	mov    rcx,rdx
     7be:	48 83 c1 e0          	add    rcx,0xffffffffffffffe0
     7c2:	48 89 5a e0          	mov    QWORD PTR [rdx-0x20],rbx
     7c6:	4c 89 7a e8          	mov    QWORD PTR [rdx-0x18],r15
     7ca:	be 01 00 00 00       	mov    esi,0x1
     7cf:	48 89 72 f0          	mov    QWORD PTR [rdx-0x10],rsi
     7d3:	be 01 00 00 00       	mov    esi,0x1
     7d8:	48 89 72 f8          	mov    QWORD PTR [rdx-0x8],rsi
     7dc:	48 31 f6             	xor    rsi,rsi
     7df:	4c 89 e2             	mov    rdx,r12
     7e2:	48 b8 00 00 00 00 00 	movabs rax,0x0
     7e9:	00 00 00 
			7e4: R_X86_64_64	do_callback
     7ec:	48 89 9c 24 a0 00 00 	mov    QWORD PTR [rsp+0xa0],rbx
     7f3:	00 
     7f4:	48 89 bc 24 a8 00 00 	mov    QWORD PTR [rsp+0xa8],rdi
     7fb:	00 
     7fc:	4c 89 ac 24 b0 00 00 	mov    QWORD PTR [rsp+0xb0],r13
     803:	00 
     804:	ff d0                	call   rax
     806:	48 8b 9c 24 a0 00 00 	mov    rbx,QWORD PTR [rsp+0xa0]
     80d:	00 
     80e:	4c 8b ac 24 b0 00 00 	mov    r13,QWORD PTR [rsp+0xb0]
     815:	00 
     816:	48 89 c6             	mov    rsi,rax
     819:	48 89 b4 24 a0 00 00 	mov    QWORD PTR [rsp+0xa0],rsi
     820:	00 
     821:	49 8b 7d 08          	mov    rdi,QWORD PTR [r13+0x8]
     825:	48 89 d1             	mov    rcx,rdx
     828:	48 83 c1 e0          	add    rcx,0xffffffffffffffe0
     82c:	48 89 5a e0          	mov    QWORD PTR [rdx-0x20],rbx
     830:	4c 89 7a e8          	mov    QWORD PTR [rdx-0x18],r15
     834:	be 01 00 00 00       	mov    esi,0x1
     839:	48 89 72 f0          	mov    QWORD PTR [rdx-0x10],rsi
     83d:	be 01 00 00 00       	mov    esi,0x1
     842:	48 89 72 f8          	mov    QWORD PTR [rdx-0x8],rsi
     846:	48 31 f6             	xor    rsi,rsi
     849:	4c 89 e2             	mov    rdx,r12
     84c:	48 b8 00 00 00 00 00 	movabs rax,0x0
     853:	00 00 00 
			84e: R_X86_64_64	do_callback
     856:	48 89 9c 24 a8 00 00 	mov    QWORD PTR [rsp+0xa8],rbx
     85d:	00 
     85e:	48 89 bc 24 b0 00 00 	mov    QWORD PTR [rsp+0xb0],rdi
     865:	00 
     866:	4c 89 ac 24 b8 00 00 	mov    QWORD PTR [rsp+0xb8],r13
     86d:	00 
     86e:	ff d0                	call   rax
     870:	48 8b 9c 24 a8 00 00 	mov    rbx,QWORD PTR [rsp+0xa8]
     877:	00 
     878:	4c 8b ac 24 b8 00 00 	mov    r13,QWORD PTR [rsp+0xb8]
     87f:	00 
     880:	48 89 c6             	mov    rsi,rax
     883:	48 89 b4 24 a8 00 00 	mov    QWORD PTR [rsp+0xa8],rsi
     88a:	00 
     88b:	49 8b 7d 08          	mov    rdi,QWORD PTR [r13+0x8]
     88f:	48 89 d1             	mov    rcx,rdx
     892:	48 83 c1 e0          	add    rcx,0xffffffffffffffe0
     896:	48 89 5a e0          	mov    QWORD PTR [rdx-0x20],rbx
     89a:	4c 89 7a e8          	mov    QWORD PTR [rdx-0x18],r15
     89e:	be 01 00 00 00       	mov    esi,0x1
     8a3:	48 89 72 f0          	mov    QWORD PTR [rdx-0x10],rsi
     8a7:	be 01 00 00 00       	mov    esi,0x1
     8ac:	48 89 72 f8          	mov    QWORD PTR [rdx-0x8],rsi
     8b0:	48 31 f6             	xor    rsi,rsi
     8b3:	4c 89 e2             	mov    rdx,r12
     8b6:	48 b8 00 00 00 00 00 	movabs rax,0x0
     8bd:	00 00 00 
			8b8: R_X86_64_64	do_callback
     8c0:	48 89 9c 24 b0 00 00 	mov    QWORD PTR [rsp+0xb0],rbx
     8c7:	00 
     8c8:	48 89 bc 24 b8 00 00 	mov    QWORD PTR [rsp+0xb8],rdi
     8cf:	00 
     8d0:	4c 89 ac 24 c0 00 00 	mov    QWORD PTR [rsp+0xc0],r13
     8d7:	00 
     8d8:	ff d0                	call   rax
     8da:	48 8b 9c 24 b0 00 00 	mov    rbx,QWORD PTR [rsp+0xb0]
     8e1:	00 
     8e2:	4c 8b ac 24 c0 00 00 	mov    r13,QWORD PTR [rsp+0xc0]
     8e9:	00 
     8ea:	48 89 c6             	mov    rsi,rax
     8ed:	48 89 b4 24 b0 00 00 	mov    QWORD PTR [rsp+0xb0],rsi
     8f4:	00 
     8f5:	49 8b 7d 08          	mov    rdi,QWORD PTR [r13+0x8]
     8f9:	48 89 d1             	mov    rcx,rdx
     8fc:	48 83 c1 e0          	add    rcx,0xffffffffffffffe0
     900:	48 89 5a e0          	mov    QWORD PTR [rdx-0x20],rbx
     904:	4c 89 7a e8          	mov    QWORD PTR [rdx-0x18],r15
     908:	be 01 00 00 00       	mov    esi,0x1
     90d:	48 89 72 f0          	mov    QWORD PTR [rdx-0x10],rsi
     911:	be 01 00 00 00       	mov    esi,0x1
     916:	48 89 72 f8          	mov    QWORD PTR [rdx-0x8],rsi
     91a:	48 31 f6             	xor    rsi,rsi
     91d:	4c 89 e2             	mov    rdx,r12
     920:	48 b8 00 00 00 00 00 	movabs rax,0x0
     927:	00 00 00 
			922: R_X86_64_64	do_callback
     92a:	48 89 9c 24 b8 00 00 	mov    QWORD PTR [rsp+0xb8],rbx
     931:	00 
     932:	48 89 bc 24 c0 00 00 	mov    QWORD PTR [rsp+0xc0],rdi
     939:	00 
     93a:	4c 89 ac 24 c8 00 00 	mov    QWORD PTR [rsp+0xc8],r13
     941:	00 
     942:	ff d0                	call   rax
     944:	48 8b 9c 24 b8 00 00 	mov    rbx,QWORD PTR [rsp+0xb8]
     94b:	00 
     94c:	4c 8b ac 24 c8 00 00 	mov    r13,QWORD PTR [rsp+0xc8]
     953:	00 
     954:	48 89 c6             	mov    rsi,rax
     957:	48 89 b4 24 b8 00 00 	mov    QWORD PTR [rsp+0xb8],rsi
     95e:	00 
     95f:	49 8b 7d 08          	mov    rdi,QWORD PTR [r13+0x8]
     963:	48 89 d1             	mov    rcx,rdx
     966:	48 83 c1 e0          	add    rcx,0xffffffffffffffe0
     96a:	48 89 5a e0          	mov    QWORD PTR [rdx-0x20],rbx
     96e:	4c 89 7a e8          	mov    QWORD PTR [rdx-0x18],r15
     972:	be 01 00 00 00       	mov    esi,0x1
     977:	48 89 72 f0          	mov    QWORD PTR [rdx-0x10],rsi
     97b:	be 01 00 00 00       	mov    esi,0x1
     980:	48 89 72 f8          	mov    QWORD PTR [rdx-0x8],rsi
     984:	48 31 f6             	xor    rsi,rsi
     987:	4c 89 e2             	mov    rdx,r12
     98a:	48 b8 00 00 00 00 00 	movabs rax,0x0
     991:	00 00 00 
			98c: R_X86_64_64	do_callback
     994:	48 89 9c 24 c0 00 00 	mov    QWORD PTR [rsp+0xc0],rbx
     99b:	00 
     99c:	48 89 bc 24 c8 00 00 	mov    QWORD PTR [rsp+0xc8],rdi
     9a3:	00 
     9a4:	4c 89 ac 24 d0 00 00 	mov    QWORD PTR [rsp+0xd0],r13
     9ab:	00 
     9ac:	ff d0                	call   rax
     9ae:	48 8b 9c 24 c0 00 00 	mov    rbx,QWORD PTR [rsp+0xc0]
     9b5:	00 
     9b6:	4c 8b ac 24 d0 00 00 	mov    r13,QWORD PTR [rsp+0xd0]
     9bd:	00 
     9be:	48 89 c6             	mov    rsi,rax
     9c1:	48 89 b4 24 c0 00 00 	mov    QWORD PTR [rsp+0xc0],rsi
     9c8:	00 
     9c9:	49 8b 7d 08          	mov    rdi,QWORD PTR [r13+0x8]
     9cd:	48 89 d1             	mov    rcx,rdx
     9d0:	48 83 c1 e0          	add    rcx,0xffffffffffffffe0
     9d4:	48 89 5a e0          	mov    QWORD PTR [rdx-0x20],rbx
     9d8:	4c 89 7a e8          	mov    QWORD PTR [rdx-0x18],r15
     9dc:	be 01 00 00 00       	mov    esi,0x1
     9e1:	48 89 72 f0          	mov    QWORD PTR [rdx-0x10],rsi
     9e5:	be 01 00 00 00       	mov    esi,0x1
     9ea:	48 89 72 f8          	mov    QWORD PTR [rdx-0x8],rsi
     9ee:	48 31 f6             	xor    rsi,rsi
     9f1:	4c 89 e2             	mov    rdx,r12
     9f4:	48 b8 00 00 00 00 00 	movabs rax,0x0
     9fb:	00 00 00 
			9f6: R_X86_64_64	do_callback
     9fe:	48 89 9c 24 c8 00 00 	mov    QWORD PTR [rsp+0xc8],rbx
     a05:	00 
     a06:	48 89 bc 24 d0 00 00 	mov    QWORD PTR [rsp+0xd0],rdi
     a0d:	00 
     a0e:	4c 89 ac 24 d8 00 00 	mov    QWORD PTR [rsp+0xd8],r13
     a15:	00 
     a16:	ff d0                	call   rax
     a18:	48 8b 9c 24 c8 00 00 	mov    rbx,QWORD PTR [rsp+0xc8]
     a1f:	00 
     a20:	4c 8b ac 24 d8 00 00 	mov    r13,QWORD PTR [rsp+0xd8]
     a27:	00 
     a28:	48 89 c6             	mov    rsi,rax
     a2b:	48 89 b4 24 c8 00 00 	mov    QWORD PTR [rsp+0xc8],rsi
     a32:	00 
     a33:	49 8b 7d 08          	mov    rdi,QWORD PTR [r13+0x8]
     a37:	48 89 d1             	mov    rcx,rdx
     a3a:	48 83 c1 e0          	add    rcx,0xffffffffffffffe0
     a3e:	48 89 5a e0          	mov    QWORD PTR [rdx-0x20],rbx
     a42:	4c 89 7a e8          	mov    QWORD PTR [rdx-0x18],r15
     a46:	be 01 00 00 00       	mov    esi,0x1
     a4b:	48 89 72 f0          	mov    QWORD PTR [rdx-0x10],rsi
     a4f:	be 01 00 00 00       	mov    esi,0x1
     a54:	48 89 72 f8          	mov    QWORD PTR [rdx-0x8],rsi
     a58:	48 31 f6             	xor    rsi,rsi
     a5b:	4c 89 e2             	mov    rdx,r12
     a5e:	48 b8 00 00 00 00 00 	movabs rax,0x0
     a65:	00 00 00 
			a60: R_X86_64_64	do_callback
     a68:	48 89 9c 24 d0 00 00 	mov    QWORD PTR [rsp+0xd0],rbx
     a6f:	00 
     a70:	48 89 bc 24 d8 00 00 	mov    QWORD PTR [rsp+0xd8],rdi
     a77:	00 
     a78:	4c 89 ac 24 e0 00 00 	mov    QWORD PTR [rsp+0xe0],r13
     a7f:	00 
     a80:	ff d0                	call   rax
     a82:	48 8b 9c 24 d0 00 00 	mov    rbx,QWORD PTR [rsp+0xd0]
     a89:	00 
     a8a:	4c 8b ac 24 e0 00 00 	mov    r13,QWORD PTR [rsp+0xe0]
     a91:	00 
     a92:	48 89 c6             	mov    rsi,rax
     a95:	48 89 b4 24 d0 00 00 	mov    QWORD PTR [rsp+0xd0],rsi
     a9c:	00 
     a9d:	49 8b 7d 08          	mov    rdi,QWORD PTR [r13+0x8]
     aa1:	48 89 d1             	mov    rcx,rdx
     aa4:	48 83 c1 e0          	add    rcx,0xffffffffffffffe0
     aa8:	48 89 5a e0          	mov    QWORD PTR [rdx-0x20],rbx
     aac:	4c 89 7a e8          	mov    QWORD PTR [rdx-0x18],r15
     ab0:	be 01 00 00 00       	mov    esi,0x1
     ab5:	48 89 72 f0          	mov    QWORD PTR [rdx-0x10],rsi
     ab9:	be 01 00 00 00       	mov    esi,0x1
     abe:	48 89 72 f8          	mov    QWORD PTR [rdx-0x8],rsi
     ac2:	48 31 f6             	xor    rsi,rsi
     ac5:	4c 89 e2             	mov    rdx,r12
     ac8:	48 b8 00 00 00 00 00 	movabs rax,0x0
     acf:	00 00 00 
			aca: R_X86_64_64	do_callback
     ad2:	48 89 9c 24 d8 00 00 	mov    QWORD PTR [rsp+0xd8],rbx
     ad9:	00 
     ada:	48 89 bc 24 e0 00 00 	mov    QWORD PTR [rsp+0xe0],rdi
     ae1:	00 
     ae2:	4c 89 ac 24 e8 00 00 	mov    QWORD PTR [rsp+0xe8],r13
     ae9:	00 
     aea:	ff d0                	call   rax
     aec:	48 8b 9c 24 d8 00 00 	mov    rbx,QWORD PTR [rsp+0xd8]
     af3:	00 
     af4:	4c 8b ac 24 e8 00 00 	mov    r13,QWORD PTR [rsp+0xe8]
     afb:	00 
     afc:	48 89 c6             	mov    rsi,rax
     aff:	48 89 b4 24 d8 00 00 	mov    QWORD PTR [rsp+0xd8],rsi
     b06:	00 
     b07:	49 8b 7d 08          	mov    rdi,QWORD PTR [r13+0x8]
     b0b:	48 89 d1             	mov    rcx,rdx
     b0e:	48 83 c1 e0          	add    rcx,0xffffffffffffffe0
     b12:	48 89 5a e0          	mov    QWORD PTR [rdx-0x20],rbx
     b16:	4c 89 7a e8          	mov    QWORD PTR [rdx-0x18],r15
     b1a:	be 01 00 00 00       	mov    esi,0x1
     b1f:	48 89 72 f0          	mov    QWORD PTR [rdx-0x10],rsi
     b23:	be 01 00 00 00       	mov    esi,0x1
     b28:	48 89 72 f8          	mov    QWORD PTR [rdx-0x8],rsi
     b2c:	48 31 f6             	xor    rsi,rsi
     b2f:	4c 89 e2             	mov    rdx,r12
     b32:	48 b8 00 00 00 00 00 	movabs rax,0x0
     b39:	00 00 00 
			b34: R_X86_64_64	do_callback
     b3c:	48 89 9c 24 e0 00 00 	mov    QWORD PTR [rsp+0xe0],rbx
     b43:	00 
     b44:	48 89 bc 24 e8 00 00 	mov    QWORD PTR [rsp+0xe8],rdi
     b4b:	00 
     b4c:	4c 89 ac 24 f0 00 00 	mov    QWORD PTR [rsp+0xf0],r13
     b53:	00 
     b54:	ff d0                	call   rax
     b56:	48 8b 9c 24 e0 00 00 	mov    rbx,QWORD PTR [rsp+0xe0]
     b5d:	00 
     b5e:	4c 8b ac 24 f0 00 00 	mov    r13,QWORD PTR [rsp+0xf0]
     b65:	00 
     b66:	48 89 c6             	mov    rsi,rax
     b69:	48 89 b4 24 e0 00 00 	mov    QWORD PTR [rsp+0xe0],rsi
     b70:	00 
     b71:	49 8b 7d 08          	mov    rdi,QWORD PTR [r13+0x8]
     b75:	48 89 d1             	mov    rcx,rdx
     b78:	48 83 c1 e0          	add    rcx,0xffffffffffffffe0
     b7c:	48 89 5a e0          	mov    QWORD PTR [rdx-0x20],rbx
     b80:	4c 89 7a e8          	mov    QWORD PTR [rdx-0x18],r15
     b84:	be 01 00 00 00       	mov    esi,0x1
     b89:	48 89 72 f0          	mov    QWORD PTR [rdx-0x10],rsi
     b8d:	be 01 00 00 00       	mov    esi,0x1
     b92:	48 89 72 f8          	mov    QWORD PTR [rdx-0x8],rsi
     b96:	48 31 f6             	xor    rsi,rsi
     b99:	4c 89 e2             	mov    rdx,r12
     b9c:	48 b8 00 00 00 00 00 	movabs rax,0x0
     ba3:	00 00 00 
			b9e: R_X86_64_64	do_callback
     ba6:	48 89 9c 24 e8 00 00 	mov    QWORD PTR [rsp+0xe8],rbx
     bad:	00 
     bae:	48 89 bc 24 f0 00 00 	mov    QWORD PTR [rsp+0xf0],rdi
     bb5:	00 
     bb6:	4c 89 ac 24 f8 00 00 	mov    QWORD PTR [rsp+0xf8],r13
     bbd:	00 
     bbe:	ff d0                	call   rax
     bc0:	48 8b 9c 24 e8 00 00 	mov    rbx,QWORD PTR [rsp+0xe8]
     bc7:	00 
     bc8:	4c 8b ac 24 f8 00 00 	mov    r13,QWORD PTR [rsp+0xf8]
     bcf:	00 
     bd0:	48 89 c6             	mov    rsi,rax
     bd3:	48 89 b4 24 e8 00 00 	mov    QWORD PTR [rsp+0xe8],rsi
     bda:	00 
     bdb:	49 8b 7d 08          	mov    rdi,QWORD PTR [r13+0x8]
     bdf:	48 89 d1             	mov    rcx,rdx
     be2:	48 83 c1 e0          	add    rcx,0xffffffffffffffe0
     be6:	48 89 5a e0          	mov    QWORD PTR [rdx-0x20],rbx
     bea:	4c 89 7a e8          	mov    QWORD PTR [rdx-0x18],r15
     bee:	be 01 00 00 00       	mov    esi,0x1
     bf3:	48 89 72 f0          	mov    QWORD PTR [rdx-0x10],rsi
     bf7:	be 01 00 00 00       	mov    esi,0x1
     bfc:	48 89 72 f8          	mov    QWORD PTR [rdx-0x8],rsi
     c00:	48 31 f6             	xor    rsi,rsi
     c03:	4c 89 e2             	mov    rdx,r12
     c06:	48 b8 00 00 00 00 00 	movabs rax,0x0
     c0d:	00 00 00 
			c08: R_X86_64_64	do_callback
     c10:	48 89 9c 24 f0 00 00 	mov    QWORD PTR [rsp+0xf0],rbx
     c17:	00 
     c18:	48 89 bc 24 f8 00 00 	mov    QWORD PTR [rsp+0xf8],rdi
     c1f:	00 
     c20:	4c 89 ac 24 00 01 00 	mov    QWORD PTR [rsp+0x100],r13
     c27:	00 
     c28:	ff d0                	call   rax
     c2a:	48 8b 9c 24 f0 00 00 	mov    rbx,QWORD PTR [rsp+0xf0]
     c31:	00 
     c32:	4c 8b ac 24 00 01 00 	mov    r13,QWORD PTR [rsp+0x100]
     c39:	00 
     c3a:	48 89 c6             	mov    rsi,rax
     c3d:	48 89 b4 24 f0 00 00 	mov    QWORD PTR [rsp+0xf0],rsi
     c44:	00 
     c45:	49 8b 7d 08          	mov    rdi,QWORD PTR [r13+0x8]
     c49:	48 89 d1             	mov    rcx,rdx
     c4c:	48 83 c1 e0          	add    rcx,0xffffffffffffffe0
     c50:	48 89 5a e0          	mov    QWORD PTR [rdx-0x20],rbx
     c54:	4c 89 7a e8          	mov    QWORD PTR [rdx-0x18],r15
     c58:	be 01 00 00 00       	mov    esi,0x1
     c5d:	48 89 72 f0          	mov    QWORD PTR [rdx-0x10],rsi
     c61:	be 01 00 00 00       	mov    esi,0x1
     c66:	48 89 72 f8          	mov    QWORD PTR [rdx-0x8],rsi
     c6a:	48 31 f6             	xor    rsi,rsi
     c6d:	4c 89 e2             	mov    rdx,r12
     c70:	48 b8 00 00 00 00 00 	movabs rax,0x0
     c77:	00 00 00 
			c72: R_X86_64_64	do_callback
     c7a:	48 89 9c 24 f8 00 00 	mov    QWORD PTR [rsp+0xf8],rbx
     c81:	00 
     c82:	48 89 bc 24 00 01 00 	mov    QWORD PTR [rsp+0x100],rdi
     c89:	00 
     c8a:	4c 89 ac 24 08 01 00 	mov    QWORD PTR [rsp+0x108],r13
     c91:	00 
     c92:	ff d0                	call   rax
     c94:	48 8b 9c 24 f8 00 00 	mov    rbx,QWORD PTR [rsp+0xf8]
     c9b:	00 
     c9c:	4c 8b ac 24 08 01 00 	mov    r13,QWORD PTR [rsp+0x108]
     ca3:	00 
     ca4:	48 89 c6             	mov    rsi,rax
     ca7:	48 89 b4 24 f8 00 00 	mov    QWORD PTR [rsp+0xf8],rsi
     cae:	00 
     caf:	49 8b 7d 08          	mov    rdi,QWORD PTR [r13+0x8]
     cb3:	48 89 d1             	mov    rcx,rdx
     cb6:	48 83 c1 e0          	add    rcx,0xffffffffffffffe0
     cba:	48 89 5a e0          	mov    QWORD PTR [rdx-0x20],rbx
     cbe:	4c 89 7a e8          	mov    QWORD PTR [rdx-0x18],r15
     cc2:	be 01 00 00 00       	mov    esi,0x1
     cc7:	48 89 72 f0          	mov    QWORD PTR [rdx-0x10],rsi
     ccb:	be 01 00 00 00       	mov    esi,0x1
     cd0:	48 89 72 f8          	mov    QWORD PTR [rdx-0x8],rsi
     cd4:	48 31 f6             	xor    rsi,rsi
     cd7:	4c 89 e2             	mov    rdx,r12
     cda:	48 b8 00 00 00 00 00 	movabs rax,0x0
     ce1:	00 00 00 
			cdc: R_X86_64_64	do_callback
     ce4:	48 89 9c 24 00 01 00 	mov    QWORD PTR [rsp+0x100],rbx
     ceb:	00 
     cec:	48 89 bc 24 08 01 00 	mov    QWORD PTR [rsp+0x108],rdi
     cf3:	00 
     cf4:	4c 89 ac 24 10 01 00 	mov    QWORD PTR [rsp+0x110],r13
     cfb:	00 
     cfc:	ff d0                	call   rax
     cfe:	48 8b 9c 24 00 01 00 	mov    rbx,QWORD PTR [rsp+0x100]
     d05:	00 
     d06:	4c 8b ac 24 10 01 00 	mov    r13,QWORD PTR [rsp+0x110]
     d0d:	00 
     d0e:	48 89 c6             	mov    rsi,rax
     d11:	48 89 b4 24 00 01 00 	mov    QWORD PTR [rsp+0x100],rsi
     d18:	00 
     d19:	49 8b 7d 08          	mov    rdi,QWORD PTR [r13+0x8]
     d1d:	48 89 d1             	mov    rcx,rdx
     d20:	48 83 c1 e0          	add    rcx,0xffffffffffffffe0
     d24:	48 89 5a e0          	mov    QWORD PTR [rdx-0x20],rbx
     d28:	4c 89 7a e8          	mov    QWORD PTR [rdx-0x18],r15
     d2c:	be 01 00 00 00       	mov    esi,0x1
     d31:	48 89 72 f0          	mov    QWORD PTR [rdx-0x10],rsi
     d35:	be 01 00 00 00       	mov    esi,0x1
     d3a:	48 89 72 f8          	mov    QWORD PTR [rdx-0x8],rsi
     d3e:	48 31 f6             	xor    rsi,rsi
     d41:	4c 89 e2             	mov    rdx,r12
     d44:	48 b8 00 00 00 00 00 	movabs rax,0x0
     d4b:	00 00 00 
			d46: R_X86_64_64	do_callback
     d4e:	48 89 9c 24 08 01 00 	mov    QWORD PTR [rsp+0x108],rbx
     d55:	00 
     d56:	48 89 bc 24 10 01 00 	mov    QWORD PTR [rsp+0x110],rdi
     d5d:	00 
     d5e:	4c 89 ac 24 18 01 00 	mov    QWORD PTR [rsp+0x118],r13
     d65:	00 
     d66:	ff d0                	call   rax
     d68:	48 8b 9c 24 08 01 00 	mov    rbx,QWORD PTR [rsp+0x108]
     d6f:	00 
     d70:	4c 8b ac 24 18 01 00 	mov    r13,QWORD PTR [rsp+0x118]
     d77:	00 
     d78:	48 89 c6             	mov    rsi,rax
     d7b:	48 89 b4 24 08 01 00 	mov    QWORD PTR [rsp+0x108],rsi
     d82:	00 
     d83:	49 8b 7d 08          	mov    rdi,QWORD PTR [r13+0x8]
     d87:	48 89 d1             	mov    rcx,rdx
     d8a:	48 83 c1 e0          	add    rcx,0xffffffffffffffe0
     d8e:	48 89 5a e0          	mov    QWORD PTR [rdx-0x20],rbx
     d92:	4c 89 7a e8          	mov    QWORD PTR [rdx-0x18],r15
     d96:	be 01 00 00 00       	mov    esi,0x1
     d9b:	48 89 72 f0          	mov    QWORD PTR [rdx-0x10],rsi
     d9f:	be 01 00 00 00       	mov    esi,0x1
     da4:	48 89 72 f8          	mov    QWORD PTR [rdx-0x8],rsi
     da8:	48 31 f6             	xor    rsi,rsi
     dab:	4c 89 e2             	mov    rdx,r12
     dae:	48 b8 00 00 00 00 00 	movabs rax,0x0
     db5:	00 00 00 
			db0: R_X86_64_64	do_callback
     db8:	48 89 9c 24 10 01 00 	mov    QWORD PTR [rsp+0x110],rbx
     dbf:	00 
     dc0:	48 89 bc 24 18 01 00 	mov    QWORD PTR [rsp+0x118],rdi
     dc7:	00 
     dc8:	4c 89 ac 24 20 01 00 	mov    QWORD PTR [rsp+0x120],r13
     dcf:	00 
     dd0:	ff d0                	call   rax
     dd2:	48 8b 9c 24 10 01 00 	mov    rbx,QWORD PTR [rsp+0x110]
     dd9:	00 
     dda:	4c 8b ac 24 20 01 00 	mov    r13,QWORD PTR [rsp+0x120]
     de1:	00 
     de2:	48 89 c6             	mov    rsi,rax
     de5:	48 89 b4 24 10 01 00 	mov    QWORD PTR [rsp+0x110],rsi
     dec:	00 
     ded:	49 8b 7d 08          	mov    rdi,QWORD PTR [r13+0x8]
     df1:	48 89 d1             	mov    rcx,rdx
     df4:	48 83 c1 e0          	add    rcx,0xffffffffffffffe0
     df8:	48 89 5a e0          	mov    QWORD PTR [rdx-0x20],rbx
     dfc:	4c 89 7a e8          	mov    QWORD PTR [rdx-0x18],r15
     e00:	be 01 00 00 00       	mov    esi,0x1
     e05:	48 89 72 f0          	mov    QWORD PTR [rdx-0x10],rsi
     e09:	be 01 00 00 00       	mov    esi,0x1
     e0e:	48 89 72 f8          	mov    QWORD PTR [rdx-0x8],rsi
     e12:	48 31 f6             	xor    rsi,rsi
     e15:	4c 89 e2             	mov    rdx,r12
     e18:	48 b8 00 00 00 00 00 	movabs rax,0x0
     e1f:	00 00 00 
			e1a: R_X86_64_64	do_callback
     e22:	48 89 9c 24 18 01 00 	mov    QWORD PTR [rsp+0x118],rbx
     e29:	00 
     e2a:	48 89 bc 24 20 01 00 	mov    QWORD PTR [rsp+0x120],rdi
     e31:	00 
     e32:	4c 89 ac 24 28 01 00 	mov    QWORD PTR [rsp+0x128],r13
     e39:	00 
     e3a:	ff d0                	call   rax
     e3c:	48 8b 9c 24 18 01 00 	mov    rbx,QWORD PTR [rsp+0x118]
     e43:	00 
     e44:	4c 8b ac 24 28 01 00 	mov    r13,QWORD PTR [rsp+0x128]
     e4b:	00 
     e4c:	48 89 c6             	mov    rsi,rax
     e4f:	48 89 b4 24 18 01 00 	mov    QWORD PTR [rsp+0x118],rsi
     e56:	00 
     e57:	49 8b 7d 08          	mov    rdi,QWORD PTR [r13+0x8]
     e5b:	48 89 d1             	mov    rcx,rdx
     e5e:	48 83 c1 e0          	add    rcx,0xffffffffffffffe0
     e62:	48 89 5a e0          	mov    QWORD PTR [rdx-0x20],rbx
     e66:	4c 89 7a e8          	mov    QWORD PTR [rdx-0x18],r15
     e6a:	be 01 00 00 00       	mov    esi,0x1
     e6f:	48 89 72 f0          	mov    QWORD PTR [rdx-0x10],rsi
     e73:	be 01 00 00 00       	mov    esi,0x1
     e78:	48 89 72 f8          	mov    QWORD PTR [rdx-0x8],rsi
     e7c:	48 31 f6             	xor    rsi,rsi
     e7f:	4c 89 e2             	mov    rdx,r12
     e82:	48 b8 00 00 00 00 00 	movabs rax,0x0
     e89:	00 00 00 
			e84: R_X86_64_64	do_callback
     e8c:	48 89 9c 24 20 01 00 	mov    QWORD PTR [rsp+0x120],rbx
     e93:	00 
     e94:	48 89 bc 24 28 01 00 	mov    QWORD PTR [rsp+0x128],rdi
     e9b:	00 
     e9c:	4c 89 ac 24 30 01 00 	mov    QWORD PTR [rsp+0x130],r13
     ea3:	00 
     ea4:	ff d0                	call   rax
     ea6:	48 8b 9c 24 20 01 00 	mov    rbx,QWORD PTR [rsp+0x120]
     ead:	00 
     eae:	4c 8b ac 24 30 01 00 	mov    r13,QWORD PTR [rsp+0x130]
     eb5:	00 
     eb6:	48 89 c6             	mov    rsi,rax
     eb9:	48 89 b4 24 20 01 00 	mov    QWORD PTR [rsp+0x120],rsi
     ec0:	00 
     ec1:	49 8b 7d 08          	mov    rdi,QWORD PTR [r13+0x8]
     ec5:	48 89 d1             	mov    rcx,rdx
     ec8:	48 83 c1 e0          	add    rcx,0xffffffffffffffe0
     ecc:	48 89 5a e0          	mov    QWORD PTR [rdx-0x20],rbx
     ed0:	4c 89 7a e8          	mov    QWORD PTR [rdx-0x18],r15
     ed4:	be 01 00 00 00       	mov    esi,0x1
     ed9:	48 89 72 f0          	mov    QWORD PTR [rdx-0x10],rsi
     edd:	be 01 00 00 00       	mov    esi,0x1
     ee2:	48 89 72 f8          	mov    QWORD PTR [rdx-0x8],rsi
     ee6:	48 31 f6             	xor    rsi,rsi
     ee9:	4c 89 e2             	mov    rdx,r12
     eec:	48 b8 00 00 00 00 00 	movabs rax,0x0
     ef3:	00 00 00 
			eee: R_X86_64_64	do_callback
     ef6:	48 89 9c 24 28 01 00 	mov    QWORD PTR [rsp+0x128],rbx
     efd:	00 
     efe:	48 89 bc 24 30 01 00 	mov    QWORD PTR [rsp+0x130],rdi
     f05:	00 
     f06:	4c 89 ac 24 38 01 00 	mov    QWORD PTR [rsp+0x138],r13
     f0d:	00 
     f0e:	ff d0                	call   rax
     f10:	48 8b 9c 24 28 01 00 	mov    rbx,QWORD PTR [rsp+0x128]
     f17:	00 
     f18:	4c 8b ac 24 38 01 00 	mov    r13,QWORD PTR [rsp+0x138]
     f1f:	00 
     f20:	48 89 c6             	mov    rsi,rax
     f23:	48 89 b4 24 28 01 00 	mov    QWORD PTR [rsp+0x128],rsi
     f2a:	00 
     f2b:	49 8b 7d 08          	mov    rdi,QWORD PTR [r13+0x8]
     f2f:	48 89 d1             	mov    rcx,rdx
     f32:	48 83 c1 e0          	add    rcx,0xffffffffffffffe0
     f36:	48 89 5a e0          	mov    QWORD PTR [rdx-0x20],rbx
     f3a:	4c 89 7a e8          	mov    QWORD PTR [rdx-0x18],r15
     f3e:	be 01 00 00 00       	mov    esi,0x1
     f43:	48 89 72 f0          	mov    QWORD PTR [rdx-0x10],rsi
     f47:	be 01 00 00 00       	mov    esi,0x1
     f4c:	48 89 72 f8          	mov    QWORD PTR [rdx-0x8],rsi
     f50:	48 31 f6             	xor    rsi,rsi
     f53:	4c 89 e2             	mov    rdx,r12
     f56:	48 b8 00 00 00 00 00 	movabs rax,0x0
     f5d:	00 00 00 
			f58: R_X86_64_64	do_callback
     f60:	48 89 9c 24 30 01 00 	mov    QWORD PTR [rsp+0x130],rbx
     f67:	00 
     f68:	48 89 bc 24 38 01 00 	mov    QWORD PTR [rsp+0x138],rdi
     f6f:	00 
     f70:	4c 89 ac 24 40 01 00 	mov    QWORD PTR [rsp+0x140],r13
     f77:	00 
     f78:	ff d0                	call   rax
     f7a:	48 8b 9c 24 30 01 00 	mov    rbx,QWORD PTR [rsp+0x130]
     f81:	00 
     f82:	4c 8b ac 24 40 01 00 	mov    r13,QWORD PTR [rsp+0x140]
     f89:	00 
     f8a:	48 89 c6             	mov    rsi,rax
     f8d:	48 89 b4 24 30 01 00 	mov    QWORD PTR [rsp+0x130],rsi
     f94:	00 
     f95:	49 8b 7d 08          	mov    rdi,QWORD PTR [r13+0x8]
     f99:	48 89 d1             	mov    rcx,rdx
     f9c:	48 83 c1 e0          	add    rcx,0xffffffffffffffe0
     fa0:	48 89 5a e0          	mov    QWORD PTR [rdx-0x20],rbx
     fa4:	4c 89 7a e8          	mov    QWORD PTR [rdx-0x18],r15
     fa8:	be 01 00 00 00       	mov    esi,0x1
     fad:	48 89 72 f0          	mov    QWORD PTR [rdx-0x10],rsi
     fb1:	be 01 00 00 00       	mov    esi,0x1
     fb6:	48 89 72 f8          	mov    QWORD PTR [rdx-0x8],rsi
     fba:	48 31 f6             	xor    rsi,rsi
     fbd:	4c 89 e2             	mov    rdx,r12
     fc0:	48 b8 00 00 00 00 00 	movabs rax,0x0
     fc7:	00 00 00 
			fc2: R_X86_64_64	do_callback
     fca:	48 89 9c 24 38 01 00 	mov    QWORD PTR [rsp+0x138],rbx
     fd1:	00 
     fd2:	48 89 bc 24 40 01 00 	mov    QWORD PTR [rsp+0x140],rdi
     fd9:	00 
     fda:	4c 89 ac 24 48 01 00 	mov    QWORD PTR [rsp+0x148],r13
     fe1:	00 
     fe2:	ff d0                	call   rax
     fe4:	48 8b 9c 24 38 01 00 	mov    rbx,QWORD PTR [rsp+0x138]
     feb:	00 
     fec:	4c 8b ac 24 48 01 00 	mov    r13,QWORD PTR [rsp+0x148]
     ff3:	00 
     ff4:	48 89 c6             	mov    rsi,rax
     ff7:	48 89 b4 24 38 01 00 	mov    QWORD PTR [rsp+0x138],rsi
     ffe:	00 
     fff:	49 8b 7d 08          	mov    rdi,QWORD PTR [r13+0x8]
    1003:	48 89 d1             	mov    rcx,rdx
    1006:	48 83 c1 e0          	add    rcx,0xffffffffffffffe0
    100a:	48 89 5a e0          	mov    QWORD PTR [rdx-0x20],rbx
    100e:	4c 89 7a e8          	mov    QWORD PTR [rdx-0x18],r15
    1012:	be 01 00 00 00       	mov    esi,0x1
    1017:	48 89 72 f0          	mov    QWORD PTR [rdx-0x10],rsi
    101b:	be 01 00 00 00       	mov    esi,0x1
    1020:	48 89 72 f8          	mov    QWORD PTR [rdx-0x8],rsi
    1024:	48 31 f6             	xor    rsi,rsi
    1027:	4c 89 e2             	mov    rdx,r12
    102a:	48 b8 00 00 00 00 00 	movabs rax,0x0
    1031:	00 00 00 
			102c: R_X86_64_64	do_callback
    1034:	48 89 9c 24 40 01 00 	mov    QWORD PTR [rsp+0x140],rbx
    103b:	00 
    103c:	48 89 bc 24 48 01 00 	mov    QWORD PTR [rsp+0x148],rdi
    1043:	00 
    1044:	4c 89 ac 24 50 01 00 	mov    QWORD PTR [rsp+0x150],r13
    104b:	00 
    104c:	ff d0                	call   rax
    104e:	48 8b 9c 24 40 01 00 	mov    rbx,QWORD PTR [rsp+0x140]
    1055:	00 
    1056:	4c 8b ac 24 50 01 00 	mov    r13,QWORD PTR [rsp+0x150]
    105d:	00 
    105e:	48 89 c6             	mov    rsi,rax
    1061:	48 89 b4 24 40 01 00 	mov    QWORD PTR [rsp+0x140],rsi
    1068:	00 
    1069:	49 8b 7d 08          	mov    rdi,QWORD PTR [r13+0x8]
    106d:	48 89 d1             	mov    rcx,rdx
    1070:	48 83 c1 e0          	add    rcx,0xffffffffffffffe0
    1074:	48 89 5a e0          	mov    QWORD PTR [rdx-0x20],rbx
    1078:	4c 89 7a e8          	mov    QWORD PTR [rdx-0x18],r15
    107c:	be 01 00 00 00       	mov    esi,0x1
    1081:	48 89 72 f0          	mov    QWORD PTR [rdx-0x10],rsi
    1085:	be 01 00 00 00       	mov    esi,0x1
    108a:	48 89 72 f8          	mov    QWORD PTR [rdx-0x8],rsi
    108e:	48 31 f6             	xor    rsi,rsi
    1091:	4c 89 e2             	mov    rdx,r12
    1094:	48 b8 00 00 00 00 00 	movabs rax,0x0
    109b:	00 00 00 
			1096: R_X86_64_64	do_callback
    109e:	48 89 9c 24 48 01 00 	mov    QWORD PTR [rsp+0x148],rbx
    10a5:	00 
    10a6:	48 89 bc 24 50 01 00 	mov    QWORD PTR [rsp+0x150],rdi
    10ad:	00 
    10ae:	4c 89 ac 24 58 01 00 	mov    QWORD PTR [rsp+0x158],r13
    10b5:	00 
    10b6:	ff d0                	call   rax
    10b8:	48 8b 9c 24 48 01 00 	mov    rbx,QWORD PTR [rsp+0x148]
    10bf:	00 
    10c0:	4c 8b ac 24 58 01 00 	mov    r13,QWORD PTR [rsp+0x158]
    10c7:	00 
    10c8:	48 89 c6             	mov    rsi,rax
    10cb:	48 89 b4 24 48 01 00 	mov    QWORD PTR [rsp+0x148],rsi
    10d2:	00 
    10d3:	49 8b 7d 08          	mov    rdi,QWORD PTR [r13+0x8]
    10d7:	48 89 d1             	mov    rcx,rdx
    10da:	48 83 c1 e0          	add    rcx,0xffffffffffffffe0
    10de:	48 89 5a e0          	mov    QWORD PTR [rdx-0x20],rbx
    10e2:	4c 89 7a e8          	mov    QWORD PTR [rdx-0x18],r15
    10e6:	be 01 00 00 00       	mov    esi,0x1
    10eb:	48 89 72 f0          	mov    QWORD PTR [rdx-0x10],rsi
    10ef:	be 01 00 00 00       	mov    esi,0x1
    10f4:	48 89 72 f8          	mov    QWORD PTR [rdx-0x8],rsi
    10f8:	48 31 f6             	xor    rsi,rsi
    10fb:	4c 89 e2             	mov    rdx,r12
    10fe:	48 b8 00 00 00 00 00 	movabs rax,0x0
    1105:	00 00 00 
			1100: R_X86_64_64	do_callback
    1108:	48 89 9c 24 50 01 00 	mov    QWORD PTR [rsp+0x150],rbx
    110f:	00 
    1110:	48 89 bc 24 58 01 00 	mov    QWORD PTR [rsp+0x158],rdi
    1117:	00 
    1118:	4c 89 ac 24 60 01 00 	mov    QWORD PTR [rsp+0x160],r13
    111f:	00 
    1120:	ff d0                	call   rax
    1122:	48 8b 9c 24 50 01 00 	mov    rbx,QWORD PTR [rsp+0x150]
    1129:	00 
    112a:	4c 8b ac 24 60 01 00 	mov    r13,QWORD PTR [rsp+0x160]
    1131:	00 
    1132:	48 89 c6             	mov    rsi,rax
    1135:	48 89 b4 24 50 01 00 	mov    QWORD PTR [rsp+0x150],rsi
    113c:	00 
    113d:	49 8b 7d 08          	mov    rdi,QWORD PTR [r13+0x8]
    1141:	48 89 d1             	mov    rcx,rdx
    1144:	48 83 c1 e0          	add    rcx,0xffffffffffffffe0
    1148:	48 89 5a e0          	mov    QWORD PTR [rdx-0x20],rbx
    114c:	4c 89 7a e8          	mov    QWORD PTR [rdx-0x18],r15
    1150:	be 01 00 00 00       	mov    esi,0x1
    1155:	48 89 72 f0          	mov    QWORD PTR [rdx-0x10],rsi
    1159:	be 01 00 00 00       	mov    esi,0x1
    115e:	48 89 72 f8          	mov    QWORD PTR [rdx-0x8],rsi
    1162:	48 31 f6             	xor    rsi,rsi
    1165:	4c 89 e2             	mov    rdx,r12
    1168:	48 b8 00 00 00 00 00 	movabs rax,0x0
    116f:	00 00 00 
			116a: R_X86_64_64	do_callback
    1172:	48 89 9c 24 58 01 00 	mov    QWORD PTR [rsp+0x158],rbx
    1179:	00 
    117a:	48 89 bc 24 60 01 00 	mov    QWORD PTR [rsp+0x160],rdi
    1181:	00 
    1182:	4c 89 ac 24 68 01 00 	mov    QWORD PTR [rsp+0x168],r13
    1189:	00 
    118a:	ff d0                	call   rax
    118c:	48 8b 9c 24 58 01 00 	mov    rbx,QWORD PTR [rsp+0x158]
    1193:	00 
    1194:	4c 8b ac 24 68 01 00 	mov    r13,QWORD PTR [rsp+0x168]
    119b:	00 
    119c:	48 89 c6             	mov    rsi,rax
    119f:	48 89 b4 24 58 01 00 	mov    QWORD PTR [rsp+0x158],rsi
    11a6:	00 
    11a7:	49 8b 7d 08          	mov    rdi,QWORD PTR [r13+0x8]
    11ab:	48 89 d1             	mov    rcx,rdx
    11ae:	48 83 c1 e0          	add    rcx,0xffffffffffffffe0
    11b2:	48 89 5a e0          	mov    QWORD PTR [rdx-0x20],rbx
    11b6:	4c 89 7a e8          	mov    QWORD PTR [rdx-0x18],r15
    11ba:	be 01 00 00 00       	mov    esi,0x1
    11bf:	48 89 72 f0          	mov    QWORD PTR [rdx-0x10],rsi
    11c3:	be 01 00 00 00       	mov    esi,0x1
    11c8:	48 89 72 f8          	mov    QWORD PTR [rdx-0x8],rsi
    11cc:	48 31 f6             	xor    rsi,rsi
    11cf:	4c 89 e2             	mov    rdx,r12
    11d2:	48 b8 00 00 00 00 00 	movabs rax,0x0
    11d9:	00 00 00 
			11d4: R_X86_64_64	do_callback
    11dc:	48 89 9c 24 60 01 00 	mov    QWORD PTR [rsp+0x160],rbx
    11e3:	00 
    11e4:	48 89 bc 24 68 01 00 	mov    QWORD PTR [rsp+0x168],rdi
    11eb:	00 
    11ec:	4c 89 ac 24 70 01 00 	mov    QWORD PTR [rsp+0x170],r13
    11f3:	00 
    11f4:	ff d0                	call   rax
    11f6:	48 8b 9c 24 60 01 00 	mov    rbx,QWORD PTR [rsp+0x160]
    11fd:	00 
    11fe:	4c 8b ac 24 70 01 00 	mov    r13,QWORD PTR [rsp+0x170]
    1205:	00 
    1206:	48 89 c6             	mov    rsi,rax
    1209:	48 89 b4 24 60 01 00 	mov    QWORD PTR [rsp+0x160],rsi
    1210:	00 
    1211:	49 8b 7d 08          	mov    rdi,QWORD PTR [r13+0x8]
    1215:	48 89 d1             	mov    rcx,rdx
    1218:	48 83 c1 e0          	add    rcx,0xffffffffffffffe0
    121c:	48 89 5a e0          	mov    QWORD PTR [rdx-0x20],rbx
    1220:	4c 89 7a e8          	mov    QWORD PTR [rdx-0x18],r15
    1224:	be 01 00 00 00       	mov    esi,0x1
    1229:	48 89 72 f0          	mov    QWORD PTR [rdx-0x10],rsi
    122d:	be 01 00 00 00       	mov    esi,0x1
    1232:	48 89 72 f8          	mov    QWORD PTR [rdx-0x8],rsi
    1236:	48 31 f6             	xor    rsi,rsi
    1239:	4c 89 e2             	mov    rdx,r12
    123c:	48 b8 00 00 00 00 00 	movabs rax,0x0
    1243:	00 00 00 
			123e: R_X86_64_64	do_callback
    1246:	48 89 9c 24 68 01 00 	mov    QWORD PTR [rsp+0x168],rbx
    124d:	00 
    124e:	48 89 bc 24 70 01 00 	mov    QWORD PTR [rsp+0x170],rdi
    1255:	00 
    1256:	4c 89 ac 24 78 01 00 	mov    QWORD PTR [rsp+0x178],r13
    125d:	00 
    125e:	ff d0                	call   rax
    1260:	48 8b 9c 24 68 01 00 	mov    rbx,QWORD PTR [rsp+0x168]
    1267:	00 
    1268:	4c 8b ac 24 78 01 00 	mov    r13,QWORD PTR [rsp+0x178]
    126f:	00 
    1270:	48 89 c6             	mov    rsi,rax
    1273:	48 89 b4 24 68 01 00 	mov    QWORD PTR [rsp+0x168],rsi
    127a:	00 
    127b:	49 8b 7d 08          	mov    rdi,QWORD PTR [r13+0x8]
    127f:	48 89 d1             	mov    rcx,rdx
    1282:	48 83 c1 e0          	add    rcx,0xffffffffffffffe0
    1286:	48 89 5a e0          	mov    QWORD PTR [rdx-0x20],rbx
    128a:	4c 89 7a e8          	mov    QWORD PTR [rdx-0x18],r15
    128e:	be 01 00 00 00       	mov    esi,0x1
    1293:	48 89 72 f0          	mov    QWORD PTR [rdx-0x10],rsi
    1297:	be 01 00 00 00       	mov    esi,0x1
    129c:	48 89 72 f8          	mov    QWORD PTR [rdx-0x8],rsi
    12a0:	48 31 f6             	xor    rsi,rsi
    12a3:	4c 89 e2             	mov    rdx,r12
    12a6:	48 b8 00 00 00 00 00 	movabs rax,0x0
    12ad:	00 00 00 
			12a8: R_X86_64_64	do_callback
    12b0:	48 89 9c 24 70 01 00 	mov    QWORD PTR [rsp+0x170],rbx
    12b7:	00 
    12b8:	48 89 bc 24 78 01 00 	mov    QWORD PTR [rsp+0x178],rdi
    12bf:	00 
    12c0:	4c 89 ac 24 80 01 00 	mov    QWORD PTR [rsp+0x180],r13
    12c7:	00 
    12c8:	ff d0                	call   rax
    12ca:	48 8b 9c 24 70 01 00 	mov    rbx,QWORD PTR [rsp+0x170]
    12d1:	00 
    12d2:	4c 8b ac 24 80 01 00 	mov    r13,QWORD PTR [rsp+0x180]
    12d9:	00 
    12da:	48 89 c6             	mov    rsi,rax
    12dd:	48 89 b4 24 70 01 00 	mov    QWORD PTR [rsp+0x170],rsi
    12e4:	00 
    12e5:	49 8b 7d 08          	mov    rdi,QWORD PTR [r13+0x8]
    12e9:	48 89 d1             	mov    rcx,rdx
    12ec:	48 83 c1 e0          	add    rcx,0xffffffffffffffe0
    12f0:	48 89 5a e0          	mov    QWORD PTR [rdx-0x20],rbx
    12f4:	4c 89 7a e8          	mov    QWORD PTR [rdx-0x18],r15
    12f8:	be 01 00 00 00       	mov    esi,0x1
    12fd:	48 89 72 f0          	mov    QWORD PTR [rdx-0x10],rsi
    1301:	be 01 00 00 00       	mov    esi,0x1
    1306:	48 89 72 f8          	mov    QWORD PTR [rdx-0x8],rsi
    130a:	48 31 f6             	xor    rsi,rsi
    130d:	4c 89 e2             	mov    rdx,r12
    1310:	48 b8 00 00 00 00 00 	movabs rax,0x0
    1317:	00 00 00 
			1312: R_X86_64_64	do_callback
    131a:	48 89 9c 24 78 01 00 	mov    QWORD PTR [rsp+0x178],rbx
    1321:	00 
    1322:	48 89 bc 24 80 01 00 	mov    QWORD PTR [rsp+0x180],rdi
    1329:	00 
    132a:	4c 89 ac 24 88 01 00 	mov    QWORD PTR [rsp+0x188],r13
    1331:	00 
    1332:	ff d0                	call   rax
    1334:	48 8b 9c 24 78 01 00 	mov    rbx,QWORD PTR [rsp+0x178]
    133b:	00 
    133c:	4c 8b ac 24 88 01 00 	mov    r13,QWORD PTR [rsp+0x188]
    1343:	00 
    1344:	48 89 c6             	mov    rsi,rax
    1347:	48 89 b4 24 78 01 00 	mov    QWORD PTR [rsp+0x178],rsi
    134e:	00 
    134f:	49 8b 7d 08          	mov    rdi,QWORD PTR [r13+0x8]
    1353:	48 89 d1             	mov    rcx,rdx
    1356:	48 83 c1 e0          	add    rcx,0xffffffffffffffe0
    135a:	48 89 5a e0          	mov    QWORD PTR [rdx-0x20],rbx
    135e:	4c 89 7a e8          	mov    QWORD PTR [rdx-0x18],r15
    1362:	be 01 00 00 00       	mov    esi,0x1
    1367:	48 89 72 f0          	mov    QWORD PTR [rdx-0x10],rsi
    136b:	be 01 00 00 00       	mov    esi,0x1
    1370:	48 89 72 f8          	mov    QWORD PTR [rdx-0x8],rsi
    1374:	48 31 f6             	xor    rsi,rsi
    1377:	4c 89 e2             	mov    rdx,r12
    137a:	48 b8 00 00 00 00 00 	movabs rax,0x0
    1381:	00 00 00 
			137c: R_X86_64_64	do_callback
    1384:	48 89 9c 24 80 01 00 	mov    QWORD PTR [rsp+0x180],rbx
    138b:	00 
    138c:	48 89 bc 24 88 01 00 	mov    QWORD PTR [rsp+0x188],rdi
    1393:	00 
    1394:	4c 89 ac 24 90 01 00 	mov    QWORD PTR [rsp+0x190],r13
    139b:	00 
    139c:	ff d0                	call   rax
    139e:	48 8b 9c 24 80 01 00 	mov    rbx,QWORD PTR [rsp+0x180]
    13a5:	00 
    13a6:	4c 8b ac 24 90 01 00 	mov    r13,QWORD PTR [rsp+0x190]
    13ad:	00 
    13ae:	48 89 c6             	mov    rsi,rax
    13b1:	48 89 b4 24 80 01 00 	mov    QWORD PTR [rsp+0x180],rsi
    13b8:	00 
    13b9:	49 8b 7d 08          	mov    rdi,QWORD PTR [r13+0x8]
    13bd:	48 89 d1             	mov    rcx,rdx
    13c0:	48 83 c1 e0          	add    rcx,0xffffffffffffffe0
    13c4:	48 89 5a e0          	mov    QWORD PTR [rdx-0x20],rbx
    13c8:	4c 89 7a e8          	mov    QWORD PTR [rdx-0x18],r15
    13cc:	be 01 00 00 00       	mov    esi,0x1
    13d1:	48 89 72 f0          	mov    QWORD PTR [rdx-0x10],rsi
    13d5:	be 01 00 00 00       	mov    esi,0x1
    13da:	48 89 72 f8          	mov    QWORD PTR [rdx-0x8],rsi
    13de:	48 31 f6             	xor    rsi,rsi
    13e1:	4c 89 e2             	mov    rdx,r12
    13e4:	48 b8 00 00 00 00 00 	movabs rax,0x0
    13eb:	00 00 00 
			13e6: R_X86_64_64	do_callback
    13ee:	48 89 9c 24 88 01 00 	mov    QWORD PTR [rsp+0x188],rbx
    13f5:	00 
    13f6:	48 89 bc 24 90 01 00 	mov    QWORD PTR [rsp+0x190],rdi
    13fd:	00 
    13fe:	4c 89 ac 24 98 01 00 	mov    QWORD PTR [rsp+0x198],r13
    1405:	00 
    1406:	ff d0                	call   rax
    1408:	48 8b 9c 24 88 01 00 	mov    rbx,QWORD PTR [rsp+0x188]
    140f:	00 
    1410:	4c 8b ac 24 98 01 00 	mov    r13,QWORD PTR [rsp+0x198]
    1417:	00 
    1418:	48 89 c6             	mov    rsi,rax
    141b:	48 89 b4 24 88 01 00 	mov    QWORD PTR [rsp+0x188],rsi
    1422:	00 
    1423:	49 8b 7d 08          	mov    rdi,QWORD PTR [r13+0x8]
    1427:	48 89 d1             	mov    rcx,rdx
    142a:	48 83 c1 e0          	add    rcx,0xffffffffffffffe0
    142e:	48 89 5a e0          	mov    QWORD PTR [rdx-0x20],rbx
    1432:	4c 89 7a e8          	mov    QWORD PTR [rdx-0x18],r15
    1436:	be 01 00 00 00       	mov    esi,0x1
    143b:	48 89 72 f0          	mov    QWORD PTR [rdx-0x10],rsi
    143f:	be 01 00 00 00       	mov    esi,0x1
    1444:	48 89 72 f8          	mov    QWORD PTR [rdx-0x8],rsi
    1448:	48 31 f6             	xor    rsi,rsi
    144b:	4c 89 e2             	mov    rdx,r12
    144e:	48 b8 00 00 00 00 00 	movabs rax,0x0
    1455:	00 00 00 
			1450: R_X86_64_64	do_callback
    1458:	48 89 9c 24 90 01 00 	mov    QWORD PTR [rsp+0x190],rbx
    145f:	00 
    1460:	48 89 bc 24 98 01 00 	mov    QWORD PTR [rsp+0x198],rdi
    1467:	00 
    1468:	4c 89 ac 24 a0 01 00 	mov    QWORD PTR [rsp+0x1a0],r13
    146f:	00 
    1470:	ff d0                	call   rax
    1472:	48 8b 9c 24 90 01 00 	mov    rbx,QWORD PTR [rsp+0x190]
    1479:	00 
    147a:	4c 8b ac 24 a0 01 00 	mov    r13,QWORD PTR [rsp+0x1a0]
    1481:	00 
    1482:	48 89 c6             	mov    rsi,rax
    1485:	48 89 b4 24 90 01 00 	mov    QWORD PTR [rsp+0x190],rsi
    148c:	00 
    148d:	49 8b 7d 08          	mov    rdi,QWORD PTR [r13+0x8]
    1491:	48 89 d1             	mov    rcx,rdx
    1494:	48 83 c1 e0          	add    rcx,0xffffffffffffffe0
    1498:	48 89 5a e0          	mov    QWORD PTR [rdx-0x20],rbx
    149c:	4c 89 7a e8          	mov    QWORD PTR [rdx-0x18],r15
    14a0:	be 01 00 00 00       	mov    esi,0x1
    14a5:	48 89 72 f0          	mov    QWORD PTR [rdx-0x10],rsi
    14a9:	be 01 00 00 00       	mov    esi,0x1
    14ae:	48 89 72 f8          	mov    QWORD PTR [rdx-0x8],rsi
    14b2:	48 31 f6             	xor    rsi,rsi
    14b5:	4c 89 e2             	mov    rdx,r12
    14b8:	48 b8 00 00 00 00 00 	movabs rax,0x0
    14bf:	00 00 00 
			14ba: R_X86_64_64	do_callback
    14c2:	48 89 9c 24 98 01 00 	mov    QWORD PTR [rsp+0x198],rbx
    14c9:	00 
    14ca:	48 89 bc 24 a0 01 00 	mov    QWORD PTR [rsp+0x1a0],rdi
    14d1:	00 
    14d2:	4c 89 ac 24 a8 01 00 	mov    QWORD PTR [rsp+0x1a8],r13
    14d9:	00 
    14da:	ff d0                	call   rax
    14dc:	48 8b 9c 24 98 01 00 	mov    rbx,QWORD PTR [rsp+0x198]
    14e3:	00 
    14e4:	4c 8b ac 24 a8 01 00 	mov    r13,QWORD PTR [rsp+0x1a8]
    14eb:	00 
    14ec:	48 89 c6             	mov    rsi,rax
    14ef:	48 89 b4 24 98 01 00 	mov    QWORD PTR [rsp+0x198],rsi
    14f6:	00 
    14f7:	49 8b 7d 08          	mov    rdi,QWORD PTR [r13+0x8]
    14fb:	48 89 d1             	mov    rcx,rdx
    14fe:	48 83 c1 e0          	add    rcx,0xffffffffffffffe0
    1502:	48 89 5a e0          	mov    QWORD PTR [rdx-0x20],rbx
    1506:	4c 89 7a e8          	mov    QWORD PTR [rdx-0x18],r15
    150a:	be 01 00 00 00       	mov    esi,0x1
    150f:	48 89 72 f0          	mov    QWORD PTR [rdx-0x10],rsi
    1513:	be 01 00 00 00       	mov    esi,0x1
    1518:	48 89 72 f8          	mov    QWORD PTR [rdx-0x8],rsi
    151c:	48 31 f6             	xor    rsi,rsi
    151f:	4c 89 e2             	mov    rdx,r12
    1522:	48 b8 00 00 00 00 00 	movabs rax,0x0
    1529:	00 00 00 
			1524: R_X86_64_64	do_callback
    152c:	48 89 9c 24 a0 01 00 	mov    QWORD PTR [rsp+0x1a0],rbx
    1533:	00 
    1534:	48 89 bc 24 a8 01 00 	mov    QWORD PTR [rsp+0x1a8],rdi
    153b:	00 
    153c:	4c 89 ac 24 b0 01 00 	mov    QWORD PTR [rsp+0x1b0],r13
    1543:	00 
    1544:	ff d0                	call   rax
    1546:	48 8b 9c 24 a0 01 00 	mov    rbx,QWORD PTR [rsp+0x1a0]
    154d:	00 
    154e:	4c 8b ac 24 b0 01 00 	mov    r13,QWORD PTR [rsp+0x1b0]
    1555:	00 
    1556:	48 89 c6             	mov    rsi,rax
    1559:	48 89 b4 24 a0 01 00 	mov    QWORD PTR [rsp+0x1a0],rsi
    1560:	00 
    1561:	49 8b 7d 08          	mov    rdi,QWORD PTR [r13+0x8]
    1565:	48 89 d1             	mov    rcx,rdx
    1568:	48 83 c1 e0          	add    rcx,0xffffffffffffffe0
    156c:	48 89 5a e0          	mov    QWORD PTR [rdx-0x20],rbx
    1570:	4c 89 7a e8          	mov    QWORD PTR [rdx-0x18],r15
    1574:	be 01 00 00 00       	mov    esi,0x1
    1579:	48 89 72 f0          	mov    QWORD PTR [rdx-0x10],rsi
    157d:	be 01 00 00 00       	mov    esi,0x1
    1582:	48 89 72 f8          	mov    QWORD PTR [rdx-0x8],rsi
    1586:	48 31 f6             	xor    rsi,rsi
    1589:	4c 89 e2             	mov    rdx,r12
    158c:	48 b8 00 00 00 00 00 	movabs rax,0x0
    1593:	00 00 00 
			158e: R_X86_64_64	do_callback
    1596:	48 89 9c 24 a8 01 00 	mov    QWORD PTR [rsp+0x1a8],rbx
    159d:	00 
    159e:	48 89 bc 24 b0 01 00 	mov    QWORD PTR [rsp+0x1b0],rdi
    15a5:	00 
    15a6:	4c 89 ac 24 b8 01 00 	mov    QWORD PTR [rsp+0x1b8],r13
    15ad:	00 
    15ae:	ff d0                	call   rax
    15b0:	48 8b 9c 24 a8 01 00 	mov    rbx,QWORD PTR [rsp+0x1a8]
    15b7:	00 
    15b8:	4c 8b ac 24 b8 01 00 	mov    r13,QWORD PTR [rsp+0x1b8]
    15bf:	00 
    15c0:	48 89 c6             	mov    rsi,rax
    15c3:	48 89 b4 24 a8 01 00 	mov    QWORD PTR [rsp+0x1a8],rsi
    15ca:	00 
    15cb:	49 8b 7d 08          	mov    rdi,QWORD PTR [r13+0x8]
    15cf:	48 89 d1             	mov    rcx,rdx
    15d2:	48 83 c1 e0          	add    rcx,0xffffffffffffffe0
    15d6:	48 89 5a e0          	mov    QWORD PTR [rdx-0x20],rbx
    15da:	4c 89 7a e8          	mov    QWORD PTR [rdx-0x18],r15
    15de:	be 01 00 00 00       	mov    esi,0x1
    15e3:	48 89 72 f0          	mov    QWORD PTR [rdx-0x10],rsi
    15e7:	be 01 00 00 00       	mov    esi,0x1
    15ec:	48 89 72 f8          	mov    QWORD PTR [rdx-0x8],rsi
    15f0:	48 31 f6             	xor    rsi,rsi
    15f3:	4c 89 e2             	mov    rdx,r12
    15f6:	48 b8 00 00 00 00 00 	movabs rax,0x0
    15fd:	00 00 00 
			15f8: R_X86_64_64	do_callback
    1600:	48 89 9c 24 b0 01 00 	mov    QWORD PTR [rsp+0x1b0],rbx
    1607:	00 
    1608:	48 89 bc 24 b8 01 00 	mov    QWORD PTR [rsp+0x1b8],rdi
    160f:	00 
    1610:	4c 89 ac 24 c0 01 00 	mov    QWORD PTR [rsp+0x1c0],r13
    1617:	00 
    1618:	ff d0                	call   rax
    161a:	48 8b 9c 24 b0 01 00 	mov    rbx,QWORD PTR [rsp+0x1b0]
    1621:	00 
    1622:	4c 8b ac 24 c0 01 00 	mov    r13,QWORD PTR [rsp+0x1c0]
    1629:	00 
    162a:	48 89 c6             	mov    rsi,rax
    162d:	48 89 b4 24 b0 01 00 	mov    QWORD PTR [rsp+0x1b0],rsi
    1634:	00 
    1635:	49 8b 7d 08          	mov    rdi,QWORD PTR [r13+0x8]
    1639:	48 89 d1             	mov    rcx,rdx
    163c:	48 83 c1 e0          	add    rcx,0xffffffffffffffe0
    1640:	48 89 5a e0          	mov    QWORD PTR [rdx-0x20],rbx
    1644:	4c 89 7a e8          	mov    QWORD PTR [rdx-0x18],r15
    1648:	be 01 00 00 00       	mov    esi,0x1
    164d:	48 89 72 f0          	mov    QWORD PTR [rdx-0x10],rsi
    1651:	be 01 00 00 00       	mov    esi,0x1
    1656:	48 89 72 f8          	mov    QWORD PTR [rdx-0x8],rsi
    165a:	48 31 f6             	xor    rsi,rsi
    165d:	4c 89 e2             	mov    rdx,r12
    1660:	48 b8 00 00 00 00 00 	movabs rax,0x0
    1667:	00 00 00 
			1662: R_X86_64_64	do_callback
    166a:	48 89 9c 24 b8 01 00 	mov    QWORD PTR [rsp+0x1b8],rbx
    1671:	00 
    1672:	48 89 bc 24 c0 01 00 	mov    QWORD PTR [rsp+0x1c0],rdi
    1679:	00 
    167a:	4c 89 ac 24 c8 01 00 	mov    QWORD PTR [rsp+0x1c8],r13
    1681:	00 
    1682:	ff d0                	call   rax
    1684:	48 8b 9c 24 b8 01 00 	mov    rbx,QWORD PTR [rsp+0x1b8]
    168b:	00 
    168c:	4c 8b ac 24 c8 01 00 	mov    r13,QWORD PTR [rsp+0x1c8]
    1693:	00 
    1694:	48 89 c6             	mov    rsi,rax
    1697:	48 89 b4 24 b8 01 00 	mov    QWORD PTR [rsp+0x1b8],rsi
    169e:	00 
    169f:	49 8b 7d 08          	mov    rdi,QWORD PTR [r13+0x8]
    16a3:	48 89 d1             	mov    rcx,rdx
    16a6:	48 83 c1 e0          	add    rcx,0xffffffffffffffe0
    16aa:	48 89 5a e0          	mov    QWORD PTR [rdx-0x20],rbx
    16ae:	4c 89 7a e8          	mov    QWORD PTR [rdx-0x18],r15
    16b2:	be 01 00 00 00       	mov    esi,0x1
    16b7:	48 89 72 f0          	mov    QWORD PTR [rdx-0x10],rsi
    16bb:	be 01 00 00 00       	mov    esi,0x1
    16c0:	48 89 72 f8          	mov    QWORD PTR [rdx-0x8],rsi
    16c4:	48 31 f6             	xor    rsi,rsi
    16c7:	4c 89 e2             	mov    rdx,r12
    16ca:	48 b8 00 00 00 00 00 	movabs rax,0x0
    16d1:	00 00 00 
			16cc: R_X86_64_64	do_callback
    16d4:	48 89 9c 24 c0 01 00 	mov    QWORD PTR [rsp+0x1c0],rbx
    16db:	00 
    16dc:	48 89 bc 24 c8 01 00 	mov    QWORD PTR [rsp+0x1c8],rdi
    16e3:	00 
    16e4:	4c 89 ac 24 d0 01 00 	mov    QWORD PTR [rsp+0x1d0],r13
    16eb:	00 
    16ec:	ff d0                	call   rax
    16ee:	48 8b 9c 24 c0 01 00 	mov    rbx,QWORD PTR [rsp+0x1c0]
    16f5:	00 
    16f6:	4c 8b ac 24 d0 01 00 	mov    r13,QWORD PTR [rsp+0x1d0]
    16fd:	00 
    16fe:	48 89 c6             	mov    rsi,rax
    1701:	48 89 b4 24 c0 01 00 	mov    QWORD PTR [rsp+0x1c0],rsi
    1708:	00 
    1709:	49 8b 7d 08          	mov    rdi,QWORD PTR [r13+0x8]
    170d:	48 89 d1             	mov    rcx,rdx
    1710:	48 83 c1 e0          	add    rcx,0xffffffffffffffe0
    1714:	48 89 5a e0          	mov    QWORD PTR [rdx-0x20],rbx
    1718:	4c 89 7a e8          	mov    QWORD PTR [rdx-0x18],r15
    171c:	be 01 00 00 00       	mov    esi,0x1
    1721:	48 89 72 f0          	mov    QWORD PTR [rdx-0x10],rsi
    1725:	be 01 00 00 00       	mov    esi,0x1
    172a:	48 89 72 f8          	mov    QWORD PTR [rdx-0x8],rsi
    172e:	48 31 f6             	xor    rsi,rsi
    1731:	4c 89 e2             	mov    rdx,r12
    1734:	48 b8 00 00 00 00 00 	movabs rax,0x0
    173b:	00 00 00 
			1736: R_X86_64_64	do_callback
    173e:	48 89 9c 24 c8 01 00 	mov    QWORD PTR [rsp+0x1c8],rbx
    1745:	00 
    1746:	48 89 bc 24 d0 01 00 	mov    QWORD PTR [rsp+0x1d0],rdi
    174d:	00 
    174e:	4c 89 ac 24 d8 01 00 	mov    QWORD PTR [rsp+0x1d8],r13
    1755:	00 
    1756:	ff d0                	call   rax
    1758:	48 8b 9c 24 c8 01 00 	mov    rbx,QWORD PTR [rsp+0x1c8]
    175f:	00 
    1760:	4c 8b ac 24 d8 01 00 	mov    r13,QWORD PTR [rsp+0x1d8]
    1767:	00 
    1768:	48 89 c6             	mov    rsi,rax
    176b:	48 89 b4 24 c8 01 00 	mov    QWORD PTR [rsp+0x1c8],rsi
    1772:	00 
    1773:	49 8b 7d 08          	mov    rdi,QWORD PTR [r13+0x8]
    1777:	48 89 d1             	mov    rcx,rdx
    177a:	48 83 c1 e0          	add    rcx,0xffffffffffffffe0
    177e:	48 89 5a e0          	mov    QWORD PTR [rdx-0x20],rbx
    1782:	4c 89 7a e8          	mov    QWORD PTR [rdx-0x18],r15
    1786:	be 01 00 00 00       	mov    esi,0x1
    178b:	48 89 72 f0          	mov    QWORD PTR [rdx-0x10],rsi
    178f:	be 01 00 00 00       	mov    esi,0x1
    1794:	48 89 72 f8          	mov    QWORD PTR [rdx-0x8],rsi
    1798:	48 31 f6             	xor    rsi,rsi
    179b:	4c 89 e2             	mov    rdx,r12
    179e:	48 b8 00 00 00 00 00 	movabs rax,0x0
    17a5:	00 00 00 
			17a0: R_X86_64_64	do_callback
    17a8:	48 89 9c 24 d0 01 00 	mov    QWORD PTR [rsp+0x1d0],rbx
    17af:	00 
    17b0:	48 89 bc 24 d8 01 00 	mov    QWORD PTR [rsp+0x1d8],rdi
    17b7:	00 
    17b8:	4c 89 ac 24 e0 01 00 	mov    QWORD PTR [rsp+0x1e0],r13
    17bf:	00 
    17c0:	ff d0                	call   rax
    17c2:	48 8b 9c 24 d0 01 00 	mov    rbx,QWORD PTR [rsp+0x1d0]
    17c9:	00 
    17ca:	4c 8b ac 24 e0 01 00 	mov    r13,QWORD PTR [rsp+0x1e0]
    17d1:	00 
    17d2:	48 89 c6             	mov    rsi,rax
    17d5:	48 89 b4 24 d0 01 00 	mov    QWORD PTR [rsp+0x1d0],rsi
    17dc:	00 
    17dd:	49 8b 7d 08          	mov    rdi,QWORD PTR [r13+0x8]
    17e1:	48 89 d1             	mov    rcx,rdx
    17e4:	48 83 c1 e0          	add    rcx,0xffffffffffffffe0
    17e8:	48 89 5a e0          	mov    QWORD PTR [rdx-0x20],rbx
    17ec:	4c 89 7a e8          	mov    QWORD PTR [rdx-0x18],r15
    17f0:	be 01 00 00 00       	mov    esi,0x1
    17f5:	48 89 72 f0          	mov    QWORD PTR [rdx-0x10],rsi
    17f9:	be 01 00 00 00       	mov    esi,0x1
    17fe:	48 89 72 f8          	mov    QWORD PTR [rdx-0x8],rsi
    1802:	48 31 f6             	xor    rsi,rsi
    1805:	4c 89 e2             	mov    rdx,r12
    1808:	48 b8 00 00 00 00 00 	movabs rax,0x0
    180f:	00 00 00 
			180a: R_X86_64_64	do_callback
    1812:	48 89 9c 24 d8 01 00 	mov    QWORD PTR [rsp+0x1d8],rbx
    1819:	00 
    181a:	48 89 bc 24 e0 01 00 	mov    QWORD PTR [rsp+0x1e0],rdi
    1821:	00 
    1822:	4c 89 ac 24 e8 01 00 	mov    QWORD PTR [rsp+0x1e8],r13
    1829:	00 
    182a:	ff d0                	call   rax
    182c:	48 8b 9c 24 d8 01 00 	mov    rbx,QWORD PTR [rsp+0x1d8]
    1833:	00 
    1834:	4c 8b ac 24 e8 01 00 	mov    r13,QWORD PTR [rsp+0x1e8]
    183b:	00 
    183c:	48 89 c6             	mov    rsi,rax
    183f:	48 89 b4 24 d8 01 00 	mov    QWORD PTR [rsp+0x1d8],rsi
    1846:	00 
    1847:	49 8b 7d 08          	mov    rdi,QWORD PTR [r13+0x8]
    184b:	48 89 d1             	mov    rcx,rdx
    184e:	48 83 c1 e0          	add    rcx,0xffffffffffffffe0
    1852:	48 89 5a e0          	mov    QWORD PTR [rdx-0x20],rbx
    1856:	4c 89 7a e8          	mov    QWORD PTR [rdx-0x18],r15
    185a:	be 01 00 00 00       	mov    esi,0x1
    185f:	48 89 72 f0          	mov    QWORD PTR [rdx-0x10],rsi
    1863:	be 01 00 00 00       	mov    esi,0x1
    1868:	48 89 72 f8          	mov    QWORD PTR [rdx-0x8],rsi
    186c:	48 31 f6             	xor    rsi,rsi
    186f:	4c 89 e2             	mov    rdx,r12
    1872:	48 b8 00 00 00 00 00 	movabs rax,0x0
    1879:	00 00 00 
			1874: R_X86_64_64	do_callback
    187c:	48 89 9c 24 e0 01 00 	mov    QWORD PTR [rsp+0x1e0],rbx
    1883:	00 
    1884:	48 89 bc 24 e8 01 00 	mov    QWORD PTR [rsp+0x1e8],rdi
    188b:	00 
    188c:	4c 89 ac 24 f0 01 00 	mov    QWORD PTR [rsp+0x1f0],r13
    1893:	00 
    1894:	ff d0                	call   rax
    1896:	48 8b 9c 24 e0 01 00 	mov    rbx,QWORD PTR [rsp+0x1e0]
    189d:	00 
    189e:	4c 8b ac 24 f0 01 00 	mov    r13,QWORD PTR [rsp+0x1f0]
    18a5:	00 
    18a6:	48 89 c6             	mov    rsi,rax
    18a9:	48 89 b4 24 e0 01 00 	mov    QWORD PTR [rsp+0x1e0],rsi
    18b0:	00 
    18b1:	49 8b 7d 08          	mov    rdi,QWORD PTR [r13+0x8]
    18b5:	48 89 d1             	mov    rcx,rdx
    18b8:	48 83 c1 e0          	add    rcx,0xffffffffffffffe0
    18bc:	48 89 5a e0          	mov    QWORD PTR [rdx-0x20],rbx
    18c0:	4c 89 7a e8          	mov    QWORD PTR [rdx-0x18],r15
    18c4:	be 01 00 00 00       	mov    esi,0x1
    18c9:	48 89 72 f0          	mov    QWORD PTR [rdx-0x10],rsi
    18cd:	be 01 00 00 00       	mov    esi,0x1
    18d2:	48 89 72 f8          	mov    QWORD PTR [rdx-0x8],rsi
    18d6:	48 31 f6             	xor    rsi,rsi
    18d9:	4c 89 e2             	mov    rdx,r12
    18dc:	48 b8 00 00 00 00 00 	movabs rax,0x0
    18e3:	00 00 00 
			18de: R_X86_64_64	do_callback
    18e6:	48 89 9c 24 e8 01 00 	mov    QWORD PTR [rsp+0x1e8],rbx
    18ed:	00 
    18ee:	48 89 bc 24 f0 01 00 	mov    QWORD PTR [rsp+0x1f0],rdi
    18f5:	00 
    18f6:	4c 89 ac 24 f8 01 00 	mov    QWORD PTR [rsp+0x1f8],r13
    18fd:	00 
    18fe:	ff d0                	call   rax
    1900:	48 8b 9c 24 e8 01 00 	mov    rbx,QWORD PTR [rsp+0x1e8]
    1907:	00 
    1908:	4c 8b ac 24 f8 01 00 	mov    r13,QWORD PTR [rsp+0x1f8]
    190f:	00 
    1910:	48 89 c6             	mov    rsi,rax
    1913:	48 89 b4 24 e8 01 00 	mov    QWORD PTR [rsp+0x1e8],rsi
    191a:	00 
    191b:	49 8b 7d 08          	mov    rdi,QWORD PTR [r13+0x8]
    191f:	48 89 d1             	mov    rcx,rdx
    1922:	48 83 c1 e0          	add    rcx,0xffffffffffffffe0
    1926:	48 89 5a e0          	mov    QWORD PTR [rdx-0x20],rbx
    192a:	4c 89 7a e8          	mov    QWORD PTR [rdx-0x18],r15
    192e:	be 01 00 00 00       	mov    esi,0x1
    1933:	48 89 72 f0          	mov    QWORD PTR [rdx-0x10],rsi
    1937:	be 01 00 00 00       	mov    esi,0x1
    193c:	48 89 72 f8          	mov    QWORD PTR [rdx-0x8],rsi
    1940:	48 31 f6             	xor    rsi,rsi
    1943:	4c 89 e2             	mov    rdx,r12
    1946:	48 b8 00 00 00 00 00 	movabs rax,0x0
    194d:	00 00 00 
			1948: R_X86_64_64	do_callback
    1950:	48 89 9c 24 f0 01 00 	mov    QWORD PTR [rsp+0x1f0],rbx
    1957:	00 
    1958:	48 89 bc 24 f8 01 00 	mov    QWORD PTR [rsp+0x1f8],rdi
    195f:	00 
    1960:	4c 89 ac 24 00 02 00 	mov    QWORD PTR [rsp+0x200],r13
    1967:	00 
    1968:	ff d0                	call   rax
    196a:	48 8b 9c 24 f0 01 00 	mov    rbx,QWORD PTR [rsp+0x1f0]
    1971:	00 
    1972:	4c 8b ac 24 00 02 00 	mov    r13,QWORD PTR [rsp+0x200]
    1979:	00 
    197a:	48 89 c6             	mov    rsi,rax
    197d:	48 89 b4 24 f0 01 00 	mov    QWORD PTR [rsp+0x1f0],rsi
    1984:	00 
    1985:	49 8b 7d 08          	mov    rdi,QWORD PTR [r13+0x8]
    1989:	48 89 d1             	mov    rcx,rdx
    198c:	48 83 c1 e0          	add    rcx,0xffffffffffffffe0
    1990:	48 89 5a e0          	mov    QWORD PTR [rdx-0x20],rbx
    1994:	4c 89 7a e8          	mov    QWORD PTR [rdx-0x18],r15
    1998:	be 01 00 00 00       	mov    esi,0x1
    199d:	48 89 72 f0          	mov    QWORD PTR [rdx-0x10],rsi
    19a1:	be 01 00 00 00       	mov    esi,0x1
    19a6:	48 89 72 f8          	mov    QWORD PTR [rdx-0x8],rsi
    19aa:	48 31 f6             	xor    rsi,rsi
    19ad:	4c 89 e2             	mov    rdx,r12
    19b0:	48 b8 00 00 00 00 00 	movabs rax,0x0
    19b7:	00 00 00 
			19b2: R_X86_64_64	do_callback
    19ba:	48 89 9c 24 f8 01 00 	mov    QWORD PTR [rsp+0x1f8],rbx
    19c1:	00 
    19c2:	48 89 bc 24 00 02 00 	mov    QWORD PTR [rsp+0x200],rdi
    19c9:	00 
    19ca:	4c 89 ac 24 08 02 00 	mov    QWORD PTR [rsp+0x208],r13
    19d1:	00 
    19d2:	ff d0                	call   rax
    19d4:	48 8b 9c 24 f8 01 00 	mov    rbx,QWORD PTR [rsp+0x1f8]
    19db:	00 
    19dc:	4c 8b ac 24 08 02 00 	mov    r13,QWORD PTR [rsp+0x208]
    19e3:	00 
    19e4:	48 89 c6             	mov    rsi,rax
    19e7:	48 89 b4 24 f8 01 00 	mov    QWORD PTR [rsp+0x1f8],rsi
    19ee:	00 
    19ef:	49 8b 7d 08          	mov    rdi,QWORD PTR [r13+0x8]
    19f3:	48 89 d1             	mov    rcx,rdx
    19f6:	48 83 c1 e0          	add    rcx,0xffffffffffffffe0
    19fa:	48 89 5a e0          	mov    QWORD PTR [rdx-0x20],rbx
    19fe:	4c 89 7a e8          	mov    QWORD PTR [rdx-0x18],r15
    1a02:	be 01 00 00 00       	mov    esi,0x1
    1a07:	48 89 72 f0          	mov    QWORD PTR [rdx-0x10],rsi
    1a0b:	be 01 00 00 00       	mov    esi,0x1
    1a10:	48 89 72 f8          	mov    QWORD PTR [rdx-0x8],rsi
    1a14:	48 31 f6             	xor    rsi,rsi
    1a17:	4c 89 e2             	mov    rdx,r12
    1a1a:	48 b8 00 00 00 00 00 	movabs rax,0x0
    1a21:	00 00 00 
			1a1c: R_X86_64_64	do_callback
    1a24:	48 89 9c 24 00 02 00 	mov    QWORD PTR [rsp+0x200],rbx
    1a2b:	00 
    1a2c:	48 89 bc 24 08 02 00 	mov    QWORD PTR [rsp+0x208],rdi
    1a33:	00 
    1a34:	4c 89 ac 24 10 02 00 	mov    QWORD PTR [rsp+0x210],r13
    1a3b:	00 
    1a3c:	ff d0                	call   rax
    1a3e:	48 8b 9c 24 00 02 00 	mov    rbx,QWORD PTR [rsp+0x200]
    1a45:	00 
    1a46:	4c 8b ac 24 10 02 00 	mov    r13,QWORD PTR [rsp+0x210]
    1a4d:	00 
    1a4e:	48 89 c6             	mov    rsi,rax
    1a51:	48 89 b4 24 00 02 00 	mov    QWORD PTR [rsp+0x200],rsi
    1a58:	00 
    1a59:	49 8b 7d 08          	mov    rdi,QWORD PTR [r13+0x8]
    1a5d:	48 89 d1             	mov    rcx,rdx
    1a60:	48 83 c1 e0          	add    rcx,0xffffffffffffffe0
    1a64:	48 89 5a e0          	mov    QWORD PTR [rdx-0x20],rbx
    1a68:	4c 89 7a e8          	mov    QWORD PTR [rdx-0x18],r15
    1a6c:	be 01 00 00 00       	mov    esi,0x1
    1a71:	48 89 72 f0          	mov    QWORD PTR [rdx-0x10],rsi
    1a75:	be 01 00 00 00       	mov    esi,0x1
    1a7a:	48 89 72 f8          	mov    QWORD PTR [rdx-0x8],rsi
    1a7e:	48 31 f6             	xor    rsi,rsi
    1a81:	4c 89 e2             	mov    rdx,r12
    1a84:	48 b8 00 00 00 00 00 	movabs rax,0x0
    1a8b:	00 00 00 
			1a86: R_X86_64_64	do_callback
    1a8e:	48 89 9c 24 08 02 00 	mov    QWORD PTR [rsp+0x208],rbx
    1a95:	00 
    1a96:	48 89 bc 24 10 02 00 	mov    QWORD PTR [rsp+0x210],rdi
    1a9d:	00 
    1a9e:	4c 89 ac 24 18 02 00 	mov    QWORD PTR [rsp+0x218],r13
    1aa5:	00 
    1aa6:	ff d0                	call   rax
    1aa8:	48 8b 9c 24 08 02 00 	mov    rbx,QWORD PTR [rsp+0x208]
    1aaf:	00 
    1ab0:	4c 8b ac 24 18 02 00 	mov    r13,QWORD PTR [rsp+0x218]
    1ab7:	00 
    1ab8:	48 89 c6             	mov    rsi,rax
    1abb:	48 89 b4 24 08 02 00 	mov    QWORD PTR [rsp+0x208],rsi
    1ac2:	00 
    1ac3:	49 8b 7d 08          	mov    rdi,QWORD PTR [r13+0x8]
    1ac7:	48 89 d1             	mov    rcx,rdx
    1aca:	48 83 c1 e0          	add    rcx,0xffffffffffffffe0
    1ace:	48 89 5a e0          	mov    QWORD PTR [rdx-0x20],rbx
    1ad2:	4c 89 7a e8          	mov    QWORD PTR [rdx-0x18],r15
    1ad6:	be 01 00 00 00       	mov    esi,0x1
    1adb:	48 89 72 f0          	mov    QWORD PTR [rdx-0x10],rsi
    1adf:	be 01 00 00 00       	mov    esi,0x1
    1ae4:	48 89 72 f8          	mov    QWORD PTR [rdx-0x8],rsi
    1ae8:	48 31 f6             	xor    rsi,rsi
    1aeb:	4c 89 e2             	mov    rdx,r12
    1aee:	48 b8 00 00 00 00 00 	movabs rax,0x0
    1af5:	00 00 00 
			1af0: R_X86_64_64	do_callback
    1af8:	48 89 9c 24 10 02 00 	mov    QWORD PTR [rsp+0x210],rbx
    1aff:	00 
    1b00:	48 89 bc 24 18 02 00 	mov    QWORD PTR [rsp+0x218],rdi
    1b07:	00 
    1b08:	4c 89 ac 24 20 02 00 	mov    QWORD PTR [rsp+0x220],r13
    1b0f:	00 
    1b10:	ff d0                	call   rax
    1b12:	48 8b 9c 24 10 02 00 	mov    rbx,QWORD PTR [rsp+0x210]
    1b19:	00 
    1b1a:	4c 8b ac 24 20 02 00 	mov    r13,QWORD PTR [rsp+0x220]
    1b21:	00 
    1b22:	48 89 c6             	mov    rsi,rax
    1b25:	48 89 b4 24 10 02 00 	mov    QWORD PTR [rsp+0x210],rsi
    1b2c:	00 
    1b2d:	49 8b 7d 08          	mov    rdi,QWORD PTR [r13+0x8]
    1b31:	48 89 d1             	mov    rcx,rdx
    1b34:	48 83 c1 e0          	add    rcx,0xffffffffffffffe0
    1b38:	48 89 5a e0          	mov    QWORD PTR [rdx-0x20],rbx
    1b3c:	4c 89 7a e8          	mov    QWORD PTR [rdx-0x18],r15
    1b40:	be 01 00 00 00       	mov    esi,0x1
    1b45:	48 89 72 f0          	mov    QWORD PTR [rdx-0x10],rsi
    1b49:	be 01 00 00 00       	mov    esi,0x1
    1b4e:	48 89 72 f8          	mov    QWORD PTR [rdx-0x8],rsi
    1b52:	48 31 f6             	xor    rsi,rsi
    1b55:	4c 89 e2             	mov    rdx,r12
    1b58:	48 b8 00 00 00 00 00 	movabs rax,0x0
    1b5f:	00 00 00 
			1b5a: R_X86_64_64	do_callback
    1b62:	48 89 9c 24 18 02 00 	mov    QWORD PTR [rsp+0x218],rbx
    1b69:	00 
    1b6a:	48 89 bc 24 20 02 00 	mov    QWORD PTR [rsp+0x220],rdi
    1b71:	00 
    1b72:	4c 89 ac 24 28 02 00 	mov    QWORD PTR [rsp+0x228],r13
    1b79:	00 
    1b7a:	ff d0                	call   rax
    1b7c:	48 8b 9c 24 18 02 00 	mov    rbx,QWORD PTR [rsp+0x218]
    1b83:	00 
    1b84:	4c 8b ac 24 28 02 00 	mov    r13,QWORD PTR [rsp+0x228]
    1b8b:	00 
    1b8c:	48 89 c6             	mov    rsi,rax
    1b8f:	48 89 b4 24 18 02 00 	mov    QWORD PTR [rsp+0x218],rsi
    1b96:	00 
    1b97:	49 8b 7d 08          	mov    rdi,QWORD PTR [r13+0x8]
    1b9b:	48 89 d1             	mov    rcx,rdx
    1b9e:	48 83 c1 e0          	add    rcx,0xffffffffffffffe0
    1ba2:	48 89 5a e0          	mov    QWORD PTR [rdx-0x20],rbx
    1ba6:	4c 89 7a e8          	mov    QWORD PTR [rdx-0x18],r15
    1baa:	be 01 00 00 00       	mov    esi,0x1
    1baf:	48 89 72 f0          	mov    QWORD PTR [rdx-0x10],rsi
    1bb3:	be 01 00 00 00       	mov    esi,0x1
    1bb8:	48 89 72 f8          	mov    QWORD PTR [rdx-0x8],rsi
    1bbc:	48 31 f6             	xor    rsi,rsi
    1bbf:	4c 89 e2             	mov    rdx,r12
    1bc2:	48 b8 00 00 00 00 00 	movabs rax,0x0
    1bc9:	00 00 00 
			1bc4: R_X86_64_64	do_callback
    1bcc:	48 89 9c 24 20 02 00 	mov    QWORD PTR [rsp+0x220],rbx
    1bd3:	00 
    1bd4:	48 89 bc 24 28 02 00 	mov    QWORD PTR [rsp+0x228],rdi
    1bdb:	00 
    1bdc:	4c 89 ac 24 30 02 00 	mov    QWORD PTR [rsp+0x230],r13
    1be3:	00 
    1be4:	ff d0                	call   rax
    1be6:	48 8b 9c 24 20 02 00 	mov    rbx,QWORD PTR [rsp+0x220]
    1bed:	00 
    1bee:	4c 8b ac 24 30 02 00 	mov    r13,QWORD PTR [rsp+0x230]
    1bf5:	00 
    1bf6:	48 89 c6             	mov    rsi,rax
    1bf9:	48 89 b4 24 20 02 00 	mov    QWORD PTR [rsp+0x220],rsi
    1c00:	00 
    1c01:	49 8b 7d 08          	mov    rdi,QWORD PTR [r13+0x8]
    1c05:	48 89 d1             	mov    rcx,rdx
    1c08:	48 83 c1 e0          	add    rcx,0xffffffffffffffe0
    1c0c:	48 89 5a e0          	mov    QWORD PTR [rdx-0x20],rbx
    1c10:	4c 89 7a e8          	mov    QWORD PTR [rdx-0x18],r15
    1c14:	be 01 00 00 00       	mov    esi,0x1
    1c19:	48 89 72 f0          	mov    QWORD PTR [rdx-0x10],rsi
    1c1d:	be 01 00 00 00       	mov    esi,0x1
    1c22:	48 89 72 f8          	mov    QWORD PTR [rdx-0x8],rsi
    1c26:	48 31 f6             	xor    rsi,rsi
    1c29:	4c 89 e2             	mov    rdx,r12
    1c2c:	48 b8 00 00 00 00 00 	movabs rax,0x0
    1c33:	00 00 00 
			1c2e: R_X86_64_64	do_callback
    1c36:	48 89 9c 24 28 02 00 	mov    QWORD PTR [rsp+0x228],rbx
    1c3d:	00 
    1c3e:	48 89 bc 24 30 02 00 	mov    QWORD PTR [rsp+0x230],rdi
    1c45:	00 
    1c46:	4c 89 ac 24 38 02 00 	mov    QWORD PTR [rsp+0x238],r13
    1c4d:	00 
    1c4e:	ff d0                	call   rax
    1c50:	48 8b 9c 24 28 02 00 	mov    rbx,QWORD PTR [rsp+0x228]
    1c57:	00 
    1c58:	4c 8b ac 24 38 02 00 	mov    r13,QWORD PTR [rsp+0x238]
    1c5f:	00 
    1c60:	48 89 c6             	mov    rsi,rax
    1c63:	48 89 b4 24 28 02 00 	mov    QWORD PTR [rsp+0x228],rsi
    1c6a:	00 
    1c6b:	49 8b 7d 08          	mov    rdi,QWORD PTR [r13+0x8]
    1c6f:	48 89 d1             	mov    rcx,rdx
    1c72:	48 83 c1 e0          	add    rcx,0xffffffffffffffe0
    1c76:	48 89 5a e0          	mov    QWORD PTR [rdx-0x20],rbx
    1c7a:	4c 89 7a e8          	mov    QWORD PTR [rdx-0x18],r15
    1c7e:	be 01 00 00 00       	mov    esi,0x1
    1c83:	48 89 72 f0          	mov    QWORD PTR [rdx-0x10],rsi
    1c87:	be 01 00 00 00       	mov    esi,0x1
    1c8c:	48 89 72 f8          	mov    QWORD PTR [rdx-0x8],rsi
    1c90:	48 31 f6             	xor    rsi,rsi
    1c93:	4c 89 e2             	mov    rdx,r12
    1c96:	48 b8 00 00 00 00 00 	movabs rax,0x0
    1c9d:	00 00 00 
			1c98: R_X86_64_64	do_callback
    1ca0:	48 89 9c 24 30 02 00 	mov    QWORD PTR [rsp+0x230],rbx
    1ca7:	00 
    1ca8:	48 89 bc 24 38 02 00 	mov    QWORD PTR [rsp+0x238],rdi
    1caf:	00 
    1cb0:	4c 89 ac 24 40 02 00 	mov    QWORD PTR [rsp+0x240],r13
    1cb7:	00 
    1cb8:	ff d0                	call   rax
    1cba:	48 8b 9c 24 30 02 00 	mov    rbx,QWORD PTR [rsp+0x230]
    1cc1:	00 
    1cc2:	4c 8b ac 24 40 02 00 	mov    r13,QWORD PTR [rsp+0x240]
    1cc9:	00 
    1cca:	48 89 c6             	mov    rsi,rax
    1ccd:	48 89 b4 24 30 02 00 	mov    QWORD PTR [rsp+0x230],rsi
    1cd4:	00 
    1cd5:	49 8b 7d 08          	mov    rdi,QWORD PTR [r13+0x8]
    1cd9:	48 89 d1             	mov    rcx,rdx
    1cdc:	48 83 c1 e0          	add    rcx,0xffffffffffffffe0
    1ce0:	48 89 5a e0          	mov    QWORD PTR [rdx-0x20],rbx
    1ce4:	4c 89 7a e8          	mov    QWORD PTR [rdx-0x18],r15
    1ce8:	be 01 00 00 00       	mov    esi,0x1
    1ced:	48 89 72 f0          	mov    QWORD PTR [rdx-0x10],rsi
    1cf1:	be 01 00 00 00       	mov    esi,0x1
    1cf6:	48 89 72 f8          	mov    QWORD PTR [rdx-0x8],rsi
    1cfa:	48 31 f6             	xor    rsi,rsi
    1cfd:	4c 89 e2             	mov    rdx,r12
    1d00:	48 b8 00 00 00 00 00 	movabs rax,0x0
    1d07:	00 00 00 
			1d02: R_X86_64_64	do_callback
    1d0a:	48 89 9c 24 38 02 00 	mov    QWORD PTR [rsp+0x238],rbx
    1d11:	00 
    1d12:	48 89 bc 24 40 02 00 	mov    QWORD PTR [rsp+0x240],rdi
    1d19:	00 
    1d1a:	4c 89 ac 24 48 02 00 	mov    QWORD PTR [rsp+0x248],r13
    1d21:	00 
    1d22:	ff d0                	call   rax
    1d24:	48 8b 9c 24 38 02 00 	mov    rbx,QWORD PTR [rsp+0x238]
    1d2b:	00 
    1d2c:	4c 8b ac 24 48 02 00 	mov    r13,QWORD PTR [rsp+0x248]
    1d33:	00 
    1d34:	48 89 c6             	mov    rsi,rax
    1d37:	48 89 b4 24 38 02 00 	mov    QWORD PTR [rsp+0x238],rsi
    1d3e:	00 
    1d3f:	49 8b 7d 08          	mov    rdi,QWORD PTR [r13+0x8]
    1d43:	48 89 d1             	mov    rcx,rdx
    1d46:	48 83 c1 e0          	add    rcx,0xffffffffffffffe0
    1d4a:	48 89 5a e0          	mov    QWORD PTR [rdx-0x20],rbx
    1d4e:	4c 89 7a e8          	mov    QWORD PTR [rdx-0x18],r15
    1d52:	be 01 00 00 00       	mov    esi,0x1
    1d57:	48 89 72 f0          	mov    QWORD PTR [rdx-0x10],rsi
    1d5b:	be 01 00 00 00       	mov    esi,0x1
    1d60:	48 89 72 f8          	mov    QWORD PTR [rdx-0x8],rsi
    1d64:	48 31 f6             	xor    rsi,rsi
    1d67:	4c 89 e2             	mov    rdx,r12
    1d6a:	48 b8 00 00 00 00 00 	movabs rax,0x0
    1d71:	00 00 00 
			1d6c: R_X86_64_64	do_callback
    1d74:	48 89 9c 24 40 02 00 	mov    QWORD PTR [rsp+0x240],rbx
    1d7b:	00 
    1d7c:	48 89 bc 24 48 02 00 	mov    QWORD PTR [rsp+0x248],rdi
    1d83:	00 
    1d84:	4c 89 ac 24 50 02 00 	mov    QWORD PTR [rsp+0x250],r13
    1d8b:	00 
    1d8c:	ff d0                	call   rax
    1d8e:	48 8b 9c 24 40 02 00 	mov    rbx,QWORD PTR [rsp+0x240]
    1d95:	00 
    1d96:	4c 8b ac 24 50 02 00 	mov    r13,QWORD PTR [rsp+0x250]
    1d9d:	00 
    1d9e:	48 89 c6             	mov    rsi,rax
    1da1:	48 89 b4 24 40 02 00 	mov    QWORD PTR [rsp+0x240],rsi
    1da8:	00 
    1da9:	49 8b 7d 08          	mov    rdi,QWORD PTR [r13+0x8]
    1dad:	48 89 d1             	mov    rcx,rdx
    1db0:	48 83 c1 e0          	add    rcx,0xffffffffffffffe0
    1db4:	48 89 5a e0          	mov    QWORD PTR [rdx-0x20],rbx
    1db8:	4c 89 7a e8          	mov    QWORD PTR [rdx-0x18],r15
    1dbc:	be 01 00 00 00       	mov    esi,0x1
    1dc1:	48 89 72 f0          	mov    QWORD PTR [rdx-0x10],rsi
    1dc5:	be 01 00 00 00       	mov    esi,0x1
    1dca:	48 89 72 f8          	mov    QWORD PTR [rdx-0x8],rsi
    1dce:	48 31 f6             	xor    rsi,rsi
    1dd1:	4c 89 e2             	mov    rdx,r12
    1dd4:	48 b8 00 00 00 00 00 	movabs rax,0x0
    1ddb:	00 00 00 
			1dd6: R_X86_64_64	do_callback
    1dde:	48 89 9c 24 48 02 00 	mov    QWORD PTR [rsp+0x248],rbx
    1de5:	00 
    1de6:	48 89 bc 24 50 02 00 	mov    QWORD PTR [rsp+0x250],rdi
    1ded:	00 
    1dee:	4c 89 ac 24 58 02 00 	mov    QWORD PTR [rsp+0x258],r13
    1df5:	00 
    1df6:	ff d0                	call   rax
    1df8:	48 8b 9c 24 48 02 00 	mov    rbx,QWORD PTR [rsp+0x248]
    1dff:	00 
    1e00:	4c 8b ac 24 58 02 00 	mov    r13,QWORD PTR [rsp+0x258]
    1e07:	00 
    1e08:	48 89 c6             	mov    rsi,rax
    1e0b:	48 89 b4 24 48 02 00 	mov    QWORD PTR [rsp+0x248],rsi
    1e12:	00 
    1e13:	49 8b 7d 08          	mov    rdi,QWORD PTR [r13+0x8]
    1e17:	48 89 d1             	mov    rcx,rdx
    1e1a:	48 83 c1 e0          	add    rcx,0xffffffffffffffe0
    1e1e:	48 89 5a e0          	mov    QWORD PTR [rdx-0x20],rbx
    1e22:	4c 89 7a e8          	mov    QWORD PTR [rdx-0x18],r15
    1e26:	be 01 00 00 00       	mov    esi,0x1
    1e2b:	48 89 72 f0          	mov    QWORD PTR [rdx-0x10],rsi
    1e2f:	be 01 00 00 00       	mov    esi,0x1
    1e34:	48 89 72 f8          	mov    QWORD PTR [rdx-0x8],rsi
    1e38:	48 31 f6             	xor    rsi,rsi
    1e3b:	4c 89 e2             	mov    rdx,r12
    1e3e:	48 b8 00 00 00 00 00 	movabs rax,0x0
    1e45:	00 00 00 
			1e40: R_X86_64_64	do_callback
    1e48:	48 89 9c 24 50 02 00 	mov    QWORD PTR [rsp+0x250],rbx
    1e4f:	00 
    1e50:	48 89 bc 24 58 02 00 	mov    QWORD PTR [rsp+0x258],rdi
    1e57:	00 
    1e58:	4c 89 ac 24 60 02 00 	mov    QWORD PTR [rsp+0x260],r13
    1e5f:	00 
    1e60:	ff d0                	call   rax
    1e62:	48 8b 9c 24 50 02 00 	mov    rbx,QWORD PTR [rsp+0x250]
    1e69:	00 
    1e6a:	4c 8b ac 24 60 02 00 	mov    r13,QWORD PTR [rsp+0x260]
    1e71:	00 
    1e72:	48 89 c6             	mov    rsi,rax
    1e75:	48 89 b4 24 50 02 00 	mov    QWORD PTR [rsp+0x250],rsi
    1e7c:	00 
    1e7d:	49 8b 7d 08          	mov    rdi,QWORD PTR [r13+0x8]
    1e81:	48 89 d1             	mov    rcx,rdx
    1e84:	48 83 c1 e0          	add    rcx,0xffffffffffffffe0
    1e88:	48 89 5a e0          	mov    QWORD PTR [rdx-0x20],rbx
    1e8c:	4c 89 7a e8          	mov    QWORD PTR [rdx-0x18],r15
    1e90:	be 01 00 00 00       	mov    esi,0x1
    1e95:	48 89 72 f0          	mov    QWORD PTR [rdx-0x10],rsi
    1e99:	be 01 00 00 00       	mov    esi,0x1
    1e9e:	48 89 72 f8          	mov    QWORD PTR [rdx-0x8],rsi
    1ea2:	48 31 f6             	xor    rsi,rsi
    1ea5:	4c 89 e2             	mov    rdx,r12
    1ea8:	48 b8 00 00 00 00 00 	movabs rax,0x0
    1eaf:	00 00 00 
			1eaa: R_X86_64_64	do_callback
    1eb2:	48 89 9c 24 58 02 00 	mov    QWORD PTR [rsp+0x258],rbx
    1eb9:	00 
    1eba:	48 89 bc 24 60 02 00 	mov    QWORD PTR [rsp+0x260],rdi
    1ec1:	00 
    1ec2:	4c 89 ac 24 68 02 00 	mov    QWORD PTR [rsp+0x268],r13
    1ec9:	00 
    1eca:	ff d0                	call   rax
    1ecc:	48 8b 9c 24 58 02 00 	mov    rbx,QWORD PTR [rsp+0x258]
    1ed3:	00 
    1ed4:	4c 8b ac 24 68 02 00 	mov    r13,QWORD PTR [rsp+0x268]
    1edb:	00 
    1edc:	48 89 c6             	mov    rsi,rax
    1edf:	48 89 b4 24 58 02 00 	mov    QWORD PTR [rsp+0x258],rsi
    1ee6:	00 
    1ee7:	49 8b 7d 08          	mov    rdi,QWORD PTR [r13+0x8]
    1eeb:	48 89 d1             	mov    rcx,rdx
    1eee:	48 83 c1 e0          	add    rcx,0xffffffffffffffe0
    1ef2:	48 89 5a e0          	mov    QWORD PTR [rdx-0x20],rbx
    1ef6:	4c 89 7a e8          	mov    QWORD PTR [rdx-0x18],r15
    1efa:	be 01 00 00 00       	mov    esi,0x1
    1eff:	48 89 72 f0          	mov    QWORD PTR [rdx-0x10],rsi
    1f03:	be 01 00 00 00       	mov    esi,0x1
    1f08:	48 89 72 f8          	mov    QWORD PTR [rdx-0x8],rsi
    1f0c:	48 31 f6             	xor    rsi,rsi
    1f0f:	4c 89 e2             	mov    rdx,r12
    1f12:	48 b8 00 00 00 00 00 	movabs rax,0x0
    1f19:	00 00 00 
			1f14: R_X86_64_64	do_callback
    1f1c:	48 89 9c 24 60 02 00 	mov    QWORD PTR [rsp+0x260],rbx
    1f23:	00 
    1f24:	48 89 bc 24 68 02 00 	mov    QWORD PTR [rsp+0x268],rdi
    1f2b:	00 
    1f2c:	4c 89 ac 24 70 02 00 	mov    QWORD PTR [rsp+0x270],r13
    1f33:	00 
    1f34:	ff d0                	call   rax
    1f36:	48 8b 9c 24 60 02 00 	mov    rbx,QWORD PTR [rsp+0x260]
    1f3d:	00 
    1f3e:	4c 8b ac 24 70 02 00 	mov    r13,QWORD PTR [rsp+0x270]
    1f45:	00 
    1f46:	48 89 c6             	mov    rsi,rax
    1f49:	48 89 b4 24 60 02 00 	mov    QWORD PTR [rsp+0x260],rsi
    1f50:	00 
    1f51:	49 8b 7d 08          	mov    rdi,QWORD PTR [r13+0x8]
    1f55:	48 89 d1             	mov    rcx,rdx
    1f58:	48 83 c1 e0          	add    rcx,0xffffffffffffffe0
    1f5c:	48 89 5a e0          	mov    QWORD PTR [rdx-0x20],rbx
    1f60:	4c 89 7a e8          	mov    QWORD PTR [rdx-0x18],r15
    1f64:	be 01 00 00 00       	mov    esi,0x1
    1f69:	48 89 72 f0          	mov    QWORD PTR [rdx-0x10],rsi
    1f6d:	be 01 00 00 00       	mov    esi,0x1
    1f72:	48 89 72 f8          	mov    QWORD PTR [rdx-0x8],rsi
    1f76:	48 31 f6             	xor    rsi,rsi
    1f79:	4c 89 e2             	mov    rdx,r12
    1f7c:	48 b8 00 00 00 00 00 	movabs rax,0x0
    1f83:	00 00 00 
			1f7e: R_X86_64_64	do_callback
    1f86:	48 89 9c 24 68 02 00 	mov    QWORD PTR [rsp+0x268],rbx
    1f8d:	00 
    1f8e:	48 89 bc 24 70 02 00 	mov    QWORD PTR [rsp+0x270],rdi
    1f95:	00 
    1f96:	4c 89 ac 24 78 02 00 	mov    QWORD PTR [rsp+0x278],r13
    1f9d:	00 
    1f9e:	ff d0                	call   rax
    1fa0:	48 8b 9c 24 68 02 00 	mov    rbx,QWORD PTR [rsp+0x268]
    1fa7:	00 
    1fa8:	4c 8b ac 24 78 02 00 	mov    r13,QWORD PTR [rsp+0x278]
    1faf:	00 
    1fb0:	48 89 c6             	mov    rsi,rax
    1fb3:	48 89 b4 24 68 02 00 	mov    QWORD PTR [rsp+0x268],rsi
    1fba:	00 
    1fbb:	49 8b 7d 08          	mov    rdi,QWORD PTR [r13+0x8]
    1fbf:	48 89 d1             	mov    rcx,rdx
    1fc2:	48 83 c1 e0          	add    rcx,0xffffffffffffffe0
    1fc6:	48 89 5a e0          	mov    QWORD PTR [rdx-0x20],rbx
    1fca:	4c 89 7a e8          	mov    QWORD PTR [rdx-0x18],r15
    1fce:	be 01 00 00 00       	mov    esi,0x1
    1fd3:	48 89 72 f0          	mov    QWORD PTR [rdx-0x10],rsi
    1fd7:	be 01 00 00 00       	mov    esi,0x1
    1fdc:	48 89 72 f8          	mov    QWORD PTR [rdx-0x8],rsi
    1fe0:	48 31 f6             	xor    rsi,rsi
    1fe3:	4c 89 e2             	mov    rdx,r12
    1fe6:	48 b8 00 00 00 00 00 	movabs rax,0x0
    1fed:	00 00 00 
			1fe8: R_X86_64_64	do_callback
    1ff0:	48 89 9c 24 70 02 00 	mov    QWORD PTR [rsp+0x270],rbx
    1ff7:	00 
    1ff8:	48 89 bc 24 78 02 00 	mov    QWORD PTR [rsp+0x278],rdi
    1fff:	00 
    2000:	4c 89 ac 24 80 02 00 	mov    QWORD PTR [rsp+0x280],r13
    2007:	00 
    2008:	ff d0                	call   rax
    200a:	48 8b 9c 24 70 02 00 	mov    rbx,QWORD PTR [rsp+0x270]
    2011:	00 
    2012:	4c 8b ac 24 80 02 00 	mov    r13,QWORD PTR [rsp+0x280]
    2019:	00 
    201a:	48 89 c6             	mov    rsi,rax
    201d:	48 89 b4 24 70 02 00 	mov    QWORD PTR [rsp+0x270],rsi
    2024:	00 
    2025:	49 8b 7d 08          	mov    rdi,QWORD PTR [r13+0x8]
    2029:	48 89 d1             	mov    rcx,rdx
    202c:	48 83 c1 e0          	add    rcx,0xffffffffffffffe0
    2030:	48 89 5a e0          	mov    QWORD PTR [rdx-0x20],rbx
    2034:	4c 89 7a e8          	mov    QWORD PTR [rdx-0x18],r15
    2038:	be 01 00 00 00       	mov    esi,0x1
    203d:	48 89 72 f0          	mov    QWORD PTR [rdx-0x10],rsi
    2041:	be 01 00 00 00       	mov    esi,0x1
    2046:	48 89 72 f8          	mov    QWORD PTR [rdx-0x8],rsi
    204a:	48 31 f6             	xor    rsi,rsi
    204d:	4c 89 e2             	mov    rdx,r12
    2050:	48 b8 00 00 00 00 00 	movabs rax,0x0
    2057:	00 00 00 
			2052: R_X86_64_64	do_callback
    205a:	48 89 9c 24 78 02 00 	mov    QWORD PTR [rsp+0x278],rbx
    2061:	00 
    2062:	48 89 bc 24 80 02 00 	mov    QWORD PTR [rsp+0x280],rdi
    2069:	00 
    206a:	4c 89 ac 24 88 02 00 	mov    QWORD PTR [rsp+0x288],r13
    2071:	00 
    2072:	ff d0                	call   rax
    2074:	48 8b 9c 24 78 02 00 	mov    rbx,QWORD PTR [rsp+0x278]
    207b:	00 
    207c:	4c 8b ac 24 88 02 00 	mov    r13,QWORD PTR [rsp+0x288]
    2083:	00 
    2084:	48 89 c6             	mov    rsi,rax
    2087:	48 89 b4 24 78 02 00 	mov    QWORD PTR [rsp+0x278],rsi
    208e:	00 
    208f:	49 8b 7d 08          	mov    rdi,QWORD PTR [r13+0x8]
    2093:	48 89 d1             	mov    rcx,rdx
    2096:	48 83 c1 e0          	add    rcx,0xffffffffffffffe0
    209a:	48 89 5a e0          	mov    QWORD PTR [rdx-0x20],rbx
    209e:	4c 89 7a e8          	mov    QWORD PTR [rdx-0x18],r15
    20a2:	be 01 00 00 00       	mov    esi,0x1
    20a7:	48 89 72 f0          	mov    QWORD PTR [rdx-0x10],rsi
    20ab:	be 01 00 00 00       	mov    esi,0x1
    20b0:	48 89 72 f8          	mov    QWORD PTR [rdx-0x8],rsi
    20b4:	48 31 f6             	xor    rsi,rsi
    20b7:	4c 89 e2             	mov    rdx,r12
    20ba:	48 b8 00 00 00 00 00 	movabs rax,0x0
    20c1:	00 00 00 
			20bc: R_X86_64_64	do_callback
    20c4:	48 89 9c 24 80 02 00 	mov    QWORD PTR [rsp+0x280],rbx
    20cb:	00 
    20cc:	48 89 bc 24 88 02 00 	mov    QWORD PTR [rsp+0x288],rdi
    20d3:	00 
    20d4:	4c 89 ac 24 90 02 00 	mov    QWORD PTR [rsp+0x290],r13
    20db:	00 
    20dc:	ff d0                	call   rax
    20de:	48 8b 9c 24 80 02 00 	mov    rbx,QWORD PTR [rsp+0x280]
    20e5:	00 
    20e6:	4c 8b ac 24 90 02 00 	mov    r13,QWORD PTR [rsp+0x290]
    20ed:	00 
    20ee:	48 89 c6             	mov    rsi,rax
    20f1:	48 89 b4 24 80 02 00 	mov    QWORD PTR [rsp+0x280],rsi
    20f8:	00 
    20f9:	49 8b 7d 08          	mov    rdi,QWORD PTR [r13+0x8]
    20fd:	48 89 d1             	mov    rcx,rdx
    2100:	48 83 c1 e0          	add    rcx,0xffffffffffffffe0
    2104:	48 89 5a e0          	mov    QWORD PTR [rdx-0x20],rbx
    2108:	4c 89 7a e8          	mov    QWORD PTR [rdx-0x18],r15
    210c:	be 01 00 00 00       	mov    esi,0x1
    2111:	48 89 72 f0          	mov    QWORD PTR [rdx-0x10],rsi
    2115:	be 01 00 00 00       	mov    esi,0x1
    211a:	48 89 72 f8          	mov    QWORD PTR [rdx-0x8],rsi
    211e:	48 31 f6             	xor    rsi,rsi
    2121:	4c 89 e2             	mov    rdx,r12
    2124:	48 b8 00 00 00 00 00 	movabs rax,0x0
    212b:	00 00 00 
			2126: R_X86_64_64	do_callback
    212e:	48 89 9c 24 88 02 00 	mov    QWORD PTR [rsp+0x288],rbx
    2135:	00 
    2136:	48 89 bc 24 90 02 00 	mov    QWORD PTR [rsp+0x290],rdi
    213d:	00 
    213e:	4c 89 ac 24 98 02 00 	mov    QWORD PTR [rsp+0x298],r13
    2145:	00 
    2146:	ff d0                	call   rax
    2148:	48 8b 9c 24 88 02 00 	mov    rbx,QWORD PTR [rsp+0x288]
    214f:	00 
    2150:	4c 8b ac 24 98 02 00 	mov    r13,QWORD PTR [rsp+0x298]
    2157:	00 
    2158:	48 89 c6             	mov    rsi,rax
    215b:	48 89 b4 24 88 02 00 	mov    QWORD PTR [rsp+0x288],rsi
    2162:	00 
    2163:	49 8b 7d 08          	mov    rdi,QWORD PTR [r13+0x8]
    2167:	48 89 d1             	mov    rcx,rdx
    216a:	48 83 c1 e0          	add    rcx,0xffffffffffffffe0
    216e:	48 89 5a e0          	mov    QWORD PTR [rdx-0x20],rbx
    2172:	4c 89 7a e8          	mov    QWORD PTR [rdx-0x18],r15
    2176:	be 01 00 00 00       	mov    esi,0x1
    217b:	48 89 72 f0          	mov    QWORD PTR [rdx-0x10],rsi
    217f:	be 01 00 00 00       	mov    esi,0x1
    2184:	48 89 72 f8          	mov    QWORD PTR [rdx-0x8],rsi
    2188:	48 31 f6             	xor    rsi,rsi
    218b:	4c 89 e2             	mov    rdx,r12
    218e:	48 b8 00 00 00 00 00 	movabs rax,0x0
    2195:	00 00 00 
			2190: R_X86_64_64	do_callback
    2198:	48 89 9c 24 90 02 00 	mov    QWORD PTR [rsp+0x290],rbx
    219f:	00 
    21a0:	48 89 bc 24 98 02 00 	mov    QWORD PTR [rsp+0x298],rdi
    21a7:	00 
    21a8:	4c 89 ac 24 a0 02 00 	mov    QWORD PTR [rsp+0x2a0],r13
    21af:	00 
    21b0:	ff d0                	call   rax
    21b2:	48 8b 9c 24 90 02 00 	mov    rbx,QWORD PTR [rsp+0x290]
    21b9:	00 
    21ba:	4c 8b ac 24 a0 02 00 	mov    r13,QWORD PTR [rsp+0x2a0]
    21c1:	00 
    21c2:	48 89 c6             	mov    rsi,rax
    21c5:	48 89 b4 24 90 02 00 	mov    QWORD PTR [rsp+0x290],rsi
    21cc:	00 
    21cd:	49 8b 7d 08          	mov    rdi,QWORD PTR [r13+0x8]
    21d1:	48 89 d1             	mov    rcx,rdx
    21d4:	48 83 c1 e0          	add    rcx,0xffffffffffffffe0
    21d8:	48 89 5a e0          	mov    QWORD PTR [rdx-0x20],rbx
    21dc:	4c 89 7a e8          	mov    QWORD PTR [rdx-0x18],r15
    21e0:	be 01 00 00 00       	mov    esi,0x1
    21e5:	48 89 72 f0          	mov    QWORD PTR [rdx-0x10],rsi
    21e9:	be 01 00 00 00       	mov    esi,0x1
    21ee:	48 89 72 f8          	mov    QWORD PTR [rdx-0x8],rsi
    21f2:	48 31 f6             	xor    rsi,rsi
    21f5:	4c 89 e2             	mov    rdx,r12
    21f8:	48 b8 00 00 00 00 00 	movabs rax,0x0
    21ff:	00 00 00 
			21fa: R_X86_64_64	do_callback
    2202:	48 89 9c 24 98 02 00 	mov    QWORD PTR [rsp+0x298],rbx
    2209:	00 
    220a:	48 89 bc 24 a0 02 00 	mov    QWORD PTR [rsp+0x2a0],rdi
    2211:	00 
    2212:	4c 89 ac 24 a8 02 00 	mov    QWORD PTR [rsp+0x2a8],r13
    2219:	00 
    221a:	ff d0                	call   rax
    221c:	48 8b 9c 24 98 02 00 	mov    rbx,QWORD PTR [rsp+0x298]
    2223:	00 
    2224:	4c 8b ac 24 a8 02 00 	mov    r13,QWORD PTR [rsp+0x2a8]
    222b:	00 
    222c:	48 89 c6             	mov    rsi,rax
    222f:	48 89 b4 24 98 02 00 	mov    QWORD PTR [rsp+0x298],rsi
    2236:	00 
    2237:	49 8b 7d 08          	mov    rdi,QWORD PTR [r13+0x8]
    223b:	48 89 d1             	mov    rcx,rdx
    223e:	48 83 c1 e0          	add    rcx,0xffffffffffffffe0
    2242:	48 89 5a e0          	mov    QWORD PTR [rdx-0x20],rbx
    2246:	4c 89 7a e8          	mov    QWORD PTR [rdx-0x18],r15
    224a:	be 01 00 00 00       	mov    esi,0x1
    224f:	48 89 72 f0          	mov    QWORD PTR [rdx-0x10],rsi
    2253:	be 01 00 00 00       	mov    esi,0x1
    2258:	48 89 72 f8          	mov    QWORD PTR [rdx-0x8],rsi
    225c:	48 31 f6             	xor    rsi,rsi
    225f:	4c 89 e2             	mov    rdx,r12
    2262:	48 b8 00 00 00 00 00 	movabs rax,0x0
    2269:	00 00 00 
			2264: R_X86_64_64	do_callback
    226c:	48 89 9c 24 a0 02 00 	mov    QWORD PTR [rsp+0x2a0],rbx
    2273:	00 
    2274:	48 89 bc 24 a8 02 00 	mov    QWORD PTR [rsp+0x2a8],rdi
    227b:	00 
    227c:	4c 89 ac 24 b0 02 00 	mov    QWORD PTR [rsp+0x2b0],r13
    2283:	00 
    2284:	ff d0                	call   rax
    2286:	48 8b 9c 24 a0 02 00 	mov    rbx,QWORD PTR [rsp+0x2a0]
    228d:	00 
    228e:	4c 8b ac 24 b0 02 00 	mov    r13,QWORD PTR [rsp+0x2b0]
    2295:	00 
    2296:	48 89 c6             	mov    rsi,rax
    2299:	48 89 b4 24 a0 02 00 	mov    QWORD PTR [rsp+0x2a0],rsi
    22a0:	00 
    22a1:	49 8b 7d 08          	mov    rdi,QWORD PTR [r13+0x8]
    22a5:	48 89 d1             	mov    rcx,rdx
    22a8:	48 83 c1 e0          	add    rcx,0xffffffffffffffe0
    22ac:	48 89 5a e0          	mov    QWORD PTR [rdx-0x20],rbx
    22b0:	4c 89 7a e8          	mov    QWORD PTR [rdx-0x18],r15
    22b4:	be 01 00 00 00       	mov    esi,0x1
    22b9:	48 89 72 f0          	mov    QWORD PTR [rdx-0x10],rsi
    22bd:	be 01 00 00 00       	mov    esi,0x1
    22c2:	48 89 72 f8          	mov    QWORD PTR [rdx-0x8],rsi
    22c6:	48 31 f6             	xor    rsi,rsi
    22c9:	4c 89 e2             	mov    rdx,r12
    22cc:	48 b8 00 00 00 00 00 	movabs rax,0x0
    22d3:	00 00 00 
			22ce: R_X86_64_64	do_callback
    22d6:	48 89 9c 24 a8 02 00 	mov    QWORD PTR [rsp+0x2a8],rbx
    22dd:	00 
    22de:	48 89 bc 24 b0 02 00 	mov    QWORD PTR [rsp+0x2b0],rdi
    22e5:	00 
    22e6:	4c 89 ac 24 b8 02 00 	mov    QWORD PTR [rsp+0x2b8],r13
    22ed:	00 
    22ee:	ff d0                	call   rax
    22f0:	48 8b 9c 24 a8 02 00 	mov    rbx,QWORD PTR [rsp+0x2a8]
    22f7:	00 
    22f8:	4c 8b ac 24 b8 02 00 	mov    r13,QWORD PTR [rsp+0x2b8]
    22ff:	00 
    2300:	48 89 c6             	mov    rsi,rax
    2303:	48 89 b4 24 a8 02 00 	mov    QWORD PTR [rsp+0x2a8],rsi
    230a:	00 
    230b:	49 8b 7d 08          	mov    rdi,QWORD PTR [r13+0x8]
    230f:	48 89 d1             	mov    rcx,rdx
    2312:	48 83 c1 e0          	add    rcx,0xffffffffffffffe0
    2316:	48 89 5a e0          	mov    QWORD PTR [rdx-0x20],rbx
    231a:	4c 89 7a e8          	mov    QWORD PTR [rdx-0x18],r15
    231e:	be 01 00 00 00       	mov    esi,0x1
    2323:	48 89 72 f0          	mov    QWORD PTR [rdx-0x10],rsi
    2327:	be 01 00 00 00       	mov    esi,0x1
    232c:	48 89 72 f8          	mov    QWORD PTR [rdx-0x8],rsi
    2330:	48 31 f6             	xor    rsi,rsi
    2333:	4c 89 e2             	mov    rdx,r12
    2336:	48 b8 00 00 00 00 00 	movabs rax,0x0
    233d:	00 00 00 
			2338: R_X86_64_64	do_callback
    2340:	48 89 9c 24 b0 02 00 	mov    QWORD PTR [rsp+0x2b0],rbx
    2347:	00 
    2348:	48 89 bc 24 b8 02 00 	mov    QWORD PTR [rsp+0x2b8],rdi
    234f:	00 
    2350:	4c 89 ac 24 c0 02 00 	mov    QWORD PTR [rsp+0x2c0],r13
    2357:	00 
    2358:	ff d0                	call   rax
    235a:	48 8b 9c 24 b0 02 00 	mov    rbx,QWORD PTR [rsp+0x2b0]
    2361:	00 
    2362:	4c 8b ac 24 c0 02 00 	mov    r13,QWORD PTR [rsp+0x2c0]
    2369:	00 
    236a:	48 89 c6             	mov    rsi,rax
    236d:	48 89 b4 24 b0 02 00 	mov    QWORD PTR [rsp+0x2b0],rsi
    2374:	00 
    2375:	49 8b 7d 08          	mov    rdi,QWORD PTR [r13+0x8]
    2379:	48 89 d1             	mov    rcx,rdx
    237c:	48 83 c1 e0          	add    rcx,0xffffffffffffffe0
    2380:	48 89 5a e0          	mov    QWORD PTR [rdx-0x20],rbx
    2384:	4c 89 7a e8          	mov    QWORD PTR [rdx-0x18],r15
    2388:	be 01 00 00 00       	mov    esi,0x1
    238d:	48 89 72 f0          	mov    QWORD PTR [rdx-0x10],rsi
    2391:	be 01 00 00 00       	mov    esi,0x1
    2396:	48 89 72 f8          	mov    QWORD PTR [rdx-0x8],rsi
    239a:	48 31 f6             	xor    rsi,rsi
    239d:	4c 89 e2             	mov    rdx,r12
    23a0:	48 b8 00 00 00 00 00 	movabs rax,0x0
    23a7:	00 00 00 
			23a2: R_X86_64_64	do_callback
    23aa:	48 89 9c 24 b8 02 00 	mov    QWORD PTR [rsp+0x2b8],rbx
    23b1:	00 
    23b2:	48 89 bc 24 c0 02 00 	mov    QWORD PTR [rsp+0x2c0],rdi
    23b9:	00 
    23ba:	4c 89 ac 24 c8 02 00 	mov    QWORD PTR [rsp+0x2c8],r13
    23c1:	00 
    23c2:	ff d0                	call   rax
    23c4:	48 8b 9c 24 b8 02 00 	mov    rbx,QWORD PTR [rsp+0x2b8]
    23cb:	00 
    23cc:	4c 8b ac 24 c8 02 00 	mov    r13,QWORD PTR [rsp+0x2c8]
    23d3:	00 
    23d4:	48 89 c6             	mov    rsi,rax
    23d7:	48 89 b4 24 b8 02 00 	mov    QWORD PTR [rsp+0x2b8],rsi
    23de:	00 
    23df:	49 8b 7d 08          	mov    rdi,QWORD PTR [r13+0x8]
    23e3:	48 89 d1             	mov    rcx,rdx
    23e6:	48 83 c1 e0          	add    rcx,0xffffffffffffffe0
    23ea:	48 89 5a e0          	mov    QWORD PTR [rdx-0x20],rbx
    23ee:	4c 89 7a e8          	mov    QWORD PTR [rdx-0x18],r15
    23f2:	be 01 00 00 00       	mov    esi,0x1
    23f7:	48 89 72 f0          	mov    QWORD PTR [rdx-0x10],rsi
    23fb:	be 01 00 00 00       	mov    esi,0x1
    2400:	48 89 72 f8          	mov    QWORD PTR [rdx-0x8],rsi
    2404:	48 31 f6             	xor    rsi,rsi
    2407:	4c 89 e2             	mov    rdx,r12
    240a:	48 b8 00 00 00 00 00 	movabs rax,0x0
    2411:	00 00 00 
			240c: R_X86_64_64	do_callback
    2414:	48 89 9c 24 c0 02 00 	mov    QWORD PTR [rsp+0x2c0],rbx
    241b:	00 
    241c:	48 89 bc 24 c8 02 00 	mov    QWORD PTR [rsp+0x2c8],rdi
    2423:	00 
    2424:	4c 89 ac 24 d0 02 00 	mov    QWORD PTR [rsp+0x2d0],r13
    242b:	00 
    242c:	ff d0                	call   rax
    242e:	48 8b 9c 24 c0 02 00 	mov    rbx,QWORD PTR [rsp+0x2c0]
    2435:	00 
    2436:	4c 8b ac 24 d0 02 00 	mov    r13,QWORD PTR [rsp+0x2d0]
    243d:	00 
    243e:	48 89 c6             	mov    rsi,rax
    2441:	48 89 b4 24 c0 02 00 	mov    QWORD PTR [rsp+0x2c0],rsi
    2448:	00 
    2449:	49 8b 7d 08          	mov    rdi,QWORD PTR [r13+0x8]
    244d:	48 89 d1             	mov    rcx,rdx
    2450:	48 83 c1 e0          	add    rcx,0xffffffffffffffe0
    2454:	48 89 5a e0          	mov    QWORD PTR [rdx-0x20],rbx
    2458:	4c 89 7a e8          	mov    QWORD PTR [rdx-0x18],r15
    245c:	be 01 00 00 00       	mov    esi,0x1
    2461:	48 89 72 f0          	mov    QWORD PTR [rdx-0x10],rsi
    2465:	be 01 00 00 00       	mov    esi,0x1
    246a:	48 89 72 f8          	mov    QWORD PTR [rdx-0x8],rsi
    246e:	48 31 f6             	xor    rsi,rsi
    2471:	4c 89 e2             	mov    rdx,r12
    2474:	48 b8 00 00 00 00 00 	movabs rax,0x0
    247b:	00 00 00 
			2476: R_X86_64_64	do_callback
    247e:	48 89 9c 24 c8 02 00 	mov    QWORD PTR [rsp+0x2c8],rbx
    2485:	00 
    2486:	48 89 bc 24 d0 02 00 	mov    QWORD PTR [rsp+0x2d0],rdi
    248d:	00 
    248e:	4c 89 ac 24 d8 02 00 	mov    QWORD PTR [rsp+0x2d8],r13
    2495:	00 
    2496:	ff d0                	call   rax
    2498:	48 8b 9c 24 c8 02 00 	mov    rbx,QWORD PTR [rsp+0x2c8]
    249f:	00 
    24a0:	4c 8b ac 24 d8 02 00 	mov    r13,QWORD PTR [rsp+0x2d8]
    24a7:	00 
    24a8:	48 89 c6             	mov    rsi,rax
    24ab:	48 89 b4 24 c8 02 00 	mov    QWORD PTR [rsp+0x2c8],rsi
    24b2:	00 
    24b3:	49 8b 7d 08          	mov    rdi,QWORD PTR [r13+0x8]
    24b7:	48 89 d1             	mov    rcx,rdx
    24ba:	48 83 c1 e0          	add    rcx,0xffffffffffffffe0
    24be:	48 89 5a e0          	mov    QWORD PTR [rdx-0x20],rbx
    24c2:	4c 89 7a e8          	mov    QWORD PTR [rdx-0x18],r15
    24c6:	be 01 00 00 00       	mov    esi,0x1
    24cb:	48 89 72 f0          	mov    QWORD PTR [rdx-0x10],rsi
    24cf:	be 01 00 00 00       	mov    esi,0x1
    24d4:	48 89 72 f8          	mov    QWORD PTR [rdx-0x8],rsi
    24d8:	48 31 f6             	xor    rsi,rsi
    24db:	4c 89 e2             	mov    rdx,r12
    24de:	48 b8 00 00 00 00 00 	movabs rax,0x0
    24e5:	00 00 00 
			24e0: R_X86_64_64	do_callback
    24e8:	48 89 9c 24 d0 02 00 	mov    QWORD PTR [rsp+0x2d0],rbx
    24ef:	00 
    24f0:	48 89 bc 24 d8 02 00 	mov    QWORD PTR [rsp+0x2d8],rdi
    24f7:	00 
    24f8:	4c 89 ac 24 e0 02 00 	mov    QWORD PTR [rsp+0x2e0],r13
    24ff:	00 
    2500:	ff d0                	call   rax
    2502:	48 8b 9c 24 d0 02 00 	mov    rbx,QWORD PTR [rsp+0x2d0]
    2509:	00 
    250a:	4c 8b ac 24 e0 02 00 	mov    r13,QWORD PTR [rsp+0x2e0]
    2511:	00 
    2512:	48 89 c6             	mov    rsi,rax
    2515:	48 89 b4 24 d0 02 00 	mov    QWORD PTR [rsp+0x2d0],rsi
    251c:	00 
    251d:	49 8b 7d 08          	mov    rdi,QWORD PTR [r13+0x8]
    2521:	48 89 d1             	mov    rcx,rdx
    2524:	48 83 c1 e0          	add    rcx,0xffffffffffffffe0
    2528:	48 89 5a e0          	mov    QWORD PTR [rdx-0x20],rbx
    252c:	4c 89 7a e8          	mov    QWORD PTR [rdx-0x18],r15
    2530:	be 01 00 00 00       	mov    esi,0x1
    2535:	48 89 72 f0          	mov    QWORD PTR [rdx-0x10],rsi
    2539:	be 01 00 00 00       	mov    esi,0x1
    253e:	48 89 72 f8          	mov    QWORD PTR [rdx-0x8],rsi
    2542:	48 31 f6             	xor    rsi,rsi
    2545:	4c 89 e2             	mov    rdx,r12
    2548:	48 b8 00 00 00 00 00 	movabs rax,0x0
    254f:	00 00 00 
			254a: R_X86_64_64	do_callback
    2552:	48 89 9c 24 d8 02 00 	mov    QWORD PTR [rsp+0x2d8],rbx
    2559:	00 
    255a:	48 89 bc 24 e0 02 00 	mov    QWORD PTR [rsp+0x2e0],rdi
    2561:	00 
    2562:	4c 89 ac 24 e8 02 00 	mov    QWORD PTR [rsp+0x2e8],r13
    2569:	00 
    256a:	ff d0                	call   rax
    256c:	48 8b 9c 24 d8 02 00 	mov    rbx,QWORD PTR [rsp+0x2d8]
    2573:	00 
    2574:	4c 8b ac 24 e8 02 00 	mov    r13,QWORD PTR [rsp+0x2e8]
    257b:	00 
    257c:	48 89 c6             	mov    rsi,rax
    257f:	48 89 b4 24 d8 02 00 	mov    QWORD PTR [rsp+0x2d8],rsi
    2586:	00 
    2587:	49 8b 7d 08          	mov    rdi,QWORD PTR [r13+0x8]
    258b:	48 89 d1             	mov    rcx,rdx
    258e:	48 83 c1 e0          	add    rcx,0xffffffffffffffe0
    2592:	48 89 5a e0          	mov    QWORD PTR [rdx-0x20],rbx
    2596:	4c 89 7a e8          	mov    QWORD PTR [rdx-0x18],r15
    259a:	be 01 00 00 00       	mov    esi,0x1
    259f:	48 89 72 f0          	mov    QWORD PTR [rdx-0x10],rsi
    25a3:	be 01 00 00 00       	mov    esi,0x1
    25a8:	48 89 72 f8          	mov    QWORD PTR [rdx-0x8],rsi
    25ac:	48 31 f6             	xor    rsi,rsi
    25af:	4c 89 e2             	mov    rdx,r12
    25b2:	48 b8 00 00 00 00 00 	movabs rax,0x0
    25b9:	00 00 00 
			25b4: R_X86_64_64	do_callback
    25bc:	48 89 9c 24 e0 02 00 	mov    QWORD PTR [rsp+0x2e0],rbx
    25c3:	00 
    25c4:	48 89 bc 24 e8 02 00 	mov    QWORD PTR [rsp+0x2e8],rdi
    25cb:	00 
    25cc:	4c 89 ac 24 f0 02 00 	mov    QWORD PTR [rsp+0x2f0],r13
    25d3:	00 
    25d4:	ff d0                	call   rax
    25d6:	48 8b 9c 24 e0 02 00 	mov    rbx,QWORD PTR [rsp+0x2e0]
    25dd:	00 
    25de:	4c 8b ac 24 f0 02 00 	mov    r13,QWORD PTR [rsp+0x2f0]
    25e5:	00 
    25e6:	48 89 c6             	mov    rsi,rax
    25e9:	48 89 b4 24 e0 02 00 	mov    QWORD PTR [rsp+0x2e0],rsi
    25f0:	00 
    25f1:	49 8b 7d 08          	mov    rdi,QWORD PTR [r13+0x8]
    25f5:	48 89 d1             	mov    rcx,rdx
    25f8:	48 83 c1 e0          	add    rcx,0xffffffffffffffe0
    25fc:	48 89 5a e0          	mov    QWORD PTR [rdx-0x20],rbx
    2600:	4c 89 7a e8          	mov    QWORD PTR [rdx-0x18],r15
    2604:	be 01 00 00 00       	mov    esi,0x1
    2609:	48 89 72 f0          	mov    QWORD PTR [rdx-0x10],rsi
    260d:	be 01 00 00 00       	mov    esi,0x1
    2612:	48 89 72 f8          	mov    QWORD PTR [rdx-0x8],rsi
    2616:	48 31 f6             	xor    rsi,rsi
    2619:	4c 89 e2             	mov    rdx,r12
    261c:	48 b8 00 00 00 00 00 	movabs rax,0x0
    2623:	00 00 00 
			261e: R_X86_64_64	do_callback
    2626:	48 89 9c 24 e8 02 00 	mov    QWORD PTR [rsp+0x2e8],rbx
    262d:	00 
    262e:	48 89 bc 24 f0 02 00 	mov    QWORD PTR [rsp+0x2f0],rdi
    2635:	00 
    2636:	4c 89 ac 24 f8 02 00 	mov    QWORD PTR [rsp+0x2f8],r13
    263d:	00 
    263e:	ff d0                	call   rax
    2640:	48 8b 9c 24 e8 02 00 	mov    rbx,QWORD PTR [rsp+0x2e8]
    2647:	00 
    2648:	4c 8b ac 24 f8 02 00 	mov    r13,QWORD PTR [rsp+0x2f8]
    264f:	00 
    2650:	48 89 c6             	mov    rsi,rax
    2653:	48 89 b4 24 e8 02 00 	mov    QWORD PTR [rsp+0x2e8],rsi
    265a:	00 
    265b:	49 8b 7d 08          	mov    rdi,QWORD PTR [r13+0x8]
    265f:	48 89 d1             	mov    rcx,rdx
    2662:	48 83 c1 e0          	add    rcx,0xffffffffffffffe0
    2666:	48 89 5a e0          	mov    QWORD PTR [rdx-0x20],rbx
    266a:	4c 89 7a e8          	mov    QWORD PTR [rdx-0x18],r15
    266e:	be 01 00 00 00       	mov    esi,0x1
    2673:	48 89 72 f0          	mov    QWORD PTR [rdx-0x10],rsi
    2677:	be 01 00 00 00       	mov    esi,0x1
    267c:	48 89 72 f8          	mov    QWORD PTR [rdx-0x8],rsi
    2680:	48 31 f6             	xor    rsi,rsi
    2683:	4c 89 e2             	mov    rdx,r12
    2686:	48 b8 00 00 00 00 00 	movabs rax,0x0
    268d:	00 00 00 
			2688: R_X86_64_64	do_callback
    2690:	48 89 9c 24 f0 02 00 	mov    QWORD PTR [rsp+0x2f0],rbx
    2697:	00 
    2698:	48 89 bc 24 f8 02 00 	mov    QWORD PTR [rsp+0x2f8],rdi
    269f:	00 
    26a0:	4c 89 ac 24 00 03 00 	mov    QWORD PTR [rsp+0x300],r13
    26a7:	00 
    26a8:	ff d0                	call   rax
    26aa:	48 8b 9c 24 f0 02 00 	mov    rbx,QWORD PTR [rsp+0x2f0]
    26b1:	00 
    26b2:	4c 8b ac 24 00 03 00 	mov    r13,QWORD PTR [rsp+0x300]
    26b9:	00 
    26ba:	48 89 c6             	mov    rsi,rax
    26bd:	48 89 b4 24 f0 02 00 	mov    QWORD PTR [rsp+0x2f0],rsi
    26c4:	00 
    26c5:	49 8b 7d 08          	mov    rdi,QWORD PTR [r13+0x8]
    26c9:	48 89 d1             	mov    rcx,rdx
    26cc:	48 83 c1 e0          	add    rcx,0xffffffffffffffe0
    26d0:	48 89 5a e0          	mov    QWORD PTR [rdx-0x20],rbx
    26d4:	4c 89 7a e8          	mov    QWORD PTR [rdx-0x18],r15
    26d8:	be 01 00 00 00       	mov    esi,0x1
    26dd:	48 89 72 f0          	mov    QWORD PTR [rdx-0x10],rsi
    26e1:	be 01 00 00 00       	mov    esi,0x1
    26e6:	48 89 72 f8          	mov    QWORD PTR [rdx-0x8],rsi
    26ea:	48 31 f6             	xor    rsi,rsi
    26ed:	4c 89 e2             	mov    rdx,r12
    26f0:	48 b8 00 00 00 00 00 	movabs rax,0x0
    26f7:	00 00 00 
			26f2: R_X86_64_64	do_callback
    26fa:	48 89 9c 24 f8 02 00 	mov    QWORD PTR [rsp+0x2f8],rbx
    2701:	00 
    2702:	48 89 bc 24 00 03 00 	mov    QWORD PTR [rsp+0x300],rdi
    2709:	00 
    270a:	4c 89 ac 24 08 03 00 	mov    QWORD PTR [rsp+0x308],r13
    2711:	00 
    2712:	ff d0                	call   rax
    2714:	48 8b 9c 24 f8 02 00 	mov    rbx,QWORD PTR [rsp+0x2f8]
    271b:	00 
    271c:	4c 8b ac 24 08 03 00 	mov    r13,QWORD PTR [rsp+0x308]
    2723:	00 
    2724:	48 89 c6             	mov    rsi,rax
    2727:	48 89 b4 24 f8 02 00 	mov    QWORD PTR [rsp+0x2f8],rsi
    272e:	00 
    272f:	49 8b 7d 08          	mov    rdi,QWORD PTR [r13+0x8]
    2733:	48 89 d1             	mov    rcx,rdx
    2736:	48 83 c1 e0          	add    rcx,0xffffffffffffffe0
    273a:	48 89 5a e0          	mov    QWORD PTR [rdx-0x20],rbx
    273e:	4c 89 7a e8          	mov    QWORD PTR [rdx-0x18],r15
    2742:	be 01 00 00 00       	mov    esi,0x1
    2747:	48 89 72 f0          	mov    QWORD PTR [rdx-0x10],rsi
    274b:	be 01 00 00 00       	mov    esi,0x1
    2750:	48 89 72 f8          	mov    QWORD PTR [rdx-0x8],rsi
    2754:	48 31 f6             	xor    rsi,rsi
    2757:	4c 89 e2             	mov    rdx,r12
    275a:	48 b8 00 00 00 00 00 	movabs rax,0x0
    2761:	00 00 00 
			275c: R_X86_64_64	do_callback
    2764:	48 89 9c 24 00 03 00 	mov    QWORD PTR [rsp+0x300],rbx
    276b:	00 
    276c:	48 89 bc 24 08 03 00 	mov    QWORD PTR [rsp+0x308],rdi
    2773:	00 
    2774:	4c 89 ac 24 10 03 00 	mov    QWORD PTR [rsp+0x310],r13
    277b:	00 
    277c:	ff d0                	call   rax
    277e:	48 8b 9c 24 00 03 00 	mov    rbx,QWORD PTR [rsp+0x300]
    2785:	00 
    2786:	4c 8b ac 24 10 03 00 	mov    r13,QWORD PTR [rsp+0x310]
    278d:	00 
    278e:	48 89 c6             	mov    rsi,rax
    2791:	48 89 b4 24 00 03 00 	mov    QWORD PTR [rsp+0x300],rsi
    2798:	00 
    2799:	49 8b 7d 08          	mov    rdi,QWORD PTR [r13+0x8]
    279d:	48 89 d1             	mov    rcx,rdx
    27a0:	48 83 c1 e0          	add    rcx,0xffffffffffffffe0
    27a4:	48 89 5a e0          	mov    QWORD PTR [rdx-0x20],rbx
    27a8:	4c 89 7a e8          	mov    QWORD PTR [rdx-0x18],r15
    27ac:	be 01 00 00 00       	mov    esi,0x1
    27b1:	48 89 72 f0          	mov    QWORD PTR [rdx-0x10],rsi
    27b5:	be 01 00 00 00       	mov    esi,0x1
    27ba:	48 89 72 f8          	mov    QWORD PTR [rdx-0x8],rsi
    27be:	48 31 f6             	xor    rsi,rsi
    27c1:	4c 89 e2             	mov    rdx,r12
    27c4:	48 b8 00 00 00 00 00 	movabs rax,0x0
    27cb:	00 00 00 
			27c6: R_X86_64_64	do_callback
    27ce:	48 89 9c 24 08 03 00 	mov    QWORD PTR [rsp+0x308],rbx
    27d5:	00 
    27d6:	48 89 bc 24 10 03 00 	mov    QWORD PTR [rsp+0x310],rdi
    27dd:	00 
    27de:	4c 89 ac 24 18 03 00 	mov    QWORD PTR [rsp+0x318],r13
    27e5:	00 
    27e6:	ff d0                	call   rax
    27e8:	48 8b 9c 24 08 03 00 	mov    rbx,QWORD PTR [rsp+0x308]
    27ef:	00 
    27f0:	4c 8b ac 24 18 03 00 	mov    r13,QWORD PTR [rsp+0x318]
    27f7:	00 
    27f8:	48 89 c6             	mov    rsi,rax
    27fb:	48 89 b4 24 08 03 00 	mov    QWORD PTR [rsp+0x308],rsi
    2802:	00 
    2803:	49 8b 7d 08          	mov    rdi,QWORD PTR [r13+0x8]
    2807:	48 89 d1             	mov    rcx,rdx
    280a:	48 83 c1 e0          	add    rcx,0xffffffffffffffe0
    280e:	48 89 5a e0          	mov    QWORD PTR [rdx-0x20],rbx
    2812:	4c 89 7a e8          	mov    QWORD PTR [rdx-0x18],r15
    2816:	be 01 00 00 00       	mov    esi,0x1
    281b:	48 89 72 f0          	mov    QWORD PTR [rdx-0x10],rsi
    281f:	be 01 00 00 00       	mov    esi,0x1
    2824:	48 89 72 f8          	mov    QWORD PTR [rdx-0x8],rsi
    2828:	48 31 f6             	xor    rsi,rsi
    282b:	4c 89 e2             	mov    rdx,r12
    282e:	48 b8 00 00 00 00 00 	movabs rax,0x0
    2835:	00 00 00 
			2830: R_X86_64_64	do_callback
    2838:	48 89 9c 24 10 03 00 	mov    QWORD PTR [rsp+0x310],rbx
    283f:	00 
    2840:	48 89 bc 24 18 03 00 	mov    QWORD PTR [rsp+0x318],rdi
    2847:	00 
    2848:	4c 89 ac 24 20 03 00 	mov    QWORD PTR [rsp+0x320],r13
    284f:	00 
    2850:	ff d0                	call   rax
    2852:	48 8b 9c 24 10 03 00 	mov    rbx,QWORD PTR [rsp+0x310]
    2859:	00 
    285a:	4c 8b ac 24 20 03 00 	mov    r13,QWORD PTR [rsp+0x320]
    2861:	00 
    2862:	48 89 c6             	mov    rsi,rax
    2865:	48 89 b4 24 10 03 00 	mov    QWORD PTR [rsp+0x310],rsi
    286c:	00 
    286d:	49 8b 7d 08          	mov    rdi,QWORD PTR [r13+0x8]
    2871:	48 89 d1             	mov    rcx,rdx
    2874:	48 83 c1 e0          	add    rcx,0xffffffffffffffe0
    2878:	48 89 5a e0          	mov    QWORD PTR [rdx-0x20],rbx
    287c:	4c 89 7a e8          	mov    QWORD PTR [rdx-0x18],r15
    2880:	be 01 00 00 00       	mov    esi,0x1
    2885:	48 89 72 f0          	mov    QWORD PTR [rdx-0x10],rsi
    2889:	be 01 00 00 00       	mov    esi,0x1
    288e:	48 89 72 f8          	mov    QWORD PTR [rdx-0x8],rsi
    2892:	48 31 f6             	xor    rsi,rsi
    2895:	4c 89 e2             	mov    rdx,r12
    2898:	48 b8 00 00 00 00 00 	movabs rax,0x0
    289f:	00 00 00 
			289a: R_X86_64_64	do_callback
    28a2:	48 89 9c 24 18 03 00 	mov    QWORD PTR [rsp+0x318],rbx
    28a9:	00 
    28aa:	48 89 bc 24 20 03 00 	mov    QWORD PTR [rsp+0x320],rdi
    28b1:	00 
    28b2:	4c 89 ac 24 28 03 00 	mov    QWORD PTR [rsp+0x328],r13
    28b9:	00 
    28ba:	ff d0                	call   rax
    28bc:	48 8b 9c 24 18 03 00 	mov    rbx,QWORD PTR [rsp+0x318]
    28c3:	00 
    28c4:	4c 8b ac 24 28 03 00 	mov    r13,QWORD PTR [rsp+0x328]
    28cb:	00 
    28cc:	48 89 c6             	mov    rsi,rax
    28cf:	48 89 b4 24 18 03 00 	mov    QWORD PTR [rsp+0x318],rsi
    28d6:	00 
    28d7:	49 8b 7d 08          	mov    rdi,QWORD PTR [r13+0x8]
    28db:	48 89 d1             	mov    rcx,rdx
    28de:	48 83 c1 e0          	add    rcx,0xffffffffffffffe0
    28e2:	48 89 5a e0          	mov    QWORD PTR [rdx-0x20],rbx
    28e6:	4c 89 7a e8          	mov    QWORD PTR [rdx-0x18],r15
    28ea:	be 01 00 00 00       	mov    esi,0x1
    28ef:	48 89 72 f0          	mov    QWORD PTR [rdx-0x10],rsi
    28f3:	be 01 00 00 00       	mov    esi,0x1
    28f8:	48 89 72 f8          	mov    QWORD PTR [rdx-0x8],rsi
    28fc:	48 31 f6             	xor    rsi,rsi
    28ff:	4c 89 e2             	mov    rdx,r12
    2902:	48 b8 00 00 00 00 00 	movabs rax,0x0
    2909:	00 00 00 
			2904: R_X86_64_64	do_callback
    290c:	48 89 9c 24 20 03 00 	mov    QWORD PTR [rsp+0x320],rbx
    2913:	00 
    2914:	48 89 bc 24 28 03 00 	mov    QWORD PTR [rsp+0x328],rdi
    291b:	00 
    291c:	4c 89 ac 24 30 03 00 	mov    QWORD PTR [rsp+0x330],r13
    2923:	00 
    2924:	ff d0                	call   rax
    2926:	48 8b 9c 24 20 03 00 	mov    rbx,QWORD PTR [rsp+0x320]
    292d:	00 
    292e:	4c 8b ac 24 30 03 00 	mov    r13,QWORD PTR [rsp+0x330]
    2935:	00 
    2936:	48 89 c6             	mov    rsi,rax
    2939:	48 89 b4 24 20 03 00 	mov    QWORD PTR [rsp+0x320],rsi
    2940:	00 
    2941:	49 8b 7d 08          	mov    rdi,QWORD PTR [r13+0x8]
    2945:	48 89 d1             	mov    rcx,rdx
    2948:	48 83 c1 e0          	add    rcx,0xffffffffffffffe0
    294c:	48 89 5a e0          	mov    QWORD PTR [rdx-0x20],rbx
    2950:	4c 89 7a e8          	mov    QWORD PTR [rdx-0x18],r15
    2954:	be 01 00 00 00       	mov    esi,0x1
    2959:	48 89 72 f0          	mov    QWORD PTR [rdx-0x10],rsi
    295d:	be 01 00 00 00       	mov    esi,0x1
    2962:	48 89 72 f8          	mov    QWORD PTR [rdx-0x8],rsi
    2966:	48 31 f6             	xor    rsi,rsi
    2969:	4c 89 e2             	mov    rdx,r12
    296c:	48 b8 00 00 00 00 00 	movabs rax,0x0
    2973:	00 00 00 
			296e: R_X86_64_64	do_callback
    2976:	48 89 9c 24 28 03 00 	mov    QWORD PTR [rsp+0x328],rbx
    297d:	00 
    297e:	48 89 bc 24 30 03 00 	mov    QWORD PTR [rsp+0x330],rdi
    2985:	00 
    2986:	4c 89 ac 24 38 03 00 	mov    QWORD PTR [rsp+0x338],r13
    298d:	00 
    298e:	ff d0                	call   rax
    2990:	48 8b 9c 24 28 03 00 	mov    rbx,QWORD PTR [rsp+0x328]
    2997:	00 
    2998:	4c 8b ac 24 38 03 00 	mov    r13,QWORD PTR [rsp+0x338]
    299f:	00 
    29a0:	48 89 c6             	mov    rsi,rax
    29a3:	48 89 b4 24 28 03 00 	mov    QWORD PTR [rsp+0x328],rsi
    29aa:	00 
    29ab:	49 8b 7d 08          	mov    rdi,QWORD PTR [r13+0x8]
    29af:	48 89 d1             	mov    rcx,rdx
    29b2:	48 83 c1 e0          	add    rcx,0xffffffffffffffe0
    29b6:	48 89 5a e0          	mov    QWORD PTR [rdx-0x20],rbx
    29ba:	4c 89 7a e8          	mov    QWORD PTR [rdx-0x18],r15
    29be:	be 01 00 00 00       	mov    esi,0x1
    29c3:	48 89 72 f0          	mov    QWORD PTR [rdx-0x10],rsi
    29c7:	be 01 00 00 00       	mov    esi,0x1
    29cc:	48 89 72 f8          	mov    QWORD PTR [rdx-0x8],rsi
    29d0:	48 31 f6             	xor    rsi,rsi
    29d3:	4c 89 e2             	mov    rdx,r12
    29d6:	48 b8 00 00 00 00 00 	movabs rax,0x0
    29dd:	00 00 00 
			29d8: R_X86_64_64	do_callback
    29e0:	48 89 9c 24 30 03 00 	mov    QWORD PTR [rsp+0x330],rbx
    29e7:	00 
    29e8:	48 89 bc 24 38 03 00 	mov    QWORD PTR [rsp+0x338],rdi
    29ef:	00 
    29f0:	4c 89 ac 24 40 03 00 	mov    QWORD PTR [rsp+0x340],r13
    29f7:	00 
    29f8:	ff d0                	call   rax
    29fa:	48 8b 9c 24 30 03 00 	mov    rbx,QWORD PTR [rsp+0x330]
    2a01:	00 
    2a02:	4c 8b ac 24 40 03 00 	mov    r13,QWORD PTR [rsp+0x340]
    2a09:	00 
    2a0a:	48 89 c6             	mov    rsi,rax
    2a0d:	48 89 b4 24 30 03 00 	mov    QWORD PTR [rsp+0x330],rsi
    2a14:	00 
    2a15:	49 8b 7d 08          	mov    rdi,QWORD PTR [r13+0x8]
    2a19:	48 89 d1             	mov    rcx,rdx
    2a1c:	48 83 c1 e0          	add    rcx,0xffffffffffffffe0
    2a20:	48 89 5a e0          	mov    QWORD PTR [rdx-0x20],rbx
    2a24:	4c 89 7a e8          	mov    QWORD PTR [rdx-0x18],r15
    2a28:	be 01 00 00 00       	mov    esi,0x1
    2a2d:	48 89 72 f0          	mov    QWORD PTR [rdx-0x10],rsi
    2a31:	be 01 00 00 00       	mov    esi,0x1
    2a36:	48 89 72 f8          	mov    QWORD PTR [rdx-0x8],rsi
    2a3a:	48 31 f6             	xor    rsi,rsi
    2a3d:	4c 89 e2             	mov    rdx,r12
    2a40:	48 b8 00 00 00 00 00 	movabs rax,0x0
    2a47:	00 00 00 
			2a42: R_X86_64_64	do_callback
    2a4a:	48 89 9c 24 38 03 00 	mov    QWORD PTR [rsp+0x338],rbx
    2a51:	00 
    2a52:	48 89 bc 24 40 03 00 	mov    QWORD PTR [rsp+0x340],rdi
    2a59:	00 
    2a5a:	4c 89 ac 24 48 03 00 	mov    QWORD PTR [rsp+0x348],r13
    2a61:	00 
    2a62:	ff d0                	call   rax
    2a64:	48 8b 9c 24 38 03 00 	mov    rbx,QWORD PTR [rsp+0x338]
    2a6b:	00 
    2a6c:	4c 8b ac 24 48 03 00 	mov    r13,QWORD PTR [rsp+0x348]
    2a73:	00 
    2a74:	48 89 c6             	mov    rsi,rax
    2a77:	48 89 b4 24 38 03 00 	mov    QWORD PTR [rsp+0x338],rsi
    2a7e:	00 
    2a7f:	49 8b 7d 08          	mov    rdi,QWORD PTR [r13+0x8]
    2a83:	48 89 d1             	mov    rcx,rdx
    2a86:	48 83 c1 e0          	add    rcx,0xffffffffffffffe0
    2a8a:	48 89 5a e0          	mov    QWORD PTR [rdx-0x20],rbx
    2a8e:	4c 89 7a e8          	mov    QWORD PTR [rdx-0x18],r15
    2a92:	be 01 00 00 00       	mov    esi,0x1
    2a97:	48 89 72 f0          	mov    QWORD PTR [rdx-0x10],rsi
    2a9b:	be 01 00 00 00       	mov    esi,0x1
    2aa0:	48 89 72 f8          	mov    QWORD PTR [rdx-0x8],rsi
    2aa4:	48 31 f6             	xor    rsi,rsi
    2aa7:	4c 89 e2             	mov    rdx,r12
    2aaa:	48 b8 00 00 00 00 00 	movabs rax,0x0
    2ab1:	00 00 00 
			2aac: R_X86_64_64	do_callback
    2ab4:	48 89 9c 24 40 03 00 	mov    QWORD PTR [rsp+0x340],rbx
    2abb:	00 
    2abc:	48 89 bc 24 48 03 00 	mov    QWORD PTR [rsp+0x348],rdi
    2ac3:	00 
    2ac4:	4c 89 ac 24 50 03 00 	mov    QWORD PTR [rsp+0x350],r13
    2acb:	00 
    2acc:	ff d0                	call   rax
    2ace:	48 8b 9c 24 40 03 00 	mov    rbx,QWORD PTR [rsp+0x340]
    2ad5:	00 
    2ad6:	4c 8b ac 24 50 03 00 	mov    r13,QWORD PTR [rsp+0x350]
    2add:	00 
    2ade:	48 89 c6             	mov    rsi,rax
    2ae1:	48 89 b4 24 40 03 00 	mov    QWORD PTR [rsp+0x340],rsi
    2ae8:	00 
    2ae9:	49 8b 7d 08          	mov    rdi,QWORD PTR [r13+0x8]
    2aed:	48 89 d1             	mov    rcx,rdx
    2af0:	48 83 c1 e0          	add    rcx,0xffffffffffffffe0
    2af4:	48 89 5a e0          	mov    QWORD PTR [rdx-0x20],rbx
    2af8:	4c 89 7a e8          	mov    QWORD PTR [rdx-0x18],r15
    2afc:	be 01 00 00 00       	mov    esi,0x1
    2b01:	48 89 72 f0          	mov    QWORD PTR [rdx-0x10],rsi
    2b05:	be 01 00 00 00       	mov    esi,0x1
    2b0a:	48 89 72 f8          	mov    QWORD PTR [rdx-0x8],rsi
    2b0e:	48 31 f6             	xor    rsi,rsi
    2b11:	4c 89 e2             	mov    rdx,r12
    2b14:	48 b8 00 00 00 00 00 	movabs rax,0x0
    2b1b:	00 00 00 
			2b16: R_X86_64_64	do_callback
    2b1e:	48 89 9c 24 48 03 00 	mov    QWORD PTR [rsp+0x348],rbx
    2b25:	00 
    2b26:	48 89 bc 24 50 03 00 	mov    QWORD PTR [rsp+0x350],rdi
    2b2d:	00 
    2b2e:	4c 89 ac 24 58 03 00 	mov    QWORD PTR [rsp+0x358],r13
    2b35:	00 
    2b36:	ff d0                	call   rax
    2b38:	48 8b 9c 24 48 03 00 	mov    rbx,QWORD PTR [rsp+0x348]
    2b3f:	00 
    2b40:	4c 8b ac 24 58 03 00 	mov    r13,QWORD PTR [rsp+0x358]
    2b47:	00 
    2b48:	48 89 c6             	mov    rsi,rax
    2b4b:	48 89 b4 24 48 03 00 	mov    QWORD PTR [rsp+0x348],rsi
    2b52:	00 
    2b53:	49 8b 7d 08          	mov    rdi,QWORD PTR [r13+0x8]
    2b57:	48 89 d1             	mov    rcx,rdx
    2b5a:	48 83 c1 e0          	add    rcx,0xffffffffffffffe0
    2b5e:	48 89 5a e0          	mov    QWORD PTR [rdx-0x20],rbx
    2b62:	4c 89 7a e8          	mov    QWORD PTR [rdx-0x18],r15
    2b66:	be 01 00 00 00       	mov    esi,0x1
    2b6b:	48 89 72 f0          	mov    QWORD PTR [rdx-0x10],rsi
    2b6f:	be 01 00 00 00       	mov    esi,0x1
    2b74:	48 89 72 f8          	mov    QWORD PTR [rdx-0x8],rsi
    2b78:	48 31 f6             	xor    rsi,rsi
    2b7b:	4c 89 e2             	mov    rdx,r12
    2b7e:	48 b8 00 00 00 00 00 	movabs rax,0x0
    2b85:	00 00 00 
			2b80: R_X86_64_64	do_callback
    2b88:	48 89 9c 24 50 03 00 	mov    QWORD PTR [rsp+0x350],rbx
    2b8f:	00 
    2b90:	48 89 bc 24 58 03 00 	mov    QWORD PTR [rsp+0x358],rdi
    2b97:	00 
    2b98:	4c 89 ac 24 60 03 00 	mov    QWORD PTR [rsp+0x360],r13
    2b9f:	00 
    2ba0:	ff d0                	call   rax
    2ba2:	48 8b 9c 24 50 03 00 	mov    rbx,QWORD PTR [rsp+0x350]
    2ba9:	00 
    2baa:	4c 8b ac 24 60 03 00 	mov    r13,QWORD PTR [rsp+0x360]
    2bb1:	00 
    2bb2:	48 89 c6             	mov    rsi,rax
    2bb5:	48 89 b4 24 50 03 00 	mov    QWORD PTR [rsp+0x350],rsi
    2bbc:	00 
    2bbd:	49 8b 7d 08          	mov    rdi,QWORD PTR [r13+0x8]
    2bc1:	48 89 d1             	mov    rcx,rdx
    2bc4:	48 83 c1 e0          	add    rcx,0xffffffffffffffe0
    2bc8:	48 89 5a e0          	mov    QWORD PTR [rdx-0x20],rbx
    2bcc:	4c 89 7a e8          	mov    QWORD PTR [rdx-0x18],r15
    2bd0:	be 01 00 00 00       	mov    esi,0x1
    2bd5:	48 89 72 f0          	mov    QWORD PTR [rdx-0x10],rsi
    2bd9:	be 01 00 00 00       	mov    esi,0x1
    2bde:	48 89 72 f8          	mov    QWORD PTR [rdx-0x8],rsi
    2be2:	48 31 f6             	xor    rsi,rsi
    2be5:	4c 89 e2             	mov    rdx,r12
    2be8:	48 b8 00 00 00 00 00 	movabs rax,0x0
    2bef:	00 00 00 
			2bea: R_X86_64_64	do_callback
    2bf2:	48 89 9c 24 58 03 00 	mov    QWORD PTR [rsp+0x358],rbx
    2bf9:	00 
    2bfa:	48 89 bc 24 60 03 00 	mov    QWORD PTR [rsp+0x360],rdi
    2c01:	00 
    2c02:	4c 89 ac 24 68 03 00 	mov    QWORD PTR [rsp+0x368],r13
    2c09:	00 
    2c0a:	ff d0                	call   rax
    2c0c:	48 8b 9c 24 58 03 00 	mov    rbx,QWORD PTR [rsp+0x358]
    2c13:	00 
    2c14:	4c 8b ac 24 68 03 00 	mov    r13,QWORD PTR [rsp+0x368]
    2c1b:	00 
    2c1c:	48 89 c6             	mov    rsi,rax
    2c1f:	48 89 b4 24 58 03 00 	mov    QWORD PTR [rsp+0x358],rsi
    2c26:	00 
    2c27:	49 8b 7d 08          	mov    rdi,QWORD PTR [r13+0x8]
    2c2b:	48 89 d1             	mov    rcx,rdx
    2c2e:	48 83 c1 e0          	add    rcx,0xffffffffffffffe0
    2c32:	48 89 5a e0          	mov    QWORD PTR [rdx-0x20],rbx
    2c36:	4c 89 7a e8          	mov    QWORD PTR [rdx-0x18],r15
    2c3a:	be 01 00 00 00       	mov    esi,0x1
    2c3f:	48 89 72 f0          	mov    QWORD PTR [rdx-0x10],rsi
    2c43:	be 01 00 00 00       	mov    esi,0x1
    2c48:	48 89 72 f8          	mov    QWORD PTR [rdx-0x8],rsi
    2c4c:	48 31 f6             	xor    rsi,rsi
    2c4f:	4c 89 e2             	mov    rdx,r12
    2c52:	48 b8 00 00 00 00 00 	movabs rax,0x0
    2c59:	00 00 00 
			2c54: R_X86_64_64	do_callback
    2c5c:	48 89 9c 24 60 03 00 	mov    QWORD PTR [rsp+0x360],rbx
    2c63:	00 
    2c64:	48 89 bc 24 68 03 00 	mov    QWORD PTR [rsp+0x368],rdi
    2c6b:	00 
    2c6c:	4c 89 ac 24 70 03 00 	mov    QWORD PTR [rsp+0x370],r13
    2c73:	00 
    2c74:	ff d0                	call   rax
    2c76:	48 8b 9c 24 60 03 00 	mov    rbx,QWORD PTR [rsp+0x360]
    2c7d:	00 
    2c7e:	4c 8b ac 24 70 03 00 	mov    r13,QWORD PTR [rsp+0x370]
    2c85:	00 
    2c86:	48 89 c6             	mov    rsi,rax
    2c89:	48 89 b4 24 60 03 00 	mov    QWORD PTR [rsp+0x360],rsi
    2c90:	00 
    2c91:	49 8b 7d 08          	mov    rdi,QWORD PTR [r13+0x8]
    2c95:	48 89 d1             	mov    rcx,rdx
    2c98:	48 83 c1 e0          	add    rcx,0xffffffffffffffe0
    2c9c:	48 89 5a e0          	mov    QWORD PTR [rdx-0x20],rbx
    2ca0:	4c 89 7a e8          	mov    QWORD PTR [rdx-0x18],r15
    2ca4:	be 01 00 00 00       	mov    esi,0x1
    2ca9:	48 89 72 f0          	mov    QWORD PTR [rdx-0x10],rsi
    2cad:	be 01 00 00 00       	mov    esi,0x1
    2cb2:	48 89 72 f8          	mov    QWORD PTR [rdx-0x8],rsi
    2cb6:	48 31 f6             	xor    rsi,rsi
    2cb9:	4c 89 e2             	mov    rdx,r12
    2cbc:	48 b8 00 00 00 00 00 	movabs rax,0x0
    2cc3:	00 00 00 
			2cbe: R_X86_64_64	do_callback
    2cc6:	48 89 9c 24 68 03 00 	mov    QWORD PTR [rsp+0x368],rbx
    2ccd:	00 
    2cce:	48 89 bc 24 70 03 00 	mov    QWORD PTR [rsp+0x370],rdi
    2cd5:	00 
    2cd6:	4c 89 ac 24 78 03 00 	mov    QWORD PTR [rsp+0x378],r13
    2cdd:	00 
    2cde:	ff d0                	call   rax
    2ce0:	48 8b 9c 24 68 03 00 	mov    rbx,QWORD PTR [rsp+0x368]
    2ce7:	00 
    2ce8:	4c 8b ac 24 78 03 00 	mov    r13,QWORD PTR [rsp+0x378]
    2cef:	00 
    2cf0:	48 89 c6             	mov    rsi,rax
    2cf3:	48 89 b4 24 68 03 00 	mov    QWORD PTR [rsp+0x368],rsi
    2cfa:	00 
    2cfb:	49 8b 7d 08          	mov    rdi,QWORD PTR [r13+0x8]
    2cff:	48 89 d1             	mov    rcx,rdx
    2d02:	48 83 c1 e0          	add    rcx,0xffffffffffffffe0
    2d06:	48 89 5a e0          	mov    QWORD PTR [rdx-0x20],rbx
    2d0a:	4c 89 7a e8          	mov    QWORD PTR [rdx-0x18],r15
    2d0e:	be 01 00 00 00       	mov    esi,0x1
    2d13:	48 89 72 f0          	mov    QWORD PTR [rdx-0x10],rsi
    2d17:	be 01 00 00 00       	mov    esi,0x1
    2d1c:	48 89 72 f8          	mov    QWORD PTR [rdx-0x8],rsi
    2d20:	48 31 f6             	xor    rsi,rsi
    2d23:	4c 89 e2             	mov    rdx,r12
    2d26:	48 b8 00 00 00 00 00 	movabs rax,0x0
    2d2d:	00 00 00 
			2d28: R_X86_64_64	do_callback
    2d30:	48 89 9c 24 70 03 00 	mov    QWORD PTR [rsp+0x370],rbx
    2d37:	00 
    2d38:	48 89 bc 24 78 03 00 	mov    QWORD PTR [rsp+0x378],rdi
    2d3f:	00 
    2d40:	4c 89 ac 24 80 03 00 	mov    QWORD PTR [rsp+0x380],r13
    2d47:	00 
    2d48:	ff d0                	call   rax
    2d4a:	48 8b 9c 24 70 03 00 	mov    rbx,QWORD PTR [rsp+0x370]
    2d51:	00 
    2d52:	4c 8b ac 24 80 03 00 	mov    r13,QWORD PTR [rsp+0x380]
    2d59:	00 
    2d5a:	48 89 c6             	mov    rsi,rax
    2d5d:	48 89 b4 24 70 03 00 	mov    QWORD PTR [rsp+0x370],rsi
    2d64:	00 
    2d65:	49 8b 7d 08          	mov    rdi,QWORD PTR [r13+0x8]
    2d69:	48 89 d1             	mov    rcx,rdx
    2d6c:	48 83 c1 e0          	add    rcx,0xffffffffffffffe0
    2d70:	48 89 5a e0          	mov    QWORD PTR [rdx-0x20],rbx
    2d74:	4c 89 7a e8          	mov    QWORD PTR [rdx-0x18],r15
    2d78:	be 01 00 00 00       	mov    esi,0x1
    2d7d:	48 89 72 f0          	mov    QWORD PTR [rdx-0x10],rsi
    2d81:	be 01 00 00 00       	mov    esi,0x1
    2d86:	48 89 72 f8          	mov    QWORD PTR [rdx-0x8],rsi
    2d8a:	48 31 f6             	xor    rsi,rsi
    2d8d:	4c 89 e2             	mov    rdx,r12
    2d90:	48 b8 00 00 00 00 00 	movabs rax,0x0
    2d97:	00 00 00 
			2d92: R_X86_64_64	do_callback
    2d9a:	48 89 9c 24 78 03 00 	mov    QWORD PTR [rsp+0x378],rbx
    2da1:	00 
    2da2:	48 89 bc 24 80 03 00 	mov    QWORD PTR [rsp+0x380],rdi
    2da9:	00 
    2daa:	4c 89 ac 24 88 03 00 	mov    QWORD PTR [rsp+0x388],r13
    2db1:	00 
    2db2:	ff d0                	call   rax
    2db4:	48 8b 9c 24 78 03 00 	mov    rbx,QWORD PTR [rsp+0x378]
    2dbb:	00 
    2dbc:	4c 8b ac 24 88 03 00 	mov    r13,QWORD PTR [rsp+0x388]
    2dc3:	00 
    2dc4:	48 89 c6             	mov    rsi,rax
    2dc7:	48 89 b4 24 78 03 00 	mov    QWORD PTR [rsp+0x378],rsi
    2dce:	00 
    2dcf:	49 8b 7d 08          	mov    rdi,QWORD PTR [r13+0x8]
    2dd3:	48 89 d1             	mov    rcx,rdx
    2dd6:	48 83 c1 e0          	add    rcx,0xffffffffffffffe0
    2dda:	48 89 5a e0          	mov    QWORD PTR [rdx-0x20],rbx
    2dde:	4c 89 7a e8          	mov    QWORD PTR [rdx-0x18],r15
    2de2:	be 01 00 00 00       	mov    esi,0x1
    2de7:	48 89 72 f0          	mov    QWORD PTR [rdx-0x10],rsi
    2deb:	be 01 00 00 00       	mov    esi,0x1
    2df0:	48 89 72 f8          	mov    QWORD PTR [rdx-0x8],rsi
    2df4:	48 31 f6             	xor    rsi,rsi
    2df7:	4c 89 e2             	mov    rdx,r12
    2dfa:	48 b8 00 00 00 00 00 	movabs rax,0x0
    2e01:	00 00 00 
			2dfc: R_X86_64_64	do_callback
    2e04:	48 89 9c 24 80 03 00 	mov    QWORD PTR [rsp+0x380],rbx
    2e0b:	00 
    2e0c:	48 89 bc 24 88 03 00 	mov    QWORD PTR [rsp+0x388],rdi
    2e13:	00 
    2e14:	4c 89 ac 24 90 03 00 	mov    QWORD PTR [rsp+0x390],r13
    2e1b:	00 
    2e1c:	ff d0                	call   rax
    2e1e:	48 8b 9c 24 80 03 00 	mov    rbx,QWORD PTR [rsp+0x380]
    2e25:	00 
    2e26:	4c 8b ac 24 90 03 00 	mov    r13,QWORD PTR [rsp+0x390]
    2e2d:	00 
    2e2e:	48 89 c6             	mov    rsi,rax
    2e31:	48 89 b4 24 80 03 00 	mov    QWORD PTR [rsp+0x380],rsi
    2e38:	00 
    2e39:	49 8b 7d 08          	mov    rdi,QWORD PTR [r13+0x8]
    2e3d:	48 89 d1             	mov    rcx,rdx
    2e40:	48 83 c1 e0          	add    rcx,0xffffffffffffffe0
    2e44:	48 89 5a e0          	mov    QWORD PTR [rdx-0x20],rbx
    2e48:	4c 89 7a e8          	mov    QWORD PTR [rdx-0x18],r15
    2e4c:	be 01 00 00 00       	mov    esi,0x1
    2e51:	48 89 72 f0          	mov    QWORD PTR [rdx-0x10],rsi
    2e55:	be 01 00 00 00       	mov    esi,0x1
    2e5a:	48 89 72 f8          	mov    QWORD PTR [rdx-0x8],rsi
    2e5e:	48 31 f6             	xor    rsi,rsi
    2e61:	4c 89 e2             	mov    rdx,r12
    2e64:	48 b8 00 00 00 00 00 	movabs rax,0x0
    2e6b:	00 00 00 
			2e66: R_X86_64_64	do_callback
    2e6e:	48 89 9c 24 88 03 00 	mov    QWORD PTR [rsp+0x388],rbx
    2e75:	00 
    2e76:	48 89 bc 24 90 03 00 	mov    QWORD PTR [rsp+0x390],rdi
    2e7d:	00 
    2e7e:	4c 89 ac 24 98 03 00 	mov    QWORD PTR [rsp+0x398],r13
    2e85:	00 
    2e86:	ff d0                	call   rax
    2e88:	48 8b 9c 24 88 03 00 	mov    rbx,QWORD PTR [rsp+0x388]
    2e8f:	00 
    2e90:	4c 8b ac 24 98 03 00 	mov    r13,QWORD PTR [rsp+0x398]
    2e97:	00 
    2e98:	48 89 c6             	mov    rsi,rax
    2e9b:	48 89 b4 24 88 03 00 	mov    QWORD PTR [rsp+0x388],rsi
    2ea2:	00 
    2ea3:	49 8b 7d 08          	mov    rdi,QWORD PTR [r13+0x8]
    2ea7:	48 89 d1             	mov    rcx,rdx
    2eaa:	48 83 c1 e0          	add    rcx,0xffffffffffffffe0
    2eae:	48 89 5a e0          	mov    QWORD PTR [rdx-0x20],rbx
    2eb2:	4c 89 7a e8          	mov    QWORD PTR [rdx-0x18],r15
    2eb6:	be 01 00 00 00       	mov    esi,0x1
    2ebb:	48 89 72 f0          	mov    QWORD PTR [rdx-0x10],rsi
    2ebf:	be 01 00 00 00       	mov    esi,0x1
    2ec4:	48 89 72 f8          	mov    QWORD PTR [rdx-0x8],rsi
    2ec8:	48 31 f6             	xor    rsi,rsi
    2ecb:	4c 89 e2             	mov    rdx,r12
    2ece:	48 b8 00 00 00 00 00 	movabs rax,0x0
    2ed5:	00 00 00 
			2ed0: R_X86_64_64	do_callback
    2ed8:	48 89 9c 24 90 03 00 	mov    QWORD PTR [rsp+0x390],rbx
    2edf:	00 
    2ee0:	48 89 bc 24 98 03 00 	mov    QWORD PTR [rsp+0x398],rdi
    2ee7:	00 
    2ee8:	4c 89 ac 24 a0 03 00 	mov    QWORD PTR [rsp+0x3a0],r13
    2eef:	00 
    2ef0:	ff d0                	call   rax
    2ef2:	48 8b 9c 24 90 03 00 	mov    rbx,QWORD PTR [rsp+0x390]
    2ef9:	00 
    2efa:	4c 8b ac 24 a0 03 00 	mov    r13,QWORD PTR [rsp+0x3a0]
    2f01:	00 
    2f02:	48 89 c6             	mov    rsi,rax
    2f05:	48 89 b4 24 90 03 00 	mov    QWORD PTR [rsp+0x390],rsi
    2f0c:	00 
    2f0d:	49 8b 7d 08          	mov    rdi,QWORD PTR [r13+0x8]
    2f11:	48 89 d1             	mov    rcx,rdx
    2f14:	48 83 c1 e0          	add    rcx,0xffffffffffffffe0
    2f18:	48 89 5a e0          	mov    QWORD PTR [rdx-0x20],rbx
    2f1c:	4c 89 7a e8          	mov    QWORD PTR [rdx-0x18],r15
    2f20:	be 01 00 00 00       	mov    esi,0x1
    2f25:	48 89 72 f0          	mov    QWORD PTR [rdx-0x10],rsi
    2f29:	be 01 00 00 00       	mov    esi,0x1
    2f2e:	48 89 72 f8          	mov    QWORD PTR [rdx-0x8],rsi
    2f32:	48 31 f6             	xor    rsi,rsi
    2f35:	4c 89 e2             	mov    rdx,r12
    2f38:	48 b8 00 00 00 00 00 	movabs rax,0x0
    2f3f:	00 00 00 
			2f3a: R_X86_64_64	do_callback
    2f42:	48 89 9c 24 98 03 00 	mov    QWORD PTR [rsp+0x398],rbx
    2f49:	00 
    2f4a:	48 89 bc 24 a0 03 00 	mov    QWORD PTR [rsp+0x3a0],rdi
    2f51:	00 
    2f52:	4c 89 ac 24 a8 03 00 	mov    QWORD PTR [rsp+0x3a8],r13
    2f59:	00 
    2f5a:	ff d0                	call   rax
    2f5c:	48 8b 9c 24 98 03 00 	mov    rbx,QWORD PTR [rsp+0x398]
    2f63:	00 
    2f64:	4c 8b ac 24 a8 03 00 	mov    r13,QWORD PTR [rsp+0x3a8]
    2f6b:	00 
    2f6c:	48 89 c6             	mov    rsi,rax
    2f6f:	48 89 b4 24 98 03 00 	mov    QWORD PTR [rsp+0x398],rsi
    2f76:	00 
    2f77:	49 8b 7d 08          	mov    rdi,QWORD PTR [r13+0x8]
    2f7b:	48 89 d1             	mov    rcx,rdx
    2f7e:	48 83 c1 e0          	add    rcx,0xffffffffffffffe0
    2f82:	48 89 5a e0          	mov    QWORD PTR [rdx-0x20],rbx
    2f86:	4c 89 7a e8          	mov    QWORD PTR [rdx-0x18],r15
    2f8a:	be 01 00 00 00       	mov    esi,0x1
    2f8f:	48 89 72 f0          	mov    QWORD PTR [rdx-0x10],rsi
    2f93:	be 01 00 00 00       	mov    esi,0x1
    2f98:	48 89 72 f8          	mov    QWORD PTR [rdx-0x8],rsi
    2f9c:	48 31 f6             	xor    rsi,rsi
    2f9f:	4c 89 e2             	mov    rdx,r12
    2fa2:	48 b8 00 00 00 00 00 	movabs rax,0x0
    2fa9:	00 00 00 
			2fa4: R_X86_64_64	do_callback
    2fac:	48 89 9c 24 a0 03 00 	mov    QWORD PTR [rsp+0x3a0],rbx
    2fb3:	00 
    2fb4:	48 89 bc 24 a8 03 00 	mov    QWORD PTR [rsp+0x3a8],rdi
    2fbb:	00 
    2fbc:	4c 89 ac 24 b0 03 00 	mov    QWORD PTR [rsp+0x3b0],r13
    2fc3:	00 
    2fc4:	ff d0                	call   rax
    2fc6:	48 8b 9c 24 a0 03 00 	mov    rbx,QWORD PTR [rsp+0x3a0]
    2fcd:	00 
    2fce:	4c 8b ac 24 b0 03 00 	mov    r13,QWORD PTR [rsp+0x3b0]
    2fd5:	00 
    2fd6:	48 89 c6             	mov    rsi,rax
    2fd9:	48 89 b4 24 a0 03 00 	mov    QWORD PTR [rsp+0x3a0],rsi
    2fe0:	00 
    2fe1:	49 8b 7d 08          	mov    rdi,QWORD PTR [r13+0x8]
    2fe5:	48 89 d1             	mov    rcx,rdx
    2fe8:	48 83 c1 e0          	add    rcx,0xffffffffffffffe0
    2fec:	48 89 5a e0          	mov    QWORD PTR [rdx-0x20],rbx
    2ff0:	4c 89 7a e8          	mov    QWORD PTR [rdx-0x18],r15
    2ff4:	be 01 00 00 00       	mov    esi,0x1
    2ff9:	48 89 72 f0          	mov    QWORD PTR [rdx-0x10],rsi
    2ffd:	be 01 00 00 00       	mov    esi,0x1
    3002:	48 89 72 f8          	mov    QWORD PTR [rdx-0x8],rsi
    3006:	48 31 f6             	xor    rsi,rsi
    3009:	4c 89 e2             	mov    rdx,r12
    300c:	48 b8 00 00 00 00 00 	movabs rax,0x0
    3013:	00 00 00 
			300e: R_X86_64_64	do_callback
    3016:	48 89 9c 24 a8 03 00 	mov    QWORD PTR [rsp+0x3a8],rbx
    301d:	00 
    301e:	48 89 bc 24 b0 03 00 	mov    QWORD PTR [rsp+0x3b0],rdi
    3025:	00 
    3026:	4c 89 ac 24 b8 03 00 	mov    QWORD PTR [rsp+0x3b8],r13
    302d:	00 
    302e:	ff d0                	call   rax
    3030:	48 8b 9c 24 a8 03 00 	mov    rbx,QWORD PTR [rsp+0x3a8]
    3037:	00 
    3038:	4c 8b ac 24 b8 03 00 	mov    r13,QWORD PTR [rsp+0x3b8]
    303f:	00 
    3040:	48 89 c6             	mov    rsi,rax
    3043:	48 89 b4 24 a8 03 00 	mov    QWORD PTR [rsp+0x3a8],rsi
    304a:	00 
    304b:	49 8b 7d 08          	mov    rdi,QWORD PTR [r13+0x8]
    304f:	48 89 d1             	mov    rcx,rdx
    3052:	48 83 c1 e0          	add    rcx,0xffffffffffffffe0
    3056:	48 89 5a e0          	mov    QWORD PTR [rdx-0x20],rbx
    305a:	4c 89 7a e8          	mov    QWORD PTR [rdx-0x18],r15
    305e:	be 01 00 00 00       	mov    esi,0x1
    3063:	48 89 72 f0          	mov    QWORD PTR [rdx-0x10],rsi
    3067:	be 01 00 00 00       	mov    esi,0x1
    306c:	48 89 72 f8          	mov    QWORD PTR [rdx-0x8],rsi
    3070:	48 31 f6             	xor    rsi,rsi
    3073:	4c 89 e2             	mov    rdx,r12
    3076:	48 b8 00 00 00 00 00 	movabs rax,0x0
    307d:	00 00 00 
			3078: R_X86_64_64	do_callback
    3080:	48 89 9c 24 b0 03 00 	mov    QWORD PTR [rsp+0x3b0],rbx
    3087:	00 
    3088:	48 89 bc 24 b8 03 00 	mov    QWORD PTR [rsp+0x3b8],rdi
    308f:	00 
    3090:	4c 89 ac 24 c0 03 00 	mov    QWORD PTR [rsp+0x3c0],r13
    3097:	00 
    3098:	ff d0                	call   rax
    309a:	48 8b 9c 24 b0 03 00 	mov    rbx,QWORD PTR [rsp+0x3b0]
    30a1:	00 
    30a2:	4c 8b ac 24 c0 03 00 	mov    r13,QWORD PTR [rsp+0x3c0]
    30a9:	00 
    30aa:	48 89 c6             	mov    rsi,rax
    30ad:	48 89 b4 24 b0 03 00 	mov    QWORD PTR [rsp+0x3b0],rsi
    30b4:	00 
    30b5:	49 8b 7d 08          	mov    rdi,QWORD PTR [r13+0x8]
    30b9:	48 89 d1             	mov    rcx,rdx
    30bc:	48 83 c1 e0          	add    rcx,0xffffffffffffffe0
    30c0:	48 89 5a e0          	mov    QWORD PTR [rdx-0x20],rbx
    30c4:	4c 89 7a e8          	mov    QWORD PTR [rdx-0x18],r15
    30c8:	be 01 00 00 00       	mov    esi,0x1
    30cd:	48 89 72 f0          	mov    QWORD PTR [rdx-0x10],rsi
    30d1:	be 01 00 00 00       	mov    esi,0x1
    30d6:	48 89 72 f8          	mov    QWORD PTR [rdx-0x8],rsi
    30da:	48 31 f6             	xor    rsi,rsi
    30dd:	4c 89 e2             	mov    rdx,r12
    30e0:	48 b8 00 00 00 00 00 	movabs rax,0x0
    30e7:	00 00 00 
			30e2: R_X86_64_64	do_callback
    30ea:	48 89 9c 24 b8 03 00 	mov    QWORD PTR [rsp+0x3b8],rbx
    30f1:	00 
    30f2:	48 89 bc 24 c0 03 00 	mov    QWORD PTR [rsp+0x3c0],rdi
    30f9:	00 
    30fa:	4c 89 ac 24 c8 03 00 	mov    QWORD PTR [rsp+0x3c8],r13
    3101:	00 
    3102:	ff d0                	call   rax
    3104:	48 8b 9c 24 b8 03 00 	mov    rbx,QWORD PTR [rsp+0x3b8]
    310b:	00 
    310c:	4c 8b ac 24 c8 03 00 	mov    r13,QWORD PTR [rsp+0x3c8]
    3113:	00 
    3114:	48 89 c6             	mov    rsi,rax
    3117:	48 89 b4 24 b8 03 00 	mov    QWORD PTR [rsp+0x3b8],rsi
    311e:	00 
    311f:	49 8b 7d 08          	mov    rdi,QWORD PTR [r13+0x8]
    3123:	48 89 d1             	mov    rcx,rdx
    3126:	48 83 c1 e0          	add    rcx,0xffffffffffffffe0
    312a:	48 89 5a e0          	mov    QWORD PTR [rdx-0x20],rbx
    312e:	4c 89 7a e8          	mov    QWORD PTR [rdx-0x18],r15
    3132:	be 01 00 00 00       	mov    esi,0x1
    3137:	48 89 72 f0          	mov    QWORD PTR [rdx-0x10],rsi
    313b:	be 01 00 00 00       	mov    esi,0x1
    3140:	48 89 72 f8          	mov    QWORD PTR [rdx-0x8],rsi
    3144:	48 31 f6             	xor    rsi,rsi
    3147:	4c 89 e2             	mov    rdx,r12
    314a:	48 b8 00 00 00 00 00 	movabs rax,0x0
    3151:	00 00 00 
			314c: R_X86_64_64	do_callback
    3154:	48 89 9c 24 c0 03 00 	mov    QWORD PTR [rsp+0x3c0],rbx
    315b:	00 
    315c:	48 89 bc 24 c8 03 00 	mov    QWORD PTR [rsp+0x3c8],rdi
    3163:	00 
    3164:	4c 89 ac 24 d0 03 00 	mov    QWORD PTR [rsp+0x3d0],r13
    316b:	00 
    316c:	ff d0                	call   rax
    316e:	48 8b 9c 24 c0 03 00 	mov    rbx,QWORD PTR [rsp+0x3c0]
    3175:	00 
    3176:	4c 8b ac 24 d0 03 00 	mov    r13,QWORD PTR [rsp+0x3d0]
    317d:	00 
    317e:	48 89 c6             	mov    rsi,rax
    3181:	48 89 b4 24 c0 03 00 	mov    QWORD PTR [rsp+0x3c0],rsi
    3188:	00 
    3189:	49 8b 7d 08          	mov    rdi,QWORD PTR [r13+0x8]
    318d:	48 89 d1             	mov    rcx,rdx
    3190:	48 83 c1 e0          	add    rcx,0xffffffffffffffe0
    3194:	48 89 5a e0          	mov    QWORD PTR [rdx-0x20],rbx
    3198:	4c 89 7a e8          	mov    QWORD PTR [rdx-0x18],r15
    319c:	be 01 00 00 00       	mov    esi,0x1
    31a1:	48 89 72 f0          	mov    QWORD PTR [rdx-0x10],rsi
    31a5:	be 01 00 00 00       	mov    esi,0x1
    31aa:	48 89 72 f8          	mov    QWORD PTR [rdx-0x8],rsi
    31ae:	48 31 f6             	xor    rsi,rsi
    31b1:	4c 89 e2             	mov    rdx,r12
    31b4:	48 b8 00 00 00 00 00 	movabs rax,0x0
    31bb:	00 00 00 
			31b6: R_X86_64_64	do_callback
    31be:	48 89 9c 24 c8 03 00 	mov    QWORD PTR [rsp+0x3c8],rbx
    31c5:	00 
    31c6:	48 89 bc 24 d0 03 00 	mov    QWORD PTR [rsp+0x3d0],rdi
    31cd:	00 
    31ce:	4c 89 ac 24 d8 03 00 	mov    QWORD PTR [rsp+0x3d8],r13
    31d5:	00 
    31d6:	ff d0                	call   rax
    31d8:	48 8b 9c 24 c8 03 00 	mov    rbx,QWORD PTR [rsp+0x3c8]
    31df:	00 
    31e0:	4c 8b ac 24 d8 03 00 	mov    r13,QWORD PTR [rsp+0x3d8]
    31e7:	00 
    31e8:	48 89 c6             	mov    rsi,rax
    31eb:	48 89 b4 24 c8 03 00 	mov    QWORD PTR [rsp+0x3c8],rsi
    31f2:	00 
    31f3:	49 8b 7d 08          	mov    rdi,QWORD PTR [r13+0x8]
    31f7:	48 89 d1             	mov    rcx,rdx
    31fa:	48 83 c1 e0          	add    rcx,0xffffffffffffffe0
    31fe:	48 89 5a e0          	mov    QWORD PTR [rdx-0x20],rbx
    3202:	4c 89 7a e8          	mov    QWORD PTR [rdx-0x18],r15
    3206:	be 01 00 00 00       	mov    esi,0x1
    320b:	48 89 72 f0          	mov    QWORD PTR [rdx-0x10],rsi
    320f:	be 01 00 00 00       	mov    esi,0x1
    3214:	48 89 72 f8          	mov    QWORD PTR [rdx-0x8],rsi
    3218:	48 31 f6             	xor    rsi,rsi
    321b:	4c 89 e2             	mov    rdx,r12
    321e:	48 b8 00 00 00 00 00 	movabs rax,0x0
    3225:	00 00 00 
			3220: R_X86_64_64	do_callback
    3228:	48 89 9c 24 d0 03 00 	mov    QWORD PTR [rsp+0x3d0],rbx
    322f:	00 
    3230:	48 89 bc 24 d8 03 00 	mov    QWORD PTR [rsp+0x3d8],rdi
    3237:	00 
    3238:	4c 89 ac 24 e0 03 00 	mov    QWORD PTR [rsp+0x3e0],r13
    323f:	00 
    3240:	ff d0                	call   rax
    3242:	48 8b 9c 24 d0 03 00 	mov    rbx,QWORD PTR [rsp+0x3d0]
    3249:	00 
    324a:	4c 8b ac 24 e0 03 00 	mov    r13,QWORD PTR [rsp+0x3e0]
    3251:	00 
    3252:	48 89 c6             	mov    rsi,rax
    3255:	48 89 b4 24 d0 03 00 	mov    QWORD PTR [rsp+0x3d0],rsi
    325c:	00 
    325d:	49 8b 7d 08          	mov    rdi,QWORD PTR [r13+0x8]
    3261:	48 89 d1             	mov    rcx,rdx
    3264:	48 83 c1 e0          	add    rcx,0xffffffffffffffe0
    3268:	48 89 5a e0          	mov    QWORD PTR [rdx-0x20],rbx
    326c:	4c 89 7a e8          	mov    QWORD PTR [rdx-0x18],r15
    3270:	be 01 00 00 00       	mov    esi,0x1
    3275:	48 89 72 f0          	mov    QWORD PTR [rdx-0x10],rsi
    3279:	be 01 00 00 00       	mov    esi,0x1
    327e:	48 89 72 f8          	mov    QWORD PTR [rdx-0x8],rsi
    3282:	48 31 f6             	xor    rsi,rsi
    3285:	4c 89 e2             	mov    rdx,r12
    3288:	48 b8 00 00 00 00 00 	movabs rax,0x0
    328f:	00 00 00 
			328a: R_X86_64_64	do_callback
    3292:	48 89 9c 24 d8 03 00 	mov    QWORD PTR [rsp+0x3d8],rbx
    3299:	00 
    329a:	48 89 bc 24 e0 03 00 	mov    QWORD PTR [rsp+0x3e0],rdi
    32a1:	00 
    32a2:	4c 89 ac 24 e8 03 00 	mov    QWORD PTR [rsp+0x3e8],r13
    32a9:	00 
    32aa:	ff d0                	call   rax
    32ac:	48 8b 9c 24 d8 03 00 	mov    rbx,QWORD PTR [rsp+0x3d8]
    32b3:	00 
    32b4:	4c 8b ac 24 e8 03 00 	mov    r13,QWORD PTR [rsp+0x3e8]
    32bb:	00 
    32bc:	48 89 c6             	mov    rsi,rax
    32bf:	48 89 b4 24 d8 03 00 	mov    QWORD PTR [rsp+0x3d8],rsi
    32c6:	00 
    32c7:	49 8b 7d 08          	mov    rdi,QWORD PTR [r13+0x8]
    32cb:	48 89 d1             	mov    rcx,rdx
    32ce:	48 83 c1 e0          	add    rcx,0xffffffffffffffe0
    32d2:	48 89 5a e0          	mov    QWORD PTR [rdx-0x20],rbx
    32d6:	4c 89 7a e8          	mov    QWORD PTR [rdx-0x18],r15
    32da:	be 01 00 00 00       	mov    esi,0x1
    32df:	48 89 72 f0          	mov    QWORD PTR [rdx-0x10],rsi
    32e3:	be 01 00 00 00       	mov    esi,0x1
    32e8:	48 89 72 f8          	mov    QWORD PTR [rdx-0x8],rsi
    32ec:	48 31 f6             	xor    rsi,rsi
    32ef:	4c 89 e2             	mov    rdx,r12
    32f2:	48 b8 00 00 00 00 00 	movabs rax,0x0
    32f9:	00 00 00 
			32f4: R_X86_64_64	do_callback
    32fc:	48 89 9c 24 e0 03 00 	mov    QWORD PTR [rsp+0x3e0],rbx
    3303:	00 
    3304:	48 89 bc 24 e8 03 00 	mov    QWORD PTR [rsp+0x3e8],rdi
    330b:	00 
    330c:	4c 89 ac 24 f0 03 00 	mov    QWORD PTR [rsp+0x3f0],r13
    3313:	00 
    3314:	ff d0                	call   rax
    3316:	48 8b 9c 24 e0 03 00 	mov    rbx,QWORD PTR [rsp+0x3e0]
    331d:	00 
    331e:	4c 8b ac 24 f0 03 00 	mov    r13,QWORD PTR [rsp+0x3f0]
    3325:	00 
    3326:	48 89 c6             	mov    rsi,rax
    3329:	48 89 b4 24 e0 03 00 	mov    QWORD PTR [rsp+0x3e0],rsi
    3330:	00 
    3331:	49 8b 7d 08          	mov    rdi,QWORD PTR [r13+0x8]
    3335:	48 89 d1             	mov    rcx,rdx
    3338:	48 83 c1 e0          	add    rcx,0xffffffffffffffe0
    333c:	48 89 5a e0          	mov    QWORD PTR [rdx-0x20],rbx
    3340:	4c 89 7a e8          	mov    QWORD PTR [rdx-0x18],r15
    3344:	be 01 00 00 00       	mov    esi,0x1
    3349:	48 89 72 f0          	mov    QWORD PTR [rdx-0x10],rsi
    334d:	be 01 00 00 00       	mov    esi,0x1
    3352:	48 89 72 f8          	mov    QWORD PTR [rdx-0x8],rsi
    3356:	48 31 f6             	xor    rsi,rsi
    3359:	4c 89 e2             	mov    rdx,r12
    335c:	48 b8 00 00 00 00 00 	movabs rax,0x0
    3363:	00 00 00 
			335e: R_X86_64_64	do_callback
    3366:	48 89 9c 24 e8 03 00 	mov    QWORD PTR [rsp+0x3e8],rbx
    336d:	00 
    336e:	48 89 bc 24 f0 03 00 	mov    QWORD PTR [rsp+0x3f0],rdi
    3375:	00 
    3376:	4c 89 ac 24 f8 03 00 	mov    QWORD PTR [rsp+0x3f8],r13
    337d:	00 
    337e:	ff d0                	call   rax
    3380:	48 8b 9c 24 e8 03 00 	mov    rbx,QWORD PTR [rsp+0x3e8]
    3387:	00 
    3388:	4c 8b ac 24 f8 03 00 	mov    r13,QWORD PTR [rsp+0x3f8]
    338f:	00 
    3390:	48 89 c6             	mov    rsi,rax
    3393:	48 89 b4 24 e8 03 00 	mov    QWORD PTR [rsp+0x3e8],rsi
    339a:	00 
    339b:	49 8b 7d 08          	mov    rdi,QWORD PTR [r13+0x8]
    339f:	48 89 d1             	mov    rcx,rdx
    33a2:	48 83 c1 e0          	add    rcx,0xffffffffffffffe0
    33a6:	48 89 5a e0          	mov    QWORD PTR [rdx-0x20],rbx
    33aa:	4c 89 7a e8          	mov    QWORD PTR [rdx-0x18],r15
    33ae:	be 01 00 00 00       	mov    esi,0x1
    33b3:	48 89 72 f0          	mov    QWORD PTR [rdx-0x10],rsi
    33b7:	be 01 00 00 00       	mov    esi,0x1
    33bc:	48 89 72 f8          	mov    QWORD PTR [rdx-0x8],rsi
    33c0:	48 31 f6             	xor    rsi,rsi
    33c3:	4c 89 e2             	mov    rdx,r12
    33c6:	48 b8 00 00 00 00 00 	movabs rax,0x0
    33cd:	00 00 00 
			33c8: R_X86_64_64	do_callback
    33d0:	48 89 9c 24 f0 03 00 	mov    QWORD PTR [rsp+0x3f0],rbx
    33d7:	00 
    33d8:	48 89 bc 24 f8 03 00 	mov    QWORD PTR [rsp+0x3f8],rdi
    33df:	00 
    33e0:	4c 89 ac 24 00 04 00 	mov    QWORD PTR [rsp+0x400],r13
    33e7:	00 
    33e8:	ff d0                	call   rax
    33ea:	48 8b 9c 24 f0 03 00 	mov    rbx,QWORD PTR [rsp+0x3f0]
    33f1:	00 
    33f2:	4c 8b ac 24 00 04 00 	mov    r13,QWORD PTR [rsp+0x400]
    33f9:	00 
    33fa:	48 89 c6             	mov    rsi,rax
    33fd:	48 89 b4 24 f0 03 00 	mov    QWORD PTR [rsp+0x3f0],rsi
    3404:	00 
    3405:	49 8b 7d 08          	mov    rdi,QWORD PTR [r13+0x8]
    3409:	48 89 d1             	mov    rcx,rdx
    340c:	48 83 c1 e0          	add    rcx,0xffffffffffffffe0
    3410:	48 89 5a e0          	mov    QWORD PTR [rdx-0x20],rbx
    3414:	4c 89 7a e8          	mov    QWORD PTR [rdx-0x18],r15
    3418:	be 01 00 00 00       	mov    esi,0x1
    341d:	48 89 72 f0          	mov    QWORD PTR [rdx-0x10],rsi
    3421:	be 01 00 00 00       	mov    esi,0x1
    3426:	48 89 72 f8          	mov    QWORD PTR [rdx-0x8],rsi
    342a:	48 31 f6             	xor    rsi,rsi
    342d:	4c 89 e2             	mov    rdx,r12
    3430:	48 b8 00 00 00 00 00 	movabs rax,0x0
    3437:	00 00 00 
			3432: R_X86_64_64	do_callback
    343a:	48 89 9c 24 f8 03 00 	mov    QWORD PTR [rsp+0x3f8],rbx
    3441:	00 
    3442:	48 89 bc 24 00 04 00 	mov    QWORD PTR [rsp+0x400],rdi
    3449:	00 
    344a:	4c 89 ac 24 08 04 00 	mov    QWORD PTR [rsp+0x408],r13
    3451:	00 
    3452:	ff d0                	call   rax
    3454:	48 8b 9c 24 f8 03 00 	mov    rbx,QWORD PTR [rsp+0x3f8]
    345b:	00 
    345c:	4c 8b ac 24 08 04 00 	mov    r13,QWORD PTR [rsp+0x408]
    3463:	00 
    3464:	48 89 c6             	mov    rsi,rax
    3467:	48 89 b4 24 f8 03 00 	mov    QWORD PTR [rsp+0x3f8],rsi
    346e:	00 
    346f:	49 8b 7d 08          	mov    rdi,QWORD PTR [r13+0x8]
    3473:	48 89 d1             	mov    rcx,rdx
    3476:	48 83 c1 e0          	add    rcx,0xffffffffffffffe0
    347a:	48 89 5a e0          	mov    QWORD PTR [rdx-0x20],rbx
    347e:	4c 89 7a e8          	mov    QWORD PTR [rdx-0x18],r15
    3482:	be 01 00 00 00       	mov    esi,0x1
    3487:	48 89 72 f0          	mov    QWORD PTR [rdx-0x10],rsi
    348b:	be 01 00 00 00       	mov    esi,0x1
    3490:	48 89 72 f8          	mov    QWORD PTR [rdx-0x8],rsi
    3494:	48 31 f6             	xor    rsi,rsi
    3497:	4c 89 e2             	mov    rdx,r12
    349a:	48 b8 00 00 00 00 00 	movabs rax,0x0
    34a1:	00 00 00 
			349c: R_X86_64_64	do_callback
    34a4:	48 89 9c 24 00 04 00 	mov    QWORD PTR [rsp+0x400],rbx
    34ab:	00 
    34ac:	48 89 bc 24 08 04 00 	mov    QWORD PTR [rsp+0x408],rdi
    34b3:	00 
    34b4:	4c 89 ac 24 10 04 00 	mov    QWORD PTR [rsp+0x410],r13
    34bb:	00 
    34bc:	ff d0                	call   rax
    34be:	48 8b 9c 24 00 04 00 	mov    rbx,QWORD PTR [rsp+0x400]
    34c5:	00 
    34c6:	4c 8b ac 24 10 04 00 	mov    r13,QWORD PTR [rsp+0x410]
    34cd:	00 
    34ce:	48 89 c6             	mov    rsi,rax
    34d1:	48 89 b4 24 00 04 00 	mov    QWORD PTR [rsp+0x400],rsi
    34d8:	00 
    34d9:	49 8b 7d 08          	mov    rdi,QWORD PTR [r13+0x8]
    34dd:	48 89 d1             	mov    rcx,rdx
    34e0:	48 83 c1 e0          	add    rcx,0xffffffffffffffe0
    34e4:	48 89 5a e0          	mov    QWORD PTR [rdx-0x20],rbx
    34e8:	4c 89 7a e8          	mov    QWORD PTR [rdx-0x18],r15
    34ec:	be 01 00 00 00       	mov    esi,0x1
    34f1:	48 89 72 f0          	mov    QWORD PTR [rdx-0x10],rsi
    34f5:	be 01 00 00 00       	mov    esi,0x1
    34fa:	48 89 72 f8          	mov    QWORD PTR [rdx-0x8],rsi
    34fe:	48 31 f6             	xor    rsi,rsi
    3501:	4c 89 e2             	mov    rdx,r12
    3504:	48 b8 00 00 00 00 00 	movabs rax,0x0
    350b:	00 00 00 
			3506: R_X86_64_64	do_callback
    350e:	48 89 9c 24 08 04 00 	mov    QWORD PTR [rsp+0x408],rbx
    3515:	00 
    3516:	48 89 bc 24 10 04 00 	mov    QWORD PTR [rsp+0x410],rdi
    351d:	00 
    351e:	4c 89 ac 24 18 04 00 	mov    QWORD PTR [rsp+0x418],r13
    3525:	00 
    3526:	ff d0                	call   rax
    3528:	48 8b 9c 24 08 04 00 	mov    rbx,QWORD PTR [rsp+0x408]
    352f:	00 
    3530:	4c 8b ac 24 18 04 00 	mov    r13,QWORD PTR [rsp+0x418]
    3537:	00 
    3538:	48 89 c6             	mov    rsi,rax
    353b:	48 89 b4 24 08 04 00 	mov    QWORD PTR [rsp+0x408],rsi
    3542:	00 
    3543:	49 8b 7d 08          	mov    rdi,QWORD PTR [r13+0x8]
    3547:	48 89 d1             	mov    rcx,rdx
    354a:	48 83 c1 e0          	add    rcx,0xffffffffffffffe0
    354e:	48 89 5a e0          	mov    QWORD PTR [rdx-0x20],rbx
    3552:	4c 89 7a e8          	mov    QWORD PTR [rdx-0x18],r15
    3556:	be 01 00 00 00       	mov    esi,0x1
    355b:	48 89 72 f0          	mov    QWORD PTR [rdx-0x10],rsi
    355f:	be 01 00 00 00       	mov    esi,0x1
    3564:	48 89 72 f8          	mov    QWORD PTR [rdx-0x8],rsi
    3568:	48 31 f6             	xor    rsi,rsi
    356b:	4c 89 e2             	mov    rdx,r12
    356e:	48 b8 00 00 00 00 00 	movabs rax,0x0
    3575:	00 00 00 
			3570: R_X86_64_64	do_callback
    3578:	48 89 9c 24 10 04 00 	mov    QWORD PTR [rsp+0x410],rbx
    357f:	00 
    3580:	48 89 bc 24 18 04 00 	mov    QWORD PTR [rsp+0x418],rdi
    3587:	00 
    3588:	4c 89 ac 24 20 04 00 	mov    QWORD PTR [rsp+0x420],r13
    358f:	00 
    3590:	ff d0                	call   rax
    3592:	48 8b 9c 24 10 04 00 	mov    rbx,QWORD PTR [rsp+0x410]
    3599:	00 
    359a:	4c 8b ac 24 20 04 00 	mov    r13,QWORD PTR [rsp+0x420]
    35a1:	00 
    35a2:	48 89 c6             	mov    rsi,rax
    35a5:	48 89 b4 24 10 04 00 	mov    QWORD PTR [rsp+0x410],rsi
    35ac:	00 
    35ad:	49 8b 7d 08          	mov    rdi,QWORD PTR [r13+0x8]
    35b1:	48 89 d1             	mov    rcx,rdx
    35b4:	48 83 c1 e0          	add    rcx,0xffffffffffffffe0
    35b8:	48 89 5a e0          	mov    QWORD PTR [rdx-0x20],rbx
    35bc:	4c 89 7a e8          	mov    QWORD PTR [rdx-0x18],r15
    35c0:	be 01 00 00 00       	mov    esi,0x1
    35c5:	48 89 72 f0          	mov    QWORD PTR [rdx-0x10],rsi
    35c9:	be 01 00 00 00       	mov    esi,0x1
    35ce:	48 89 72 f8          	mov    QWORD PTR [rdx-0x8],rsi
    35d2:	48 31 f6             	xor    rsi,rsi
    35d5:	4c 89 e2             	mov    rdx,r12
    35d8:	48 b8 00 00 00 00 00 	movabs rax,0x0
    35df:	00 00 00 
			35da: R_X86_64_64	do_callback
    35e2:	48 89 9c 24 18 04 00 	mov    QWORD PTR [rsp+0x418],rbx
    35e9:	00 
    35ea:	48 89 bc 24 20 04 00 	mov    QWORD PTR [rsp+0x420],rdi
    35f1:	00 
    35f2:	4c 89 ac 24 28 04 00 	mov    QWORD PTR [rsp+0x428],r13
    35f9:	00 
    35fa:	ff d0                	call   rax
    35fc:	48 8b 9c 24 18 04 00 	mov    rbx,QWORD PTR [rsp+0x418]
    3603:	00 
    3604:	4c 8b ac 24 28 04 00 	mov    r13,QWORD PTR [rsp+0x428]
    360b:	00 
    360c:	48 89 c6             	mov    rsi,rax
    360f:	48 89 b4 24 18 04 00 	mov    QWORD PTR [rsp+0x418],rsi
    3616:	00 
    3617:	49 8b 7d 08          	mov    rdi,QWORD PTR [r13+0x8]
    361b:	48 89 d1             	mov    rcx,rdx
    361e:	48 83 c1 e0          	add    rcx,0xffffffffffffffe0
    3622:	48 89 5a e0          	mov    QWORD PTR [rdx-0x20],rbx
    3626:	4c 89 7a e8          	mov    QWORD PTR [rdx-0x18],r15
    362a:	be 01 00 00 00       	mov    esi,0x1
    362f:	48 89 72 f0          	mov    QWORD PTR [rdx-0x10],rsi
    3633:	be 01 00 00 00       	mov    esi,0x1
    3638:	48 89 72 f8          	mov    QWORD PTR [rdx-0x8],rsi
    363c:	48 31 f6             	xor    rsi,rsi
    363f:	4c 89 e2             	mov    rdx,r12
    3642:	48 b8 00 00 00 00 00 	movabs rax,0x0
    3649:	00 00 00 
			3644: R_X86_64_64	do_callback
    364c:	48 89 9c 24 20 04 00 	mov    QWORD PTR [rsp+0x420],rbx
    3653:	00 
    3654:	48 89 bc 24 28 04 00 	mov    QWORD PTR [rsp+0x428],rdi
    365b:	00 
    365c:	4c 89 ac 24 30 04 00 	mov    QWORD PTR [rsp+0x430],r13
    3663:	00 
    3664:	ff d0                	call   rax
    3666:	48 8b 9c 24 20 04 00 	mov    rbx,QWORD PTR [rsp+0x420]
    366d:	00 
    366e:	4c 8b ac 24 30 04 00 	mov    r13,QWORD PTR [rsp+0x430]
    3675:	00 
    3676:	48 89 c6             	mov    rsi,rax
    3679:	48 89 b4 24 20 04 00 	mov    QWORD PTR [rsp+0x420],rsi
    3680:	00 
    3681:	49 8b 7d 08          	mov    rdi,QWORD PTR [r13+0x8]
    3685:	48 89 d1             	mov    rcx,rdx
    3688:	48 83 c1 e0          	add    rcx,0xffffffffffffffe0
    368c:	48 89 5a e0          	mov    QWORD PTR [rdx-0x20],rbx
    3690:	4c 89 7a e8          	mov    QWORD PTR [rdx-0x18],r15
    3694:	be 01 00 00 00       	mov    esi,0x1
    3699:	48 89 72 f0          	mov    QWORD PTR [rdx-0x10],rsi
    369d:	be 01 00 00 00       	mov    esi,0x1
    36a2:	48 89 72 f8          	mov    QWORD PTR [rdx-0x8],rsi
    36a6:	48 31 f6             	xor    rsi,rsi
    36a9:	4c 89 e2             	mov    rdx,r12
    36ac:	48 b8 00 00 00 00 00 	movabs rax,0x0
    36b3:	00 00 00 
			36ae: R_X86_64_64	do_callback
    36b6:	48 89 9c 24 28 04 00 	mov    QWORD PTR [rsp+0x428],rbx
    36bd:	00 
    36be:	48 89 bc 24 30 04 00 	mov    QWORD PTR [rsp+0x430],rdi
    36c5:	00 
    36c6:	4c 89 ac 24 38 04 00 	mov    QWORD PTR [rsp+0x438],r13
    36cd:	00 
    36ce:	ff d0                	call   rax
    36d0:	48 8b 9c 24 28 04 00 	mov    rbx,QWORD PTR [rsp+0x428]
    36d7:	00 
    36d8:	4c 8b ac 24 38 04 00 	mov    r13,QWORD PTR [rsp+0x438]
    36df:	00 
    36e0:	48 89 c6             	mov    rsi,rax
    36e3:	48 89 b4 24 28 04 00 	mov    QWORD PTR [rsp+0x428],rsi
    36ea:	00 
    36eb:	49 8b 7d 08          	mov    rdi,QWORD PTR [r13+0x8]
    36ef:	48 89 d1             	mov    rcx,rdx
    36f2:	48 83 c1 e0          	add    rcx,0xffffffffffffffe0
    36f6:	48 89 5a e0          	mov    QWORD PTR [rdx-0x20],rbx
    36fa:	4c 89 7a e8          	mov    QWORD PTR [rdx-0x18],r15
    36fe:	be 01 00 00 00       	mov    esi,0x1
    3703:	48 89 72 f0          	mov    QWORD PTR [rdx-0x10],rsi
    3707:	be 01 00 00 00       	mov    esi,0x1
    370c:	48 89 72 f8          	mov    QWORD PTR [rdx-0x8],rsi
    3710:	48 31 f6             	xor    rsi,rsi
    3713:	4c 89 e2             	mov    rdx,r12
    3716:	48 b8 00 00 00 00 00 	movabs rax,0x0
    371d:	00 00 00 
			3718: R_X86_64_64	do_callback
    3720:	48 89 9c 24 30 04 00 	mov    QWORD PTR [rsp+0x430],rbx
    3727:	00 
    3728:	48 89 bc 24 38 04 00 	mov    QWORD PTR [rsp+0x438],rdi
    372f:	00 
    3730:	4c 89 ac 24 40 04 00 	mov    QWORD PTR [rsp+0x440],r13
    3737:	00 
    3738:	ff d0                	call   rax
    373a:	48 8b 9c 24 30 04 00 	mov    rbx,QWORD PTR [rsp+0x430]
    3741:	00 
    3742:	4c 8b ac 24 40 04 00 	mov    r13,QWORD PTR [rsp+0x440]
    3749:	00 
    374a:	48 89 c6             	mov    rsi,rax
    374d:	48 89 b4 24 30 04 00 	mov    QWORD PTR [rsp+0x430],rsi
    3754:	00 
    3755:	49 8b 7d 08          	mov    rdi,QWORD PTR [r13+0x8]
    3759:	48 89 d1             	mov    rcx,rdx
    375c:	48 83 c1 e0          	add    rcx,0xffffffffffffffe0
    3760:	48 89 5a e0          	mov    QWORD PTR [rdx-0x20],rbx
    3764:	4c 89 7a e8          	mov    QWORD PTR [rdx-0x18],r15
    3768:	be 01 00 00 00       	mov    esi,0x1
    376d:	48 89 72 f0          	mov    QWORD PTR [rdx-0x10],rsi
    3771:	be 01 00 00 00       	mov    esi,0x1
    3776:	48 89 72 f8          	mov    QWORD PTR [rdx-0x8],rsi
    377a:	48 31 f6             	xor    rsi,rsi
    377d:	4c 89 e2             	mov    rdx,r12
    3780:	48 b8 00 00 00 00 00 	movabs rax,0x0
    3787:	00 00 00 
			3782: R_X86_64_64	do_callback
    378a:	48 89 9c 24 38 04 00 	mov    QWORD PTR [rsp+0x438],rbx
    3791:	00 
    3792:	48 89 bc 24 40 04 00 	mov    QWORD PTR [rsp+0x440],rdi
    3799:	00 
    379a:	4c 89 ac 24 48 04 00 	mov    QWORD PTR [rsp+0x448],r13
    37a1:	00 
    37a2:	ff d0                	call   rax
    37a4:	48 8b 9c 24 38 04 00 	mov    rbx,QWORD PTR [rsp+0x438]
    37ab:	00 
    37ac:	4c 8b ac 24 48 04 00 	mov    r13,QWORD PTR [rsp+0x448]
    37b3:	00 
    37b4:	48 89 c6             	mov    rsi,rax
    37b7:	48 89 b4 24 38 04 00 	mov    QWORD PTR [rsp+0x438],rsi
    37be:	00 
    37bf:	49 8b 7d 08          	mov    rdi,QWORD PTR [r13+0x8]
    37c3:	48 89 d1             	mov    rcx,rdx
    37c6:	48 83 c1 e0          	add    rcx,0xffffffffffffffe0
    37ca:	48 89 5a e0          	mov    QWORD PTR [rdx-0x20],rbx
    37ce:	4c 89 7a e8          	mov    QWORD PTR [rdx-0x18],r15
    37d2:	be 01 00 00 00       	mov    esi,0x1
    37d7:	48 89 72 f0          	mov    QWORD PTR [rdx-0x10],rsi
    37db:	be 01 00 00 00       	mov    esi,0x1
    37e0:	48 89 72 f8          	mov    QWORD PTR [rdx-0x8],rsi
    37e4:	48 31 f6             	xor    rsi,rsi
    37e7:	4c 89 e2             	mov    rdx,r12
    37ea:	48 b8 00 00 00 00 00 	movabs rax,0x0
    37f1:	00 00 00 
			37ec: R_X86_64_64	do_callback
    37f4:	48 89 9c 24 40 04 00 	mov    QWORD PTR [rsp+0x440],rbx
    37fb:	00 
    37fc:	48 89 bc 24 48 04 00 	mov    QWORD PTR [rsp+0x448],rdi
    3803:	00 
    3804:	4c 89 ac 24 50 04 00 	mov    QWORD PTR [rsp+0x450],r13
    380b:	00 
    380c:	ff d0                	call   rax
    380e:	48 8b 9c 24 40 04 00 	mov    rbx,QWORD PTR [rsp+0x440]
    3815:	00 
    3816:	4c 8b ac 24 50 04 00 	mov    r13,QWORD PTR [rsp+0x450]
    381d:	00 
    381e:	48 89 c6             	mov    rsi,rax
    3821:	48 89 b4 24 40 04 00 	mov    QWORD PTR [rsp+0x440],rsi
    3828:	00 
    3829:	49 8b 7d 08          	mov    rdi,QWORD PTR [r13+0x8]
    382d:	48 89 d1             	mov    rcx,rdx
    3830:	48 83 c1 e0          	add    rcx,0xffffffffffffffe0
    3834:	48 89 5a e0          	mov    QWORD PTR [rdx-0x20],rbx
    3838:	4c 89 7a e8          	mov    QWORD PTR [rdx-0x18],r15
    383c:	be 01 00 00 00       	mov    esi,0x1
    3841:	48 89 72 f0          	mov    QWORD PTR [rdx-0x10],rsi
    3845:	be 01 00 00 00       	mov    esi,0x1
    384a:	48 89 72 f8          	mov    QWORD PTR [rdx-0x8],rsi
    384e:	48 31 f6             	xor    rsi,rsi
    3851:	4c 89 e2             	mov    rdx,r12
    3854:	48 b8 00 00 00 00 00 	movabs rax,0x0
    385b:	00 00 00 
			3856: R_X86_64_64	do_callback
    385e:	48 89 9c 24 48 04 00 	mov    QWORD PTR [rsp+0x448],rbx
    3865:	00 
    3866:	48 89 bc 24 50 04 00 	mov    QWORD PTR [rsp+0x450],rdi
    386d:	00 
    386e:	4c 89 ac 24 58 04 00 	mov    QWORD PTR [rsp+0x458],r13
    3875:	00 
    3876:	ff d0                	call   rax
    3878:	48 8b 9c 24 48 04 00 	mov    rbx,QWORD PTR [rsp+0x448]
    387f:	00 
    3880:	4c 8b ac 24 58 04 00 	mov    r13,QWORD PTR [rsp+0x458]
    3887:	00 
    3888:	48 89 c6             	mov    rsi,rax
    388b:	48 89 b4 24 48 04 00 	mov    QWORD PTR [rsp+0x448],rsi
    3892:	00 
    3893:	49 8b 7d 08          	mov    rdi,QWORD PTR [r13+0x8]
    3897:	48 89 d1             	mov    rcx,rdx
    389a:	48 83 c1 e0          	add    rcx,0xffffffffffffffe0
    389e:	48 89 5a e0          	mov    QWORD PTR [rdx-0x20],rbx
    38a2:	4c 89 7a e8          	mov    QWORD PTR [rdx-0x18],r15
    38a6:	be 01 00 00 00       	mov    esi,0x1
    38ab:	48 89 72 f0          	mov    QWORD PTR [rdx-0x10],rsi
    38af:	be 01 00 00 00       	mov    esi,0x1
    38b4:	48 89 72 f8          	mov    QWORD PTR [rdx-0x8],rsi
    38b8:	48 31 f6             	xor    rsi,rsi
    38bb:	4c 89 e2             	mov    rdx,r12
    38be:	48 b8 00 00 00 00 00 	movabs rax,0x0
    38c5:	00 00 00 
			38c0: R_X86_64_64	do_callback
    38c8:	48 89 9c 24 50 04 00 	mov    QWORD PTR [rsp+0x450],rbx
    38cf:	00 
    38d0:	48 89 bc 24 58 04 00 	mov    QWORD PTR [rsp+0x458],rdi
    38d7:	00 
    38d8:	4c 89 ac 24 60 04 00 	mov    QWORD PTR [rsp+0x460],r13
    38df:	00 
    38e0:	ff d0                	call   rax
    38e2:	48 8b 9c 24 50 04 00 	mov    rbx,QWORD PTR [rsp+0x450]
    38e9:	00 
    38ea:	4c 8b ac 24 60 04 00 	mov    r13,QWORD PTR [rsp+0x460]
    38f1:	00 
    38f2:	48 89 c6             	mov    rsi,rax
    38f5:	48 89 b4 24 50 04 00 	mov    QWORD PTR [rsp+0x450],rsi
    38fc:	00 
    38fd:	49 8b 7d 08          	mov    rdi,QWORD PTR [r13+0x8]
    3901:	48 89 d1             	mov    rcx,rdx
    3904:	48 83 c1 e0          	add    rcx,0xffffffffffffffe0
    3908:	48 89 5a e0          	mov    QWORD PTR [rdx-0x20],rbx
    390c:	4c 89 7a e8          	mov    QWORD PTR [rdx-0x18],r15
    3910:	be 01 00 00 00       	mov    esi,0x1
    3915:	48 89 72 f0          	mov    QWORD PTR [rdx-0x10],rsi
    3919:	be 01 00 00 00       	mov    esi,0x1
    391e:	48 89 72 f8          	mov    QWORD PTR [rdx-0x8],rsi
    3922:	48 31 f6             	xor    rsi,rsi
    3925:	4c 89 e2             	mov    rdx,r12
    3928:	48 b8 00 00 00 00 00 	movabs rax,0x0
    392f:	00 00 00 
			392a: R_X86_64_64	do_callback
    3932:	48 89 9c 24 58 04 00 	mov    QWORD PTR [rsp+0x458],rbx
    3939:	00 
    393a:	48 89 bc 24 60 04 00 	mov    QWORD PTR [rsp+0x460],rdi
    3941:	00 
    3942:	4c 89 ac 24 68 04 00 	mov    QWORD PTR [rsp+0x468],r13
    3949:	00 
    394a:	ff d0                	call   rax
    394c:	48 8b 9c 24 58 04 00 	mov    rbx,QWORD PTR [rsp+0x458]
    3953:	00 
    3954:	4c 8b ac 24 68 04 00 	mov    r13,QWORD PTR [rsp+0x468]
    395b:	00 
    395c:	48 89 c6             	mov    rsi,rax
    395f:	48 89 b4 24 58 04 00 	mov    QWORD PTR [rsp+0x458],rsi
    3966:	00 
    3967:	49 8b 7d 08          	mov    rdi,QWORD PTR [r13+0x8]
    396b:	48 89 d1             	mov    rcx,rdx
    396e:	48 83 c1 e0          	add    rcx,0xffffffffffffffe0
    3972:	48 89 5a e0          	mov    QWORD PTR [rdx-0x20],rbx
    3976:	4c 89 7a e8          	mov    QWORD PTR [rdx-0x18],r15
    397a:	be 01 00 00 00       	mov    esi,0x1
    397f:	48 89 72 f0          	mov    QWORD PTR [rdx-0x10],rsi
    3983:	be 01 00 00 00       	mov    esi,0x1
    3988:	48 89 72 f8          	mov    QWORD PTR [rdx-0x8],rsi
    398c:	48 31 f6             	xor    rsi,rsi
    398f:	4c 89 e2             	mov    rdx,r12
    3992:	48 b8 00 00 00 00 00 	movabs rax,0x0
    3999:	00 00 00 
			3994: R_X86_64_64	do_callback
    399c:	48 89 9c 24 60 04 00 	mov    QWORD PTR [rsp+0x460],rbx
    39a3:	00 
    39a4:	48 89 bc 24 68 04 00 	mov    QWORD PTR [rsp+0x468],rdi
    39ab:	00 
    39ac:	4c 89 ac 24 70 04 00 	mov    QWORD PTR [rsp+0x470],r13
    39b3:	00 
    39b4:	ff d0                	call   rax
    39b6:	48 8b 9c 24 60 04 00 	mov    rbx,QWORD PTR [rsp+0x460]
    39bd:	00 
    39be:	4c 8b ac 24 70 04 00 	mov    r13,QWORD PTR [rsp+0x470]
    39c5:	00 
    39c6:	48 89 c6             	mov    rsi,rax
    39c9:	48 89 b4 24 60 04 00 	mov    QWORD PTR [rsp+0x460],rsi
    39d0:	00 
    39d1:	49 8b 7d 08          	mov    rdi,QWORD PTR [r13+0x8]
    39d5:	48 89 d1             	mov    rcx,rdx
    39d8:	48 83 c1 e0          	add    rcx,0xffffffffffffffe0
    39dc:	48 89 5a e0          	mov    QWORD PTR [rdx-0x20],rbx
    39e0:	4c 89 7a e8          	mov    QWORD PTR [rdx-0x18],r15
    39e4:	be 01 00 00 00       	mov    esi,0x1
    39e9:	48 89 72 f0          	mov    QWORD PTR [rdx-0x10],rsi
    39ed:	be 01 00 00 00       	mov    esi,0x1
    39f2:	48 89 72 f8          	mov    QWORD PTR [rdx-0x8],rsi
    39f6:	48 31 f6             	xor    rsi,rsi
    39f9:	4c 89 e2             	mov    rdx,r12
    39fc:	48 b8 00 00 00 00 00 	movabs rax,0x0
    3a03:	00 00 00 
			39fe: R_X86_64_64	do_callback
    3a06:	48 89 9c 24 68 04 00 	mov    QWORD PTR [rsp+0x468],rbx
    3a0d:	00 
    3a0e:	48 89 bc 24 70 04 00 	mov    QWORD PTR [rsp+0x470],rdi
    3a15:	00 
    3a16:	4c 89 ac 24 78 04 00 	mov    QWORD PTR [rsp+0x478],r13
    3a1d:	00 
    3a1e:	ff d0                	call   rax
    3a20:	48 8b 9c 24 68 04 00 	mov    rbx,QWORD PTR [rsp+0x468]
    3a27:	00 
    3a28:	4c 8b ac 24 78 04 00 	mov    r13,QWORD PTR [rsp+0x478]
    3a2f:	00 
    3a30:	48 89 c6             	mov    rsi,rax
    3a33:	48 89 b4 24 68 04 00 	mov    QWORD PTR [rsp+0x468],rsi
    3a3a:	00 
    3a3b:	49 8b 7d 08          	mov    rdi,QWORD PTR [r13+0x8]
    3a3f:	48 89 d1             	mov    rcx,rdx
    3a42:	48 83 c1 e0          	add    rcx,0xffffffffffffffe0
    3a46:	48 89 5a e0          	mov    QWORD PTR [rdx-0x20],rbx
    3a4a:	4c 89 7a e8          	mov    QWORD PTR [rdx-0x18],r15
    3a4e:	be 01 00 00 00       	mov    esi,0x1
    3a53:	48 89 72 f0          	mov    QWORD PTR [rdx-0x10],rsi
    3a57:	be 01 00 00 00       	mov    esi,0x1
    3a5c:	48 89 72 f8          	mov    QWORD PTR [rdx-0x8],rsi
    3a60:	48 31 f6             	xor    rsi,rsi
    3a63:	4c 89 e2             	mov    rdx,r12
    3a66:	48 b8 00 00 00 00 00 	movabs rax,0x0
    3a6d:	00 00 00 
			3a68: R_X86_64_64	do_callback
    3a70:	48 89 9c 24 70 04 00 	mov    QWORD PTR [rsp+0x470],rbx
    3a77:	00 
    3a78:	48 89 bc 24 78 04 00 	mov    QWORD PTR [rsp+0x478],rdi
    3a7f:	00 
    3a80:	4c 89 ac 24 80 04 00 	mov    QWORD PTR [rsp+0x480],r13
    3a87:	00 
    3a88:	ff d0                	call   rax
    3a8a:	48 8b 9c 24 70 04 00 	mov    rbx,QWORD PTR [rsp+0x470]
    3a91:	00 
    3a92:	4c 8b ac 24 80 04 00 	mov    r13,QWORD PTR [rsp+0x480]
    3a99:	00 
    3a9a:	48 89 c6             	mov    rsi,rax
    3a9d:	48 89 b4 24 70 04 00 	mov    QWORD PTR [rsp+0x470],rsi
    3aa4:	00 
    3aa5:	49 8b 7d 08          	mov    rdi,QWORD PTR [r13+0x8]
    3aa9:	48 89 d1             	mov    rcx,rdx
    3aac:	48 83 c1 e0          	add    rcx,0xffffffffffffffe0
    3ab0:	48 89 5a e0          	mov    QWORD PTR [rdx-0x20],rbx
    3ab4:	4c 89 7a e8          	mov    QWORD PTR [rdx-0x18],r15
    3ab8:	be 01 00 00 00       	mov    esi,0x1
    3abd:	48 89 72 f0          	mov    QWORD PTR [rdx-0x10],rsi
    3ac1:	be 01 00 00 00       	mov    esi,0x1
    3ac6:	48 89 72 f8          	mov    QWORD PTR [rdx-0x8],rsi
    3aca:	48 31 f6             	xor    rsi,rsi
    3acd:	4c 89 e2             	mov    rdx,r12
    3ad0:	48 b8 00 00 00 00 00 	movabs rax,0x0
    3ad7:	00 00 00 
			3ad2: R_X86_64_64	do_callback
    3ada:	48 89 9c 24 78 04 00 	mov    QWORD PTR [rsp+0x478],rbx
    3ae1:	00 
    3ae2:	48 89 bc 24 80 04 00 	mov    QWORD PTR [rsp+0x480],rdi
    3ae9:	00 
    3aea:	4c 89 ac 24 88 04 00 	mov    QWORD PTR [rsp+0x488],r13
    3af1:	00 
    3af2:	ff d0                	call   rax
    3af4:	48 8b 9c 24 78 04 00 	mov    rbx,QWORD PTR [rsp+0x478]
    3afb:	00 
    3afc:	4c 8b ac 24 88 04 00 	mov    r13,QWORD PTR [rsp+0x488]
    3b03:	00 
    3b04:	48 89 c6             	mov    rsi,rax
    3b07:	48 89 b4 24 78 04 00 	mov    QWORD PTR [rsp+0x478],rsi
    3b0e:	00 
    3b0f:	49 8b 7d 08          	mov    rdi,QWORD PTR [r13+0x8]
    3b13:	48 89 d1             	mov    rcx,rdx
    3b16:	48 83 c1 e0          	add    rcx,0xffffffffffffffe0
    3b1a:	48 89 5a e0          	mov    QWORD PTR [rdx-0x20],rbx
    3b1e:	4c 89 7a e8          	mov    QWORD PTR [rdx-0x18],r15
    3b22:	be 01 00 00 00       	mov    esi,0x1
    3b27:	48 89 72 f0          	mov    QWORD PTR [rdx-0x10],rsi
    3b2b:	be 01 00 00 00       	mov    esi,0x1
    3b30:	48 89 72 f8          	mov    QWORD PTR [rdx-0x8],rsi
    3b34:	48 31 f6             	xor    rsi,rsi
    3b37:	4c 89 e2             	mov    rdx,r12
    3b3a:	48 b8 00 00 00 00 00 	movabs rax,0x0
    3b41:	00 00 00 
			3b3c: R_X86_64_64	do_callback
    3b44:	48 89 9c 24 80 04 00 	mov    QWORD PTR [rsp+0x480],rbx
    3b4b:	00 
    3b4c:	48 89 bc 24 88 04 00 	mov    QWORD PTR [rsp+0x488],rdi
    3b53:	00 
    3b54:	4c 89 ac 24 90 04 00 	mov    QWORD PTR [rsp+0x490],r13
    3b5b:	00 
    3b5c:	ff d0                	call   rax
    3b5e:	48 8b 9c 24 80 04 00 	mov    rbx,QWORD PTR [rsp+0x480]
    3b65:	00 
    3b66:	4c 8b ac 24 90 04 00 	mov    r13,QWORD PTR [rsp+0x490]
    3b6d:	00 
    3b6e:	48 89 c6             	mov    rsi,rax
    3b71:	48 89 b4 24 80 04 00 	mov    QWORD PTR [rsp+0x480],rsi
    3b78:	00 
    3b79:	49 8b 7d 08          	mov    rdi,QWORD PTR [r13+0x8]
    3b7d:	48 89 d1             	mov    rcx,rdx
    3b80:	48 83 c1 e0          	add    rcx,0xffffffffffffffe0
    3b84:	48 89 5a e0          	mov    QWORD PTR [rdx-0x20],rbx
    3b88:	4c 89 7a e8          	mov    QWORD PTR [rdx-0x18],r15
    3b8c:	be 01 00 00 00       	mov    esi,0x1
    3b91:	48 89 72 f0          	mov    QWORD PTR [rdx-0x10],rsi
    3b95:	be 01 00 00 00       	mov    esi,0x1
    3b9a:	48 89 72 f8          	mov    QWORD PTR [rdx-0x8],rsi
    3b9e:	48 31 f6             	xor    rsi,rsi
    3ba1:	4c 89 e2             	mov    rdx,r12
    3ba4:	48 b8 00 00 00 00 00 	movabs rax,0x0
    3bab:	00 00 00 
			3ba6: R_X86_64_64	do_callback
    3bae:	48 89 9c 24 88 04 00 	mov    QWORD PTR [rsp+0x488],rbx
    3bb5:	00 
    3bb6:	48 89 bc 24 90 04 00 	mov    QWORD PTR [rsp+0x490],rdi
    3bbd:	00 
    3bbe:	4c 89 ac 24 98 04 00 	mov    QWORD PTR [rsp+0x498],r13
    3bc5:	00 
    3bc6:	ff d0                	call   rax
    3bc8:	48 8b 9c 24 88 04 00 	mov    rbx,QWORD PTR [rsp+0x488]
    3bcf:	00 
    3bd0:	4c 8b ac 24 98 04 00 	mov    r13,QWORD PTR [rsp+0x498]
    3bd7:	00 
    3bd8:	48 89 c6             	mov    rsi,rax
    3bdb:	48 89 b4 24 88 04 00 	mov    QWORD PTR [rsp+0x488],rsi
    3be2:	00 
    3be3:	49 8b 7d 08          	mov    rdi,QWORD PTR [r13+0x8]
    3be7:	48 89 d1             	mov    rcx,rdx
    3bea:	48 83 c1 e0          	add    rcx,0xffffffffffffffe0
    3bee:	48 89 5a e0          	mov    QWORD PTR [rdx-0x20],rbx
    3bf2:	4c 89 7a e8          	mov    QWORD PTR [rdx-0x18],r15
    3bf6:	be 01 00 00 00       	mov    esi,0x1
    3bfb:	48 89 72 f0          	mov    QWORD PTR [rdx-0x10],rsi
    3bff:	be 01 00 00 00       	mov    esi,0x1
    3c04:	48 89 72 f8          	mov    QWORD PTR [rdx-0x8],rsi
    3c08:	48 31 f6             	xor    rsi,rsi
    3c0b:	4c 89 e2             	mov    rdx,r12
    3c0e:	48 b8 00 00 00 00 00 	movabs rax,0x0
    3c15:	00 00 00 
			3c10: R_X86_64_64	do_callback
    3c18:	48 89 9c 24 90 04 00 	mov    QWORD PTR [rsp+0x490],rbx
    3c1f:	00 
    3c20:	48 89 bc 24 98 04 00 	mov    QWORD PTR [rsp+0x498],rdi
    3c27:	00 
    3c28:	4c 89 ac 24 a0 04 00 	mov    QWORD PTR [rsp+0x4a0],r13
    3c2f:	00 
    3c30:	ff d0                	call   rax
    3c32:	48 8b 9c 24 90 04 00 	mov    rbx,QWORD PTR [rsp+0x490]
    3c39:	00 
    3c3a:	4c 8b ac 24 a0 04 00 	mov    r13,QWORD PTR [rsp+0x4a0]
    3c41:	00 
    3c42:	48 89 c6             	mov    rsi,rax
    3c45:	48 89 b4 24 90 04 00 	mov    QWORD PTR [rsp+0x490],rsi
    3c4c:	00 
    3c4d:	49 8b 7d 08          	mov    rdi,QWORD PTR [r13+0x8]
    3c51:	48 89 d1             	mov    rcx,rdx
    3c54:	48 83 c1 e0          	add    rcx,0xffffffffffffffe0
    3c58:	48 89 5a e0          	mov    QWORD PTR [rdx-0x20],rbx
    3c5c:	4c 89 7a e8          	mov    QWORD PTR [rdx-0x18],r15
    3c60:	be 01 00 00 00       	mov    esi,0x1
    3c65:	48 89 72 f0          	mov    QWORD PTR [rdx-0x10],rsi
    3c69:	be 01 00 00 00       	mov    esi,0x1
    3c6e:	48 89 72 f8          	mov    QWORD PTR [rdx-0x8],rsi
    3c72:	48 31 f6             	xor    rsi,rsi
    3c75:	4c 89 e2             	mov    rdx,r12
    3c78:	48 b8 00 00 00 00 00 	movabs rax,0x0
    3c7f:	00 00 00 
			3c7a: R_X86_64_64	do_callback
    3c82:	48 89 9c 24 98 04 00 	mov    QWORD PTR [rsp+0x498],rbx
    3c89:	00 
    3c8a:	48 89 bc 24 a0 04 00 	mov    QWORD PTR [rsp+0x4a0],rdi
    3c91:	00 
    3c92:	4c 89 ac 24 a8 04 00 	mov    QWORD PTR [rsp+0x4a8],r13
    3c99:	00 
    3c9a:	ff d0                	call   rax
    3c9c:	48 8b 9c 24 98 04 00 	mov    rbx,QWORD PTR [rsp+0x498]
    3ca3:	00 
    3ca4:	4c 8b ac 24 a8 04 00 	mov    r13,QWORD PTR [rsp+0x4a8]
    3cab:	00 
    3cac:	48 89 c6             	mov    rsi,rax
    3caf:	48 89 b4 24 98 04 00 	mov    QWORD PTR [rsp+0x498],rsi
    3cb6:	00 
    3cb7:	49 8b 7d 08          	mov    rdi,QWORD PTR [r13+0x8]
    3cbb:	48 89 d1             	mov    rcx,rdx
    3cbe:	48 83 c1 e0          	add    rcx,0xffffffffffffffe0
    3cc2:	48 89 5a e0          	mov    QWORD PTR [rdx-0x20],rbx
    3cc6:	4c 89 7a e8          	mov    QWORD PTR [rdx-0x18],r15
    3cca:	be 01 00 00 00       	mov    esi,0x1
    3ccf:	48 89 72 f0          	mov    QWORD PTR [rdx-0x10],rsi
    3cd3:	be 01 00 00 00       	mov    esi,0x1
    3cd8:	48 89 72 f8          	mov    QWORD PTR [rdx-0x8],rsi
    3cdc:	48 31 f6             	xor    rsi,rsi
    3cdf:	4c 89 e2             	mov    rdx,r12
    3ce2:	48 b8 00 00 00 00 00 	movabs rax,0x0
    3ce9:	00 00 00 
			3ce4: R_X86_64_64	do_callback
    3cec:	48 89 9c 24 a0 04 00 	mov    QWORD PTR [rsp+0x4a0],rbx
    3cf3:	00 
    3cf4:	48 89 bc 24 a8 04 00 	mov    QWORD PTR [rsp+0x4a8],rdi
    3cfb:	00 
    3cfc:	4c 89 ac 24 b0 04 00 	mov    QWORD PTR [rsp+0x4b0],r13
    3d03:	00 
    3d04:	ff d0                	call   rax
    3d06:	48 8b 9c 24 a0 04 00 	mov    rbx,QWORD PTR [rsp+0x4a0]
    3d0d:	00 
    3d0e:	4c 8b ac 24 b0 04 00 	mov    r13,QWORD PTR [rsp+0x4b0]
    3d15:	00 
    3d16:	48 89 c6             	mov    rsi,rax
    3d19:	48 89 b4 24 a0 04 00 	mov    QWORD PTR [rsp+0x4a0],rsi
    3d20:	00 
    3d21:	49 8b 7d 08          	mov    rdi,QWORD PTR [r13+0x8]
    3d25:	48 89 d1             	mov    rcx,rdx
    3d28:	48 83 c1 e0          	add    rcx,0xffffffffffffffe0
    3d2c:	48 89 5a e0          	mov    QWORD PTR [rdx-0x20],rbx
    3d30:	4c 89 7a e8          	mov    QWORD PTR [rdx-0x18],r15
    3d34:	be 01 00 00 00       	mov    esi,0x1
    3d39:	48 89 72 f0          	mov    QWORD PTR [rdx-0x10],rsi
    3d3d:	be 01 00 00 00       	mov    esi,0x1
    3d42:	48 89 72 f8          	mov    QWORD PTR [rdx-0x8],rsi
    3d46:	48 31 f6             	xor    rsi,rsi
    3d49:	4c 89 e2             	mov    rdx,r12
    3d4c:	48 b8 00 00 00 00 00 	movabs rax,0x0
    3d53:	00 00 00 
			3d4e: R_X86_64_64	do_callback
    3d56:	48 89 9c 24 a8 04 00 	mov    QWORD PTR [rsp+0x4a8],rbx
    3d5d:	00 
    3d5e:	48 89 bc 24 b0 04 00 	mov    QWORD PTR [rsp+0x4b0],rdi
    3d65:	00 
    3d66:	4c 89 ac 24 b8 04 00 	mov    QWORD PTR [rsp+0x4b8],r13
    3d6d:	00 
    3d6e:	ff d0                	call   rax
    3d70:	48 8b 9c 24 a8 04 00 	mov    rbx,QWORD PTR [rsp+0x4a8]
    3d77:	00 
    3d78:	4c 8b ac 24 b8 04 00 	mov    r13,QWORD PTR [rsp+0x4b8]
    3d7f:	00 
    3d80:	48 89 c6             	mov    rsi,rax
    3d83:	48 89 b4 24 a8 04 00 	mov    QWORD PTR [rsp+0x4a8],rsi
    3d8a:	00 
    3d8b:	49 8b 7d 08          	mov    rdi,QWORD PTR [r13+0x8]
    3d8f:	48 89 d1             	mov    rcx,rdx
    3d92:	48 83 c1 e0          	add    rcx,0xffffffffffffffe0
    3d96:	48 89 5a e0          	mov    QWORD PTR [rdx-0x20],rbx
    3d9a:	4c 89 7a e8          	mov    QWORD PTR [rdx-0x18],r15
    3d9e:	be 01 00 00 00       	mov    esi,0x1
    3da3:	48 89 72 f0          	mov    QWORD PTR [rdx-0x10],rsi
    3da7:	be 01 00 00 00       	mov    esi,0x1
    3dac:	48 89 72 f8          	mov    QWORD PTR [rdx-0x8],rsi
    3db0:	48 31 f6             	xor    rsi,rsi
    3db3:	4c 89 e2             	mov    rdx,r12
    3db6:	48 b8 00 00 00 00 00 	movabs rax,0x0
    3dbd:	00 00 00 
			3db8: R_X86_64_64	do_callback
    3dc0:	48 89 9c 24 b0 04 00 	mov    QWORD PTR [rsp+0x4b0],rbx
    3dc7:	00 
    3dc8:	48 89 bc 24 b8 04 00 	mov    QWORD PTR [rsp+0x4b8],rdi
    3dcf:	00 
    3dd0:	4c 89 ac 24 c0 04 00 	mov    QWORD PTR [rsp+0x4c0],r13
    3dd7:	00 
    3dd8:	ff d0                	call   rax
    3dda:	48 8b 9c 24 b0 04 00 	mov    rbx,QWORD PTR [rsp+0x4b0]
    3de1:	00 
    3de2:	4c 8b ac 24 c0 04 00 	mov    r13,QWORD PTR [rsp+0x4c0]
    3de9:	00 
    3dea:	48 89 c6             	mov    rsi,rax
    3ded:	48 89 b4 24 b0 04 00 	mov    QWORD PTR [rsp+0x4b0],rsi
    3df4:	00 
    3df5:	49 8b 7d 08          	mov    rdi,QWORD PTR [r13+0x8]
    3df9:	48 89 d1             	mov    rcx,rdx
    3dfc:	48 83 c1 e0          	add    rcx,0xffffffffffffffe0
    3e00:	48 89 5a e0          	mov    QWORD PTR [rdx-0x20],rbx
    3e04:	4c 89 7a e8          	mov    QWORD PTR [rdx-0x18],r15
    3e08:	be 01 00 00 00       	mov    esi,0x1
    3e0d:	48 89 72 f0          	mov    QWORD PTR [rdx-0x10],rsi
    3e11:	be 01 00 00 00       	mov    esi,0x1
    3e16:	48 89 72 f8          	mov    QWORD PTR [rdx-0x8],rsi
    3e1a:	48 31 f6             	xor    rsi,rsi
    3e1d:	4c 89 e2             	mov    rdx,r12
    3e20:	48 b8 00 00 00 00 00 	movabs rax,0x0
    3e27:	00 00 00 
			3e22: R_X86_64_64	do_callback
    3e2a:	48 89 9c 24 b8 04 00 	mov    QWORD PTR [rsp+0x4b8],rbx
    3e31:	00 
    3e32:	48 89 bc 24 c0 04 00 	mov    QWORD PTR [rsp+0x4c0],rdi
    3e39:	00 
    3e3a:	4c 89 ac 24 c8 04 00 	mov    QWORD PTR [rsp+0x4c8],r13
    3e41:	00 
    3e42:	ff d0                	call   rax
    3e44:	48 8b 9c 24 b8 04 00 	mov    rbx,QWORD PTR [rsp+0x4b8]
    3e4b:	00 
    3e4c:	4c 8b ac 24 c8 04 00 	mov    r13,QWORD PTR [rsp+0x4c8]
    3e53:	00 
    3e54:	48 89 c6             	mov    rsi,rax
    3e57:	48 89 b4 24 b8 04 00 	mov    QWORD PTR [rsp+0x4b8],rsi
    3e5e:	00 
    3e5f:	49 8b 7d 08          	mov    rdi,QWORD PTR [r13+0x8]
    3e63:	48 89 d1             	mov    rcx,rdx
    3e66:	48 83 c1 e0          	add    rcx,0xffffffffffffffe0
    3e6a:	48 89 5a e0          	mov    QWORD PTR [rdx-0x20],rbx
    3e6e:	4c 89 7a e8          	mov    QWORD PTR [rdx-0x18],r15
    3e72:	be 01 00 00 00       	mov    esi,0x1
    3e77:	48 89 72 f0          	mov    QWORD PTR [rdx-0x10],rsi
    3e7b:	be 01 00 00 00       	mov    esi,0x1
    3e80:	48 89 72 f8          	mov    QWORD PTR [rdx-0x8],rsi
    3e84:	48 31 f6             	xor    rsi,rsi
    3e87:	4c 89 e2             	mov    rdx,r12
    3e8a:	48 b8 00 00 00 00 00 	movabs rax,0x0
    3e91:	00 00 00 
			3e8c: R_X86_64_64	do_callback
    3e94:	48 89 9c 24 c0 04 00 	mov    QWORD PTR [rsp+0x4c0],rbx
    3e9b:	00 
    3e9c:	48 89 bc 24 c8 04 00 	mov    QWORD PTR [rsp+0x4c8],rdi
    3ea3:	00 
    3ea4:	4c 89 ac 24 d0 04 00 	mov    QWORD PTR [rsp+0x4d0],r13
    3eab:	00 
    3eac:	ff d0                	call   rax
    3eae:	48 8b 9c 24 c0 04 00 	mov    rbx,QWORD PTR [rsp+0x4c0]
    3eb5:	00 
    3eb6:	4c 8b ac 24 d0 04 00 	mov    r13,QWORD PTR [rsp+0x4d0]
    3ebd:	00 
    3ebe:	48 89 c6             	mov    rsi,rax
    3ec1:	48 89 b4 24 c0 04 00 	mov    QWORD PTR [rsp+0x4c0],rsi
    3ec8:	00 
    3ec9:	49 8b 7d 08          	mov    rdi,QWORD PTR [r13+0x8]
    3ecd:	48 89 d1             	mov    rcx,rdx
    3ed0:	48 83 c1 e0          	add    rcx,0xffffffffffffffe0
    3ed4:	48 89 5a e0          	mov    QWORD PTR [rdx-0x20],rbx
    3ed8:	4c 89 7a e8          	mov    QWORD PTR [rdx-0x18],r15
    3edc:	be 01 00 00 00       	mov    esi,0x1
    3ee1:	48 89 72 f0          	mov    QWORD PTR [rdx-0x10],rsi
    3ee5:	be 01 00 00 00       	mov    esi,0x1
    3eea:	48 89 72 f8          	mov    QWORD PTR [rdx-0x8],rsi
    3eee:	48 31 f6             	xor    rsi,rsi
    3ef1:	4c 89 e2             	mov    rdx,r12
    3ef4:	48 b8 00 00 00 00 00 	movabs rax,0x0
    3efb:	00 00 00 
			3ef6: R_X86_64_64	do_callback
    3efe:	48 89 9c 24 c8 04 00 	mov    QWORD PTR [rsp+0x4c8],rbx
    3f05:	00 
    3f06:	48 89 bc 24 d0 04 00 	mov    QWORD PTR [rsp+0x4d0],rdi
    3f0d:	00 
    3f0e:	4c 89 ac 24 d8 04 00 	mov    QWORD PTR [rsp+0x4d8],r13
    3f15:	00 
    3f16:	ff d0                	call   rax
    3f18:	48 8b 9c 24 c8 04 00 	mov    rbx,QWORD PTR [rsp+0x4c8]
    3f1f:	00 
    3f20:	4c 8b ac 24 d8 04 00 	mov    r13,QWORD PTR [rsp+0x4d8]
    3f27:	00 
    3f28:	48 89 c6             	mov    rsi,rax
    3f2b:	48 89 b4 24 c8 04 00 	mov    QWORD PTR [rsp+0x4c8],rsi
    3f32:	00 
    3f33:	49 8b 7d 08          	mov    rdi,QWORD PTR [r13+0x8]
    3f37:	48 89 d1             	mov    rcx,rdx
    3f3a:	48 83 c1 e0          	add    rcx,0xffffffffffffffe0
    3f3e:	48 89 5a e0          	mov    QWORD PTR [rdx-0x20],rbx
    3f42:	4c 89 7a e8          	mov    QWORD PTR [rdx-0x18],r15
    3f46:	be 01 00 00 00       	mov    esi,0x1
    3f4b:	48 89 72 f0          	mov    QWORD PTR [rdx-0x10],rsi
    3f4f:	be 01 00 00 00       	mov    esi,0x1
    3f54:	48 89 72 f8          	mov    QWORD PTR [rdx-0x8],rsi
    3f58:	48 31 f6             	xor    rsi,rsi
    3f5b:	4c 89 e2             	mov    rdx,r12
    3f5e:	48 b8 00 00 00 00 00 	movabs rax,0x0
    3f65:	00 00 00 
			3f60: R_X86_64_64	do_callback
    3f68:	48 89 9c 24 d0 04 00 	mov    QWORD PTR [rsp+0x4d0],rbx
    3f6f:	00 
    3f70:	48 89 bc 24 d8 04 00 	mov    QWORD PTR [rsp+0x4d8],rdi
    3f77:	00 
    3f78:	4c 89 ac 24 e0 04 00 	mov    QWORD PTR [rsp+0x4e0],r13
    3f7f:	00 
    3f80:	ff d0                	call   rax
    3f82:	48 8b 9c 24 d0 04 00 	mov    rbx,QWORD PTR [rsp+0x4d0]
    3f89:	00 
    3f8a:	4c 8b ac 24 e0 04 00 	mov    r13,QWORD PTR [rsp+0x4e0]
    3f91:	00 
    3f92:	48 89 c6             	mov    rsi,rax
    3f95:	48 89 b4 24 d0 04 00 	mov    QWORD PTR [rsp+0x4d0],rsi
    3f9c:	00 
    3f9d:	49 8b 7d 08          	mov    rdi,QWORD PTR [r13+0x8]
    3fa1:	48 89 d1             	mov    rcx,rdx
    3fa4:	48 83 c1 e0          	add    rcx,0xffffffffffffffe0
    3fa8:	48 89 5a e0          	mov    QWORD PTR [rdx-0x20],rbx
    3fac:	4c 89 7a e8          	mov    QWORD PTR [rdx-0x18],r15
    3fb0:	be 01 00 00 00       	mov    esi,0x1
    3fb5:	48 89 72 f0          	mov    QWORD PTR [rdx-0x10],rsi
    3fb9:	be 01 00 00 00       	mov    esi,0x1
    3fbe:	48 89 72 f8          	mov    QWORD PTR [rdx-0x8],rsi
    3fc2:	48 31 f6             	xor    rsi,rsi
    3fc5:	4c 89 e2             	mov    rdx,r12
    3fc8:	48 b8 00 00 00 00 00 	movabs rax,0x0
    3fcf:	00 00 00 
			3fca: R_X86_64_64	do_callback
    3fd2:	48 89 9c 24 d8 04 00 	mov    QWORD PTR [rsp+0x4d8],rbx
    3fd9:	00 
    3fda:	48 89 bc 24 e0 04 00 	mov    QWORD PTR [rsp+0x4e0],rdi
    3fe1:	00 
    3fe2:	4c 89 ac 24 e8 04 00 	mov    QWORD PTR [rsp+0x4e8],r13
    3fe9:	00 
    3fea:	ff d0                	call   rax
    3fec:	48 8b 9c 24 d8 04 00 	mov    rbx,QWORD PTR [rsp+0x4d8]
    3ff3:	00 
    3ff4:	4c 8b ac 24 e8 04 00 	mov    r13,QWORD PTR [rsp+0x4e8]
    3ffb:	00 
    3ffc:	48 89 c6             	mov    rsi,rax
    3fff:	48 89 b4 24 d8 04 00 	mov    QWORD PTR [rsp+0x4d8],rsi
    4006:	00 
    4007:	49 8b 7d 08          	mov    rdi,QWORD PTR [r13+0x8]
    400b:	48 89 d1             	mov    rcx,rdx
    400e:	48 83 c1 e0          	add    rcx,0xffffffffffffffe0
    4012:	48 89 5a e0          	mov    QWORD PTR [rdx-0x20],rbx
    4016:	4c 89 7a e8          	mov    QWORD PTR [rdx-0x18],r15
    401a:	be 01 00 00 00       	mov    esi,0x1
    401f:	48 89 72 f0          	mov    QWORD PTR [rdx-0x10],rsi
    4023:	be 01 00 00 00       	mov    esi,0x1
    4028:	48 89 72 f8          	mov    QWORD PTR [rdx-0x8],rsi
    402c:	48 31 f6             	xor    rsi,rsi
    402f:	4c 89 e2             	mov    rdx,r12
    4032:	48 b8 00 00 00 00 00 	movabs rax,0x0
    4039:	00 00 00 
			4034: R_X86_64_64	do_callback
    403c:	48 89 9c 24 e0 04 00 	mov    QWORD PTR [rsp+0x4e0],rbx
    4043:	00 
    4044:	48 89 bc 24 e8 04 00 	mov    QWORD PTR [rsp+0x4e8],rdi
    404b:	00 
    404c:	4c 89 ac 24 f0 04 00 	mov    QWORD PTR [rsp+0x4f0],r13
    4053:	00 
    4054:	ff d0                	call   rax
    4056:	48 8b 9c 24 e0 04 00 	mov    rbx,QWORD PTR [rsp+0x4e0]
    405d:	00 
    405e:	4c 8b ac 24 f0 04 00 	mov    r13,QWORD PTR [rsp+0x4f0]
    4065:	00 
    4066:	48 89 c6             	mov    rsi,rax
    4069:	48 89 b4 24 e0 04 00 	mov    QWORD PTR [rsp+0x4e0],rsi
    4070:	00 
    4071:	49 8b 7d 08          	mov    rdi,QWORD PTR [r13+0x8]
    4075:	48 89 d1             	mov    rcx,rdx
    4078:	48 83 c1 e0          	add    rcx,0xffffffffffffffe0
    407c:	48 89 5a e0          	mov    QWORD PTR [rdx-0x20],rbx
    4080:	4c 89 7a e8          	mov    QWORD PTR [rdx-0x18],r15
    4084:	be 01 00 00 00       	mov    esi,0x1
    4089:	48 89 72 f0          	mov    QWORD PTR [rdx-0x10],rsi
    408d:	be 01 00 00 00       	mov    esi,0x1
    4092:	48 89 72 f8          	mov    QWORD PTR [rdx-0x8],rsi
    4096:	48 31 f6             	xor    rsi,rsi
    4099:	4c 89 e2             	mov    rdx,r12
    409c:	48 b8 00 00 00 00 00 	movabs rax,0x0
    40a3:	00 00 00 
			409e: R_X86_64_64	do_callback
    40a6:	48 89 9c 24 e8 04 00 	mov    QWORD PTR [rsp+0x4e8],rbx
    40ad:	00 
    40ae:	48 89 bc 24 f0 04 00 	mov    QWORD PTR [rsp+0x4f0],rdi
    40b5:	00 
    40b6:	4c 89 ac 24 f8 04 00 	mov    QWORD PTR [rsp+0x4f8],r13
    40bd:	00 
    40be:	ff d0                	call   rax
    40c0:	48 8b 9c 24 e8 04 00 	mov    rbx,QWORD PTR [rsp+0x4e8]
    40c7:	00 
    40c8:	4c 8b ac 24 f8 04 00 	mov    r13,QWORD PTR [rsp+0x4f8]
    40cf:	00 
    40d0:	48 89 c6             	mov    rsi,rax
    40d3:	48 89 b4 24 e8 04 00 	mov    QWORD PTR [rsp+0x4e8],rsi
    40da:	00 
    40db:	49 8b 7d 08          	mov    rdi,QWORD PTR [r13+0x8]
    40df:	48 89 d1             	mov    rcx,rdx
    40e2:	48 83 c1 e0          	add    rcx,0xffffffffffffffe0
    40e6:	48 89 5a e0          	mov    QWORD PTR [rdx-0x20],rbx
    40ea:	4c 89 7a e8          	mov    QWORD PTR [rdx-0x18],r15
    40ee:	be 01 00 00 00       	mov    esi,0x1
    40f3:	48 89 72 f0          	mov    QWORD PTR [rdx-0x10],rsi
    40f7:	be 01 00 00 00       	mov    esi,0x1
    40fc:	48 89 72 f8          	mov    QWORD PTR [rdx-0x8],rsi
    4100:	48 31 f6             	xor    rsi,rsi
    4103:	4c 89 e2             	mov    rdx,r12
    4106:	48 b8 00 00 00 00 00 	movabs rax,0x0
    410d:	00 00 00 
			4108: R_X86_64_64	do_callback
    4110:	48 89 9c 24 f0 04 00 	mov    QWORD PTR [rsp+0x4f0],rbx
    4117:	00 
    4118:	48 89 bc 24 f8 04 00 	mov    QWORD PTR [rsp+0x4f8],rdi
    411f:	00 
    4120:	4c 89 ac 24 00 05 00 	mov    QWORD PTR [rsp+0x500],r13
    4127:	00 
    4128:	ff d0                	call   rax
    412a:	48 8b 9c 24 f0 04 00 	mov    rbx,QWORD PTR [rsp+0x4f0]
    4131:	00 
    4132:	4c 8b ac 24 00 05 00 	mov    r13,QWORD PTR [rsp+0x500]
    4139:	00 
    413a:	48 89 c6             	mov    rsi,rax
    413d:	48 89 b4 24 f0 04 00 	mov    QWORD PTR [rsp+0x4f0],rsi
    4144:	00 
    4145:	49 8b 7d 08          	mov    rdi,QWORD PTR [r13+0x8]
    4149:	48 89 d1             	mov    rcx,rdx
    414c:	48 83 c1 e0          	add    rcx,0xffffffffffffffe0
    4150:	48 89 5a e0          	mov    QWORD PTR [rdx-0x20],rbx
    4154:	4c 89 7a e8          	mov    QWORD PTR [rdx-0x18],r15
    4158:	be 01 00 00 00       	mov    esi,0x1
    415d:	48 89 72 f0          	mov    QWORD PTR [rdx-0x10],rsi
    4161:	be 01 00 00 00       	mov    esi,0x1
    4166:	48 89 72 f8          	mov    QWORD PTR [rdx-0x8],rsi
    416a:	48 31 f6             	xor    rsi,rsi
    416d:	4c 89 e2             	mov    rdx,r12
    4170:	48 b8 00 00 00 00 00 	movabs rax,0x0
    4177:	00 00 00 
			4172: R_X86_64_64	do_callback
    417a:	48 89 9c 24 f8 04 00 	mov    QWORD PTR [rsp+0x4f8],rbx
    4181:	00 
    4182:	48 89 bc 24 00 05 00 	mov    QWORD PTR [rsp+0x500],rdi
    4189:	00 
    418a:	4c 89 ac 24 08 05 00 	mov    QWORD PTR [rsp+0x508],r13
    4191:	00 
    4192:	ff d0                	call   rax
    4194:	48 8b 9c 24 f8 04 00 	mov    rbx,QWORD PTR [rsp+0x4f8]
    419b:	00 
    419c:	4c 8b ac 24 08 05 00 	mov    r13,QWORD PTR [rsp+0x508]
    41a3:	00 
    41a4:	48 89 c6             	mov    rsi,rax
    41a7:	48 89 b4 24 f8 04 00 	mov    QWORD PTR [rsp+0x4f8],rsi
    41ae:	00 
    41af:	49 8b 7d 08          	mov    rdi,QWORD PTR [r13+0x8]
    41b3:	48 89 d1             	mov    rcx,rdx
    41b6:	48 83 c1 e0          	add    rcx,0xffffffffffffffe0
    41ba:	48 89 5a e0          	mov    QWORD PTR [rdx-0x20],rbx
    41be:	4c 89 7a e8          	mov    QWORD PTR [rdx-0x18],r15
    41c2:	be 01 00 00 00       	mov    esi,0x1
    41c7:	48 89 72 f0          	mov    QWORD PTR [rdx-0x10],rsi
    41cb:	be 01 00 00 00       	mov    esi,0x1
    41d0:	48 89 72 f8          	mov    QWORD PTR [rdx-0x8],rsi
    41d4:	48 31 f6             	xor    rsi,rsi
    41d7:	4c 89 e2             	mov    rdx,r12
    41da:	48 b8 00 00 00 00 00 	movabs rax,0x0
    41e1:	00 00 00 
			41dc: R_X86_64_64	do_callback
    41e4:	48 89 9c 24 00 05 00 	mov    QWORD PTR [rsp+0x500],rbx
    41eb:	00 
    41ec:	48 89 bc 24 08 05 00 	mov    QWORD PTR [rsp+0x508],rdi
    41f3:	00 
    41f4:	4c 89 ac 24 10 05 00 	mov    QWORD PTR [rsp+0x510],r13
    41fb:	00 
    41fc:	ff d0                	call   rax
    41fe:	48 8b 9c 24 00 05 00 	mov    rbx,QWORD PTR [rsp+0x500]
    4205:	00 
    4206:	4c 8b ac 24 10 05 00 	mov    r13,QWORD PTR [rsp+0x510]
    420d:	00 
    420e:	48 89 c6             	mov    rsi,rax
    4211:	48 89 b4 24 00 05 00 	mov    QWORD PTR [rsp+0x500],rsi
    4218:	00 
    4219:	49 8b 7d 08          	mov    rdi,QWORD PTR [r13+0x8]
    421d:	48 89 d1             	mov    rcx,rdx
    4220:	48 83 c1 e0          	add    rcx,0xffffffffffffffe0
    4224:	48 89 5a e0          	mov    QWORD PTR [rdx-0x20],rbx
    4228:	4c 89 7a e8          	mov    QWORD PTR [rdx-0x18],r15
    422c:	be 01 00 00 00       	mov    esi,0x1
    4231:	48 89 72 f0          	mov    QWORD PTR [rdx-0x10],rsi
    4235:	be 01 00 00 00       	mov    esi,0x1
    423a:	48 89 72 f8          	mov    QWORD PTR [rdx-0x8],rsi
    423e:	48 31 f6             	xor    rsi,rsi
    4241:	4c 89 e2             	mov    rdx,r12
    4244:	48 b8 00 00 00 00 00 	movabs rax,0x0
    424b:	00 00 00 
			4246: R_X86_64_64	do_callback
    424e:	48 89 9c 24 08 05 00 	mov    QWORD PTR [rsp+0x508],rbx
    4255:	00 
    4256:	48 89 bc 24 10 05 00 	mov    QWORD PTR [rsp+0x510],rdi
    425d:	00 
    425e:	4c 89 ac 24 18 05 00 	mov    QWORD PTR [rsp+0x518],r13
    4265:	00 
    4266:	ff d0                	call   rax
    4268:	48 8b 9c 24 08 05 00 	mov    rbx,QWORD PTR [rsp+0x508]
    426f:	00 
    4270:	4c 8b ac 24 18 05 00 	mov    r13,QWORD PTR [rsp+0x518]
    4277:	00 
    4278:	48 89 c6             	mov    rsi,rax
    427b:	48 89 b4 24 08 05 00 	mov    QWORD PTR [rsp+0x508],rsi
    4282:	00 
    4283:	49 8b 7d 08          	mov    rdi,QWORD PTR [r13+0x8]
    4287:	48 89 d1             	mov    rcx,rdx
    428a:	48 83 c1 e0          	add    rcx,0xffffffffffffffe0
    428e:	48 89 5a e0          	mov    QWORD PTR [rdx-0x20],rbx
    4292:	4c 89 7a e8          	mov    QWORD PTR [rdx-0x18],r15
    4296:	be 01 00 00 00       	mov    esi,0x1
    429b:	48 89 72 f0          	mov    QWORD PTR [rdx-0x10],rsi
    429f:	be 01 00 00 00       	mov    esi,0x1
    42a4:	48 89 72 f8          	mov    QWORD PTR [rdx-0x8],rsi
    42a8:	48 31 f6             	xor    rsi,rsi
    42ab:	4c 89 e2             	mov    rdx,r12
    42ae:	48 b8 00 00 00 00 00 	movabs rax,0x0
    42b5:	00 00 00 
			42b0: R_X86_64_64	do_callback
    42b8:	48 89 9c 24 10 05 00 	mov    QWORD PTR [rsp+0x510],rbx
    42bf:	00 
    42c0:	48 89 bc 24 18 05 00 	mov    QWORD PTR [rsp+0x518],rdi
    42c7:	00 
    42c8:	4c 89 ac 24 20 05 00 	mov    QWORD PTR [rsp+0x520],r13
    42cf:	00 
    42d0:	ff d0                	call   rax
    42d2:	48 8b 9c 24 10 05 00 	mov    rbx,QWORD PTR [rsp+0x510]
    42d9:	00 
    42da:	4c 8b ac 24 20 05 00 	mov    r13,QWORD PTR [rsp+0x520]
    42e1:	00 
    42e2:	48 89 c6             	mov    rsi,rax
    42e5:	48 89 b4 24 10 05 00 	mov    QWORD PTR [rsp+0x510],rsi
    42ec:	00 
    42ed:	49 8b 7d 08          	mov    rdi,QWORD PTR [r13+0x8]
    42f1:	48 89 d1             	mov    rcx,rdx
    42f4:	48 83 c1 e0          	add    rcx,0xffffffffffffffe0
    42f8:	48 89 5a e0          	mov    QWORD PTR [rdx-0x20],rbx
    42fc:	4c 89 7a e8          	mov    QWORD PTR [rdx-0x18],r15
    4300:	be 01 00 00 00       	mov    esi,0x1
    4305:	48 89 72 f0          	mov    QWORD PTR [rdx-0x10],rsi
    4309:	be 01 00 00 00       	mov    esi,0x1
    430e:	48 89 72 f8          	mov    QWORD PTR [rdx-0x8],rsi
    4312:	48 31 f6             	xor    rsi,rsi
    4315:	4c 89 e2             	mov    rdx,r12
    4318:	48 b8 00 00 00 00 00 	movabs rax,0x0
    431f:	00 00 00 
			431a: R_X86_64_64	do_callback
    4322:	48 89 9c 24 18 05 00 	mov    QWORD PTR [rsp+0x518],rbx
    4329:	00 
    432a:	48 89 bc 24 20 05 00 	mov    QWORD PTR [rsp+0x520],rdi
    4331:	00 
    4332:	4c 89 ac 24 28 05 00 	mov    QWORD PTR [rsp+0x528],r13
    4339:	00 
    433a:	ff d0                	call   rax
    433c:	48 8b 9c 24 18 05 00 	mov    rbx,QWORD PTR [rsp+0x518]
    4343:	00 
    4344:	4c 8b ac 24 28 05 00 	mov    r13,QWORD PTR [rsp+0x528]
    434b:	00 
    434c:	48 89 c6             	mov    rsi,rax
    434f:	48 89 b4 24 18 05 00 	mov    QWORD PTR [rsp+0x518],rsi
    4356:	00 
    4357:	49 8b 7d 08          	mov    rdi,QWORD PTR [r13+0x8]
    435b:	48 89 d1             	mov    rcx,rdx
    435e:	48 83 c1 e0          	add    rcx,0xffffffffffffffe0
    4362:	48 89 5a e0          	mov    QWORD PTR [rdx-0x20],rbx
    4366:	4c 89 7a e8          	mov    QWORD PTR [rdx-0x18],r15
    436a:	be 01 00 00 00       	mov    esi,0x1
    436f:	48 89 72 f0          	mov    QWORD PTR [rdx-0x10],rsi
    4373:	be 01 00 00 00       	mov    esi,0x1
    4378:	48 89 72 f8          	mov    QWORD PTR [rdx-0x8],rsi
    437c:	48 31 f6             	xor    rsi,rsi
    437f:	4c 89 e2             	mov    rdx,r12
    4382:	48 b8 00 00 00 00 00 	movabs rax,0x0
    4389:	00 00 00 
			4384: R_X86_64_64	do_callback
    438c:	48 89 9c 24 20 05 00 	mov    QWORD PTR [rsp+0x520],rbx
    4393:	00 
    4394:	48 89 bc 24 28 05 00 	mov    QWORD PTR [rsp+0x528],rdi
    439b:	00 
    439c:	4c 89 ac 24 30 05 00 	mov    QWORD PTR [rsp+0x530],r13
    43a3:	00 
    43a4:	ff d0                	call   rax
    43a6:	48 8b 9c 24 20 05 00 	mov    rbx,QWORD PTR [rsp+0x520]
    43ad:	00 
    43ae:	4c 8b ac 24 30 05 00 	mov    r13,QWORD PTR [rsp+0x530]
    43b5:	00 
    43b6:	48 89 c6             	mov    rsi,rax
    43b9:	48 89 b4 24 20 05 00 	mov    QWORD PTR [rsp+0x520],rsi
    43c0:	00 
    43c1:	49 8b 7d 08          	mov    rdi,QWORD PTR [r13+0x8]
    43c5:	48 89 d1             	mov    rcx,rdx
    43c8:	48 83 c1 e0          	add    rcx,0xffffffffffffffe0
    43cc:	48 89 5a e0          	mov    QWORD PTR [rdx-0x20],rbx
    43d0:	4c 89 7a e8          	mov    QWORD PTR [rdx-0x18],r15
    43d4:	be 01 00 00 00       	mov    esi,0x1
    43d9:	48 89 72 f0          	mov    QWORD PTR [rdx-0x10],rsi
    43dd:	be 01 00 00 00       	mov    esi,0x1
    43e2:	48 89 72 f8          	mov    QWORD PTR [rdx-0x8],rsi
    43e6:	48 31 f6             	xor    rsi,rsi
    43e9:	4c 89 e2             	mov    rdx,r12
    43ec:	48 b8 00 00 00 00 00 	movabs rax,0x0
    43f3:	00 00 00 
			43ee: R_X86_64_64	do_callback
    43f6:	48 89 9c 24 28 05 00 	mov    QWORD PTR [rsp+0x528],rbx
    43fd:	00 
    43fe:	48 89 bc 24 30 05 00 	mov    QWORD PTR [rsp+0x530],rdi
    4405:	00 
    4406:	4c 89 ac 24 38 05 00 	mov    QWORD PTR [rsp+0x538],r13
    440d:	00 
    440e:	ff d0                	call   rax
    4410:	48 8b 9c 24 28 05 00 	mov    rbx,QWORD PTR [rsp+0x528]
    4417:	00 
    4418:	4c 8b ac 24 38 05 00 	mov    r13,QWORD PTR [rsp+0x538]
    441f:	00 
    4420:	48 89 c6             	mov    rsi,rax
    4423:	48 89 b4 24 28 05 00 	mov    QWORD PTR [rsp+0x528],rsi
    442a:	00 
    442b:	49 8b 7d 08          	mov    rdi,QWORD PTR [r13+0x8]
    442f:	48 89 d1             	mov    rcx,rdx
    4432:	48 83 c1 e0          	add    rcx,0xffffffffffffffe0
    4436:	48 89 5a e0          	mov    QWORD PTR [rdx-0x20],rbx
    443a:	4c 89 7a e8          	mov    QWORD PTR [rdx-0x18],r15
    443e:	be 01 00 00 00       	mov    esi,0x1
    4443:	48 89 72 f0          	mov    QWORD PTR [rdx-0x10],rsi
    4447:	be 01 00 00 00       	mov    esi,0x1
    444c:	48 89 72 f8          	mov    QWORD PTR [rdx-0x8],rsi
    4450:	48 31 f6             	xor    rsi,rsi
    4453:	4c 89 e2             	mov    rdx,r12
    4456:	48 b8 00 00 00 00 00 	movabs rax,0x0
    445d:	00 00 00 
			4458: R_X86_64_64	do_callback
    4460:	48 89 9c 24 30 05 00 	mov    QWORD PTR [rsp+0x530],rbx
    4467:	00 
    4468:	48 89 bc 24 38 05 00 	mov    QWORD PTR [rsp+0x538],rdi
    446f:	00 
    4470:	4c 89 ac 24 40 05 00 	mov    QWORD PTR [rsp+0x540],r13
    4477:	00 
    4478:	ff d0                	call   rax
    447a:	48 8b 9c 24 30 05 00 	mov    rbx,QWORD PTR [rsp+0x530]
    4481:	00 
    4482:	4c 8b ac 24 40 05 00 	mov    r13,QWORD PTR [rsp+0x540]
    4489:	00 
    448a:	48 89 c6             	mov    rsi,rax
    448d:	48 89 b4 24 30 05 00 	mov    QWORD PTR [rsp+0x530],rsi
    4494:	00 
    4495:	49 8b 7d 08          	mov    rdi,QWORD PTR [r13+0x8]
    4499:	48 89 d1             	mov    rcx,rdx
    449c:	48 83 c1 e0          	add    rcx,0xffffffffffffffe0
    44a0:	48 89 5a e0          	mov    QWORD PTR [rdx-0x20],rbx
    44a4:	4c 89 7a e8          	mov    QWORD PTR [rdx-0x18],r15
    44a8:	be 01 00 00 00       	mov    esi,0x1
    44ad:	48 89 72 f0          	mov    QWORD PTR [rdx-0x10],rsi
    44b1:	be 01 00 00 00       	mov    esi,0x1
    44b6:	48 89 72 f8          	mov    QWORD PTR [rdx-0x8],rsi
    44ba:	48 31 f6             	xor    rsi,rsi
    44bd:	4c 89 e2             	mov    rdx,r12
    44c0:	48 b8 00 00 00 00 00 	movabs rax,0x0
    44c7:	00 00 00 
			44c2: R_X86_64_64	do_callback
    44ca:	48 89 9c 24 38 05 00 	mov    QWORD PTR [rsp+0x538],rbx
    44d1:	00 
    44d2:	48 89 bc 24 40 05 00 	mov    QWORD PTR [rsp+0x540],rdi
    44d9:	00 
    44da:	4c 89 ac 24 48 05 00 	mov    QWORD PTR [rsp+0x548],r13
    44e1:	00 
    44e2:	ff d0                	call   rax
    44e4:	48 8b 9c 24 38 05 00 	mov    rbx,QWORD PTR [rsp+0x538]
    44eb:	00 
    44ec:	4c 8b ac 24 48 05 00 	mov    r13,QWORD PTR [rsp+0x548]
    44f3:	00 
    44f4:	48 89 c6             	mov    rsi,rax
    44f7:	48 89 b4 24 38 05 00 	mov    QWORD PTR [rsp+0x538],rsi
    44fe:	00 
    44ff:	49 8b 7d 08          	mov    rdi,QWORD PTR [r13+0x8]
    4503:	48 89 d1             	mov    rcx,rdx
    4506:	48 83 c1 e0          	add    rcx,0xffffffffffffffe0
    450a:	48 89 5a e0          	mov    QWORD PTR [rdx-0x20],rbx
    450e:	4c 89 7a e8          	mov    QWORD PTR [rdx-0x18],r15
    4512:	be 01 00 00 00       	mov    esi,0x1
    4517:	48 89 72 f0          	mov    QWORD PTR [rdx-0x10],rsi
    451b:	be 01 00 00 00       	mov    esi,0x1
    4520:	48 89 72 f8          	mov    QWORD PTR [rdx-0x8],rsi
    4524:	48 31 f6             	xor    rsi,rsi
    4527:	4c 89 e2             	mov    rdx,r12
    452a:	48 b8 00 00 00 00 00 	movabs rax,0x0
    4531:	00 00 00 
			452c: R_X86_64_64	do_callback
    4534:	48 89 9c 24 40 05 00 	mov    QWORD PTR [rsp+0x540],rbx
    453b:	00 
    453c:	48 89 bc 24 48 05 00 	mov    QWORD PTR [rsp+0x548],rdi
    4543:	00 
    4544:	4c 89 ac 24 50 05 00 	mov    QWORD PTR [rsp+0x550],r13
    454b:	00 
    454c:	ff d0                	call   rax
    454e:	48 8b 9c 24 40 05 00 	mov    rbx,QWORD PTR [rsp+0x540]
    4555:	00 
    4556:	4c 8b ac 24 50 05 00 	mov    r13,QWORD PTR [rsp+0x550]
    455d:	00 
    455e:	48 89 c6             	mov    rsi,rax
    4561:	48 89 b4 24 40 05 00 	mov    QWORD PTR [rsp+0x540],rsi
    4568:	00 
    4569:	49 8b 7d 08          	mov    rdi,QWORD PTR [r13+0x8]
    456d:	48 89 d1             	mov    rcx,rdx
    4570:	48 83 c1 e0          	add    rcx,0xffffffffffffffe0
    4574:	48 89 5a e0          	mov    QWORD PTR [rdx-0x20],rbx
    4578:	4c 89 7a e8          	mov    QWORD PTR [rdx-0x18],r15
    457c:	be 01 00 00 00       	mov    esi,0x1
    4581:	48 89 72 f0          	mov    QWORD PTR [rdx-0x10],rsi
    4585:	be 01 00 00 00       	mov    esi,0x1
    458a:	48 89 72 f8          	mov    QWORD PTR [rdx-0x8],rsi
    458e:	48 31 f6             	xor    rsi,rsi
    4591:	4c 89 e2             	mov    rdx,r12
    4594:	48 b8 00 00 00 00 00 	movabs rax,0x0
    459b:	00 00 00 
			4596: R_X86_64_64	do_callback
    459e:	48 89 9c 24 48 05 00 	mov    QWORD PTR [rsp+0x548],rbx
    45a5:	00 
    45a6:	48 89 bc 24 50 05 00 	mov    QWORD PTR [rsp+0x550],rdi
    45ad:	00 
    45ae:	4c 89 ac 24 58 05 00 	mov    QWORD PTR [rsp+0x558],r13
    45b5:	00 
    45b6:	ff d0                	call   rax
    45b8:	48 8b 9c 24 48 05 00 	mov    rbx,QWORD PTR [rsp+0x548]
    45bf:	00 
    45c0:	4c 8b ac 24 58 05 00 	mov    r13,QWORD PTR [rsp+0x558]
    45c7:	00 
    45c8:	48 89 c6             	mov    rsi,rax
    45cb:	48 89 b4 24 48 05 00 	mov    QWORD PTR [rsp+0x548],rsi
    45d2:	00 
    45d3:	49 8b 7d 08          	mov    rdi,QWORD PTR [r13+0x8]
    45d7:	48 89 d1             	mov    rcx,rdx
    45da:	48 83 c1 e0          	add    rcx,0xffffffffffffffe0
    45de:	48 89 5a e0          	mov    QWORD PTR [rdx-0x20],rbx
    45e2:	4c 89 7a e8          	mov    QWORD PTR [rdx-0x18],r15
    45e6:	be 01 00 00 00       	mov    esi,0x1
    45eb:	48 89 72 f0          	mov    QWORD PTR [rdx-0x10],rsi
    45ef:	be 01 00 00 00       	mov    esi,0x1
    45f4:	48 89 72 f8          	mov    QWORD PTR [rdx-0x8],rsi
    45f8:	48 31 f6             	xor    rsi,rsi
    45fb:	4c 89 e2             	mov    rdx,r12
    45fe:	48 b8 00 00 00 00 00 	movabs rax,0x0
    4605:	00 00 00 
			4600: R_X86_64_64	do_callback
    4608:	48 89 9c 24 50 05 00 	mov    QWORD PTR [rsp+0x550],rbx
    460f:	00 
    4610:	48 89 bc 24 58 05 00 	mov    QWORD PTR [rsp+0x558],rdi
    4617:	00 
    4618:	4c 89 ac 24 60 05 00 	mov    QWORD PTR [rsp+0x560],r13
    461f:	00 
    4620:	ff d0                	call   rax
    4622:	48 8b 9c 24 50 05 00 	mov    rbx,QWORD PTR [rsp+0x550]
    4629:	00 
    462a:	4c 8b ac 24 60 05 00 	mov    r13,QWORD PTR [rsp+0x560]
    4631:	00 
    4632:	48 89 c6             	mov    rsi,rax
    4635:	48 89 b4 24 50 05 00 	mov    QWORD PTR [rsp+0x550],rsi
    463c:	00 
    463d:	49 8b 7d 08          	mov    rdi,QWORD PTR [r13+0x8]
    4641:	48 89 d1             	mov    rcx,rdx
    4644:	48 83 c1 e0          	add    rcx,0xffffffffffffffe0
    4648:	48 89 5a e0          	mov    QWORD PTR [rdx-0x20],rbx
    464c:	4c 89 7a e8          	mov    QWORD PTR [rdx-0x18],r15
    4650:	be 01 00 00 00       	mov    esi,0x1
    4655:	48 89 72 f0          	mov    QWORD PTR [rdx-0x10],rsi
    4659:	be 01 00 00 00       	mov    esi,0x1
    465e:	48 89 72 f8          	mov    QWORD PTR [rdx-0x8],rsi
    4662:	48 31 f6             	xor    rsi,rsi
    4665:	4c 89 e2             	mov    rdx,r12
    4668:	48 b8 00 00 00 00 00 	movabs rax,0x0
    466f:	00 00 00 
			466a: R_X86_64_64	do_callback
    4672:	48 89 9c 24 58 05 00 	mov    QWORD PTR [rsp+0x558],rbx
    4679:	00 
    467a:	48 89 bc 24 60 05 00 	mov    QWORD PTR [rsp+0x560],rdi
    4681:	00 
    4682:	4c 89 ac 24 68 05 00 	mov    QWORD PTR [rsp+0x568],r13
    4689:	00 
    468a:	ff d0                	call   rax
    468c:	48 8b 9c 24 58 05 00 	mov    rbx,QWORD PTR [rsp+0x558]
    4693:	00 
    4694:	4c 8b ac 24 68 05 00 	mov    r13,QWORD PTR [rsp+0x568]
    469b:	00 
    469c:	48 89 c6             	mov    rsi,rax
    469f:	48 89 b4 24 58 05 00 	mov    QWORD PTR [rsp+0x558],rsi
    46a6:	00 
    46a7:	49 8b 7d 08          	mov    rdi,QWORD PTR [r13+0x8]
    46ab:	48 89 d1             	mov    rcx,rdx
    46ae:	48 83 c1 e0          	add    rcx,0xffffffffffffffe0
    46b2:	48 89 5a e0          	mov    QWORD PTR [rdx-0x20],rbx
    46b6:	4c 89 7a e8          	mov    QWORD PTR [rdx-0x18],r15
    46ba:	be 01 00 00 00       	mov    esi,0x1
    46bf:	48 89 72 f0          	mov    QWORD PTR [rdx-0x10],rsi
    46c3:	be 01 00 00 00       	mov    esi,0x1
    46c8:	48 89 72 f8          	mov    QWORD PTR [rdx-0x8],rsi
    46cc:	48 31 f6             	xor    rsi,rsi
    46cf:	4c 89 e2             	mov    rdx,r12
    46d2:	48 b8 00 00 00 00 00 	movabs rax,0x0
    46d9:	00 00 00 
			46d4: R_X86_64_64	do_callback
    46dc:	48 89 9c 24 60 05 00 	mov    QWORD PTR [rsp+0x560],rbx
    46e3:	00 
    46e4:	48 89 bc 24 68 05 00 	mov    QWORD PTR [rsp+0x568],rdi
    46eb:	00 
    46ec:	4c 89 ac 24 70 05 00 	mov    QWORD PTR [rsp+0x570],r13
    46f3:	00 
    46f4:	ff d0                	call   rax
    46f6:	48 8b 9c 24 60 05 00 	mov    rbx,QWORD PTR [rsp+0x560]
    46fd:	00 
    46fe:	4c 8b ac 24 70 05 00 	mov    r13,QWORD PTR [rsp+0x570]
    4705:	00 
    4706:	48 89 c6             	mov    rsi,rax
    4709:	48 89 b4 24 60 05 00 	mov    QWORD PTR [rsp+0x560],rsi
    4710:	00 
    4711:	49 8b 7d 08          	mov    rdi,QWORD PTR [r13+0x8]
    4715:	48 89 d1             	mov    rcx,rdx
    4718:	48 83 c1 e0          	add    rcx,0xffffffffffffffe0
    471c:	48 89 5a e0          	mov    QWORD PTR [rdx-0x20],rbx
    4720:	4c 89 7a e8          	mov    QWORD PTR [rdx-0x18],r15
    4724:	be 01 00 00 00       	mov    esi,0x1
    4729:	48 89 72 f0          	mov    QWORD PTR [rdx-0x10],rsi
    472d:	be 01 00 00 00       	mov    esi,0x1
    4732:	48 89 72 f8          	mov    QWORD PTR [rdx-0x8],rsi
    4736:	48 31 f6             	xor    rsi,rsi
    4739:	4c 89 e2             	mov    rdx,r12
    473c:	48 b8 00 00 00 00 00 	movabs rax,0x0
    4743:	00 00 00 
			473e: R_X86_64_64	do_callback
    4746:	48 89 9c 24 68 05 00 	mov    QWORD PTR [rsp+0x568],rbx
    474d:	00 
    474e:	48 89 bc 24 70 05 00 	mov    QWORD PTR [rsp+0x570],rdi
    4755:	00 
    4756:	4c 89 ac 24 78 05 00 	mov    QWORD PTR [rsp+0x578],r13
    475d:	00 
    475e:	ff d0                	call   rax
    4760:	48 8b 9c 24 68 05 00 	mov    rbx,QWORD PTR [rsp+0x568]
    4767:	00 
    4768:	4c 8b ac 24 78 05 00 	mov    r13,QWORD PTR [rsp+0x578]
    476f:	00 
    4770:	48 89 c6             	mov    rsi,rax
    4773:	48 89 b4 24 68 05 00 	mov    QWORD PTR [rsp+0x568],rsi
    477a:	00 
    477b:	49 8b 7d 08          	mov    rdi,QWORD PTR [r13+0x8]
    477f:	48 89 d1             	mov    rcx,rdx
    4782:	48 83 c1 e0          	add    rcx,0xffffffffffffffe0
    4786:	48 89 5a e0          	mov    QWORD PTR [rdx-0x20],rbx
    478a:	4c 89 7a e8          	mov    QWORD PTR [rdx-0x18],r15
    478e:	be 01 00 00 00       	mov    esi,0x1
    4793:	48 89 72 f0          	mov    QWORD PTR [rdx-0x10],rsi
    4797:	be 01 00 00 00       	mov    esi,0x1
    479c:	48 89 72 f8          	mov    QWORD PTR [rdx-0x8],rsi
    47a0:	48 31 f6             	xor    rsi,rsi
    47a3:	4c 89 e2             	mov    rdx,r12
    47a6:	48 b8 00 00 00 00 00 	movabs rax,0x0
    47ad:	00 00 00 
			47a8: R_X86_64_64	do_callback
    47b0:	48 89 9c 24 70 05 00 	mov    QWORD PTR [rsp+0x570],rbx
    47b7:	00 
    47b8:	48 89 bc 24 78 05 00 	mov    QWORD PTR [rsp+0x578],rdi
    47bf:	00 
    47c0:	4c 89 ac 24 80 05 00 	mov    QWORD PTR [rsp+0x580],r13
    47c7:	00 
    47c8:	ff d0                	call   rax
    47ca:	48 8b 9c 24 70 05 00 	mov    rbx,QWORD PTR [rsp+0x570]
    47d1:	00 
    47d2:	4c 8b ac 24 80 05 00 	mov    r13,QWORD PTR [rsp+0x580]
    47d9:	00 
    47da:	48 89 c6             	mov    rsi,rax
    47dd:	48 89 b4 24 70 05 00 	mov    QWORD PTR [rsp+0x570],rsi
    47e4:	00 
    47e5:	49 8b 7d 08          	mov    rdi,QWORD PTR [r13+0x8]
    47e9:	48 89 d1             	mov    rcx,rdx
    47ec:	48 83 c1 e0          	add    rcx,0xffffffffffffffe0
    47f0:	48 89 5a e0          	mov    QWORD PTR [rdx-0x20],rbx
    47f4:	4c 89 7a e8          	mov    QWORD PTR [rdx-0x18],r15
    47f8:	be 01 00 00 00       	mov    esi,0x1
    47fd:	48 89 72 f0          	mov    QWORD PTR [rdx-0x10],rsi
    4801:	be 01 00 00 00       	mov    esi,0x1
    4806:	48 89 72 f8          	mov    QWORD PTR [rdx-0x8],rsi
    480a:	48 31 f6             	xor    rsi,rsi
    480d:	4c 89 e2             	mov    rdx,r12
    4810:	48 b8 00 00 00 00 00 	movabs rax,0x0
    4817:	00 00 00 
			4812: R_X86_64_64	do_callback
    481a:	48 89 9c 24 78 05 00 	mov    QWORD PTR [rsp+0x578],rbx
    4821:	00 
    4822:	48 89 bc 24 80 05 00 	mov    QWORD PTR [rsp+0x580],rdi
    4829:	00 
    482a:	4c 89 ac 24 88 05 00 	mov    QWORD PTR [rsp+0x588],r13
    4831:	00 
    4832:	ff d0                	call   rax
    4834:	48 8b 9c 24 78 05 00 	mov    rbx,QWORD PTR [rsp+0x578]
    483b:	00 
    483c:	4c 8b ac 24 88 05 00 	mov    r13,QWORD PTR [rsp+0x588]
    4843:	00 
    4844:	48 89 c6             	mov    rsi,rax
    4847:	48 89 b4 24 78 05 00 	mov    QWORD PTR [rsp+0x578],rsi
    484e:	00 
    484f:	49 8b 7d 08          	mov    rdi,QWORD PTR [r13+0x8]
    4853:	48 89 d1             	mov    rcx,rdx
    4856:	48 83 c1 e0          	add    rcx,0xffffffffffffffe0
    485a:	48 89 5a e0          	mov    QWORD PTR [rdx-0x20],rbx
    485e:	4c 89 7a e8          	mov    QWORD PTR [rdx-0x18],r15
    4862:	be 01 00 00 00       	mov    esi,0x1
    4867:	48 89 72 f0          	mov    QWORD PTR [rdx-0x10],rsi
    486b:	be 01 00 00 00       	mov    esi,0x1
    4870:	48 89 72 f8          	mov    QWORD PTR [rdx-0x8],rsi
    4874:	48 31 f6             	xor    rsi,rsi
    4877:	4c 89 e2             	mov    rdx,r12
    487a:	48 b8 00 00 00 00 00 	movabs rax,0x0
    4881:	00 00 00 
			487c: R_X86_64_64	do_callback
    4884:	48 89 9c 24 80 05 00 	mov    QWORD PTR [rsp+0x580],rbx
    488b:	00 
    488c:	48 89 bc 24 88 05 00 	mov    QWORD PTR [rsp+0x588],rdi
    4893:	00 
    4894:	4c 89 ac 24 90 05 00 	mov    QWORD PTR [rsp+0x590],r13
    489b:	00 
    489c:	ff d0                	call   rax
    489e:	48 8b 9c 24 80 05 00 	mov    rbx,QWORD PTR [rsp+0x580]
    48a5:	00 
    48a6:	4c 8b ac 24 90 05 00 	mov    r13,QWORD PTR [rsp+0x590]
    48ad:	00 
    48ae:	48 89 c6             	mov    rsi,rax
    48b1:	48 89 b4 24 80 05 00 	mov    QWORD PTR [rsp+0x580],rsi
    48b8:	00 
    48b9:	49 8b 7d 08          	mov    rdi,QWORD PTR [r13+0x8]
    48bd:	48 89 d1             	mov    rcx,rdx
    48c0:	48 83 c1 e0          	add    rcx,0xffffffffffffffe0
    48c4:	48 89 5a e0          	mov    QWORD PTR [rdx-0x20],rbx
    48c8:	4c 89 7a e8          	mov    QWORD PTR [rdx-0x18],r15
    48cc:	be 01 00 00 00       	mov    esi,0x1
    48d1:	48 89 72 f0          	mov    QWORD PTR [rdx-0x10],rsi
    48d5:	be 01 00 00 00       	mov    esi,0x1
    48da:	48 89 72 f8          	mov    QWORD PTR [rdx-0x8],rsi
    48de:	48 31 f6             	xor    rsi,rsi
    48e1:	4c 89 e2             	mov    rdx,r12
    48e4:	48 b8 00 00 00 00 00 	movabs rax,0x0
    48eb:	00 00 00 
			48e6: R_X86_64_64	do_callback
    48ee:	48 89 9c 24 88 05 00 	mov    QWORD PTR [rsp+0x588],rbx
    48f5:	00 
    48f6:	48 89 bc 24 90 05 00 	mov    QWORD PTR [rsp+0x590],rdi
    48fd:	00 
    48fe:	4c 89 ac 24 98 05 00 	mov    QWORD PTR [rsp+0x598],r13
    4905:	00 
    4906:	ff d0                	call   rax
    4908:	48 8b 9c 24 88 05 00 	mov    rbx,QWORD PTR [rsp+0x588]
    490f:	00 
    4910:	4c 8b ac 24 98 05 00 	mov    r13,QWORD PTR [rsp+0x598]
    4917:	00 
    4918:	48 89 c6             	mov    rsi,rax
    491b:	48 89 b4 24 88 05 00 	mov    QWORD PTR [rsp+0x588],rsi
    4922:	00 
    4923:	49 8b 7d 08          	mov    rdi,QWORD PTR [r13+0x8]
    4927:	48 89 d1             	mov    rcx,rdx
    492a:	48 83 c1 e0          	add    rcx,0xffffffffffffffe0
    492e:	48 89 5a e0          	mov    QWORD PTR [rdx-0x20],rbx
    4932:	4c 89 7a e8          	mov    QWORD PTR [rdx-0x18],r15
    4936:	be 01 00 00 00       	mov    esi,0x1
    493b:	48 89 72 f0          	mov    QWORD PTR [rdx-0x10],rsi
    493f:	be 01 00 00 00       	mov    esi,0x1
    4944:	48 89 72 f8          	mov    QWORD PTR [rdx-0x8],rsi
    4948:	48 31 f6             	xor    rsi,rsi
    494b:	4c 89 e2             	mov    rdx,r12
    494e:	48 b8 00 00 00 00 00 	movabs rax,0x0
    4955:	00 00 00 
			4950: R_X86_64_64	do_callback
    4958:	48 89 9c 24 90 05 00 	mov    QWORD PTR [rsp+0x590],rbx
    495f:	00 
    4960:	48 89 bc 24 98 05 00 	mov    QWORD PTR [rsp+0x598],rdi
    4967:	00 
    4968:	4c 89 ac 24 a0 05 00 	mov    QWORD PTR [rsp+0x5a0],r13
    496f:	00 
    4970:	ff d0                	call   rax
    4972:	48 8b 9c 24 90 05 00 	mov    rbx,QWORD PTR [rsp+0x590]
    4979:	00 
    497a:	4c 8b ac 24 a0 05 00 	mov    r13,QWORD PTR [rsp+0x5a0]
    4981:	00 
    4982:	48 89 c6             	mov    rsi,rax
    4985:	48 89 b4 24 90 05 00 	mov    QWORD PTR [rsp+0x590],rsi
    498c:	00 
    498d:	49 8b 7d 08          	mov    rdi,QWORD PTR [r13+0x8]
    4991:	48 89 d1             	mov    rcx,rdx
    4994:	48 83 c1 e0          	add    rcx,0xffffffffffffffe0
    4998:	48 89 5a e0          	mov    QWORD PTR [rdx-0x20],rbx
    499c:	4c 89 7a e8          	mov    QWORD PTR [rdx-0x18],r15
    49a0:	be 01 00 00 00       	mov    esi,0x1
    49a5:	48 89 72 f0          	mov    QWORD PTR [rdx-0x10],rsi
    49a9:	be 01 00 00 00       	mov    esi,0x1
    49ae:	48 89 72 f8          	mov    QWORD PTR [rdx-0x8],rsi
    49b2:	48 31 f6             	xor    rsi,rsi
    49b5:	4c 89 e2             	mov    rdx,r12
    49b8:	48 b8 00 00 00 00 00 	movabs rax,0x0
    49bf:	00 00 00 
			49ba: R_X86_64_64	do_callback
    49c2:	48 89 9c 24 98 05 00 	mov    QWORD PTR [rsp+0x598],rbx
    49c9:	00 
    49ca:	48 89 bc 24 a0 05 00 	mov    QWORD PTR [rsp+0x5a0],rdi
    49d1:	00 
    49d2:	4c 89 ac 24 a8 05 00 	mov    QWORD PTR [rsp+0x5a8],r13
    49d9:	00 
    49da:	ff d0                	call   rax
    49dc:	48 8b 9c 24 98 05 00 	mov    rbx,QWORD PTR [rsp+0x598]
    49e3:	00 
    49e4:	4c 8b ac 24 a8 05 00 	mov    r13,QWORD PTR [rsp+0x5a8]
    49eb:	00 
    49ec:	48 89 c6             	mov    rsi,rax
    49ef:	48 89 b4 24 98 05 00 	mov    QWORD PTR [rsp+0x598],rsi
    49f6:	00 
    49f7:	49 8b 7d 08          	mov    rdi,QWORD PTR [r13+0x8]
    49fb:	48 89 d1             	mov    rcx,rdx
    49fe:	48 83 c1 e0          	add    rcx,0xffffffffffffffe0
    4a02:	48 89 5a e0          	mov    QWORD PTR [rdx-0x20],rbx
    4a06:	4c 89 7a e8          	mov    QWORD PTR [rdx-0x18],r15
    4a0a:	be 01 00 00 00       	mov    esi,0x1
    4a0f:	48 89 72 f0          	mov    QWORD PTR [rdx-0x10],rsi
    4a13:	be 01 00 00 00       	mov    esi,0x1
    4a18:	48 89 72 f8          	mov    QWORD PTR [rdx-0x8],rsi
    4a1c:	48 31 f6             	xor    rsi,rsi
    4a1f:	4c 89 e2             	mov    rdx,r12
    4a22:	48 b8 00 00 00 00 00 	movabs rax,0x0
    4a29:	00 00 00 
			4a24: R_X86_64_64	do_callback
    4a2c:	48 89 9c 24 a0 05 00 	mov    QWORD PTR [rsp+0x5a0],rbx
    4a33:	00 
    4a34:	48 89 bc 24 a8 05 00 	mov    QWORD PTR [rsp+0x5a8],rdi
    4a3b:	00 
    4a3c:	4c 89 ac 24 b0 05 00 	mov    QWORD PTR [rsp+0x5b0],r13
    4a43:	00 
    4a44:	ff d0                	call   rax
    4a46:	48 8b 9c 24 a0 05 00 	mov    rbx,QWORD PTR [rsp+0x5a0]
    4a4d:	00 
    4a4e:	4c 8b ac 24 b0 05 00 	mov    r13,QWORD PTR [rsp+0x5b0]
    4a55:	00 
    4a56:	48 89 c6             	mov    rsi,rax
    4a59:	48 89 b4 24 a0 05 00 	mov    QWORD PTR [rsp+0x5a0],rsi
    4a60:	00 
    4a61:	49 8b 7d 08          	mov    rdi,QWORD PTR [r13+0x8]
    4a65:	48 89 d1             	mov    rcx,rdx
    4a68:	48 83 c1 e0          	add    rcx,0xffffffffffffffe0
    4a6c:	48 89 5a e0          	mov    QWORD PTR [rdx-0x20],rbx
    4a70:	4c 89 7a e8          	mov    QWORD PTR [rdx-0x18],r15
    4a74:	be 01 00 00 00       	mov    esi,0x1
    4a79:	48 89 72 f0          	mov    QWORD PTR [rdx-0x10],rsi
    4a7d:	be 01 00 00 00       	mov    esi,0x1
    4a82:	48 89 72 f8          	mov    QWORD PTR [rdx-0x8],rsi
    4a86:	48 31 f6             	xor    rsi,rsi
    4a89:	4c 89 e2             	mov    rdx,r12
    4a8c:	48 b8 00 00 00 00 00 	movabs rax,0x0
    4a93:	00 00 00 
			4a8e: R_X86_64_64	do_callback
    4a96:	48 89 9c 24 a8 05 00 	mov    QWORD PTR [rsp+0x5a8],rbx
    4a9d:	00 
    4a9e:	48 89 bc 24 b0 05 00 	mov    QWORD PTR [rsp+0x5b0],rdi
    4aa5:	00 
    4aa6:	4c 89 ac 24 b8 05 00 	mov    QWORD PTR [rsp+0x5b8],r13
    4aad:	00 
    4aae:	ff d0                	call   rax
    4ab0:	48 8b 9c 24 a8 05 00 	mov    rbx,QWORD PTR [rsp+0x5a8]
    4ab7:	00 
    4ab8:	4c 8b ac 24 b8 05 00 	mov    r13,QWORD PTR [rsp+0x5b8]
    4abf:	00 
    4ac0:	48 89 c6             	mov    rsi,rax
    4ac3:	48 89 b4 24 a8 05 00 	mov    QWORD PTR [rsp+0x5a8],rsi
    4aca:	00 
    4acb:	49 8b 7d 08          	mov    rdi,QWORD PTR [r13+0x8]
    4acf:	48 89 d1             	mov    rcx,rdx
    4ad2:	48 83 c1 e0          	add    rcx,0xffffffffffffffe0
    4ad6:	48 89 5a e0          	mov    QWORD PTR [rdx-0x20],rbx
    4ada:	4c 89 7a e8          	mov    QWORD PTR [rdx-0x18],r15
    4ade:	be 01 00 00 00       	mov    esi,0x1
    4ae3:	48 89 72 f0          	mov    QWORD PTR [rdx-0x10],rsi
    4ae7:	be 01 00 00 00       	mov    esi,0x1
    4aec:	48 89 72 f8          	mov    QWORD PTR [rdx-0x8],rsi
    4af0:	48 31 f6             	xor    rsi,rsi
    4af3:	4c 89 e2             	mov    rdx,r12
    4af6:	48 b8 00 00 00 00 00 	movabs rax,0x0
    4afd:	00 00 00 
			4af8: R_X86_64_64	do_callback
    4b00:	48 89 9c 24 b0 05 00 	mov    QWORD PTR [rsp+0x5b0],rbx
    4b07:	00 
    4b08:	48 89 bc 24 b8 05 00 	mov    QWORD PTR [rsp+0x5b8],rdi
    4b0f:	00 
    4b10:	4c 89 ac 24 c0 05 00 	mov    QWORD PTR [rsp+0x5c0],r13
    4b17:	00 
    4b18:	ff d0                	call   rax
    4b1a:	48 8b 9c 24 b0 05 00 	mov    rbx,QWORD PTR [rsp+0x5b0]
    4b21:	00 
    4b22:	4c 8b ac 24 c0 05 00 	mov    r13,QWORD PTR [rsp+0x5c0]
    4b29:	00 
    4b2a:	48 89 c6             	mov    rsi,rax
    4b2d:	48 89 b4 24 b0 05 00 	mov    QWORD PTR [rsp+0x5b0],rsi
    4b34:	00 
    4b35:	49 8b 7d 08          	mov    rdi,QWORD PTR [r13+0x8]
    4b39:	48 89 d1             	mov    rcx,rdx
    4b3c:	48 83 c1 e0          	add    rcx,0xffffffffffffffe0
    4b40:	48 89 5a e0          	mov    QWORD PTR [rdx-0x20],rbx
    4b44:	4c 89 7a e8          	mov    QWORD PTR [rdx-0x18],r15
    4b48:	be 01 00 00 00       	mov    esi,0x1
    4b4d:	48 89 72 f0          	mov    QWORD PTR [rdx-0x10],rsi
    4b51:	be 01 00 00 00       	mov    esi,0x1
    4b56:	48 89 72 f8          	mov    QWORD PTR [rdx-0x8],rsi
    4b5a:	48 31 f6             	xor    rsi,rsi
    4b5d:	4c 89 e2             	mov    rdx,r12
    4b60:	48 b8 00 00 00 00 00 	movabs rax,0x0
    4b67:	00 00 00 
			4b62: R_X86_64_64	do_callback
    4b6a:	48 89 9c 24 b8 05 00 	mov    QWORD PTR [rsp+0x5b8],rbx
    4b71:	00 
    4b72:	48 89 bc 24 c0 05 00 	mov    QWORD PTR [rsp+0x5c0],rdi
    4b79:	00 
    4b7a:	4c 89 ac 24 c8 05 00 	mov    QWORD PTR [rsp+0x5c8],r13
    4b81:	00 
    4b82:	ff d0                	call   rax
    4b84:	48 8b 9c 24 b8 05 00 	mov    rbx,QWORD PTR [rsp+0x5b8]
    4b8b:	00 
    4b8c:	4c 8b ac 24 c8 05 00 	mov    r13,QWORD PTR [rsp+0x5c8]
    4b93:	00 
    4b94:	48 89 c6             	mov    rsi,rax
    4b97:	48 89 b4 24 b8 05 00 	mov    QWORD PTR [rsp+0x5b8],rsi
    4b9e:	00 
    4b9f:	49 8b 7d 08          	mov    rdi,QWORD PTR [r13+0x8]
    4ba3:	48 89 d1             	mov    rcx,rdx
    4ba6:	48 83 c1 e0          	add    rcx,0xffffffffffffffe0
    4baa:	48 89 5a e0          	mov    QWORD PTR [rdx-0x20],rbx
    4bae:	4c 89 7a e8          	mov    QWORD PTR [rdx-0x18],r15
    4bb2:	be 01 00 00 00       	mov    esi,0x1
    4bb7:	48 89 72 f0          	mov    QWORD PTR [rdx-0x10],rsi
    4bbb:	be 01 00 00 00       	mov    esi,0x1
    4bc0:	48 89 72 f8          	mov    QWORD PTR [rdx-0x8],rsi
    4bc4:	48 31 f6             	xor    rsi,rsi
    4bc7:	4c 89 e2             	mov    rdx,r12
    4bca:	48 b8 00 00 00 00 00 	movabs rax,0x0
    4bd1:	00 00 00 
			4bcc: R_X86_64_64	do_callback
    4bd4:	48 89 9c 24 c0 05 00 	mov    QWORD PTR [rsp+0x5c0],rbx
    4bdb:	00 
    4bdc:	48 89 bc 24 c8 05 00 	mov    QWORD PTR [rsp+0x5c8],rdi
    4be3:	00 
    4be4:	4c 89 ac 24 d0 05 00 	mov    QWORD PTR [rsp+0x5d0],r13
    4beb:	00 
    4bec:	ff d0                	call   rax
    4bee:	48 8b 9c 24 c0 05 00 	mov    rbx,QWORD PTR [rsp+0x5c0]
    4bf5:	00 
    4bf6:	4c 8b ac 24 d0 05 00 	mov    r13,QWORD PTR [rsp+0x5d0]
    4bfd:	00 
    4bfe:	48 89 c6             	mov    rsi,rax
    4c01:	48 89 b4 24 c0 05 00 	mov    QWORD PTR [rsp+0x5c0],rsi
    4c08:	00 
    4c09:	49 8b 7d 08          	mov    rdi,QWORD PTR [r13+0x8]
    4c0d:	48 89 d1             	mov    rcx,rdx
    4c10:	48 83 c1 e0          	add    rcx,0xffffffffffffffe0
    4c14:	48 89 5a e0          	mov    QWORD PTR [rdx-0x20],rbx
    4c18:	4c 89 7a e8          	mov    QWORD PTR [rdx-0x18],r15
    4c1c:	be 01 00 00 00       	mov    esi,0x1
    4c21:	48 89 72 f0          	mov    QWORD PTR [rdx-0x10],rsi
    4c25:	be 01 00 00 00       	mov    esi,0x1
    4c2a:	48 89 72 f8          	mov    QWORD PTR [rdx-0x8],rsi
    4c2e:	48 31 f6             	xor    rsi,rsi
    4c31:	4c 89 e2             	mov    rdx,r12
    4c34:	48 b8 00 00 00 00 00 	movabs rax,0x0
    4c3b:	00 00 00 
			4c36: R_X86_64_64	do_callback
    4c3e:	48 89 9c 24 c8 05 00 	mov    QWORD PTR [rsp+0x5c8],rbx
    4c45:	00 
    4c46:	48 89 bc 24 d0 05 00 	mov    QWORD PTR [rsp+0x5d0],rdi
    4c4d:	00 
    4c4e:	4c 89 ac 24 d8 05 00 	mov    QWORD PTR [rsp+0x5d8],r13
    4c55:	00 
    4c56:	ff d0                	call   rax
    4c58:	48 8b 9c 24 c8 05 00 	mov    rbx,QWORD PTR [rsp+0x5c8]
    4c5f:	00 
    4c60:	4c 8b ac 24 d8 05 00 	mov    r13,QWORD PTR [rsp+0x5d8]
    4c67:	00 
    4c68:	48 89 c6             	mov    rsi,rax
    4c6b:	48 89 b4 24 c8 05 00 	mov    QWORD PTR [rsp+0x5c8],rsi
    4c72:	00 
    4c73:	49 8b 7d 08          	mov    rdi,QWORD PTR [r13+0x8]
    4c77:	48 89 d1             	mov    rcx,rdx
    4c7a:	48 83 c1 e0          	add    rcx,0xffffffffffffffe0
    4c7e:	48 89 5a e0          	mov    QWORD PTR [rdx-0x20],rbx
    4c82:	4c 89 7a e8          	mov    QWORD PTR [rdx-0x18],r15
    4c86:	be 01 00 00 00       	mov    esi,0x1
    4c8b:	48 89 72 f0          	mov    QWORD PTR [rdx-0x10],rsi
    4c8f:	be 01 00 00 00       	mov    esi,0x1
    4c94:	48 89 72 f8          	mov    QWORD PTR [rdx-0x8],rsi
    4c98:	48 31 f6             	xor    rsi,rsi
    4c9b:	4c 89 e2             	mov    rdx,r12
    4c9e:	48 b8 00 00 00 00 00 	movabs rax,0x0
    4ca5:	00 00 00 
			4ca0: R_X86_64_64	do_callback
    4ca8:	48 89 9c 24 d0 05 00 	mov    QWORD PTR [rsp+0x5d0],rbx
    4caf:	00 
    4cb0:	48 89 bc 24 d8 05 00 	mov    QWORD PTR [rsp+0x5d8],rdi
    4cb7:	00 
    4cb8:	4c 89 ac 24 e0 05 00 	mov    QWORD PTR [rsp+0x5e0],r13
    4cbf:	00 
    4cc0:	ff d0                	call   rax
    4cc2:	48 8b 9c 24 d0 05 00 	mov    rbx,QWORD PTR [rsp+0x5d0]
    4cc9:	00 
    4cca:	4c 8b ac 24 e0 05 00 	mov    r13,QWORD PTR [rsp+0x5e0]
    4cd1:	00 
    4cd2:	48 89 c6             	mov    rsi,rax
    4cd5:	48 89 b4 24 d0 05 00 	mov    QWORD PTR [rsp+0x5d0],rsi
    4cdc:	00 
    4cdd:	49 8b 7d 08          	mov    rdi,QWORD PTR [r13+0x8]
    4ce1:	48 89 d1             	mov    rcx,rdx
    4ce4:	48 83 c1 e0          	add    rcx,0xffffffffffffffe0
    4ce8:	48 89 5a e0          	mov    QWORD PTR [rdx-0x20],rbx
    4cec:	4c 89 7a e8          	mov    QWORD PTR [rdx-0x18],r15
    4cf0:	be 01 00 00 00       	mov    esi,0x1
    4cf5:	48 89 72 f0          	mov    QWORD PTR [rdx-0x10],rsi
    4cf9:	be 01 00 00 00       	mov    esi,0x1
    4cfe:	48 89 72 f8          	mov    QWORD PTR [rdx-0x8],rsi
    4d02:	48 31 f6             	xor    rsi,rsi
    4d05:	4c 89 e2             	mov    rdx,r12
    4d08:	48 b8 00 00 00 00 00 	movabs rax,0x0
    4d0f:	00 00 00 
			4d0a: R_X86_64_64	do_callback
    4d12:	48 89 9c 24 d8 05 00 	mov    QWORD PTR [rsp+0x5d8],rbx
    4d19:	00 
    4d1a:	48 89 bc 24 e0 05 00 	mov    QWORD PTR [rsp+0x5e0],rdi
    4d21:	00 
    4d22:	4c 89 ac 24 e8 05 00 	mov    QWORD PTR [rsp+0x5e8],r13
    4d29:	00 
    4d2a:	ff d0                	call   rax
    4d2c:	48 8b 9c 24 d8 05 00 	mov    rbx,QWORD PTR [rsp+0x5d8]
    4d33:	00 
    4d34:	4c 8b ac 24 e8 05 00 	mov    r13,QWORD PTR [rsp+0x5e8]
    4d3b:	00 
    4d3c:	48 89 c6             	mov    rsi,rax
    4d3f:	48 89 b4 24 d8 05 00 	mov    QWORD PTR [rsp+0x5d8],rsi
    4d46:	00 
    4d47:	49 8b 7d 08          	mov    rdi,QWORD PTR [r13+0x8]
    4d4b:	48 89 d1             	mov    rcx,rdx
    4d4e:	48 83 c1 e0          	add    rcx,0xffffffffffffffe0
    4d52:	48 89 5a e0          	mov    QWORD PTR [rdx-0x20],rbx
    4d56:	4c 89 7a e8          	mov    QWORD PTR [rdx-0x18],r15
    4d5a:	be 01 00 00 00       	mov    esi,0x1
    4d5f:	48 89 72 f0          	mov    QWORD PTR [rdx-0x10],rsi
    4d63:	be 01 00 00 00       	mov    esi,0x1
    4d68:	48 89 72 f8          	mov    QWORD PTR [rdx-0x8],rsi
    4d6c:	48 31 f6             	xor    rsi,rsi
    4d6f:	4c 89 e2             	mov    rdx,r12
    4d72:	48 b8 00 00 00 00 00 	movabs rax,0x0
    4d79:	00 00 00 
			4d74: R_X86_64_64	do_callback
    4d7c:	48 89 9c 24 e0 05 00 	mov    QWORD PTR [rsp+0x5e0],rbx
    4d83:	00 
    4d84:	48 89 bc 24 e8 05 00 	mov    QWORD PTR [rsp+0x5e8],rdi
    4d8b:	00 
    4d8c:	4c 89 ac 24 f0 05 00 	mov    QWORD PTR [rsp+0x5f0],r13
    4d93:	00 
    4d94:	ff d0                	call   rax
    4d96:	48 8b 9c 24 e0 05 00 	mov    rbx,QWORD PTR [rsp+0x5e0]
    4d9d:	00 
    4d9e:	4c 8b ac 24 f0 05 00 	mov    r13,QWORD PTR [rsp+0x5f0]
    4da5:	00 
    4da6:	48 89 c6             	mov    rsi,rax
    4da9:	48 89 b4 24 e0 05 00 	mov    QWORD PTR [rsp+0x5e0],rsi
    4db0:	00 
    4db1:	49 8b 7d 08          	mov    rdi,QWORD PTR [r13+0x8]
    4db5:	48 89 d1             	mov    rcx,rdx
    4db8:	48 83 c1 e0          	add    rcx,0xffffffffffffffe0
    4dbc:	48 89 5a e0          	mov    QWORD PTR [rdx-0x20],rbx
    4dc0:	4c 89 7a e8          	mov    QWORD PTR [rdx-0x18],r15
    4dc4:	be 01 00 00 00       	mov    esi,0x1
    4dc9:	48 89 72 f0          	mov    QWORD PTR [rdx-0x10],rsi
    4dcd:	be 01 00 00 00       	mov    esi,0x1
    4dd2:	48 89 72 f8          	mov    QWORD PTR [rdx-0x8],rsi
    4dd6:	48 31 f6             	xor    rsi,rsi
    4dd9:	4c 89 e2             	mov    rdx,r12
    4ddc:	48 b8 00 00 00 00 00 	movabs rax,0x0
    4de3:	00 00 00 
			4dde: R_X86_64_64	do_callback
    4de6:	48 89 9c 24 e8 05 00 	mov    QWORD PTR [rsp+0x5e8],rbx
    4ded:	00 
    4dee:	48 89 bc 24 f0 05 00 	mov    QWORD PTR [rsp+0x5f0],rdi
    4df5:	00 
    4df6:	4c 89 ac 24 f8 05 00 	mov    QWORD PTR [rsp+0x5f8],r13
    4dfd:	00 
    4dfe:	ff d0                	call   rax
    4e00:	48 8b 9c 24 e8 05 00 	mov    rbx,QWORD PTR [rsp+0x5e8]
    4e07:	00 
    4e08:	4c 8b ac 24 f8 05 00 	mov    r13,QWORD PTR [rsp+0x5f8]
    4e0f:	00 
    4e10:	48 89 c6             	mov    rsi,rax
    4e13:	48 89 b4 24 e8 05 00 	mov    QWORD PTR [rsp+0x5e8],rsi
    4e1a:	00 
    4e1b:	49 8b 7d 08          	mov    rdi,QWORD PTR [r13+0x8]
    4e1f:	48 89 d1             	mov    rcx,rdx
    4e22:	48 83 c1 e0          	add    rcx,0xffffffffffffffe0
    4e26:	48 89 5a e0          	mov    QWORD PTR [rdx-0x20],rbx
    4e2a:	4c 89 7a e8          	mov    QWORD PTR [rdx-0x18],r15
    4e2e:	be 01 00 00 00       	mov    esi,0x1
    4e33:	48 89 72 f0          	mov    QWORD PTR [rdx-0x10],rsi
    4e37:	be 01 00 00 00       	mov    esi,0x1
    4e3c:	48 89 72 f8          	mov    QWORD PTR [rdx-0x8],rsi
    4e40:	48 31 f6             	xor    rsi,rsi
    4e43:	4c 89 e2             	mov    rdx,r12
    4e46:	48 b8 00 00 00 00 00 	movabs rax,0x0
    4e4d:	00 00 00 
			4e48: R_X86_64_64	do_callback
    4e50:	48 89 9c 24 f0 05 00 	mov    QWORD PTR [rsp+0x5f0],rbx
    4e57:	00 
    4e58:	48 89 bc 24 f8 05 00 	mov    QWORD PTR [rsp+0x5f8],rdi
    4e5f:	00 
    4e60:	4c 89 ac 24 00 06 00 	mov    QWORD PTR [rsp+0x600],r13
    4e67:	00 
    4e68:	ff d0                	call   rax
    4e6a:	48 8b 9c 24 f0 05 00 	mov    rbx,QWORD PTR [rsp+0x5f0]
    4e71:	00 
    4e72:	4c 8b ac 24 00 06 00 	mov    r13,QWORD PTR [rsp+0x600]
    4e79:	00 
    4e7a:	48 89 c6             	mov    rsi,rax
    4e7d:	48 89 b4 24 f0 05 00 	mov    QWORD PTR [rsp+0x5f0],rsi
    4e84:	00 
    4e85:	49 8b 7d 08          	mov    rdi,QWORD PTR [r13+0x8]
    4e89:	48 89 d1             	mov    rcx,rdx
    4e8c:	48 83 c1 e0          	add    rcx,0xffffffffffffffe0
    4e90:	48 89 5a e0          	mov    QWORD PTR [rdx-0x20],rbx
    4e94:	4c 89 7a e8          	mov    QWORD PTR [rdx-0x18],r15
    4e98:	be 01 00 00 00       	mov    esi,0x1
    4e9d:	48 89 72 f0          	mov    QWORD PTR [rdx-0x10],rsi
    4ea1:	be 01 00 00 00       	mov    esi,0x1
    4ea6:	48 89 72 f8          	mov    QWORD PTR [rdx-0x8],rsi
    4eaa:	48 31 f6             	xor    rsi,rsi
    4ead:	4c 89 e2             	mov    rdx,r12
    4eb0:	48 b8 00 00 00 00 00 	movabs rax,0x0
    4eb7:	00 00 00 
			4eb2: R_X86_64_64	do_callback
    4eba:	48 89 9c 24 f8 05 00 	mov    QWORD PTR [rsp+0x5f8],rbx
    4ec1:	00 
    4ec2:	48 89 bc 24 00 06 00 	mov    QWORD PTR [rsp+0x600],rdi
    4ec9:	00 
    4eca:	4c 89 ac 24 08 06 00 	mov    QWORD PTR [rsp+0x608],r13
    4ed1:	00 
    4ed2:	ff d0                	call   rax
    4ed4:	48 8b 9c 24 f8 05 00 	mov    rbx,QWORD PTR [rsp+0x5f8]
    4edb:	00 
    4edc:	4c 8b ac 24 08 06 00 	mov    r13,QWORD PTR [rsp+0x608]
    4ee3:	00 
    4ee4:	48 89 c6             	mov    rsi,rax
    4ee7:	48 89 b4 24 f8 05 00 	mov    QWORD PTR [rsp+0x5f8],rsi
    4eee:	00 
    4eef:	49 8b 7d 08          	mov    rdi,QWORD PTR [r13+0x8]
    4ef3:	48 89 d1             	mov    rcx,rdx
    4ef6:	48 83 c1 e0          	add    rcx,0xffffffffffffffe0
    4efa:	48 89 5a e0          	mov    QWORD PTR [rdx-0x20],rbx
    4efe:	4c 89 7a e8          	mov    QWORD PTR [rdx-0x18],r15
    4f02:	be 01 00 00 00       	mov    esi,0x1
    4f07:	48 89 72 f0          	mov    QWORD PTR [rdx-0x10],rsi
    4f0b:	be 01 00 00 00       	mov    esi,0x1
    4f10:	48 89 72 f8          	mov    QWORD PTR [rdx-0x8],rsi
    4f14:	48 31 f6             	xor    rsi,rsi
    4f17:	4c 89 e2             	mov    rdx,r12
    4f1a:	48 b8 00 00 00 00 00 	movabs rax,0x0
    4f21:	00 00 00 
			4f1c: R_X86_64_64	do_callback
    4f24:	48 89 9c 24 00 06 00 	mov    QWORD PTR [rsp+0x600],rbx
    4f2b:	00 
    4f2c:	48 89 bc 24 08 06 00 	mov    QWORD PTR [rsp+0x608],rdi
    4f33:	00 
    4f34:	4c 89 ac 24 10 06 00 	mov    QWORD PTR [rsp+0x610],r13
    4f3b:	00 
    4f3c:	ff d0                	call   rax
    4f3e:	48 8b 9c 24 00 06 00 	mov    rbx,QWORD PTR [rsp+0x600]
    4f45:	00 
    4f46:	4c 8b ac 24 10 06 00 	mov    r13,QWORD PTR [rsp+0x610]
    4f4d:	00 
    4f4e:	48 89 c6             	mov    rsi,rax
    4f51:	48 89 b4 24 00 06 00 	mov    QWORD PTR [rsp+0x600],rsi
    4f58:	00 
    4f59:	49 8b 7d 08          	mov    rdi,QWORD PTR [r13+0x8]
    4f5d:	48 89 d1             	mov    rcx,rdx
    4f60:	48 83 c1 e0          	add    rcx,0xffffffffffffffe0
    4f64:	48 89 5a e0          	mov    QWORD PTR [rdx-0x20],rbx
    4f68:	4c 89 7a e8          	mov    QWORD PTR [rdx-0x18],r15
    4f6c:	be 01 00 00 00       	mov    esi,0x1
    4f71:	48 89 72 f0          	mov    QWORD PTR [rdx-0x10],rsi
    4f75:	be 01 00 00 00       	mov    esi,0x1
    4f7a:	48 89 72 f8          	mov    QWORD PTR [rdx-0x8],rsi
    4f7e:	48 31 f6             	xor    rsi,rsi
    4f81:	4c 89 e2             	mov    rdx,r12
    4f84:	48 b8 00 00 00 00 00 	movabs rax,0x0
    4f8b:	00 00 00 
			4f86: R_X86_64_64	do_callback
    4f8e:	48 89 9c 24 08 06 00 	mov    QWORD PTR [rsp+0x608],rbx
    4f95:	00 
    4f96:	48 89 bc 24 10 06 00 	mov    QWORD PTR [rsp+0x610],rdi
    4f9d:	00 
    4f9e:	4c 89 ac 24 18 06 00 	mov    QWORD PTR [rsp+0x618],r13
    4fa5:	00 
    4fa6:	ff d0                	call   rax
    4fa8:	48 8b 9c 24 08 06 00 	mov    rbx,QWORD PTR [rsp+0x608]
    4faf:	00 
    4fb0:	4c 8b ac 24 18 06 00 	mov    r13,QWORD PTR [rsp+0x618]
    4fb7:	00 
    4fb8:	48 89 c6             	mov    rsi,rax
    4fbb:	48 89 b4 24 08 06 00 	mov    QWORD PTR [rsp+0x608],rsi
    4fc2:	00 
    4fc3:	49 8b 7d 08          	mov    rdi,QWORD PTR [r13+0x8]
    4fc7:	48 89 d1             	mov    rcx,rdx
    4fca:	48 83 c1 e0          	add    rcx,0xffffffffffffffe0
    4fce:	48 89 5a e0          	mov    QWORD PTR [rdx-0x20],rbx
    4fd2:	4c 89 7a e8          	mov    QWORD PTR [rdx-0x18],r15
    4fd6:	be 01 00 00 00       	mov    esi,0x1
    4fdb:	48 89 72 f0          	mov    QWORD PTR [rdx-0x10],rsi
    4fdf:	be 01 00 00 00       	mov    esi,0x1
    4fe4:	48 89 72 f8          	mov    QWORD PTR [rdx-0x8],rsi
    4fe8:	48 31 f6             	xor    rsi,rsi
    4feb:	4c 89 e2             	mov    rdx,r12
    4fee:	48 b8 00 00 00 00 00 	movabs rax,0x0
    4ff5:	00 00 00 
			4ff0: R_X86_64_64	do_callback
    4ff8:	48 89 9c 24 10 06 00 	mov    QWORD PTR [rsp+0x610],rbx
    4fff:	00 
    5000:	48 89 bc 24 18 06 00 	mov    QWORD PTR [rsp+0x618],rdi
    5007:	00 
    5008:	4c 89 ac 24 20 06 00 	mov    QWORD PTR [rsp+0x620],r13
    500f:	00 
    5010:	ff d0                	call   rax
    5012:	48 8b 9c 24 10 06 00 	mov    rbx,QWORD PTR [rsp+0x610]
    5019:	00 
    501a:	4c 8b ac 24 20 06 00 	mov    r13,QWORD PTR [rsp+0x620]
    5021:	00 
    5022:	48 89 c6             	mov    rsi,rax
    5025:	48 89 b4 24 10 06 00 	mov    QWORD PTR [rsp+0x610],rsi
    502c:	00 
    502d:	49 8b 7d 08          	mov    rdi,QWORD PTR [r13+0x8]
    5031:	48 89 d1             	mov    rcx,rdx
    5034:	48 83 c1 e0          	add    rcx,0xffffffffffffffe0
    5038:	48 89 5a e0          	mov    QWORD PTR [rdx-0x20],rbx
    503c:	4c 89 7a e8          	mov    QWORD PTR [rdx-0x18],r15
    5040:	be 01 00 00 00       	mov    esi,0x1
    5045:	48 89 72 f0          	mov    QWORD PTR [rdx-0x10],rsi
    5049:	be 01 00 00 00       	mov    esi,0x1
    504e:	48 89 72 f8          	mov    QWORD PTR [rdx-0x8],rsi
    5052:	48 31 f6             	xor    rsi,rsi
    5055:	4c 89 e2             	mov    rdx,r12
    5058:	48 b8 00 00 00 00 00 	movabs rax,0x0
    505f:	00 00 00 
			505a: R_X86_64_64	do_callback
    5062:	48 89 9c 24 18 06 00 	mov    QWORD PTR [rsp+0x618],rbx
    5069:	00 
    506a:	48 89 bc 24 20 06 00 	mov    QWORD PTR [rsp+0x620],rdi
    5071:	00 
    5072:	4c 89 ac 24 28 06 00 	mov    QWORD PTR [rsp+0x628],r13
    5079:	00 
    507a:	ff d0                	call   rax
    507c:	48 8b 9c 24 18 06 00 	mov    rbx,QWORD PTR [rsp+0x618]
    5083:	00 
    5084:	4c 8b ac 24 28 06 00 	mov    r13,QWORD PTR [rsp+0x628]
    508b:	00 
    508c:	48 89 c6             	mov    rsi,rax
    508f:	48 89 b4 24 18 06 00 	mov    QWORD PTR [rsp+0x618],rsi
    5096:	00 
    5097:	49 8b 7d 08          	mov    rdi,QWORD PTR [r13+0x8]
    509b:	48 89 d1             	mov    rcx,rdx
    509e:	48 83 c1 e0          	add    rcx,0xffffffffffffffe0
    50a2:	48 89 5a e0          	mov    QWORD PTR [rdx-0x20],rbx
    50a6:	4c 89 7a e8          	mov    QWORD PTR [rdx-0x18],r15
    50aa:	be 01 00 00 00       	mov    esi,0x1
    50af:	48 89 72 f0          	mov    QWORD PTR [rdx-0x10],rsi
    50b3:	be 01 00 00 00       	mov    esi,0x1
    50b8:	48 89 72 f8          	mov    QWORD PTR [rdx-0x8],rsi
    50bc:	48 31 f6             	xor    rsi,rsi
    50bf:	4c 89 e2             	mov    rdx,r12
    50c2:	48 b8 00 00 00 00 00 	movabs rax,0x0
    50c9:	00 00 00 
			50c4: R_X86_64_64	do_callback
    50cc:	48 89 9c 24 20 06 00 	mov    QWORD PTR [rsp+0x620],rbx
    50d3:	00 
    50d4:	48 89 bc 24 28 06 00 	mov    QWORD PTR [rsp+0x628],rdi
    50db:	00 
    50dc:	4c 89 ac 24 30 06 00 	mov    QWORD PTR [rsp+0x630],r13
    50e3:	00 
    50e4:	ff d0                	call   rax
    50e6:	48 8b 9c 24 20 06 00 	mov    rbx,QWORD PTR [rsp+0x620]
    50ed:	00 
    50ee:	4c 8b ac 24 30 06 00 	mov    r13,QWORD PTR [rsp+0x630]
    50f5:	00 
    50f6:	48 89 c6             	mov    rsi,rax
    50f9:	48 89 b4 24 20 06 00 	mov    QWORD PTR [rsp+0x620],rsi
    5100:	00 
    5101:	49 8b 7d 08          	mov    rdi,QWORD PTR [r13+0x8]
    5105:	48 89 d1             	mov    rcx,rdx
    5108:	48 83 c1 e0          	add    rcx,0xffffffffffffffe0
    510c:	48 89 5a e0          	mov    QWORD PTR [rdx-0x20],rbx
    5110:	4c 89 7a e8          	mov    QWORD PTR [rdx-0x18],r15
    5114:	be 01 00 00 00       	mov    esi,0x1
    5119:	48 89 72 f0          	mov    QWORD PTR [rdx-0x10],rsi
    511d:	be 01 00 00 00       	mov    esi,0x1
    5122:	48 89 72 f8          	mov    QWORD PTR [rdx-0x8],rsi
    5126:	48 31 f6             	xor    rsi,rsi
    5129:	4c 89 e2             	mov    rdx,r12
    512c:	48 b8 00 00 00 00 00 	movabs rax,0x0
    5133:	00 00 00 
			512e: R_X86_64_64	do_callback
    5136:	48 89 9c 24 28 06 00 	mov    QWORD PTR [rsp+0x628],rbx
    513d:	00 
    513e:	48 89 bc 24 30 06 00 	mov    QWORD PTR [rsp+0x630],rdi
    5145:	00 
    5146:	4c 89 ac 24 38 06 00 	mov    QWORD PTR [rsp+0x638],r13
    514d:	00 
    514e:	ff d0                	call   rax
    5150:	48 8b 9c 24 28 06 00 	mov    rbx,QWORD PTR [rsp+0x628]
    5157:	00 
    5158:	4c 8b ac 24 38 06 00 	mov    r13,QWORD PTR [rsp+0x638]
    515f:	00 
    5160:	48 89 c6             	mov    rsi,rax
    5163:	48 89 b4 24 28 06 00 	mov    QWORD PTR [rsp+0x628],rsi
    516a:	00 
    516b:	49 8b 7d 08          	mov    rdi,QWORD PTR [r13+0x8]
    516f:	48 89 d1             	mov    rcx,rdx
    5172:	48 83 c1 e0          	add    rcx,0xffffffffffffffe0
    5176:	48 89 5a e0          	mov    QWORD PTR [rdx-0x20],rbx
    517a:	4c 89 7a e8          	mov    QWORD PTR [rdx-0x18],r15
    517e:	be 01 00 00 00       	mov    esi,0x1
    5183:	48 89 72 f0          	mov    QWORD PTR [rdx-0x10],rsi
    5187:	be 01 00 00 00       	mov    esi,0x1
    518c:	48 89 72 f8          	mov    QWORD PTR [rdx-0x8],rsi
    5190:	48 31 f6             	xor    rsi,rsi
    5193:	4c 89 e2             	mov    rdx,r12
    5196:	48 b8 00 00 00 00 00 	movabs rax,0x0
    519d:	00 00 00 
			5198: R_X86_64_64	do_callback
    51a0:	48 89 9c 24 30 06 00 	mov    QWORD PTR [rsp+0x630],rbx
    51a7:	00 
    51a8:	48 89 bc 24 38 06 00 	mov    QWORD PTR [rsp+0x638],rdi
    51af:	00 
    51b0:	4c 89 ac 24 40 06 00 	mov    QWORD PTR [rsp+0x640],r13
    51b7:	00 
    51b8:	ff d0                	call   rax
    51ba:	48 8b 9c 24 30 06 00 	mov    rbx,QWORD PTR [rsp+0x630]
    51c1:	00 
    51c2:	4c 8b ac 24 40 06 00 	mov    r13,QWORD PTR [rsp+0x640]
    51c9:	00 
    51ca:	48 89 c6             	mov    rsi,rax
    51cd:	48 89 b4 24 30 06 00 	mov    QWORD PTR [rsp+0x630],rsi
    51d4:	00 
    51d5:	49 8b 7d 08          	mov    rdi,QWORD PTR [r13+0x8]
    51d9:	48 89 d1             	mov    rcx,rdx
    51dc:	48 83 c1 e0          	add    rcx,0xffffffffffffffe0
    51e0:	48 89 5a e0          	mov    QWORD PTR [rdx-0x20],rbx
    51e4:	4c 89 7a e8          	mov    QWORD PTR [rdx-0x18],r15
    51e8:	be 01 00 00 00       	mov    esi,0x1
    51ed:	48 89 72 f0          	mov    QWORD PTR [rdx-0x10],rsi
    51f1:	be 01 00 00 00       	mov    esi,0x1
    51f6:	48 89 72 f8          	mov    QWORD PTR [rdx-0x8],rsi
    51fa:	48 31 f6             	xor    rsi,rsi
    51fd:	4c 89 e2             	mov    rdx,r12
    5200:	48 b8 00 00 00 00 00 	movabs rax,0x0
    5207:	00 00 00 
			5202: R_X86_64_64	do_callback
    520a:	48 89 9c 24 38 06 00 	mov    QWORD PTR [rsp+0x638],rbx
    5211:	00 
    5212:	48 89 bc 24 40 06 00 	mov    QWORD PTR [rsp+0x640],rdi
    5219:	00 
    521a:	4c 89 ac 24 48 06 00 	mov    QWORD PTR [rsp+0x648],r13
    5221:	00 
    5222:	ff d0                	call   rax
    5224:	48 8b 9c 24 38 06 00 	mov    rbx,QWORD PTR [rsp+0x638]
    522b:	00 
    522c:	4c 8b ac 24 48 06 00 	mov    r13,QWORD PTR [rsp+0x648]
    5233:	00 
    5234:	48 89 c6             	mov    rsi,rax
    5237:	48 89 b4 24 38 06 00 	mov    QWORD PTR [rsp+0x638],rsi
    523e:	00 
    523f:	49 8b 7d 08          	mov    rdi,QWORD PTR [r13+0x8]
    5243:	48 89 d1             	mov    rcx,rdx
    5246:	48 83 c1 e0          	add    rcx,0xffffffffffffffe0
    524a:	48 89 5a e0          	mov    QWORD PTR [rdx-0x20],rbx
    524e:	4c 89 7a e8          	mov    QWORD PTR [rdx-0x18],r15
    5252:	be 01 00 00 00       	mov    esi,0x1
    5257:	48 89 72 f0          	mov    QWORD PTR [rdx-0x10],rsi
    525b:	be 01 00 00 00       	mov    esi,0x1
    5260:	48 89 72 f8          	mov    QWORD PTR [rdx-0x8],rsi
    5264:	48 31 f6             	xor    rsi,rsi
    5267:	4c 89 e2             	mov    rdx,r12
    526a:	48 b8 00 00 00 00 00 	movabs rax,0x0
    5271:	00 00 00 
			526c: R_X86_64_64	do_callback
    5274:	48 89 9c 24 40 06 00 	mov    QWORD PTR [rsp+0x640],rbx
    527b:	00 
    527c:	48 89 bc 24 48 06 00 	mov    QWORD PTR [rsp+0x648],rdi
    5283:	00 
    5284:	4c 89 ac 24 50 06 00 	mov    QWORD PTR [rsp+0x650],r13
    528b:	00 
    528c:	ff d0                	call   rax
    528e:	48 8b 9c 24 40 06 00 	mov    rbx,QWORD PTR [rsp+0x640]
    5295:	00 
    5296:	4c 8b ac 24 50 06 00 	mov    r13,QWORD PTR [rsp+0x650]
    529d:	00 
    529e:	48 89 c6             	mov    rsi,rax
    52a1:	48 89 b4 24 40 06 00 	mov    QWORD PTR [rsp+0x640],rsi
    52a8:	00 
    52a9:	49 8b 7d 08          	mov    rdi,QWORD PTR [r13+0x8]
    52ad:	48 89 d1             	mov    rcx,rdx
    52b0:	48 83 c1 e0          	add    rcx,0xffffffffffffffe0
    52b4:	48 89 5a e0          	mov    QWORD PTR [rdx-0x20],rbx
    52b8:	4c 89 7a e8          	mov    QWORD PTR [rdx-0x18],r15
    52bc:	be 01 00 00 00       	mov    esi,0x1
    52c1:	48 89 72 f0          	mov    QWORD PTR [rdx-0x10],rsi
    52c5:	be 01 00 00 00       	mov    esi,0x1
    52ca:	48 89 72 f8          	mov    QWORD PTR [rdx-0x8],rsi
    52ce:	48 31 f6             	xor    rsi,rsi
    52d1:	4c 89 e2             	mov    rdx,r12
    52d4:	48 b8 00 00 00 00 00 	movabs rax,0x0
    52db:	00 00 00 
			52d6: R_X86_64_64	do_callback
    52de:	48 89 9c 24 48 06 00 	mov    QWORD PTR [rsp+0x648],rbx
    52e5:	00 
    52e6:	48 89 bc 24 50 06 00 	mov    QWORD PTR [rsp+0x650],rdi
    52ed:	00 
    52ee:	4c 89 ac 24 58 06 00 	mov    QWORD PTR [rsp+0x658],r13
    52f5:	00 
    52f6:	ff d0                	call   rax
    52f8:	48 8b 9c 24 48 06 00 	mov    rbx,QWORD PTR [rsp+0x648]
    52ff:	00 
    5300:	4c 8b ac 24 58 06 00 	mov    r13,QWORD PTR [rsp+0x658]
    5307:	00 
    5308:	48 89 c6             	mov    rsi,rax
    530b:	48 89 b4 24 48 06 00 	mov    QWORD PTR [rsp+0x648],rsi
    5312:	00 
    5313:	49 8b 7d 08          	mov    rdi,QWORD PTR [r13+0x8]
    5317:	48 89 d1             	mov    rcx,rdx
    531a:	48 83 c1 e0          	add    rcx,0xffffffffffffffe0
    531e:	48 89 5a e0          	mov    QWORD PTR [rdx-0x20],rbx
    5322:	4c 89 7a e8          	mov    QWORD PTR [rdx-0x18],r15
    5326:	be 01 00 00 00       	mov    esi,0x1
    532b:	48 89 72 f0          	mov    QWORD PTR [rdx-0x10],rsi
    532f:	be 01 00 00 00       	mov    esi,0x1
    5334:	48 89 72 f8          	mov    QWORD PTR [rdx-0x8],rsi
    5338:	48 31 f6             	xor    rsi,rsi
    533b:	4c 89 e2             	mov    rdx,r12
    533e:	48 b8 00 00 00 00 00 	movabs rax,0x0
    5345:	00 00 00 
			5340: R_X86_64_64	do_callback
    5348:	48 89 9c 24 50 06 00 	mov    QWORD PTR [rsp+0x650],rbx
    534f:	00 
    5350:	48 89 bc 24 58 06 00 	mov    QWORD PTR [rsp+0x658],rdi
    5357:	00 
    5358:	4c 89 ac 24 60 06 00 	mov    QWORD PTR [rsp+0x660],r13
    535f:	00 
    5360:	ff d0                	call   rax
    5362:	48 8b 9c 24 50 06 00 	mov    rbx,QWORD PTR [rsp+0x650]
    5369:	00 
    536a:	4c 8b ac 24 60 06 00 	mov    r13,QWORD PTR [rsp+0x660]
    5371:	00 
    5372:	48 89 c6             	mov    rsi,rax
    5375:	48 89 b4 24 50 06 00 	mov    QWORD PTR [rsp+0x650],rsi
    537c:	00 
    537d:	49 8b 7d 08          	mov    rdi,QWORD PTR [r13+0x8]
    5381:	48 89 d1             	mov    rcx,rdx
    5384:	48 83 c1 e0          	add    rcx,0xffffffffffffffe0
    5388:	48 89 5a e0          	mov    QWORD PTR [rdx-0x20],rbx
    538c:	4c 89 7a e8          	mov    QWORD PTR [rdx-0x18],r15
    5390:	be 01 00 00 00       	mov    esi,0x1
    5395:	48 89 72 f0          	mov    QWORD PTR [rdx-0x10],rsi
    5399:	be 01 00 00 00       	mov    esi,0x1
    539e:	48 89 72 f8          	mov    QWORD PTR [rdx-0x8],rsi
    53a2:	48 31 f6             	xor    rsi,rsi
    53a5:	4c 89 e2             	mov    rdx,r12
    53a8:	48 b8 00 00 00 00 00 	movabs rax,0x0
    53af:	00 00 00 
			53aa: R_X86_64_64	do_callback
    53b2:	48 89 9c 24 58 06 00 	mov    QWORD PTR [rsp+0x658],rbx
    53b9:	00 
    53ba:	48 89 bc 24 60 06 00 	mov    QWORD PTR [rsp+0x660],rdi
    53c1:	00 
    53c2:	4c 89 ac 24 68 06 00 	mov    QWORD PTR [rsp+0x668],r13
    53c9:	00 
    53ca:	ff d0                	call   rax
    53cc:	48 8b 9c 24 58 06 00 	mov    rbx,QWORD PTR [rsp+0x658]
    53d3:	00 
    53d4:	4c 8b ac 24 68 06 00 	mov    r13,QWORD PTR [rsp+0x668]
    53db:	00 
    53dc:	48 89 c6             	mov    rsi,rax
    53df:	48 89 b4 24 58 06 00 	mov    QWORD PTR [rsp+0x658],rsi
    53e6:	00 
    53e7:	49 8b 7d 08          	mov    rdi,QWORD PTR [r13+0x8]
    53eb:	48 89 d1             	mov    rcx,rdx
    53ee:	48 83 c1 e0          	add    rcx,0xffffffffffffffe0
    53f2:	48 89 5a e0          	mov    QWORD PTR [rdx-0x20],rbx
    53f6:	4c 89 7a e8          	mov    QWORD PTR [rdx-0x18],r15
    53fa:	be 01 00 00 00       	mov    esi,0x1
    53ff:	48 89 72 f0          	mov    QWORD PTR [rdx-0x10],rsi
    5403:	be 01 00 00 00       	mov    esi,0x1
    5408:	48 89 72 f8          	mov    QWORD PTR [rdx-0x8],rsi
    540c:	48 31 f6             	xor    rsi,rsi
    540f:	4c 89 e2             	mov    rdx,r12
    5412:	48 b8 00 00 00 00 00 	movabs rax,0x0
    5419:	00 00 00 
			5414: R_X86_64_64	do_callback
    541c:	48 89 9c 24 60 06 00 	mov    QWORD PTR [rsp+0x660],rbx
    5423:	00 
    5424:	48 89 bc 24 68 06 00 	mov    QWORD PTR [rsp+0x668],rdi
    542b:	00 
    542c:	4c 89 ac 24 70 06 00 	mov    QWORD PTR [rsp+0x670],r13
    5433:	00 
    5434:	ff d0                	call   rax
    5436:	48 8b 9c 24 60 06 00 	mov    rbx,QWORD PTR [rsp+0x660]
    543d:	00 
    543e:	4c 8b ac 24 70 06 00 	mov    r13,QWORD PTR [rsp+0x670]
    5445:	00 
    5446:	48 89 c6             	mov    rsi,rax
    5449:	48 89 b4 24 60 06 00 	mov    QWORD PTR [rsp+0x660],rsi
    5450:	00 
    5451:	49 8b 7d 08          	mov    rdi,QWORD PTR [r13+0x8]
    5455:	48 89 d1             	mov    rcx,rdx
    5458:	48 83 c1 e0          	add    rcx,0xffffffffffffffe0
    545c:	48 89 5a e0          	mov    QWORD PTR [rdx-0x20],rbx
    5460:	4c 89 7a e8          	mov    QWORD PTR [rdx-0x18],r15
    5464:	be 01 00 00 00       	mov    esi,0x1
    5469:	48 89 72 f0          	mov    QWORD PTR [rdx-0x10],rsi
    546d:	be 01 00 00 00       	mov    esi,0x1
    5472:	48 89 72 f8          	mov    QWORD PTR [rdx-0x8],rsi
    5476:	48 31 f6             	xor    rsi,rsi
    5479:	4c 89 e2             	mov    rdx,r12
    547c:	48 b8 00 00 00 00 00 	movabs rax,0x0
    5483:	00 00 00 
			547e: R_X86_64_64	do_callback
    5486:	48 89 9c 24 68 06 00 	mov    QWORD PTR [rsp+0x668],rbx
    548d:	00 
    548e:	48 89 bc 24 70 06 00 	mov    QWORD PTR [rsp+0x670],rdi
    5495:	00 
    5496:	4c 89 ac 24 78 06 00 	mov    QWORD PTR [rsp+0x678],r13
    549d:	00 
    549e:	ff d0                	call   rax
    54a0:	48 8b 9c 24 68 06 00 	mov    rbx,QWORD PTR [rsp+0x668]
    54a7:	00 
    54a8:	4c 8b ac 24 78 06 00 	mov    r13,QWORD PTR [rsp+0x678]
    54af:	00 
    54b0:	48 89 c6             	mov    rsi,rax
    54b3:	48 89 b4 24 68 06 00 	mov    QWORD PTR [rsp+0x668],rsi
    54ba:	00 
    54bb:	49 8b 7d 08          	mov    rdi,QWORD PTR [r13+0x8]
    54bf:	48 89 d1             	mov    rcx,rdx
    54c2:	48 83 c1 e0          	add    rcx,0xffffffffffffffe0
    54c6:	48 89 5a e0          	mov    QWORD PTR [rdx-0x20],rbx
    54ca:	4c 89 7a e8          	mov    QWORD PTR [rdx-0x18],r15
    54ce:	be 01 00 00 00       	mov    esi,0x1
    54d3:	48 89 72 f0          	mov    QWORD PTR [rdx-0x10],rsi
    54d7:	be 01 00 00 00       	mov    esi,0x1
    54dc:	48 89 72 f8          	mov    QWORD PTR [rdx-0x8],rsi
    54e0:	48 31 f6             	xor    rsi,rsi
    54e3:	4c 89 e2             	mov    rdx,r12
    54e6:	48 b8 00 00 00 00 00 	movabs rax,0x0
    54ed:	00 00 00 
			54e8: R_X86_64_64	do_callback
    54f0:	48 89 9c 24 70 06 00 	mov    QWORD PTR [rsp+0x670],rbx
    54f7:	00 
    54f8:	48 89 bc 24 78 06 00 	mov    QWORD PTR [rsp+0x678],rdi
    54ff:	00 
    5500:	4c 89 ac 24 80 06 00 	mov    QWORD PTR [rsp+0x680],r13
    5507:	00 
    5508:	ff d0                	call   rax
    550a:	48 8b 9c 24 70 06 00 	mov    rbx,QWORD PTR [rsp+0x670]
    5511:	00 
    5512:	4c 8b ac 24 80 06 00 	mov    r13,QWORD PTR [rsp+0x680]
    5519:	00 
    551a:	48 89 c6             	mov    rsi,rax
    551d:	48 89 b4 24 70 06 00 	mov    QWORD PTR [rsp+0x670],rsi
    5524:	00 
    5525:	49 8b 7d 08          	mov    rdi,QWORD PTR [r13+0x8]
    5529:	48 89 d1             	mov    rcx,rdx
    552c:	48 83 c1 e0          	add    rcx,0xffffffffffffffe0
    5530:	48 89 5a e0          	mov    QWORD PTR [rdx-0x20],rbx
    5534:	4c 89 7a e8          	mov    QWORD PTR [rdx-0x18],r15
    5538:	be 01 00 00 00       	mov    esi,0x1
    553d:	48 89 72 f0          	mov    QWORD PTR [rdx-0x10],rsi
    5541:	be 01 00 00 00       	mov    esi,0x1
    5546:	48 89 72 f8          	mov    QWORD PTR [rdx-0x8],rsi
    554a:	48 31 f6             	xor    rsi,rsi
    554d:	4c 89 e2             	mov    rdx,r12
    5550:	48 b8 00 00 00 00 00 	movabs rax,0x0
    5557:	00 00 00 
			5552: R_X86_64_64	do_callback
    555a:	48 89 9c 24 78 06 00 	mov    QWORD PTR [rsp+0x678],rbx
    5561:	00 
    5562:	48 89 bc 24 80 06 00 	mov    QWORD PTR [rsp+0x680],rdi
    5569:	00 
    556a:	4c 89 ac 24 88 06 00 	mov    QWORD PTR [rsp+0x688],r13
    5571:	00 
    5572:	ff d0                	call   rax
    5574:	48 8b 9c 24 78 06 00 	mov    rbx,QWORD PTR [rsp+0x678]
    557b:	00 
    557c:	4c 8b ac 24 88 06 00 	mov    r13,QWORD PTR [rsp+0x688]
    5583:	00 
    5584:	48 89 c6             	mov    rsi,rax
    5587:	48 89 b4 24 78 06 00 	mov    QWORD PTR [rsp+0x678],rsi
    558e:	00 
    558f:	49 8b 7d 08          	mov    rdi,QWORD PTR [r13+0x8]
    5593:	48 89 d1             	mov    rcx,rdx
    5596:	48 83 c1 e0          	add    rcx,0xffffffffffffffe0
    559a:	48 89 5a e0          	mov    QWORD PTR [rdx-0x20],rbx
    559e:	4c 89 7a e8          	mov    QWORD PTR [rdx-0x18],r15
    55a2:	be 01 00 00 00       	mov    esi,0x1
    55a7:	48 89 72 f0          	mov    QWORD PTR [rdx-0x10],rsi
    55ab:	be 01 00 00 00       	mov    esi,0x1
    55b0:	48 89 72 f8          	mov    QWORD PTR [rdx-0x8],rsi
    55b4:	48 31 f6             	xor    rsi,rsi
    55b7:	4c 89 e2             	mov    rdx,r12
    55ba:	48 b8 00 00 00 00 00 	movabs rax,0x0
    55c1:	00 00 00 
			55bc: R_X86_64_64	do_callback
    55c4:	48 89 9c 24 80 06 00 	mov    QWORD PTR [rsp+0x680],rbx
    55cb:	00 
    55cc:	48 89 bc 24 88 06 00 	mov    QWORD PTR [rsp+0x688],rdi
    55d3:	00 
    55d4:	4c 89 ac 24 90 06 00 	mov    QWORD PTR [rsp+0x690],r13
    55db:	00 
    55dc:	ff d0                	call   rax
    55de:	48 8b 9c 24 80 06 00 	mov    rbx,QWORD PTR [rsp+0x680]
    55e5:	00 
    55e6:	4c 8b ac 24 90 06 00 	mov    r13,QWORD PTR [rsp+0x690]
    55ed:	00 
    55ee:	48 89 c6             	mov    rsi,rax
    55f1:	48 89 b4 24 80 06 00 	mov    QWORD PTR [rsp+0x680],rsi
    55f8:	00 
    55f9:	49 8b 7d 08          	mov    rdi,QWORD PTR [r13+0x8]
    55fd:	48 89 d1             	mov    rcx,rdx
    5600:	48 83 c1 e0          	add    rcx,0xffffffffffffffe0
    5604:	48 89 5a e0          	mov    QWORD PTR [rdx-0x20],rbx
    5608:	4c 89 7a e8          	mov    QWORD PTR [rdx-0x18],r15
    560c:	be 01 00 00 00       	mov    esi,0x1
    5611:	48 89 72 f0          	mov    QWORD PTR [rdx-0x10],rsi
    5615:	be 01 00 00 00       	mov    esi,0x1
    561a:	48 89 72 f8          	mov    QWORD PTR [rdx-0x8],rsi
    561e:	48 31 f6             	xor    rsi,rsi
    5621:	4c 89 e2             	mov    rdx,r12
    5624:	48 b8 00 00 00 00 00 	movabs rax,0x0
    562b:	00 00 00 
			5626: R_X86_64_64	do_callback
    562e:	48 89 9c 24 88 06 00 	mov    QWORD PTR [rsp+0x688],rbx
    5635:	00 
    5636:	48 89 bc 24 90 06 00 	mov    QWORD PTR [rsp+0x690],rdi
    563d:	00 
    563e:	4c 89 ac 24 98 06 00 	mov    QWORD PTR [rsp+0x698],r13
    5645:	00 
    5646:	ff d0                	call   rax
    5648:	48 8b 9c 24 88 06 00 	mov    rbx,QWORD PTR [rsp+0x688]
    564f:	00 
    5650:	4c 8b ac 24 98 06 00 	mov    r13,QWORD PTR [rsp+0x698]
    5657:	00 
    5658:	48 89 c6             	mov    rsi,rax
    565b:	48 89 b4 24 88 06 00 	mov    QWORD PTR [rsp+0x688],rsi
    5662:	00 
    5663:	49 8b 7d 08          	mov    rdi,QWORD PTR [r13+0x8]
    5667:	48 89 d1             	mov    rcx,rdx
    566a:	48 83 c1 e0          	add    rcx,0xffffffffffffffe0
    566e:	48 89 5a e0          	mov    QWORD PTR [rdx-0x20],rbx
    5672:	4c 89 7a e8          	mov    QWORD PTR [rdx-0x18],r15
    5676:	be 01 00 00 00       	mov    esi,0x1
    567b:	48 89 72 f0          	mov    QWORD PTR [rdx-0x10],rsi
    567f:	be 01 00 00 00       	mov    esi,0x1
    5684:	48 89 72 f8          	mov    QWORD PTR [rdx-0x8],rsi
    5688:	48 31 f6             	xor    rsi,rsi
    568b:	4c 89 e2             	mov    rdx,r12
    568e:	48 b8 00 00 00 00 00 	movabs rax,0x0
    5695:	00 00 00 
			5690: R_X86_64_64	do_callback
    5698:	48 89 9c 24 90 06 00 	mov    QWORD PTR [rsp+0x690],rbx
    569f:	00 
    56a0:	48 89 bc 24 98 06 00 	mov    QWORD PTR [rsp+0x698],rdi
    56a7:	00 
    56a8:	4c 89 ac 24 a0 06 00 	mov    QWORD PTR [rsp+0x6a0],r13
    56af:	00 
    56b0:	ff d0                	call   rax
    56b2:	48 8b 9c 24 90 06 00 	mov    rbx,QWORD PTR [rsp+0x690]
    56b9:	00 
    56ba:	4c 8b ac 24 a0 06 00 	mov    r13,QWORD PTR [rsp+0x6a0]
    56c1:	00 
    56c2:	48 89 c6             	mov    rsi,rax
    56c5:	48 89 b4 24 90 06 00 	mov    QWORD PTR [rsp+0x690],rsi
    56cc:	00 
    56cd:	49 8b 7d 08          	mov    rdi,QWORD PTR [r13+0x8]
    56d1:	48 89 d1             	mov    rcx,rdx
    56d4:	48 83 c1 e0          	add    rcx,0xffffffffffffffe0
    56d8:	48 89 5a e0          	mov    QWORD PTR [rdx-0x20],rbx
    56dc:	4c 89 7a e8          	mov    QWORD PTR [rdx-0x18],r15
    56e0:	be 01 00 00 00       	mov    esi,0x1
    56e5:	48 89 72 f0          	mov    QWORD PTR [rdx-0x10],rsi
    56e9:	be 01 00 00 00       	mov    esi,0x1
    56ee:	48 89 72 f8          	mov    QWORD PTR [rdx-0x8],rsi
    56f2:	48 31 f6             	xor    rsi,rsi
    56f5:	4c 89 e2             	mov    rdx,r12
    56f8:	48 b8 00 00 00 00 00 	movabs rax,0x0
    56ff:	00 00 00 
			56fa: R_X86_64_64	do_callback
    5702:	48 89 9c 24 98 06 00 	mov    QWORD PTR [rsp+0x698],rbx
    5709:	00 
    570a:	48 89 bc 24 a0 06 00 	mov    QWORD PTR [rsp+0x6a0],rdi
    5711:	00 
    5712:	4c 89 ac 24 a8 06 00 	mov    QWORD PTR [rsp+0x6a8],r13
    5719:	00 
    571a:	ff d0                	call   rax
    571c:	48 8b 9c 24 98 06 00 	mov    rbx,QWORD PTR [rsp+0x698]
    5723:	00 
    5724:	4c 8b ac 24 a8 06 00 	mov    r13,QWORD PTR [rsp+0x6a8]
    572b:	00 
    572c:	48 89 c6             	mov    rsi,rax
    572f:	48 89 b4 24 98 06 00 	mov    QWORD PTR [rsp+0x698],rsi
    5736:	00 
    5737:	49 8b 7d 08          	mov    rdi,QWORD PTR [r13+0x8]
    573b:	48 89 d1             	mov    rcx,rdx
    573e:	48 83 c1 e0          	add    rcx,0xffffffffffffffe0
    5742:	48 89 5a e0          	mov    QWORD PTR [rdx-0x20],rbx
    5746:	4c 89 7a e8          	mov    QWORD PTR [rdx-0x18],r15
    574a:	be 01 00 00 00       	mov    esi,0x1
    574f:	48 89 72 f0          	mov    QWORD PTR [rdx-0x10],rsi
    5753:	be 01 00 00 00       	mov    esi,0x1
    5758:	48 89 72 f8          	mov    QWORD PTR [rdx-0x8],rsi
    575c:	48 31 f6             	xor    rsi,rsi
    575f:	4c 89 e2             	mov    rdx,r12
    5762:	48 b8 00 00 00 00 00 	movabs rax,0x0
    5769:	00 00 00 
			5764: R_X86_64_64	do_callback
    576c:	48 89 9c 24 a0 06 00 	mov    QWORD PTR [rsp+0x6a0],rbx
    5773:	00 
    5774:	48 89 bc 24 a8 06 00 	mov    QWORD PTR [rsp+0x6a8],rdi
    577b:	00 
    577c:	4c 89 ac 24 b0 06 00 	mov    QWORD PTR [rsp+0x6b0],r13
    5783:	00 
    5784:	ff d0                	call   rax
    5786:	48 8b 9c 24 a0 06 00 	mov    rbx,QWORD PTR [rsp+0x6a0]
    578d:	00 
    578e:	4c 8b ac 24 b0 06 00 	mov    r13,QWORD PTR [rsp+0x6b0]
    5795:	00 
    5796:	48 89 c6             	mov    rsi,rax
    5799:	48 89 b4 24 a0 06 00 	mov    QWORD PTR [rsp+0x6a0],rsi
    57a0:	00 
    57a1:	49 8b 7d 08          	mov    rdi,QWORD PTR [r13+0x8]
    57a5:	48 89 d1             	mov    rcx,rdx
    57a8:	48 83 c1 e0          	add    rcx,0xffffffffffffffe0
    57ac:	48 89 5a e0          	mov    QWORD PTR [rdx-0x20],rbx
    57b0:	4c 89 7a e8          	mov    QWORD PTR [rdx-0x18],r15
    57b4:	be 01 00 00 00       	mov    esi,0x1
    57b9:	48 89 72 f0          	mov    QWORD PTR [rdx-0x10],rsi
    57bd:	be 01 00 00 00       	mov    esi,0x1
    57c2:	48 89 72 f8          	mov    QWORD PTR [rdx-0x8],rsi
    57c6:	48 31 f6             	xor    rsi,rsi
    57c9:	4c 89 e2             	mov    rdx,r12
    57cc:	48 b8 00 00 00 00 00 	movabs rax,0x0
    57d3:	00 00 00 
			57ce: R_X86_64_64	do_callback
    57d6:	48 89 9c 24 a8 06 00 	mov    QWORD PTR [rsp+0x6a8],rbx
    57dd:	00 
    57de:	48 89 bc 24 b0 06 00 	mov    QWORD PTR [rsp+0x6b0],rdi
    57e5:	00 
    57e6:	4c 89 ac 24 b8 06 00 	mov    QWORD PTR [rsp+0x6b8],r13
    57ed:	00 
    57ee:	ff d0                	call   rax
    57f0:	48 8b 9c 24 a8 06 00 	mov    rbx,QWORD PTR [rsp+0x6a8]
    57f7:	00 
    57f8:	4c 8b ac 24 b8 06 00 	mov    r13,QWORD PTR [rsp+0x6b8]
    57ff:	00 
    5800:	48 89 c6             	mov    rsi,rax
    5803:	48 89 b4 24 a8 06 00 	mov    QWORD PTR [rsp+0x6a8],rsi
    580a:	00 
    580b:	49 8b 7d 08          	mov    rdi,QWORD PTR [r13+0x8]
    580f:	48 89 d1             	mov    rcx,rdx
    5812:	48 83 c1 e0          	add    rcx,0xffffffffffffffe0
    5816:	48 89 5a e0          	mov    QWORD PTR [rdx-0x20],rbx
    581a:	4c 89 7a e8          	mov    QWORD PTR [rdx-0x18],r15
    581e:	be 01 00 00 00       	mov    esi,0x1
    5823:	48 89 72 f0          	mov    QWORD PTR [rdx-0x10],rsi
    5827:	be 01 00 00 00       	mov    esi,0x1
    582c:	48 89 72 f8          	mov    QWORD PTR [rdx-0x8],rsi
    5830:	48 31 f6             	xor    rsi,rsi
    5833:	4c 89 e2             	mov    rdx,r12
    5836:	48 b8 00 00 00 00 00 	movabs rax,0x0
    583d:	00 00 00 
			5838: R_X86_64_64	do_callback
    5840:	48 89 9c 24 b0 06 00 	mov    QWORD PTR [rsp+0x6b0],rbx
    5847:	00 
    5848:	48 89 bc 24 b8 06 00 	mov    QWORD PTR [rsp+0x6b8],rdi
    584f:	00 
    5850:	4c 89 ac 24 c0 06 00 	mov    QWORD PTR [rsp+0x6c0],r13
    5857:	00 
    5858:	ff d0                	call   rax
    585a:	48 8b 9c 24 b0 06 00 	mov    rbx,QWORD PTR [rsp+0x6b0]
    5861:	00 
    5862:	4c 8b ac 24 c0 06 00 	mov    r13,QWORD PTR [rsp+0x6c0]
    5869:	00 
    586a:	48 89 c6             	mov    rsi,rax
    586d:	48 89 b4 24 b0 06 00 	mov    QWORD PTR [rsp+0x6b0],rsi
    5874:	00 
    5875:	49 8b 7d 08          	mov    rdi,QWORD PTR [r13+0x8]
    5879:	48 89 d1             	mov    rcx,rdx
    587c:	48 83 c1 e0          	add    rcx,0xffffffffffffffe0
    5880:	48 89 5a e0          	mov    QWORD PTR [rdx-0x20],rbx
    5884:	4c 89 7a e8          	mov    QWORD PTR [rdx-0x18],r15
    5888:	be 01 00 00 00       	mov    esi,0x1
    588d:	48 89 72 f0          	mov    QWORD PTR [rdx-0x10],rsi
    5891:	be 01 00 00 00       	mov    esi,0x1
    5896:	48 89 72 f8          	mov    QWORD PTR [rdx-0x8],rsi
    589a:	48 31 f6             	xor    rsi,rsi
    589d:	4c 89 e2             	mov    rdx,r12
    58a0:	48 b8 00 00 00 00 00 	movabs rax,0x0
    58a7:	00 00 00 
			58a2: R_X86_64_64	do_callback
    58aa:	48 89 9c 24 b8 06 00 	mov    QWORD PTR [rsp+0x6b8],rbx
    58b1:	00 
    58b2:	48 89 bc 24 c0 06 00 	mov    QWORD PTR [rsp+0x6c0],rdi
    58b9:	00 
    58ba:	4c 89 ac 24 c8 06 00 	mov    QWORD PTR [rsp+0x6c8],r13
    58c1:	00 
    58c2:	ff d0                	call   rax
    58c4:	48 8b 9c 24 b8 06 00 	mov    rbx,QWORD PTR [rsp+0x6b8]
    58cb:	00 
    58cc:	4c 8b ac 24 c8 06 00 	mov    r13,QWORD PTR [rsp+0x6c8]
    58d3:	00 
    58d4:	48 89 c6             	mov    rsi,rax
    58d7:	48 89 b4 24 b8 06 00 	mov    QWORD PTR [rsp+0x6b8],rsi
    58de:	00 
    58df:	49 8b 7d 08          	mov    rdi,QWORD PTR [r13+0x8]
    58e3:	48 89 d1             	mov    rcx,rdx
    58e6:	48 83 c1 e0          	add    rcx,0xffffffffffffffe0
    58ea:	48 89 5a e0          	mov    QWORD PTR [rdx-0x20],rbx
    58ee:	4c 89 7a e8          	mov    QWORD PTR [rdx-0x18],r15
    58f2:	be 01 00 00 00       	mov    esi,0x1
    58f7:	48 89 72 f0          	mov    QWORD PTR [rdx-0x10],rsi
    58fb:	be 01 00 00 00       	mov    esi,0x1
    5900:	48 89 72 f8          	mov    QWORD PTR [rdx-0x8],rsi
    5904:	48 31 f6             	xor    rsi,rsi
    5907:	4c 89 e2             	mov    rdx,r12
    590a:	48 b8 00 00 00 00 00 	movabs rax,0x0
    5911:	00 00 00 
			590c: R_X86_64_64	do_callback
    5914:	48 89 9c 24 c0 06 00 	mov    QWORD PTR [rsp+0x6c0],rbx
    591b:	00 
    591c:	48 89 bc 24 c8 06 00 	mov    QWORD PTR [rsp+0x6c8],rdi
    5923:	00 
    5924:	4c 89 ac 24 d0 06 00 	mov    QWORD PTR [rsp+0x6d0],r13
    592b:	00 
    592c:	ff d0                	call   rax
    592e:	48 8b 9c 24 c0 06 00 	mov    rbx,QWORD PTR [rsp+0x6c0]
    5935:	00 
    5936:	4c 8b ac 24 d0 06 00 	mov    r13,QWORD PTR [rsp+0x6d0]
    593d:	00 
    593e:	48 89 c6             	mov    rsi,rax
    5941:	48 89 b4 24 c0 06 00 	mov    QWORD PTR [rsp+0x6c0],rsi
    5948:	00 
    5949:	49 8b 7d 08          	mov    rdi,QWORD PTR [r13+0x8]
    594d:	48 89 d1             	mov    rcx,rdx
    5950:	48 83 c1 e0          	add    rcx,0xffffffffffffffe0
    5954:	48 89 5a e0          	mov    QWORD PTR [rdx-0x20],rbx
    5958:	4c 89 7a e8          	mov    QWORD PTR [rdx-0x18],r15
    595c:	be 01 00 00 00       	mov    esi,0x1
    5961:	48 89 72 f0          	mov    QWORD PTR [rdx-0x10],rsi
    5965:	be 01 00 00 00       	mov    esi,0x1
    596a:	48 89 72 f8          	mov    QWORD PTR [rdx-0x8],rsi
    596e:	48 31 f6             	xor    rsi,rsi
    5971:	4c 89 e2             	mov    rdx,r12
    5974:	48 b8 00 00 00 00 00 	movabs rax,0x0
    597b:	00 00 00 
			5976: R_X86_64_64	do_callback
    597e:	48 89 9c 24 c8 06 00 	mov    QWORD PTR [rsp+0x6c8],rbx
    5985:	00 
    5986:	48 89 bc 24 d0 06 00 	mov    QWORD PTR [rsp+0x6d0],rdi
    598d:	00 
    598e:	4c 89 ac 24 d8 06 00 	mov    QWORD PTR [rsp+0x6d8],r13
    5995:	00 
    5996:	ff d0                	call   rax
    5998:	48 8b 9c 24 c8 06 00 	mov    rbx,QWORD PTR [rsp+0x6c8]
    599f:	00 
    59a0:	4c 8b ac 24 d8 06 00 	mov    r13,QWORD PTR [rsp+0x6d8]
    59a7:	00 
    59a8:	48 89 c6             	mov    rsi,rax
    59ab:	48 89 b4 24 c8 06 00 	mov    QWORD PTR [rsp+0x6c8],rsi
    59b2:	00 
    59b3:	49 8b 7d 08          	mov    rdi,QWORD PTR [r13+0x8]
    59b7:	48 89 d1             	mov    rcx,rdx
    59ba:	48 83 c1 e0          	add    rcx,0xffffffffffffffe0
    59be:	48 89 5a e0          	mov    QWORD PTR [rdx-0x20],rbx
    59c2:	4c 89 7a e8          	mov    QWORD PTR [rdx-0x18],r15
    59c6:	be 01 00 00 00       	mov    esi,0x1
    59cb:	48 89 72 f0          	mov    QWORD PTR [rdx-0x10],rsi
    59cf:	be 01 00 00 00       	mov    esi,0x1
    59d4:	48 89 72 f8          	mov    QWORD PTR [rdx-0x8],rsi
    59d8:	48 31 f6             	xor    rsi,rsi
    59db:	4c 89 e2             	mov    rdx,r12
    59de:	48 b8 00 00 00 00 00 	movabs rax,0x0
    59e5:	00 00 00 
			59e0: R_X86_64_64	do_callback
    59e8:	48 89 9c 24 d0 06 00 	mov    QWORD PTR [rsp+0x6d0],rbx
    59ef:	00 
    59f0:	48 89 bc 24 d8 06 00 	mov    QWORD PTR [rsp+0x6d8],rdi
    59f7:	00 
    59f8:	4c 89 ac 24 e0 06 00 	mov    QWORD PTR [rsp+0x6e0],r13
    59ff:	00 
    5a00:	ff d0                	call   rax
    5a02:	48 8b 9c 24 d0 06 00 	mov    rbx,QWORD PTR [rsp+0x6d0]
    5a09:	00 
    5a0a:	4c 8b ac 24 e0 06 00 	mov    r13,QWORD PTR [rsp+0x6e0]
    5a11:	00 
    5a12:	48 89 c6             	mov    rsi,rax
    5a15:	48 89 b4 24 d0 06 00 	mov    QWORD PTR [rsp+0x6d0],rsi
    5a1c:	00 
    5a1d:	49 8b 7d 08          	mov    rdi,QWORD PTR [r13+0x8]
    5a21:	48 89 d1             	mov    rcx,rdx
    5a24:	48 83 c1 e0          	add    rcx,0xffffffffffffffe0
    5a28:	48 89 5a e0          	mov    QWORD PTR [rdx-0x20],rbx
    5a2c:	4c 89 7a e8          	mov    QWORD PTR [rdx-0x18],r15
    5a30:	be 01 00 00 00       	mov    esi,0x1
    5a35:	48 89 72 f0          	mov    QWORD PTR [rdx-0x10],rsi
    5a39:	be 01 00 00 00       	mov    esi,0x1
    5a3e:	48 89 72 f8          	mov    QWORD PTR [rdx-0x8],rsi
    5a42:	48 31 f6             	xor    rsi,rsi
    5a45:	4c 89 e2             	mov    rdx,r12
    5a48:	48 b8 00 00 00 00 00 	movabs rax,0x0
    5a4f:	00 00 00 
			5a4a: R_X86_64_64	do_callback
    5a52:	48 89 9c 24 d8 06 00 	mov    QWORD PTR [rsp+0x6d8],rbx
    5a59:	00 
    5a5a:	48 89 bc 24 e0 06 00 	mov    QWORD PTR [rsp+0x6e0],rdi
    5a61:	00 
    5a62:	4c 89 ac 24 e8 06 00 	mov    QWORD PTR [rsp+0x6e8],r13
    5a69:	00 
    5a6a:	ff d0                	call   rax
    5a6c:	48 8b 9c 24 d8 06 00 	mov    rbx,QWORD PTR [rsp+0x6d8]
    5a73:	00 
    5a74:	4c 8b ac 24 e8 06 00 	mov    r13,QWORD PTR [rsp+0x6e8]
    5a7b:	00 
    5a7c:	48 89 c6             	mov    rsi,rax
    5a7f:	48 89 b4 24 d8 06 00 	mov    QWORD PTR [rsp+0x6d8],rsi
    5a86:	00 
    5a87:	49 8b 7d 08          	mov    rdi,QWORD PTR [r13+0x8]
    5a8b:	48 89 d1             	mov    rcx,rdx
    5a8e:	48 83 c1 e0          	add    rcx,0xffffffffffffffe0
    5a92:	48 89 5a e0          	mov    QWORD PTR [rdx-0x20],rbx
    5a96:	4c 89 7a e8          	mov    QWORD PTR [rdx-0x18],r15
    5a9a:	be 01 00 00 00       	mov    esi,0x1
    5a9f:	48 89 72 f0          	mov    QWORD PTR [rdx-0x10],rsi
    5aa3:	be 01 00 00 00       	mov    esi,0x1
    5aa8:	48 89 72 f8          	mov    QWORD PTR [rdx-0x8],rsi
    5aac:	48 31 f6             	xor    rsi,rsi
    5aaf:	4c 89 e2             	mov    rdx,r12
    5ab2:	48 b8 00 00 00 00 00 	movabs rax,0x0
    5ab9:	00 00 00 
			5ab4: R_X86_64_64	do_callback
    5abc:	48 89 9c 24 e0 06 00 	mov    QWORD PTR [rsp+0x6e0],rbx
    5ac3:	00 
    5ac4:	48 89 bc 24 e8 06 00 	mov    QWORD PTR [rsp+0x6e8],rdi
    5acb:	00 
    5acc:	4c 89 ac 24 f0 06 00 	mov    QWORD PTR [rsp+0x6f0],r13
    5ad3:	00 
    5ad4:	ff d0                	call   rax
    5ad6:	48 8b 9c 24 e0 06 00 	mov    rbx,QWORD PTR [rsp+0x6e0]
    5add:	00 
    5ade:	4c 8b ac 24 f0 06 00 	mov    r13,QWORD PTR [rsp+0x6f0]
    5ae5:	00 
    5ae6:	48 89 c6             	mov    rsi,rax
    5ae9:	48 89 b4 24 e0 06 00 	mov    QWORD PTR [rsp+0x6e0],rsi
    5af0:	00 
    5af1:	49 8b 7d 08          	mov    rdi,QWORD PTR [r13+0x8]
    5af5:	48 89 d1             	mov    rcx,rdx
    5af8:	48 83 c1 e0          	add    rcx,0xffffffffffffffe0
    5afc:	48 89 5a e0          	mov    QWORD PTR [rdx-0x20],rbx
    5b00:	4c 89 7a e8          	mov    QWORD PTR [rdx-0x18],r15
    5b04:	be 01 00 00 00       	mov    esi,0x1
    5b09:	48 89 72 f0          	mov    QWORD PTR [rdx-0x10],rsi
    5b0d:	be 01 00 00 00       	mov    esi,0x1
    5b12:	48 89 72 f8          	mov    QWORD PTR [rdx-0x8],rsi
    5b16:	48 31 f6             	xor    rsi,rsi
    5b19:	4c 89 e2             	mov    rdx,r12
    5b1c:	48 b8 00 00 00 00 00 	movabs rax,0x0
    5b23:	00 00 00 
			5b1e: R_X86_64_64	do_callback
    5b26:	48 89 9c 24 e8 06 00 	mov    QWORD PTR [rsp+0x6e8],rbx
    5b2d:	00 
    5b2e:	48 89 bc 24 f0 06 00 	mov    QWORD PTR [rsp+0x6f0],rdi
    5b35:	00 
    5b36:	4c 89 ac 24 f8 06 00 	mov    QWORD PTR [rsp+0x6f8],r13
    5b3d:	00 
    5b3e:	ff d0                	call   rax
    5b40:	48 8b 9c 24 e8 06 00 	mov    rbx,QWORD PTR [rsp+0x6e8]
    5b47:	00 
    5b48:	4c 8b ac 24 f8 06 00 	mov    r13,QWORD PTR [rsp+0x6f8]
    5b4f:	00 
    5b50:	48 89 c6             	mov    rsi,rax
    5b53:	48 89 b4 24 e8 06 00 	mov    QWORD PTR [rsp+0x6e8],rsi
    5b5a:	00 
    5b5b:	49 8b 7d 08          	mov    rdi,QWORD PTR [r13+0x8]
    5b5f:	48 89 d1             	mov    rcx,rdx
    5b62:	48 83 c1 e0          	add    rcx,0xffffffffffffffe0
    5b66:	48 89 5a e0          	mov    QWORD PTR [rdx-0x20],rbx
    5b6a:	4c 89 7a e8          	mov    QWORD PTR [rdx-0x18],r15
    5b6e:	be 01 00 00 00       	mov    esi,0x1
    5b73:	48 89 72 f0          	mov    QWORD PTR [rdx-0x10],rsi
    5b77:	be 01 00 00 00       	mov    esi,0x1
    5b7c:	48 89 72 f8          	mov    QWORD PTR [rdx-0x8],rsi
    5b80:	48 31 f6             	xor    rsi,rsi
    5b83:	4c 89 e2             	mov    rdx,r12
    5b86:	48 b8 00 00 00 00 00 	movabs rax,0x0
    5b8d:	00 00 00 
			5b88: R_X86_64_64	do_callback
    5b90:	48 89 9c 24 f0 06 00 	mov    QWORD PTR [rsp+0x6f0],rbx
    5b97:	00 
    5b98:	48 89 bc 24 f8 06 00 	mov    QWORD PTR [rsp+0x6f8],rdi
    5b9f:	00 
    5ba0:	4c 89 ac 24 00 07 00 	mov    QWORD PTR [rsp+0x700],r13
    5ba7:	00 
    5ba8:	ff d0                	call   rax
    5baa:	48 8b 9c 24 f0 06 00 	mov    rbx,QWORD PTR [rsp+0x6f0]
    5bb1:	00 
    5bb2:	4c 8b ac 24 00 07 00 	mov    r13,QWORD PTR [rsp+0x700]
    5bb9:	00 
    5bba:	48 89 c6             	mov    rsi,rax
    5bbd:	48 89 b4 24 f0 06 00 	mov    QWORD PTR [rsp+0x6f0],rsi
    5bc4:	00 
    5bc5:	49 8b 7d 08          	mov    rdi,QWORD PTR [r13+0x8]
    5bc9:	48 89 d1             	mov    rcx,rdx
    5bcc:	48 83 c1 e0          	add    rcx,0xffffffffffffffe0
    5bd0:	48 89 5a e0          	mov    QWORD PTR [rdx-0x20],rbx
    5bd4:	4c 89 7a e8          	mov    QWORD PTR [rdx-0x18],r15
    5bd8:	be 01 00 00 00       	mov    esi,0x1
    5bdd:	48 89 72 f0          	mov    QWORD PTR [rdx-0x10],rsi
    5be1:	be 01 00 00 00       	mov    esi,0x1
    5be6:	48 89 72 f8          	mov    QWORD PTR [rdx-0x8],rsi
    5bea:	48 31 f6             	xor    rsi,rsi
    5bed:	4c 89 e2             	mov    rdx,r12
    5bf0:	48 b8 00 00 00 00 00 	movabs rax,0x0
    5bf7:	00 00 00 
			5bf2: R_X86_64_64	do_callback
    5bfa:	48 89 9c 24 f8 06 00 	mov    QWORD PTR [rsp+0x6f8],rbx
    5c01:	00 
    5c02:	48 89 bc 24 00 07 00 	mov    QWORD PTR [rsp+0x700],rdi
    5c09:	00 
    5c0a:	4c 89 ac 24 08 07 00 	mov    QWORD PTR [rsp+0x708],r13
    5c11:	00 
    5c12:	ff d0                	call   rax
    5c14:	48 8b 9c 24 f8 06 00 	mov    rbx,QWORD PTR [rsp+0x6f8]
    5c1b:	00 
    5c1c:	4c 8b ac 24 08 07 00 	mov    r13,QWORD PTR [rsp+0x708]
    5c23:	00 
    5c24:	48 89 c6             	mov    rsi,rax
    5c27:	48 89 b4 24 f8 06 00 	mov    QWORD PTR [rsp+0x6f8],rsi
    5c2e:	00 
    5c2f:	49 8b 7d 08          	mov    rdi,QWORD PTR [r13+0x8]
    5c33:	48 89 d1             	mov    rcx,rdx
    5c36:	48 83 c1 e0          	add    rcx,0xffffffffffffffe0
    5c3a:	48 89 5a e0          	mov    QWORD PTR [rdx-0x20],rbx
    5c3e:	4c 89 7a e8          	mov    QWORD PTR [rdx-0x18],r15
    5c42:	be 01 00 00 00       	mov    esi,0x1
    5c47:	48 89 72 f0          	mov    QWORD PTR [rdx-0x10],rsi
    5c4b:	be 01 00 00 00       	mov    esi,0x1
    5c50:	48 89 72 f8          	mov    QWORD PTR [rdx-0x8],rsi
    5c54:	48 31 f6             	xor    rsi,rsi
    5c57:	4c 89 e2             	mov    rdx,r12
    5c5a:	48 b8 00 00 00 00 00 	movabs rax,0x0
    5c61:	00 00 00 
			5c5c: R_X86_64_64	do_callback
    5c64:	48 89 9c 24 00 07 00 	mov    QWORD PTR [rsp+0x700],rbx
    5c6b:	00 
    5c6c:	48 89 bc 24 08 07 00 	mov    QWORD PTR [rsp+0x708],rdi
    5c73:	00 
    5c74:	4c 89 ac 24 10 07 00 	mov    QWORD PTR [rsp+0x710],r13
    5c7b:	00 
    5c7c:	ff d0                	call   rax
    5c7e:	48 8b 9c 24 00 07 00 	mov    rbx,QWORD PTR [rsp+0x700]
    5c85:	00 
    5c86:	4c 8b ac 24 10 07 00 	mov    r13,QWORD PTR [rsp+0x710]
    5c8d:	00 
    5c8e:	48 89 c6             	mov    rsi,rax
    5c91:	48 89 b4 24 00 07 00 	mov    QWORD PTR [rsp+0x700],rsi
    5c98:	00 
    5c99:	49 8b 7d 08          	mov    rdi,QWORD PTR [r13+0x8]
    5c9d:	48 89 d1             	mov    rcx,rdx
    5ca0:	48 83 c1 e0          	add    rcx,0xffffffffffffffe0
    5ca4:	48 89 5a e0          	mov    QWORD PTR [rdx-0x20],rbx
    5ca8:	4c 89 7a e8          	mov    QWORD PTR [rdx-0x18],r15
    5cac:	be 01 00 00 00       	mov    esi,0x1
    5cb1:	48 89 72 f0          	mov    QWORD PTR [rdx-0x10],rsi
    5cb5:	be 01 00 00 00       	mov    esi,0x1
    5cba:	48 89 72 f8          	mov    QWORD PTR [rdx-0x8],rsi
    5cbe:	48 31 f6             	xor    rsi,rsi
    5cc1:	4c 89 e2             	mov    rdx,r12
    5cc4:	48 b8 00 00 00 00 00 	movabs rax,0x0
    5ccb:	00 00 00 
			5cc6: R_X86_64_64	do_callback
    5cce:	48 89 9c 24 08 07 00 	mov    QWORD PTR [rsp+0x708],rbx
    5cd5:	00 
    5cd6:	48 89 bc 24 10 07 00 	mov    QWORD PTR [rsp+0x710],rdi
    5cdd:	00 
    5cde:	4c 89 ac 24 18 07 00 	mov    QWORD PTR [rsp+0x718],r13
    5ce5:	00 
    5ce6:	ff d0                	call   rax
    5ce8:	48 8b 9c 24 08 07 00 	mov    rbx,QWORD PTR [rsp+0x708]
    5cef:	00 
    5cf0:	4c 8b ac 24 18 07 00 	mov    r13,QWORD PTR [rsp+0x718]
    5cf7:	00 
    5cf8:	48 89 c6             	mov    rsi,rax
    5cfb:	48 89 b4 24 08 07 00 	mov    QWORD PTR [rsp+0x708],rsi
    5d02:	00 
    5d03:	49 8b 7d 08          	mov    rdi,QWORD PTR [r13+0x8]
    5d07:	48 89 d1             	mov    rcx,rdx
    5d0a:	48 83 c1 e0          	add    rcx,0xffffffffffffffe0
    5d0e:	48 89 5a e0          	mov    QWORD PTR [rdx-0x20],rbx
    5d12:	4c 89 7a e8          	mov    QWORD PTR [rdx-0x18],r15
    5d16:	be 01 00 00 00       	mov    esi,0x1
    5d1b:	48 89 72 f0          	mov    QWORD PTR [rdx-0x10],rsi
    5d1f:	be 01 00 00 00       	mov    esi,0x1
    5d24:	48 89 72 f8          	mov    QWORD PTR [rdx-0x8],rsi
    5d28:	48 31 f6             	xor    rsi,rsi
    5d2b:	4c 89 e2             	mov    rdx,r12
    5d2e:	48 b8 00 00 00 00 00 	movabs rax,0x0
    5d35:	00 00 00 
			5d30: R_X86_64_64	do_callback
    5d38:	48 89 9c 24 10 07 00 	mov    QWORD PTR [rsp+0x710],rbx
    5d3f:	00 
    5d40:	48 89 bc 24 18 07 00 	mov    QWORD PTR [rsp+0x718],rdi
    5d47:	00 
    5d48:	4c 89 ac 24 20 07 00 	mov    QWORD PTR [rsp+0x720],r13
    5d4f:	00 
    5d50:	ff d0                	call   rax
    5d52:	48 8b 9c 24 10 07 00 	mov    rbx,QWORD PTR [rsp+0x710]
    5d59:	00 
    5d5a:	4c 8b ac 24 20 07 00 	mov    r13,QWORD PTR [rsp+0x720]
    5d61:	00 
    5d62:	48 89 c6             	mov    rsi,rax
    5d65:	48 89 b4 24 10 07 00 	mov    QWORD PTR [rsp+0x710],rsi
    5d6c:	00 
    5d6d:	49 8b 7d 08          	mov    rdi,QWORD PTR [r13+0x8]
    5d71:	48 89 d1             	mov    rcx,rdx
    5d74:	48 83 c1 e0          	add    rcx,0xffffffffffffffe0
    5d78:	48 89 5a e0          	mov    QWORD PTR [rdx-0x20],rbx
    5d7c:	4c 89 7a e8          	mov    QWORD PTR [rdx-0x18],r15
    5d80:	be 01 00 00 00       	mov    esi,0x1
    5d85:	48 89 72 f0          	mov    QWORD PTR [rdx-0x10],rsi
    5d89:	be 01 00 00 00       	mov    esi,0x1
    5d8e:	48 89 72 f8          	mov    QWORD PTR [rdx-0x8],rsi
    5d92:	48 31 f6             	xor    rsi,rsi
    5d95:	4c 89 e2             	mov    rdx,r12
    5d98:	48 b8 00 00 00 00 00 	movabs rax,0x0
    5d9f:	00 00 00 
			5d9a: R_X86_64_64	do_callback
    5da2:	48 89 9c 24 18 07 00 	mov    QWORD PTR [rsp+0x718],rbx
    5da9:	00 
    5daa:	48 89 bc 24 20 07 00 	mov    QWORD PTR [rsp+0x720],rdi
    5db1:	00 
    5db2:	4c 89 ac 24 28 07 00 	mov    QWORD PTR [rsp+0x728],r13
    5db9:	00 
    5dba:	ff d0                	call   rax
    5dbc:	48 8b 9c 24 18 07 00 	mov    rbx,QWORD PTR [rsp+0x718]
    5dc3:	00 
    5dc4:	4c 8b ac 24 28 07 00 	mov    r13,QWORD PTR [rsp+0x728]
    5dcb:	00 
    5dcc:	48 89 c6             	mov    rsi,rax
    5dcf:	48 89 b4 24 18 07 00 	mov    QWORD PTR [rsp+0x718],rsi
    5dd6:	00 
    5dd7:	49 8b 7d 08          	mov    rdi,QWORD PTR [r13+0x8]
    5ddb:	48 89 d1             	mov    rcx,rdx
    5dde:	48 83 c1 e0          	add    rcx,0xffffffffffffffe0
    5de2:	48 89 5a e0          	mov    QWORD PTR [rdx-0x20],rbx
    5de6:	4c 89 7a e8          	mov    QWORD PTR [rdx-0x18],r15
    5dea:	be 01 00 00 00       	mov    esi,0x1
    5def:	48 89 72 f0          	mov    QWORD PTR [rdx-0x10],rsi
    5df3:	be 01 00 00 00       	mov    esi,0x1
    5df8:	48 89 72 f8          	mov    QWORD PTR [rdx-0x8],rsi
    5dfc:	48 31 f6             	xor    rsi,rsi
    5dff:	4c 89 e2             	mov    rdx,r12
    5e02:	48 b8 00 00 00 00 00 	movabs rax,0x0
    5e09:	00 00 00 
			5e04: R_X86_64_64	do_callback
    5e0c:	48 89 9c 24 20 07 00 	mov    QWORD PTR [rsp+0x720],rbx
    5e13:	00 
    5e14:	48 89 bc 24 28 07 00 	mov    QWORD PTR [rsp+0x728],rdi
    5e1b:	00 
    5e1c:	4c 89 ac 24 30 07 00 	mov    QWORD PTR [rsp+0x730],r13
    5e23:	00 
    5e24:	ff d0                	call   rax
    5e26:	48 8b 9c 24 20 07 00 	mov    rbx,QWORD PTR [rsp+0x720]
    5e2d:	00 
    5e2e:	4c 8b ac 24 30 07 00 	mov    r13,QWORD PTR [rsp+0x730]
    5e35:	00 
    5e36:	48 89 c6             	mov    rsi,rax
    5e39:	48 89 b4 24 20 07 00 	mov    QWORD PTR [rsp+0x720],rsi
    5e40:	00 
    5e41:	49 8b 7d 08          	mov    rdi,QWORD PTR [r13+0x8]
    5e45:	48 89 d1             	mov    rcx,rdx
    5e48:	48 83 c1 e0          	add    rcx,0xffffffffffffffe0
    5e4c:	48 89 5a e0          	mov    QWORD PTR [rdx-0x20],rbx
    5e50:	4c 89 7a e8          	mov    QWORD PTR [rdx-0x18],r15
    5e54:	be 01 00 00 00       	mov    esi,0x1
    5e59:	48 89 72 f0          	mov    QWORD PTR [rdx-0x10],rsi
    5e5d:	be 01 00 00 00       	mov    esi,0x1
    5e62:	48 89 72 f8          	mov    QWORD PTR [rdx-0x8],rsi
    5e66:	48 31 f6             	xor    rsi,rsi
    5e69:	4c 89 e2             	mov    rdx,r12
    5e6c:	48 b8 00 00 00 00 00 	movabs rax,0x0
    5e73:	00 00 00 
			5e6e: R_X86_64_64	do_callback
    5e76:	48 89 9c 24 28 07 00 	mov    QWORD PTR [rsp+0x728],rbx
    5e7d:	00 
    5e7e:	48 89 bc 24 30 07 00 	mov    QWORD PTR [rsp+0x730],rdi
    5e85:	00 
    5e86:	4c 89 ac 24 38 07 00 	mov    QWORD PTR [rsp+0x738],r13
    5e8d:	00 
    5e8e:	ff d0                	call   rax
    5e90:	48 8b 9c 24 28 07 00 	mov    rbx,QWORD PTR [rsp+0x728]
    5e97:	00 
    5e98:	4c 8b ac 24 38 07 00 	mov    r13,QWORD PTR [rsp+0x738]
    5e9f:	00 
    5ea0:	48 89 c6             	mov    rsi,rax
    5ea3:	48 89 b4 24 28 07 00 	mov    QWORD PTR [rsp+0x728],rsi
    5eaa:	00 
    5eab:	49 8b 7d 08          	mov    rdi,QWORD PTR [r13+0x8]
    5eaf:	48 89 d1             	mov    rcx,rdx
    5eb2:	48 83 c1 e0          	add    rcx,0xffffffffffffffe0
    5eb6:	48 89 5a e0          	mov    QWORD PTR [rdx-0x20],rbx
    5eba:	4c 89 7a e8          	mov    QWORD PTR [rdx-0x18],r15
    5ebe:	be 01 00 00 00       	mov    esi,0x1
    5ec3:	48 89 72 f0          	mov    QWORD PTR [rdx-0x10],rsi
    5ec7:	be 01 00 00 00       	mov    esi,0x1
    5ecc:	48 89 72 f8          	mov    QWORD PTR [rdx-0x8],rsi
    5ed0:	48 31 f6             	xor    rsi,rsi
    5ed3:	4c 89 e2             	mov    rdx,r12
    5ed6:	48 b8 00 00 00 00 00 	movabs rax,0x0
    5edd:	00 00 00 
			5ed8: R_X86_64_64	do_callback
    5ee0:	48 89 9c 24 30 07 00 	mov    QWORD PTR [rsp+0x730],rbx
    5ee7:	00 
    5ee8:	48 89 bc 24 38 07 00 	mov    QWORD PTR [rsp+0x738],rdi
    5eef:	00 
    5ef0:	4c 89 ac 24 40 07 00 	mov    QWORD PTR [rsp+0x740],r13
    5ef7:	00 
    5ef8:	ff d0                	call   rax
    5efa:	48 8b 9c 24 30 07 00 	mov    rbx,QWORD PTR [rsp+0x730]
    5f01:	00 
    5f02:	4c 8b ac 24 40 07 00 	mov    r13,QWORD PTR [rsp+0x740]
    5f09:	00 
    5f0a:	48 89 c6             	mov    rsi,rax
    5f0d:	48 89 b4 24 30 07 00 	mov    QWORD PTR [rsp+0x730],rsi
    5f14:	00 
    5f15:	49 8b 7d 08          	mov    rdi,QWORD PTR [r13+0x8]
    5f19:	48 89 d1             	mov    rcx,rdx
    5f1c:	48 83 c1 e0          	add    rcx,0xffffffffffffffe0
    5f20:	48 89 5a e0          	mov    QWORD PTR [rdx-0x20],rbx
    5f24:	4c 89 7a e8          	mov    QWORD PTR [rdx-0x18],r15
    5f28:	be 01 00 00 00       	mov    esi,0x1
    5f2d:	48 89 72 f0          	mov    QWORD PTR [rdx-0x10],rsi
    5f31:	be 01 00 00 00       	mov    esi,0x1
    5f36:	48 89 72 f8          	mov    QWORD PTR [rdx-0x8],rsi
    5f3a:	48 31 f6             	xor    rsi,rsi
    5f3d:	4c 89 e2             	mov    rdx,r12
    5f40:	48 b8 00 00 00 00 00 	movabs rax,0x0
    5f47:	00 00 00 
			5f42: R_X86_64_64	do_callback
    5f4a:	48 89 9c 24 38 07 00 	mov    QWORD PTR [rsp+0x738],rbx
    5f51:	00 
    5f52:	48 89 bc 24 40 07 00 	mov    QWORD PTR [rsp+0x740],rdi
    5f59:	00 
    5f5a:	4c 89 ac 24 48 07 00 	mov    QWORD PTR [rsp+0x748],r13
    5f61:	00 
    5f62:	ff d0                	call   rax
    5f64:	48 8b 9c 24 38 07 00 	mov    rbx,QWORD PTR [rsp+0x738]
    5f6b:	00 
    5f6c:	4c 8b ac 24 48 07 00 	mov    r13,QWORD PTR [rsp+0x748]
    5f73:	00 
    5f74:	48 89 c6             	mov    rsi,rax
    5f77:	48 89 b4 24 38 07 00 	mov    QWORD PTR [rsp+0x738],rsi
    5f7e:	00 
    5f7f:	49 8b 7d 08          	mov    rdi,QWORD PTR [r13+0x8]
    5f83:	48 89 d1             	mov    rcx,rdx
    5f86:	48 83 c1 e0          	add    rcx,0xffffffffffffffe0
    5f8a:	48 89 5a e0          	mov    QWORD PTR [rdx-0x20],rbx
    5f8e:	4c 89 7a e8          	mov    QWORD PTR [rdx-0x18],r15
    5f92:	be 01 00 00 00       	mov    esi,0x1
    5f97:	48 89 72 f0          	mov    QWORD PTR [rdx-0x10],rsi
    5f9b:	be 01 00 00 00       	mov    esi,0x1
    5fa0:	48 89 72 f8          	mov    QWORD PTR [rdx-0x8],rsi
    5fa4:	48 31 f6             	xor    rsi,rsi
    5fa7:	4c 89 e2             	mov    rdx,r12
    5faa:	48 b8 00 00 00 00 00 	movabs rax,0x0
    5fb1:	00 00 00 
			5fac: R_X86_64_64	do_callback
    5fb4:	48 89 9c 24 40 07 00 	mov    QWORD PTR [rsp+0x740],rbx
    5fbb:	00 
    5fbc:	48 89 bc 24 48 07 00 	mov    QWORD PTR [rsp+0x748],rdi
    5fc3:	00 
    5fc4:	4c 89 ac 24 50 07 00 	mov    QWORD PTR [rsp+0x750],r13
    5fcb:	00 
    5fcc:	ff d0                	call   rax
    5fce:	48 8b 9c 24 40 07 00 	mov    rbx,QWORD PTR [rsp+0x740]
    5fd5:	00 
    5fd6:	4c 8b ac 24 50 07 00 	mov    r13,QWORD PTR [rsp+0x750]
    5fdd:	00 
    5fde:	48 89 c6             	mov    rsi,rax
    5fe1:	48 89 b4 24 40 07 00 	mov    QWORD PTR [rsp+0x740],rsi
    5fe8:	00 
    5fe9:	49 8b 7d 08          	mov    rdi,QWORD PTR [r13+0x8]
    5fed:	48 89 d1             	mov    rcx,rdx
    5ff0:	48 83 c1 e0          	add    rcx,0xffffffffffffffe0
    5ff4:	48 89 5a e0          	mov    QWORD PTR [rdx-0x20],rbx
    5ff8:	4c 89 7a e8          	mov    QWORD PTR [rdx-0x18],r15
    5ffc:	be 01 00 00 00       	mov    esi,0x1
    6001:	48 89 72 f0          	mov    QWORD PTR [rdx-0x10],rsi
    6005:	be 01 00 00 00       	mov    esi,0x1
    600a:	48 89 72 f8          	mov    QWORD PTR [rdx-0x8],rsi
    600e:	48 31 f6             	xor    rsi,rsi
    6011:	4c 89 e2             	mov    rdx,r12
    6014:	48 b8 00 00 00 00 00 	movabs rax,0x0
    601b:	00 00 00 
			6016: R_X86_64_64	do_callback
    601e:	48 89 9c 24 48 07 00 	mov    QWORD PTR [rsp+0x748],rbx
    6025:	00 
    6026:	48 89 bc 24 50 07 00 	mov    QWORD PTR [rsp+0x750],rdi
    602d:	00 
    602e:	4c 89 ac 24 58 07 00 	mov    QWORD PTR [rsp+0x758],r13
    6035:	00 
    6036:	ff d0                	call   rax
    6038:	48 8b 9c 24 48 07 00 	mov    rbx,QWORD PTR [rsp+0x748]
    603f:	00 
    6040:	4c 8b ac 24 58 07 00 	mov    r13,QWORD PTR [rsp+0x758]
    6047:	00 
    6048:	48 89 c6             	mov    rsi,rax
    604b:	48 89 b4 24 48 07 00 	mov    QWORD PTR [rsp+0x748],rsi
    6052:	00 
    6053:	49 8b 7d 08          	mov    rdi,QWORD PTR [r13+0x8]
    6057:	48 89 d1             	mov    rcx,rdx
    605a:	48 83 c1 e0          	add    rcx,0xffffffffffffffe0
    605e:	48 89 5a e0          	mov    QWORD PTR [rdx-0x20],rbx
    6062:	4c 89 7a e8          	mov    QWORD PTR [rdx-0x18],r15
    6066:	be 01 00 00 00       	mov    esi,0x1
    606b:	48 89 72 f0          	mov    QWORD PTR [rdx-0x10],rsi
    606f:	be 01 00 00 00       	mov    esi,0x1
    6074:	48 89 72 f8          	mov    QWORD PTR [rdx-0x8],rsi
    6078:	48 31 f6             	xor    rsi,rsi
    607b:	4c 89 e2             	mov    rdx,r12
    607e:	48 b8 00 00 00 00 00 	movabs rax,0x0
    6085:	00 00 00 
			6080: R_X86_64_64	do_callback
    6088:	48 89 9c 24 50 07 00 	mov    QWORD PTR [rsp+0x750],rbx
    608f:	00 
    6090:	48 89 bc 24 58 07 00 	mov    QWORD PTR [rsp+0x758],rdi
    6097:	00 
    6098:	4c 89 ac 24 60 07 00 	mov    QWORD PTR [rsp+0x760],r13
    609f:	00 
    60a0:	ff d0                	call   rax
    60a2:	48 8b 9c 24 50 07 00 	mov    rbx,QWORD PTR [rsp+0x750]
    60a9:	00 
    60aa:	4c 8b ac 24 60 07 00 	mov    r13,QWORD PTR [rsp+0x760]
    60b1:	00 
    60b2:	48 89 c6             	mov    rsi,rax
    60b5:	48 89 b4 24 50 07 00 	mov    QWORD PTR [rsp+0x750],rsi
    60bc:	00 
    60bd:	49 8b 7d 08          	mov    rdi,QWORD PTR [r13+0x8]
    60c1:	48 89 d1             	mov    rcx,rdx
    60c4:	48 83 c1 e0          	add    rcx,0xffffffffffffffe0
    60c8:	48 89 5a e0          	mov    QWORD PTR [rdx-0x20],rbx
    60cc:	4c 89 7a e8          	mov    QWORD PTR [rdx-0x18],r15
    60d0:	be 01 00 00 00       	mov    esi,0x1
    60d5:	48 89 72 f0          	mov    QWORD PTR [rdx-0x10],rsi
    60d9:	be 01 00 00 00       	mov    esi,0x1
    60de:	48 89 72 f8          	mov    QWORD PTR [rdx-0x8],rsi
    60e2:	48 31 f6             	xor    rsi,rsi
    60e5:	4c 89 e2             	mov    rdx,r12
    60e8:	48 b8 00 00 00 00 00 	movabs rax,0x0
    60ef:	00 00 00 
			60ea: R_X86_64_64	do_callback
    60f2:	48 89 9c 24 58 07 00 	mov    QWORD PTR [rsp+0x758],rbx
    60f9:	00 
    60fa:	48 89 bc 24 60 07 00 	mov    QWORD PTR [rsp+0x760],rdi
    6101:	00 
    6102:	4c 89 ac 24 68 07 00 	mov    QWORD PTR [rsp+0x768],r13
    6109:	00 
    610a:	ff d0                	call   rax
    610c:	48 8b 9c 24 58 07 00 	mov    rbx,QWORD PTR [rsp+0x758]
    6113:	00 
    6114:	4c 8b ac 24 68 07 00 	mov    r13,QWORD PTR [rsp+0x768]
    611b:	00 
    611c:	48 89 c6             	mov    rsi,rax
    611f:	48 89 b4 24 58 07 00 	mov    QWORD PTR [rsp+0x758],rsi
    6126:	00 
    6127:	49 8b 7d 08          	mov    rdi,QWORD PTR [r13+0x8]
    612b:	48 89 d1             	mov    rcx,rdx
    612e:	48 83 c1 e0          	add    rcx,0xffffffffffffffe0
    6132:	48 89 5a e0          	mov    QWORD PTR [rdx-0x20],rbx
    6136:	4c 89 7a e8          	mov    QWORD PTR [rdx-0x18],r15
    613a:	be 01 00 00 00       	mov    esi,0x1
    613f:	48 89 72 f0          	mov    QWORD PTR [rdx-0x10],rsi
    6143:	be 01 00 00 00       	mov    esi,0x1
    6148:	48 89 72 f8          	mov    QWORD PTR [rdx-0x8],rsi
    614c:	48 31 f6             	xor    rsi,rsi
    614f:	4c 89 e2             	mov    rdx,r12
    6152:	48 b8 00 00 00 00 00 	movabs rax,0x0
    6159:	00 00 00 
			6154: R_X86_64_64	do_callback
    615c:	48 89 9c 24 60 07 00 	mov    QWORD PTR [rsp+0x760],rbx
    6163:	00 
    6164:	48 89 bc 24 68 07 00 	mov    QWORD PTR [rsp+0x768],rdi
    616b:	00 
    616c:	4c 89 ac 24 70 07 00 	mov    QWORD PTR [rsp+0x770],r13
    6173:	00 
    6174:	ff d0                	call   rax
    6176:	48 8b 9c 24 60 07 00 	mov    rbx,QWORD PTR [rsp+0x760]
    617d:	00 
    617e:	4c 8b ac 24 70 07 00 	mov    r13,QWORD PTR [rsp+0x770]
    6185:	00 
    6186:	48 89 c6             	mov    rsi,rax
    6189:	48 89 b4 24 60 07 00 	mov    QWORD PTR [rsp+0x760],rsi
    6190:	00 
    6191:	49 8b 7d 08          	mov    rdi,QWORD PTR [r13+0x8]
    6195:	48 89 d1             	mov    rcx,rdx
    6198:	48 83 c1 e0          	add    rcx,0xffffffffffffffe0
    619c:	48 89 5a e0          	mov    QWORD PTR [rdx-0x20],rbx
    61a0:	4c 89 7a e8          	mov    QWORD PTR [rdx-0x18],r15
    61a4:	be 01 00 00 00       	mov    esi,0x1
    61a9:	48 89 72 f0          	mov    QWORD PTR [rdx-0x10],rsi
    61ad:	be 01 00 00 00       	mov    esi,0x1
    61b2:	48 89 72 f8          	mov    QWORD PTR [rdx-0x8],rsi
    61b6:	48 31 f6             	xor    rsi,rsi
    61b9:	4c 89 e2             	mov    rdx,r12
    61bc:	48 b8 00 00 00 00 00 	movabs rax,0x0
    61c3:	00 00 00 
			61be: R_X86_64_64	do_callback
    61c6:	48 89 9c 24 68 07 00 	mov    QWORD PTR [rsp+0x768],rbx
    61cd:	00 
    61ce:	48 89 bc 24 70 07 00 	mov    QWORD PTR [rsp+0x770],rdi
    61d5:	00 
    61d6:	4c 89 ac 24 78 07 00 	mov    QWORD PTR [rsp+0x778],r13
    61dd:	00 
    61de:	ff d0                	call   rax
    61e0:	48 8b 9c 24 68 07 00 	mov    rbx,QWORD PTR [rsp+0x768]
    61e7:	00 
    61e8:	4c 8b ac 24 78 07 00 	mov    r13,QWORD PTR [rsp+0x778]
    61ef:	00 
    61f0:	48 89 c6             	mov    rsi,rax
    61f3:	48 89 b4 24 68 07 00 	mov    QWORD PTR [rsp+0x768],rsi
    61fa:	00 
    61fb:	49 8b 7d 08          	mov    rdi,QWORD PTR [r13+0x8]
    61ff:	48 89 d1             	mov    rcx,rdx
    6202:	48 83 c1 e0          	add    rcx,0xffffffffffffffe0
    6206:	48 89 5a e0          	mov    QWORD PTR [rdx-0x20],rbx
    620a:	4c 89 7a e8          	mov    QWORD PTR [rdx-0x18],r15
    620e:	be 01 00 00 00       	mov    esi,0x1
    6213:	48 89 72 f0          	mov    QWORD PTR [rdx-0x10],rsi
    6217:	be 01 00 00 00       	mov    esi,0x1
    621c:	48 89 72 f8          	mov    QWORD PTR [rdx-0x8],rsi
    6220:	48 31 f6             	xor    rsi,rsi
    6223:	4c 89 e2             	mov    rdx,r12
    6226:	48 b8 00 00 00 00 00 	movabs rax,0x0
    622d:	00 00 00 
			6228: R_X86_64_64	do_callback
    6230:	48 89 9c 24 70 07 00 	mov    QWORD PTR [rsp+0x770],rbx
    6237:	00 
    6238:	48 89 bc 24 78 07 00 	mov    QWORD PTR [rsp+0x778],rdi
    623f:	00 
    6240:	4c 89 ac 24 80 07 00 	mov    QWORD PTR [rsp+0x780],r13
    6247:	00 
    6248:	ff d0                	call   rax
    624a:	48 8b 9c 24 70 07 00 	mov    rbx,QWORD PTR [rsp+0x770]
    6251:	00 
    6252:	4c 8b ac 24 80 07 00 	mov    r13,QWORD PTR [rsp+0x780]
    6259:	00 
    625a:	48 89 c6             	mov    rsi,rax
    625d:	48 89 b4 24 70 07 00 	mov    QWORD PTR [rsp+0x770],rsi
    6264:	00 
    6265:	49 8b 7d 08          	mov    rdi,QWORD PTR [r13+0x8]
    6269:	48 89 d1             	mov    rcx,rdx
    626c:	48 83 c1 e0          	add    rcx,0xffffffffffffffe0
    6270:	48 89 5a e0          	mov    QWORD PTR [rdx-0x20],rbx
    6274:	4c 89 7a e8          	mov    QWORD PTR [rdx-0x18],r15
    6278:	be 01 00 00 00       	mov    esi,0x1
    627d:	48 89 72 f0          	mov    QWORD PTR [rdx-0x10],rsi
    6281:	be 01 00 00 00       	mov    esi,0x1
    6286:	48 89 72 f8          	mov    QWORD PTR [rdx-0x8],rsi
    628a:	48 31 f6             	xor    rsi,rsi
    628d:	4c 89 e2             	mov    rdx,r12
    6290:	48 b8 00 00 00 00 00 	movabs rax,0x0
    6297:	00 00 00 
			6292: R_X86_64_64	do_callback
    629a:	48 89 9c 24 78 07 00 	mov    QWORD PTR [rsp+0x778],rbx
    62a1:	00 
    62a2:	48 89 bc 24 80 07 00 	mov    QWORD PTR [rsp+0x780],rdi
    62a9:	00 
    62aa:	4c 89 ac 24 88 07 00 	mov    QWORD PTR [rsp+0x788],r13
    62b1:	00 
    62b2:	ff d0                	call   rax
    62b4:	48 8b 9c 24 78 07 00 	mov    rbx,QWORD PTR [rsp+0x778]
    62bb:	00 
    62bc:	4c 8b ac 24 88 07 00 	mov    r13,QWORD PTR [rsp+0x788]
    62c3:	00 
    62c4:	48 89 c6             	mov    rsi,rax
    62c7:	48 89 b4 24 78 07 00 	mov    QWORD PTR [rsp+0x778],rsi
    62ce:	00 
    62cf:	49 8b 7d 08          	mov    rdi,QWORD PTR [r13+0x8]
    62d3:	48 89 d1             	mov    rcx,rdx
    62d6:	48 83 c1 e0          	add    rcx,0xffffffffffffffe0
    62da:	48 89 5a e0          	mov    QWORD PTR [rdx-0x20],rbx
    62de:	4c 89 7a e8          	mov    QWORD PTR [rdx-0x18],r15
    62e2:	be 01 00 00 00       	mov    esi,0x1
    62e7:	48 89 72 f0          	mov    QWORD PTR [rdx-0x10],rsi
    62eb:	be 01 00 00 00       	mov    esi,0x1
    62f0:	48 89 72 f8          	mov    QWORD PTR [rdx-0x8],rsi
    62f4:	48 31 f6             	xor    rsi,rsi
    62f7:	4c 89 e2             	mov    rdx,r12
    62fa:	48 b8 00 00 00 00 00 	movabs rax,0x0
    6301:	00 00 00 
			62fc: R_X86_64_64	do_callback
    6304:	48 89 9c 24 80 07 00 	mov    QWORD PTR [rsp+0x780],rbx
    630b:	00 
    630c:	48 89 bc 24 88 07 00 	mov    QWORD PTR [rsp+0x788],rdi
    6313:	00 
    6314:	4c 89 ac 24 90 07 00 	mov    QWORD PTR [rsp+0x790],r13
    631b:	00 
    631c:	ff d0                	call   rax
    631e:	48 8b 9c 24 80 07 00 	mov    rbx,QWORD PTR [rsp+0x780]
    6325:	00 
    6326:	4c 8b ac 24 90 07 00 	mov    r13,QWORD PTR [rsp+0x790]
    632d:	00 
    632e:	48 89 c6             	mov    rsi,rax
    6331:	48 89 b4 24 80 07 00 	mov    QWORD PTR [rsp+0x780],rsi
    6338:	00 
    6339:	49 8b 7d 08          	mov    rdi,QWORD PTR [r13+0x8]
    633d:	48 89 d1             	mov    rcx,rdx
    6340:	48 83 c1 e0          	add    rcx,0xffffffffffffffe0
    6344:	48 89 5a e0          	mov    QWORD PTR [rdx-0x20],rbx
    6348:	4c 89 7a e8          	mov    QWORD PTR [rdx-0x18],r15
    634c:	be 01 00 00 00       	mov    esi,0x1
    6351:	48 89 72 f0          	mov    QWORD PTR [rdx-0x10],rsi
    6355:	be 01 00 00 00       	mov    esi,0x1
    635a:	48 89 72 f8          	mov    QWORD PTR [rdx-0x8],rsi
    635e:	48 31 f6             	xor    rsi,rsi
    6361:	4c 89 e2             	mov    rdx,r12
    6364:	48 b8 00 00 00 00 00 	movabs rax,0x0
    636b:	00 00 00 
			6366: R_X86_64_64	do_callback
    636e:	48 89 9c 24 88 07 00 	mov    QWORD PTR [rsp+0x788],rbx
    6375:	00 
    6376:	48 89 bc 24 90 07 00 	mov    QWORD PTR [rsp+0x790],rdi
    637d:	00 
    637e:	4c 89 ac 24 98 07 00 	mov    QWORD PTR [rsp+0x798],r13
    6385:	00 
    6386:	ff d0                	call   rax
    6388:	48 8b 9c 24 88 07 00 	mov    rbx,QWORD PTR [rsp+0x788]
    638f:	00 
    6390:	4c 8b ac 24 98 07 00 	mov    r13,QWORD PTR [rsp+0x798]
    6397:	00 
    6398:	48 89 c6             	mov    rsi,rax
    639b:	48 89 b4 24 88 07 00 	mov    QWORD PTR [rsp+0x788],rsi
    63a2:	00 
    63a3:	49 8b 7d 08          	mov    rdi,QWORD PTR [r13+0x8]
    63a7:	48 89 d1             	mov    rcx,rdx
    63aa:	48 83 c1 e0          	add    rcx,0xffffffffffffffe0
    63ae:	48 89 5a e0          	mov    QWORD PTR [rdx-0x20],rbx
    63b2:	4c 89 7a e8          	mov    QWORD PTR [rdx-0x18],r15
    63b6:	be 01 00 00 00       	mov    esi,0x1
    63bb:	48 89 72 f0          	mov    QWORD PTR [rdx-0x10],rsi
    63bf:	be 01 00 00 00       	mov    esi,0x1
    63c4:	48 89 72 f8          	mov    QWORD PTR [rdx-0x8],rsi
    63c8:	48 31 f6             	xor    rsi,rsi
    63cb:	4c 89 e2             	mov    rdx,r12
    63ce:	48 b8 00 00 00 00 00 	movabs rax,0x0
    63d5:	00 00 00 
			63d0: R_X86_64_64	do_callback
    63d8:	48 89 9c 24 90 07 00 	mov    QWORD PTR [rsp+0x790],rbx
    63df:	00 
    63e0:	48 89 bc 24 98 07 00 	mov    QWORD PTR [rsp+0x798],rdi
    63e7:	00 
    63e8:	4c 89 ac 24 a0 07 00 	mov    QWORD PTR [rsp+0x7a0],r13
    63ef:	00 
    63f0:	ff d0                	call   rax
    63f2:	48 8b 9c 24 90 07 00 	mov    rbx,QWORD PTR [rsp+0x790]
    63f9:	00 
    63fa:	4c 8b ac 24 a0 07 00 	mov    r13,QWORD PTR [rsp+0x7a0]
    6401:	00 
    6402:	48 89 c6             	mov    rsi,rax
    6405:	48 89 b4 24 90 07 00 	mov    QWORD PTR [rsp+0x790],rsi
    640c:	00 
    640d:	49 8b 7d 08          	mov    rdi,QWORD PTR [r13+0x8]
    6411:	48 89 d1             	mov    rcx,rdx
    6414:	48 83 c1 e0          	add    rcx,0xffffffffffffffe0
    6418:	48 89 5a e0          	mov    QWORD PTR [rdx-0x20],rbx
    641c:	4c 89 7a e8          	mov    QWORD PTR [rdx-0x18],r15
    6420:	be 01 00 00 00       	mov    esi,0x1
    6425:	48 89 72 f0          	mov    QWORD PTR [rdx-0x10],rsi
    6429:	be 01 00 00 00       	mov    esi,0x1
    642e:	48 89 72 f8          	mov    QWORD PTR [rdx-0x8],rsi
    6432:	48 31 f6             	xor    rsi,rsi
    6435:	4c 89 e2             	mov    rdx,r12
    6438:	48 b8 00 00 00 00 00 	movabs rax,0x0
    643f:	00 00 00 
			643a: R_X86_64_64	do_callback
    6442:	48 89 9c 24 98 07 00 	mov    QWORD PTR [rsp+0x798],rbx
    6449:	00 
    644a:	48 89 bc 24 a0 07 00 	mov    QWORD PTR [rsp+0x7a0],rdi
    6451:	00 
    6452:	4c 89 ac 24 a8 07 00 	mov    QWORD PTR [rsp+0x7a8],r13
    6459:	00 
    645a:	ff d0                	call   rax
    645c:	48 8b 9c 24 98 07 00 	mov    rbx,QWORD PTR [rsp+0x798]
    6463:	00 
    6464:	4c 8b ac 24 a8 07 00 	mov    r13,QWORD PTR [rsp+0x7a8]
    646b:	00 
    646c:	48 89 c6             	mov    rsi,rax
    646f:	48 89 b4 24 98 07 00 	mov    QWORD PTR [rsp+0x798],rsi
    6476:	00 
    6477:	49 8b 7d 08          	mov    rdi,QWORD PTR [r13+0x8]
    647b:	48 89 d1             	mov    rcx,rdx
    647e:	48 83 c1 e0          	add    rcx,0xffffffffffffffe0
    6482:	48 89 5a e0          	mov    QWORD PTR [rdx-0x20],rbx
    6486:	4c 89 7a e8          	mov    QWORD PTR [rdx-0x18],r15
    648a:	be 01 00 00 00       	mov    esi,0x1
    648f:	48 89 72 f0          	mov    QWORD PTR [rdx-0x10],rsi
    6493:	be 01 00 00 00       	mov    esi,0x1
    6498:	48 89 72 f8          	mov    QWORD PTR [rdx-0x8],rsi
    649c:	48 31 f6             	xor    rsi,rsi
    649f:	4c 89 e2             	mov    rdx,r12
    64a2:	48 b8 00 00 00 00 00 	movabs rax,0x0
    64a9:	00 00 00 
			64a4: R_X86_64_64	do_callback
    64ac:	48 89 9c 24 a0 07 00 	mov    QWORD PTR [rsp+0x7a0],rbx
    64b3:	00 
    64b4:	48 89 bc 24 a8 07 00 	mov    QWORD PTR [rsp+0x7a8],rdi
    64bb:	00 
    64bc:	4c 89 ac 24 b0 07 00 	mov    QWORD PTR [rsp+0x7b0],r13
    64c3:	00 
    64c4:	ff d0                	call   rax
    64c6:	48 8b 9c 24 a0 07 00 	mov    rbx,QWORD PTR [rsp+0x7a0]
    64cd:	00 
    64ce:	4c 8b ac 24 b0 07 00 	mov    r13,QWORD PTR [rsp+0x7b0]
    64d5:	00 
    64d6:	48 89 c6             	mov    rsi,rax
    64d9:	48 89 b4 24 a0 07 00 	mov    QWORD PTR [rsp+0x7a0],rsi
    64e0:	00 
    64e1:	49 8b 7d 08          	mov    rdi,QWORD PTR [r13+0x8]
    64e5:	48 89 d1             	mov    rcx,rdx
    64e8:	48 83 c1 e0          	add    rcx,0xffffffffffffffe0
    64ec:	48 89 5a e0          	mov    QWORD PTR [rdx-0x20],rbx
    64f0:	4c 89 7a e8          	mov    QWORD PTR [rdx-0x18],r15
    64f4:	be 01 00 00 00       	mov    esi,0x1
    64f9:	48 89 72 f0          	mov    QWORD PTR [rdx-0x10],rsi
    64fd:	be 01 00 00 00       	mov    esi,0x1
    6502:	48 89 72 f8          	mov    QWORD PTR [rdx-0x8],rsi
    6506:	48 31 f6             	xor    rsi,rsi
    6509:	4c 89 e2             	mov    rdx,r12
    650c:	48 b8 00 00 00 00 00 	movabs rax,0x0
    6513:	00 00 00 
			650e: R_X86_64_64	do_callback
    6516:	48 89 9c 24 a8 07 00 	mov    QWORD PTR [rsp+0x7a8],rbx
    651d:	00 
    651e:	48 89 bc 24 b0 07 00 	mov    QWORD PTR [rsp+0x7b0],rdi
    6525:	00 
    6526:	4c 89 ac 24 b8 07 00 	mov    QWORD PTR [rsp+0x7b8],r13
    652d:	00 
    652e:	ff d0                	call   rax
    6530:	48 8b 9c 24 a8 07 00 	mov    rbx,QWORD PTR [rsp+0x7a8]
    6537:	00 
    6538:	4c 8b ac 24 b8 07 00 	mov    r13,QWORD PTR [rsp+0x7b8]
    653f:	00 
    6540:	48 89 c6             	mov    rsi,rax
    6543:	48 89 b4 24 a8 07 00 	mov    QWORD PTR [rsp+0x7a8],rsi
    654a:	00 
    654b:	49 8b 7d 08          	mov    rdi,QWORD PTR [r13+0x8]
    654f:	48 89 d1             	mov    rcx,rdx
    6552:	48 83 c1 e0          	add    rcx,0xffffffffffffffe0
    6556:	48 89 5a e0          	mov    QWORD PTR [rdx-0x20],rbx
    655a:	4c 89 7a e8          	mov    QWORD PTR [rdx-0x18],r15
    655e:	be 01 00 00 00       	mov    esi,0x1
    6563:	48 89 72 f0          	mov    QWORD PTR [rdx-0x10],rsi
    6567:	be 01 00 00 00       	mov    esi,0x1
    656c:	48 89 72 f8          	mov    QWORD PTR [rdx-0x8],rsi
    6570:	48 31 f6             	xor    rsi,rsi
    6573:	4c 89 e2             	mov    rdx,r12
    6576:	48 b8 00 00 00 00 00 	movabs rax,0x0
    657d:	00 00 00 
			6578: R_X86_64_64	do_callback
    6580:	48 89 9c 24 b0 07 00 	mov    QWORD PTR [rsp+0x7b0],rbx
    6587:	00 
    6588:	48 89 bc 24 b8 07 00 	mov    QWORD PTR [rsp+0x7b8],rdi
    658f:	00 
    6590:	4c 89 ac 24 c0 07 00 	mov    QWORD PTR [rsp+0x7c0],r13
    6597:	00 
    6598:	ff d0                	call   rax
    659a:	48 8b 9c 24 b0 07 00 	mov    rbx,QWORD PTR [rsp+0x7b0]
    65a1:	00 
    65a2:	4c 8b ac 24 c0 07 00 	mov    r13,QWORD PTR [rsp+0x7c0]
    65a9:	00 
    65aa:	48 89 c6             	mov    rsi,rax
    65ad:	48 89 b4 24 b0 07 00 	mov    QWORD PTR [rsp+0x7b0],rsi
    65b4:	00 
    65b5:	49 8b 7d 08          	mov    rdi,QWORD PTR [r13+0x8]
    65b9:	48 89 d1             	mov    rcx,rdx
    65bc:	48 83 c1 e0          	add    rcx,0xffffffffffffffe0
    65c0:	48 89 5a e0          	mov    QWORD PTR [rdx-0x20],rbx
    65c4:	4c 89 7a e8          	mov    QWORD PTR [rdx-0x18],r15
    65c8:	be 01 00 00 00       	mov    esi,0x1
    65cd:	48 89 72 f0          	mov    QWORD PTR [rdx-0x10],rsi
    65d1:	be 01 00 00 00       	mov    esi,0x1
    65d6:	48 89 72 f8          	mov    QWORD PTR [rdx-0x8],rsi
    65da:	48 31 f6             	xor    rsi,rsi
    65dd:	4c 89 e2             	mov    rdx,r12
    65e0:	48 b8 00 00 00 00 00 	movabs rax,0x0
    65e7:	00 00 00 
			65e2: R_X86_64_64	do_callback
    65ea:	48 89 9c 24 b8 07 00 	mov    QWORD PTR [rsp+0x7b8],rbx
    65f1:	00 
    65f2:	48 89 bc 24 c0 07 00 	mov    QWORD PTR [rsp+0x7c0],rdi
    65f9:	00 
    65fa:	4c 89 ac 24 c8 07 00 	mov    QWORD PTR [rsp+0x7c8],r13
    6601:	00 
    6602:	ff d0                	call   rax
    6604:	48 8b 9c 24 b8 07 00 	mov    rbx,QWORD PTR [rsp+0x7b8]
    660b:	00 
    660c:	4c 8b ac 24 c8 07 00 	mov    r13,QWORD PTR [rsp+0x7c8]
    6613:	00 
    6614:	48 89 c6             	mov    rsi,rax
    6617:	48 89 b4 24 b8 07 00 	mov    QWORD PTR [rsp+0x7b8],rsi
    661e:	00 
    661f:	49 8b 7d 08          	mov    rdi,QWORD PTR [r13+0x8]
    6623:	48 89 d1             	mov    rcx,rdx
    6626:	48 83 c1 e0          	add    rcx,0xffffffffffffffe0
    662a:	48 89 5a e0          	mov    QWORD PTR [rdx-0x20],rbx
    662e:	4c 89 7a e8          	mov    QWORD PTR [rdx-0x18],r15
    6632:	be 01 00 00 00       	mov    esi,0x1
    6637:	48 89 72 f0          	mov    QWORD PTR [rdx-0x10],rsi
    663b:	be 01 00 00 00       	mov    esi,0x1
    6640:	48 89 72 f8          	mov    QWORD PTR [rdx-0x8],rsi
    6644:	48 31 f6             	xor    rsi,rsi
    6647:	4c 89 e2             	mov    rdx,r12
    664a:	48 b8 00 00 00 00 00 	movabs rax,0x0
    6651:	00 00 00 
			664c: R_X86_64_64	do_callback
    6654:	48 89 9c 24 c0 07 00 	mov    QWORD PTR [rsp+0x7c0],rbx
    665b:	00 
    665c:	48 89 bc 24 c8 07 00 	mov    QWORD PTR [rsp+0x7c8],rdi
    6663:	00 
    6664:	4c 89 ac 24 d0 07 00 	mov    QWORD PTR [rsp+0x7d0],r13
    666b:	00 
    666c:	ff d0                	call   rax
    666e:	48 8b 9c 24 c0 07 00 	mov    rbx,QWORD PTR [rsp+0x7c0]
    6675:	00 
    6676:	4c 8b ac 24 d0 07 00 	mov    r13,QWORD PTR [rsp+0x7d0]
    667d:	00 
    667e:	48 89 c6             	mov    rsi,rax
    6681:	48 89 b4 24 c0 07 00 	mov    QWORD PTR [rsp+0x7c0],rsi
    6688:	00 
    6689:	49 8b 7d 08          	mov    rdi,QWORD PTR [r13+0x8]
    668d:	48 89 d1             	mov    rcx,rdx
    6690:	48 83 c1 e0          	add    rcx,0xffffffffffffffe0
    6694:	48 89 5a e0          	mov    QWORD PTR [rdx-0x20],rbx
    6698:	4c 89 7a e8          	mov    QWORD PTR [rdx-0x18],r15
    669c:	be 01 00 00 00       	mov    esi,0x1
    66a1:	48 89 72 f0          	mov    QWORD PTR [rdx-0x10],rsi
    66a5:	be 01 00 00 00       	mov    esi,0x1
    66aa:	48 89 72 f8          	mov    QWORD PTR [rdx-0x8],rsi
    66ae:	48 31 f6             	xor    rsi,rsi
    66b1:	4c 89 e2             	mov    rdx,r12
    66b4:	48 b8 00 00 00 00 00 	movabs rax,0x0
    66bb:	00 00 00 
			66b6: R_X86_64_64	do_callback
    66be:	48 89 9c 24 c8 07 00 	mov    QWORD PTR [rsp+0x7c8],rbx
    66c5:	00 
    66c6:	48 89 bc 24 d0 07 00 	mov    QWORD PTR [rsp+0x7d0],rdi
    66cd:	00 
    66ce:	4c 89 ac 24 d8 07 00 	mov    QWORD PTR [rsp+0x7d8],r13
    66d5:	00 
    66d6:	ff d0                	call   rax
    66d8:	48 8b 9c 24 c8 07 00 	mov    rbx,QWORD PTR [rsp+0x7c8]
    66df:	00 
    66e0:	4c 8b ac 24 d8 07 00 	mov    r13,QWORD PTR [rsp+0x7d8]
    66e7:	00 
    66e8:	48 89 c6             	mov    rsi,rax
    66eb:	48 89 b4 24 c8 07 00 	mov    QWORD PTR [rsp+0x7c8],rsi
    66f2:	00 
    66f3:	49 8b 7d 08          	mov    rdi,QWORD PTR [r13+0x8]
    66f7:	48 89 d1             	mov    rcx,rdx
    66fa:	48 83 c1 e0          	add    rcx,0xffffffffffffffe0
    66fe:	48 89 5a e0          	mov    QWORD PTR [rdx-0x20],rbx
    6702:	4c 89 7a e8          	mov    QWORD PTR [rdx-0x18],r15
    6706:	be 01 00 00 00       	mov    esi,0x1
    670b:	48 89 72 f0          	mov    QWORD PTR [rdx-0x10],rsi
    670f:	be 01 00 00 00       	mov    esi,0x1
    6714:	48 89 72 f8          	mov    QWORD PTR [rdx-0x8],rsi
    6718:	48 31 f6             	xor    rsi,rsi
    671b:	4c 89 e2             	mov    rdx,r12
    671e:	48 b8 00 00 00 00 00 	movabs rax,0x0
    6725:	00 00 00 
			6720: R_X86_64_64	do_callback
    6728:	48 89 9c 24 d0 07 00 	mov    QWORD PTR [rsp+0x7d0],rbx
    672f:	00 
    6730:	48 89 bc 24 d8 07 00 	mov    QWORD PTR [rsp+0x7d8],rdi
    6737:	00 
    6738:	4c 89 ac 24 e0 07 00 	mov    QWORD PTR [rsp+0x7e0],r13
    673f:	00 
    6740:	ff d0                	call   rax
    6742:	48 8b 9c 24 d0 07 00 	mov    rbx,QWORD PTR [rsp+0x7d0]
    6749:	00 
    674a:	4c 8b ac 24 e0 07 00 	mov    r13,QWORD PTR [rsp+0x7e0]
    6751:	00 
    6752:	48 89 c6             	mov    rsi,rax
    6755:	48 89 b4 24 d0 07 00 	mov    QWORD PTR [rsp+0x7d0],rsi
    675c:	00 
    675d:	49 8b 7d 08          	mov    rdi,QWORD PTR [r13+0x8]
    6761:	48 89 d1             	mov    rcx,rdx
    6764:	48 83 c1 e0          	add    rcx,0xffffffffffffffe0
    6768:	48 89 5a e0          	mov    QWORD PTR [rdx-0x20],rbx
    676c:	4c 89 7a e8          	mov    QWORD PTR [rdx-0x18],r15
    6770:	be 01 00 00 00       	mov    esi,0x1
    6775:	48 89 72 f0          	mov    QWORD PTR [rdx-0x10],rsi
    6779:	be 01 00 00 00       	mov    esi,0x1
    677e:	48 89 72 f8          	mov    QWORD PTR [rdx-0x8],rsi
    6782:	48 31 f6             	xor    rsi,rsi
    6785:	4c 89 e2             	mov    rdx,r12
    6788:	48 b8 00 00 00 00 00 	movabs rax,0x0
    678f:	00 00 00 
			678a: R_X86_64_64	do_callback
    6792:	48 89 9c 24 d8 07 00 	mov    QWORD PTR [rsp+0x7d8],rbx
    6799:	00 
    679a:	48 89 bc 24 e0 07 00 	mov    QWORD PTR [rsp+0x7e0],rdi
    67a1:	00 
    67a2:	4c 89 ac 24 e8 07 00 	mov    QWORD PTR [rsp+0x7e8],r13
    67a9:	00 
    67aa:	ff d0                	call   rax
    67ac:	48 8b 9c 24 d8 07 00 	mov    rbx,QWORD PTR [rsp+0x7d8]
    67b3:	00 
    67b4:	4c 8b ac 24 e8 07 00 	mov    r13,QWORD PTR [rsp+0x7e8]
    67bb:	00 
    67bc:	48 89 c6             	mov    rsi,rax
    67bf:	48 89 b4 24 d8 07 00 	mov    QWORD PTR [rsp+0x7d8],rsi
    67c6:	00 
    67c7:	49 8b 7d 08          	mov    rdi,QWORD PTR [r13+0x8]
    67cb:	48 89 d1             	mov    rcx,rdx
    67ce:	48 83 c1 e0          	add    rcx,0xffffffffffffffe0
    67d2:	48 89 5a e0          	mov    QWORD PTR [rdx-0x20],rbx
    67d6:	4c 89 7a e8          	mov    QWORD PTR [rdx-0x18],r15
    67da:	be 01 00 00 00       	mov    esi,0x1
    67df:	48 89 72 f0          	mov    QWORD PTR [rdx-0x10],rsi
    67e3:	be 01 00 00 00       	mov    esi,0x1
    67e8:	48 89 72 f8          	mov    QWORD PTR [rdx-0x8],rsi
    67ec:	48 31 f6             	xor    rsi,rsi
    67ef:	4c 89 e2             	mov    rdx,r12
    67f2:	48 b8 00 00 00 00 00 	movabs rax,0x0
    67f9:	00 00 00 
			67f4: R_X86_64_64	do_callback
    67fc:	48 89 9c 24 e0 07 00 	mov    QWORD PTR [rsp+0x7e0],rbx
    6803:	00 
    6804:	48 89 bc 24 e8 07 00 	mov    QWORD PTR [rsp+0x7e8],rdi
    680b:	00 
    680c:	4c 89 ac 24 f0 07 00 	mov    QWORD PTR [rsp+0x7f0],r13
    6813:	00 
    6814:	ff d0                	call   rax
    6816:	48 8b 9c 24 e0 07 00 	mov    rbx,QWORD PTR [rsp+0x7e0]
    681d:	00 
    681e:	4c 8b ac 24 f0 07 00 	mov    r13,QWORD PTR [rsp+0x7f0]
    6825:	00 
    6826:	48 89 c6             	mov    rsi,rax
    6829:	48 89 b4 24 e0 07 00 	mov    QWORD PTR [rsp+0x7e0],rsi
    6830:	00 
    6831:	49 8b 7d 08          	mov    rdi,QWORD PTR [r13+0x8]
    6835:	48 89 d1             	mov    rcx,rdx
    6838:	48 83 c1 e0          	add    rcx,0xffffffffffffffe0
    683c:	48 89 5a e0          	mov    QWORD PTR [rdx-0x20],rbx
    6840:	4c 89 7a e8          	mov    QWORD PTR [rdx-0x18],r15
    6844:	be 01 00 00 00       	mov    esi,0x1
    6849:	48 89 72 f0          	mov    QWORD PTR [rdx-0x10],rsi
    684d:	be 01 00 00 00       	mov    esi,0x1
    6852:	48 89 72 f8          	mov    QWORD PTR [rdx-0x8],rsi
    6856:	48 31 f6             	xor    rsi,rsi
    6859:	4c 89 e2             	mov    rdx,r12
    685c:	48 b8 00 00 00 00 00 	movabs rax,0x0
    6863:	00 00 00 
			685e: R_X86_64_64	do_callback
    6866:	48 89 9c 24 e8 07 00 	mov    QWORD PTR [rsp+0x7e8],rbx
    686d:	00 
    686e:	48 89 bc 24 f0 07 00 	mov    QWORD PTR [rsp+0x7f0],rdi
    6875:	00 
    6876:	4c 89 ac 24 f8 07 00 	mov    QWORD PTR [rsp+0x7f8],r13
    687d:	00 
    687e:	ff d0                	call   rax
    6880:	48 8b 9c 24 e8 07 00 	mov    rbx,QWORD PTR [rsp+0x7e8]
    6887:	00 
    6888:	4c 8b ac 24 f8 07 00 	mov    r13,QWORD PTR [rsp+0x7f8]
    688f:	00 
    6890:	48 89 c6             	mov    rsi,rax
    6893:	48 89 b4 24 e8 07 00 	mov    QWORD PTR [rsp+0x7e8],rsi
    689a:	00 
    689b:	49 8b 7d 08          	mov    rdi,QWORD PTR [r13+0x8]
    689f:	48 89 d1             	mov    rcx,rdx
    68a2:	48 83 c1 e0          	add    rcx,0xffffffffffffffe0
    68a6:	48 89 5a e0          	mov    QWORD PTR [rdx-0x20],rbx
    68aa:	4c 89 7a e8          	mov    QWORD PTR [rdx-0x18],r15
    68ae:	be 01 00 00 00       	mov    esi,0x1
    68b3:	48 89 72 f0          	mov    QWORD PTR [rdx-0x10],rsi
    68b7:	be 01 00 00 00       	mov    esi,0x1
    68bc:	48 89 72 f8          	mov    QWORD PTR [rdx-0x8],rsi
    68c0:	48 31 f6             	xor    rsi,rsi
    68c3:	4c 89 e2             	mov    rdx,r12
    68c6:	48 b8 00 00 00 00 00 	movabs rax,0x0
    68cd:	00 00 00 
			68c8: R_X86_64_64	do_callback
    68d0:	48 89 9c 24 f0 07 00 	mov    QWORD PTR [rsp+0x7f0],rbx
    68d7:	00 
    68d8:	48 89 bc 24 f8 07 00 	mov    QWORD PTR [rsp+0x7f8],rdi
    68df:	00 
    68e0:	4c 89 ac 24 00 08 00 	mov    QWORD PTR [rsp+0x800],r13
    68e7:	00 
    68e8:	ff d0                	call   rax
    68ea:	48 8b 9c 24 f0 07 00 	mov    rbx,QWORD PTR [rsp+0x7f0]
    68f1:	00 
    68f2:	4c 8b ac 24 00 08 00 	mov    r13,QWORD PTR [rsp+0x800]
    68f9:	00 
    68fa:	48 89 c6             	mov    rsi,rax
    68fd:	48 89 b4 24 f0 07 00 	mov    QWORD PTR [rsp+0x7f0],rsi
    6904:	00 
    6905:	49 8b 7d 08          	mov    rdi,QWORD PTR [r13+0x8]
    6909:	48 89 d1             	mov    rcx,rdx
    690c:	48 83 c1 e0          	add    rcx,0xffffffffffffffe0
    6910:	48 89 5a e0          	mov    QWORD PTR [rdx-0x20],rbx
    6914:	4c 89 7a e8          	mov    QWORD PTR [rdx-0x18],r15
    6918:	be 01 00 00 00       	mov    esi,0x1
    691d:	48 89 72 f0          	mov    QWORD PTR [rdx-0x10],rsi
    6921:	be 01 00 00 00       	mov    esi,0x1
    6926:	48 89 72 f8          	mov    QWORD PTR [rdx-0x8],rsi
    692a:	48 31 f6             	xor    rsi,rsi
    692d:	4c 89 e2             	mov    rdx,r12
    6930:	48 b8 00 00 00 00 00 	movabs rax,0x0
    6937:	00 00 00 
			6932: R_X86_64_64	do_callback
    693a:	48 89 9c 24 f8 07 00 	mov    QWORD PTR [rsp+0x7f8],rbx
    6941:	00 
    6942:	48 89 bc 24 00 08 00 	mov    QWORD PTR [rsp+0x800],rdi
    6949:	00 
    694a:	4c 89 ac 24 08 08 00 	mov    QWORD PTR [rsp+0x808],r13
    6951:	00 
    6952:	ff d0                	call   rax
    6954:	48 8b 9c 24 f8 07 00 	mov    rbx,QWORD PTR [rsp+0x7f8]
    695b:	00 
    695c:	4c 8b ac 24 08 08 00 	mov    r13,QWORD PTR [rsp+0x808]
    6963:	00 
    6964:	49 89 c6             	mov    r14,rax
    6967:	49 8b 7d 08          	mov    rdi,QWORD PTR [r13+0x8]
    696b:	48 89 d1             	mov    rcx,rdx
    696e:	48 83 c1 e0          	add    rcx,0xffffffffffffffe0
    6972:	48 89 5a e0          	mov    QWORD PTR [rdx-0x20],rbx
    6976:	4c 89 7a e8          	mov    QWORD PTR [rdx-0x18],r15
    697a:	be 01 00 00 00       	mov    esi,0x1
    697f:	48 89 72 f0          	mov    QWORD PTR [rdx-0x10],rsi
    6983:	be 01 00 00 00       	mov    esi,0x1
    6988:	48 89 72 f8          	mov    QWORD PTR [rdx-0x8],rsi
    698c:	48 31 f6             	xor    rsi,rsi
    698f:	4c 89 e2             	mov    rdx,r12
    6992:	48 b8 00 00 00 00 00 	movabs rax,0x0
    6999:	00 00 00 
			6994: R_X86_64_64	do_callback
    699c:	48 89 bc 24 f8 07 00 	mov    QWORD PTR [rsp+0x7f8],rdi
    69a3:	00 
    69a4:	4c 89 b4 24 00 08 00 	mov    QWORD PTR [rsp+0x800],r14
    69ab:	00 
    69ac:	ff d0                	call   rax
    69ae:	4c 8b b4 24 00 08 00 	mov    r14,QWORD PTR [rsp+0x800]
    69b5:	00 
    69b6:	49 89 c5             	mov    r13,rax
    69b9:	48 89 d6             	mov    rsi,rdx
    69bc:	48 89 b4 24 f8 07 00 	mov    QWORD PTR [rsp+0x7f8],rsi
    69c3:	00 
    69c4:	bf 01 01 00 00       	mov    edi,0x101
    69c9:	31 f6                	xor    esi,esi
    69cb:	48 b8 00 00 00 00 00 	movabs rax,0x0
    69d2:	00 00 00 
			69cd: R_X86_64_64	caml_alloc_shr
    69d5:	4c 89 ac 24 00 08 00 	mov    QWORD PTR [rsp+0x800],r13
    69dc:	00 
    69dd:	4c 89 b4 24 08 08 00 	mov    QWORD PTR [rsp+0x808],r14
    69e4:	00 
    69e5:	ff d0                	call   rax
    69e7:	4c 8b ac 24 00 08 00 	mov    r13,QWORD PTR [rsp+0x800]
    69ee:	00 
    69ef:	4c 8b b4 24 08 08 00 	mov    r14,QWORD PTR [rsp+0x808]
    69f6:	00 
    69f7:	48 89 c3             	mov    rbx,rax
    69fa:	49 89 df             	mov    r15,rbx
    69fd:	4c 89 ff             	mov    rdi,r15
    6a00:	4c 89 ee             	mov    rsi,r13
    6a03:	48 b8 00 00 00 00 00 	movabs rax,0x0
    6a0a:	00 00 00 
			6a05: R_X86_64_64	caml_initialize
    6a0d:	48 89 b4 24 00 08 00 	mov    QWORD PTR [rsp+0x800],rsi
    6a14:	00 
    6a15:	4c 89 bc 24 08 08 00 	mov    QWORD PTR [rsp+0x808],r15
    6a1c:	00 
    6a1d:	48 89 9c 24 10 08 00 	mov    QWORD PTR [rsp+0x810],rbx
    6a24:	00 
    6a25:	48 89 bc 24 18 08 00 	mov    QWORD PTR [rsp+0x818],rdi
    6a2c:	00 
    6a2d:	4c 89 b4 24 20 08 00 	mov    QWORD PTR [rsp+0x820],r14
    6a34:	00 
    6a35:	ff d0                	call   rax
    6a37:	48 8b 9c 24 10 08 00 	mov    rbx,QWORD PTR [rsp+0x810]
    6a3e:	00 
    6a3f:	4c 8b bc 24 08 08 00 	mov    r15,QWORD PTR [rsp+0x808]
    6a46:	00 
    6a47:	4c 8b b4 24 20 08 00 	mov    r14,QWORD PTR [rsp+0x820]
    6a4e:	00 
    6a4f:	4c 89 ff             	mov    rdi,r15
    6a52:	48 83 c7 08          	add    rdi,0x8
    6a56:	4c 89 f6             	mov    rsi,r14
    6a59:	48 b8 00 00 00 00 00 	movabs rax,0x0
    6a60:	00 00 00 
			6a5b: R_X86_64_64	caml_initialize
    6a63:	48 89 b4 24 00 08 00 	mov    QWORD PTR [rsp+0x800],rsi
    6a6a:	00 
    6a6b:	4c 89 bc 24 08 08 00 	mov    QWORD PTR [rsp+0x808],r15
    6a72:	00 
    6a73:	48 89 9c 24 10 08 00 	mov    QWORD PTR [rsp+0x810],rbx
    6a7a:	00 
    6a7b:	48 89 bc 24 18 08 00 	mov    QWORD PTR [rsp+0x818],rdi
    6a82:	00 
    6a83:	ff d0                	call   rax
    6a85:	48 8b 9c 24 10 08 00 	mov    rbx,QWORD PTR [rsp+0x810]
    6a8c:	00 
    6a8d:	4c 8b bc 24 08 08 00 	mov    r15,QWORD PTR [rsp+0x808]
    6a94:	00 
    6a95:	4c 89 ff             	mov    rdi,r15
    6a98:	48 83 c7 10          	add    rdi,0x10
    6a9c:	48 8b b4 24 f0 07 00 	mov    rsi,QWORD PTR [rsp+0x7f0]
    6aa3:	00 
    6aa4:	48 b8 00 00 00 00 00 	movabs rax,0x0
    6aab:	00 00 00 
			6aa6: R_X86_64_64	caml_initialize
    6aae:	48 89 b4 24 f0 07 00 	mov    QWORD PTR [rsp+0x7f0],rsi
    6ab5:	00 
    6ab6:	4c 89 bc 24 00 08 00 	mov    QWORD PTR [rsp+0x800],r15
    6abd:	00 
    6abe:	48 89 9c 24 08 08 00 	mov    QWORD PTR [rsp+0x808],rbx
    6ac5:	00 
    6ac6:	48 89 bc 24 10 08 00 	mov    QWORD PTR [rsp+0x810],rdi
    6acd:	00 
    6ace:	ff d0                	call   rax
    6ad0:	48 8b 9c 24 08 08 00 	mov    rbx,QWORD PTR [rsp+0x808]
    6ad7:	00 
    6ad8:	4c 8b bc 24 00 08 00 	mov    r15,QWORD PTR [rsp+0x800]
    6adf:	00 
    6ae0:	4c 89 ff             	mov    rdi,r15
    6ae3:	48 83 c7 18          	add    rdi,0x18
    6ae7:	48 8b b4 24 e8 07 00 	mov    rsi,QWORD PTR [rsp+0x7e8]
    6aee:	00 
    6aef:	48 b8 00 00 00 00 00 	movabs rax,0x0
    6af6:	00 00 00 
			6af1: R_X86_64_64	caml_initialize
    6af9:	48 89 b4 24 e8 07 00 	mov    QWORD PTR [rsp+0x7e8],rsi
    6b00:	00 
    6b01:	4c 89 bc 24 f0 07 00 	mov    QWORD PTR [rsp+0x7f0],r15
    6b08:	00 
    6b09:	48 89 9c 24 00 08 00 	mov    QWORD PTR [rsp+0x800],rbx
    6b10:	00 
    6b11:	48 89 bc 24 08 08 00 	mov    QWORD PTR [rsp+0x808],rdi
    6b18:	00 
    6b19:	ff d0                	call   rax
    6b1b:	48 8b 9c 24 00 08 00 	mov    rbx,QWORD PTR [rsp+0x800]
    6b22:	00 
    6b23:	4c 8b bc 24 f0 07 00 	mov    r15,QWORD PTR [rsp+0x7f0]
    6b2a:	00 
    6b2b:	4c 89 ff             	mov    rdi,r15
    6b2e:	48 83 c7 20          	add    rdi,0x20
    6b32:	48 8b b4 24 e0 07 00 	mov    rsi,QWORD PTR [rsp+0x7e0]
    6b39:	00 
    6b3a:	48 b8 00 00 00 00 00 	movabs rax,0x0
    6b41:	00 00 00 
			6b3c: R_X86_64_64	caml_initialize
    6b44:	48 89 b4 24 e0 07 00 	mov    QWORD PTR [rsp+0x7e0],rsi
    6b4b:	00 
    6b4c:	4c 89 bc 24 e8 07 00 	mov    QWORD PTR [rsp+0x7e8],r15
    6b53:	00 
    6b54:	48 89 9c 24 f0 07 00 	mov    QWORD PTR [rsp+0x7f0],rbx
    6b5b:	00 
    6b5c:	48 89 bc 24 00 08 00 	mov    QWORD PTR [rsp+0x800],rdi
    6b63:	00 
    6b64:	ff d0                	call   rax
    6b66:	48 8b 9c 24 f0 07 00 	mov    rbx,QWORD PTR [rsp+0x7f0]
    6b6d:	00 
    6b6e:	4c 8b bc 24 e8 07 00 	mov    r15,QWORD PTR [rsp+0x7e8]
    6b75:	00 
    6b76:	4c 89 ff             	mov    rdi,r15
    6b79:	48 83 c7 28          	add    rdi,0x28
    6b7d:	48 8b b4 24 d8 07 00 	mov    rsi,QWORD PTR [rsp+0x7d8]
    6b84:	00 
    6b85:	48 b8 00 00 00 00 00 	movabs rax,0x0
    6b8c:	00 00 00 
			6b87: R_X86_64_64	caml_initialize
    6b8f:	48 89 b4 24 d8 07 00 	mov    QWORD PTR [rsp+0x7d8],rsi
    6b96:	00 
    6b97:	4c 89 bc 24 e0 07 00 	mov    QWORD PTR [rsp+0x7e0],r15
    6b9e:	00 
    6b9f:	48 89 9c 24 e8 07 00 	mov    QWORD PTR [rsp+0x7e8],rbx
    6ba6:	00 
    6ba7:	48 89 bc 24 f0 07 00 	mov    QWORD PTR [rsp+0x7f0],rdi
    6bae:	00 
    6baf:	ff d0                	call   rax
    6bb1:	48 8b 9c 24 e8 07 00 	mov    rbx,QWORD PTR [rsp+0x7e8]
    6bb8:	00 
    6bb9:	4c 8b bc 24 e0 07 00 	mov    r15,QWORD PTR [rsp+0x7e0]
    6bc0:	00 
    6bc1:	4c 89 ff             	mov    rdi,r15
    6bc4:	48 83 c7 30          	add    rdi,0x30
    6bc8:	48 8b b4 24 d0 07 00 	mov    rsi,QWORD PTR [rsp+0x7d0]
    6bcf:	00 
    6bd0:	48 b8 00 00 00 00 00 	movabs rax,0x0
    6bd7:	00 00 00 
			6bd2: R_X86_64_64	caml_initialize
    6bda:	48 89 b4 24 d0 07 00 	mov    QWORD PTR [rsp+0x7d0],rsi
    6be1:	00 
    6be2:	4c 89 bc 24 d8 07 00 	mov    QWORD PTR [rsp+0x7d8],r15
    6be9:	00 
    6bea:	48 89 9c 24 e0 07 00 	mov    QWORD PTR [rsp+0x7e0],rbx
    6bf1:	00 
    6bf2:	48 89 bc 24 e8 07 00 	mov    QWORD PTR [rsp+0x7e8],rdi
    6bf9:	00 
    6bfa:	ff d0                	call   rax
    6bfc:	48 8b 9c 24 e0 07 00 	mov    rbx,QWORD PTR [rsp+0x7e0]
    6c03:	00 
    6c04:	4c 8b bc 24 d8 07 00 	mov    r15,QWORD PTR [rsp+0x7d8]
    6c0b:	00 
    6c0c:	4c 89 ff             	mov    rdi,r15
    6c0f:	48 83 c7 38          	add    rdi,0x38
    6c13:	48 8b b4 24 c8 07 00 	mov    rsi,QWORD PTR [rsp+0x7c8]
    6c1a:	00 
    6c1b:	48 b8 00 00 00 00 00 	movabs rax,0x0
    6c22:	00 00 00 
			6c1d: R_X86_64_64	caml_initialize
    6c25:	48 89 b4 24 c8 07 00 	mov    QWORD PTR [rsp+0x7c8],rsi
    6c2c:	00 
    6c2d:	4c 89 bc 24 d0 07 00 	mov    QWORD PTR [rsp+0x7d0],r15
    6c34:	00 
    6c35:	48 89 9c 24 d8 07 00 	mov    QWORD PTR [rsp+0x7d8],rbx
    6c3c:	00 
    6c3d:	48 89 bc 24 e0 07 00 	mov    QWORD PTR [rsp+0x7e0],rdi
    6c44:	00 
    6c45:	ff d0                	call   rax
    6c47:	48 8b 9c 24 d8 07 00 	mov    rbx,QWORD PTR [rsp+0x7d8]
    6c4e:	00 
    6c4f:	4c 8b bc 24 d0 07 00 	mov    r15,QWORD PTR [rsp+0x7d0]
    6c56:	00 
    6c57:	4c 89 ff             	mov    rdi,r15
    6c5a:	48 83 c7 40          	add    rdi,0x40
    6c5e:	48 8b b4 24 c0 07 00 	mov    rsi,QWORD PTR [rsp+0x7c0]
    6c65:	00 
    6c66:	48 b8 00 00 00 00 00 	movabs rax,0x0
    6c6d:	00 00 00 
			6c68: R_X86_64_64	caml_initialize
    6c70:	48 89 b4 24 c0 07 00 	mov    QWORD PTR [rsp+0x7c0],rsi
    6c77:	00 
    6c78:	4c 89 bc 24 c8 07 00 	mov    QWORD PTR [rsp+0x7c8],r15
    6c7f:	00 
    6c80:	48 89 9c 24 d0 07 00 	mov    QWORD PTR [rsp+0x7d0],rbx
    6c87:	00 
    6c88:	48 89 bc 24 d8 07 00 	mov    QWORD PTR [rsp+0x7d8],rdi
    6c8f:	00 
    6c90:	ff d0                	call   rax
    6c92:	48 8b 9c 24 d0 07 00 	mov    rbx,QWORD PTR [rsp+0x7d0]
    6c99:	00 
    6c9a:	4c 8b bc 24 c8 07 00 	mov    r15,QWORD PTR [rsp+0x7c8]
    6ca1:	00 
    6ca2:	4c 89 ff             	mov    rdi,r15
    6ca5:	48 83 c7 48          	add    rdi,0x48
    6ca9:	48 8b b4 24 b8 07 00 	mov    rsi,QWORD PTR [rsp+0x7b8]
    6cb0:	00 
    6cb1:	48 b8 00 00 00 00 00 	movabs rax,0x0
    6cb8:	00 00 00 
			6cb3: R_X86_64_64	caml_initialize
    6cbb:	48 89 b4 24 b8 07 00 	mov    QWORD PTR [rsp+0x7b8],rsi
    6cc2:	00 
    6cc3:	4c 89 bc 24 c0 07 00 	mov    QWORD PTR [rsp+0x7c0],r15
    6cca:	00 
    6ccb:	48 89 9c 24 c8 07 00 	mov    QWORD PTR [rsp+0x7c8],rbx
    6cd2:	00 
    6cd3:	48 89 bc 24 d0 07 00 	mov    QWORD PTR [rsp+0x7d0],rdi
    6cda:	00 
    6cdb:	ff d0                	call   rax
    6cdd:	48 8b 9c 24 c8 07 00 	mov    rbx,QWORD PTR [rsp+0x7c8]
    6ce4:	00 
    6ce5:	4c 8b bc 24 c0 07 00 	mov    r15,QWORD PTR [rsp+0x7c0]
    6cec:	00 
    6ced:	4c 89 ff             	mov    rdi,r15
    6cf0:	48 83 c7 50          	add    rdi,0x50
    6cf4:	48 8b b4 24 b0 07 00 	mov    rsi,QWORD PTR [rsp+0x7b0]
    6cfb:	00 
    6cfc:	48 b8 00 00 00 00 00 	movabs rax,0x0
    6d03:	00 00 00 
			6cfe: R_X86_64_64	caml_initialize
    6d06:	48 89 b4 24 b0 07 00 	mov    QWORD PTR [rsp+0x7b0],rsi
    6d0d:	00 
    6d0e:	4c 89 bc 24 b8 07 00 	mov    QWORD PTR [rsp+0x7b8],r15
    6d15:	00 
    6d16:	48 89 9c 24 c0 07 00 	mov    QWORD PTR [rsp+0x7c0],rbx
    6d1d:	00 
    6d1e:	48 89 bc 24 c8 07 00 	mov    QWORD PTR [rsp+0x7c8],rdi
    6d25:	00 
    6d26:	ff d0                	call   rax
    6d28:	48 8b 9c 24 c0 07 00 	mov    rbx,QWORD PTR [rsp+0x7c0]
    6d2f:	00 
    6d30:	4c 8b bc 24 b8 07 00 	mov    r15,QWORD PTR [rsp+0x7b8]
    6d37:	00 
    6d38:	4c 89 ff             	mov    rdi,r15
    6d3b:	48 83 c7 58          	add    rdi,0x58
    6d3f:	48 8b b4 24 a8 07 00 	mov    rsi,QWORD PTR [rsp+0x7a8]
    6d46:	00 
    6d47:	48 b8 00 00 00 00 00 	movabs rax,0x0
    6d4e:	00 00 00 
			6d49: R_X86_64_64	caml_initialize
    6d51:	48 89 b4 24 a8 07 00 	mov    QWORD PTR [rsp+0x7a8],rsi
    6d58:	00 
    6d59:	4c 89 bc 24 b0 07 00 	mov    QWORD PTR [rsp+0x7b0],r15
    6d60:	00 
    6d61:	48 89 9c 24 b8 07 00 	mov    QWORD PTR [rsp+0x7b8],rbx
    6d68:	00 
    6d69:	48 89 bc 24 c0 07 00 	mov    QWORD PTR [rsp+0x7c0],rdi
    6d70:	00 
    6d71:	ff d0                	call   rax
    6d73:	48 8b 9c 24 b8 07 00 	mov    rbx,QWORD PTR [rsp+0x7b8]
    6d7a:	00 
    6d7b:	4c 8b bc 24 b0 07 00 	mov    r15,QWORD PTR [rsp+0x7b0]
    6d82:	00 
    6d83:	4c 89 ff             	mov    rdi,r15
    6d86:	48 83 c7 60          	add    rdi,0x60
    6d8a:	48 8b b4 24 a0 07 00 	mov    rsi,QWORD PTR [rsp+0x7a0]
    6d91:	00 
    6d92:	48 b8 00 00 00 00 00 	movabs rax,0x0
    6d99:	00 00 00 
			6d94: R_X86_64_64	caml_initialize
    6d9c:	48 89 b4 24 a0 07 00 	mov    QWORD PTR [rsp+0x7a0],rsi
    6da3:	00 
    6da4:	4c 89 bc 24 a8 07 00 	mov    QWORD PTR [rsp+0x7a8],r15
    6dab:	00 
    6dac:	48 89 9c 24 b0 07 00 	mov    QWORD PTR [rsp+0x7b0],rbx
    6db3:	00 
    6db4:	48 89 bc 24 b8 07 00 	mov    QWORD PTR [rsp+0x7b8],rdi
    6dbb:	00 
    6dbc:	ff d0                	call   rax
    6dbe:	48 8b 9c 24 b0 07 00 	mov    rbx,QWORD PTR [rsp+0x7b0]
    6dc5:	00 
    6dc6:	4c 8b bc 24 a8 07 00 	mov    r15,QWORD PTR [rsp+0x7a8]
    6dcd:	00 
    6dce:	4c 89 ff             	mov    rdi,r15
    6dd1:	48 83 c7 68          	add    rdi,0x68
    6dd5:	48 8b b4 24 98 07 00 	mov    rsi,QWORD PTR [rsp+0x798]
    6ddc:	00 
    6ddd:	48 b8 00 00 00 00 00 	movabs rax,0x0
    6de4:	00 00 00 
			6ddf: R_X86_64_64	caml_initialize
    6de7:	48 89 b4 24 98 07 00 	mov    QWORD PTR [rsp+0x798],rsi
    6dee:	00 
    6def:	4c 89 bc 24 a0 07 00 	mov    QWORD PTR [rsp+0x7a0],r15
    6df6:	00 
    6df7:	48 89 9c 24 a8 07 00 	mov    QWORD PTR [rsp+0x7a8],rbx
    6dfe:	00 
    6dff:	48 89 bc 24 b0 07 00 	mov    QWORD PTR [rsp+0x7b0],rdi
    6e06:	00 
    6e07:	ff d0                	call   rax
    6e09:	48 8b 9c 24 a8 07 00 	mov    rbx,QWORD PTR [rsp+0x7a8]
    6e10:	00 
    6e11:	4c 8b bc 24 a0 07 00 	mov    r15,QWORD PTR [rsp+0x7a0]
    6e18:	00 
    6e19:	4c 89 ff             	mov    rdi,r15
    6e1c:	48 83 c7 70          	add    rdi,0x70
    6e20:	48 8b b4 24 90 07 00 	mov    rsi,QWORD PTR [rsp+0x790]
    6e27:	00 
    6e28:	48 b8 00 00 00 00 00 	movabs rax,0x0
    6e2f:	00 00 00 
			6e2a: R_X86_64_64	caml_initialize
    6e32:	48 89 b4 24 90 07 00 	mov    QWORD PTR [rsp+0x790],rsi
    6e39:	00 
    6e3a:	4c 89 bc 24 98 07 00 	mov    QWORD PTR [rsp+0x798],r15
    6e41:	00 
    6e42:	48 89 9c 24 a0 07 00 	mov    QWORD PTR [rsp+0x7a0],rbx
    6e49:	00 
    6e4a:	48 89 bc 24 a8 07 00 	mov    QWORD PTR [rsp+0x7a8],rdi
    6e51:	00 
    6e52:	ff d0                	call   rax
    6e54:	48 8b 9c 24 a0 07 00 	mov    rbx,QWORD PTR [rsp+0x7a0]
    6e5b:	00 
    6e5c:	4c 8b bc 24 98 07 00 	mov    r15,QWORD PTR [rsp+0x798]
    6e63:	00 
    6e64:	4c 89 ff             	mov    rdi,r15
    6e67:	48 83 c7 78          	add    rdi,0x78
    6e6b:	48 8b b4 24 88 07 00 	mov    rsi,QWORD PTR [rsp+0x788]
    6e72:	00 
    6e73:	48 b8 00 00 00 00 00 	movabs rax,0x0
    6e7a:	00 00 00 
			6e75: R_X86_64_64	caml_initialize
    6e7d:	48 89 b4 24 88 07 00 	mov    QWORD PTR [rsp+0x788],rsi
    6e84:	00 
    6e85:	4c 89 bc 24 90 07 00 	mov    QWORD PTR [rsp+0x790],r15
    6e8c:	00 
    6e8d:	48 89 9c 24 98 07 00 	mov    QWORD PTR [rsp+0x798],rbx
    6e94:	00 
    6e95:	48 89 bc 24 a0 07 00 	mov    QWORD PTR [rsp+0x7a0],rdi
    6e9c:	00 
    6e9d:	ff d0                	call   rax
    6e9f:	48 8b 9c 24 98 07 00 	mov    rbx,QWORD PTR [rsp+0x798]
    6ea6:	00 
    6ea7:	4c 8b bc 24 90 07 00 	mov    r15,QWORD PTR [rsp+0x790]
    6eae:	00 
    6eaf:	4c 89 ff             	mov    rdi,r15
    6eb2:	48 81 c7 80 00 00 00 	add    rdi,0x80
    6eb9:	48 8b b4 24 80 07 00 	mov    rsi,QWORD PTR [rsp+0x780]
    6ec0:	00 
    6ec1:	48 b8 00 00 00 00 00 	movabs rax,0x0
    6ec8:	00 00 00 
			6ec3: R_X86_64_64	caml_initialize
    6ecb:	48 89 b4 24 80 07 00 	mov    QWORD PTR [rsp+0x780],rsi
    6ed2:	00 
    6ed3:	4c 89 bc 24 88 07 00 	mov    QWORD PTR [rsp+0x788],r15
    6eda:	00 
    6edb:	48 89 9c 24 90 07 00 	mov    QWORD PTR [rsp+0x790],rbx
    6ee2:	00 
    6ee3:	48 89 bc 24 98 07 00 	mov    QWORD PTR [rsp+0x798],rdi
    6eea:	00 
    6eeb:	ff d0                	call   rax
    6eed:	48 8b 9c 24 90 07 00 	mov    rbx,QWORD PTR [rsp+0x790]
    6ef4:	00 
    6ef5:	4c 8b bc 24 88 07 00 	mov    r15,QWORD PTR [rsp+0x788]
    6efc:	00 
    6efd:	4c 89 ff             	mov    rdi,r15
    6f00:	48 81 c7 88 00 00 00 	add    rdi,0x88
    6f07:	48 8b b4 24 78 07 00 	mov    rsi,QWORD PTR [rsp+0x778]
    6f0e:	00 
    6f0f:	48 b8 00 00 00 00 00 	movabs rax,0x0
    6f16:	00 00 00 
			6f11: R_X86_64_64	caml_initialize
    6f19:	48 89 b4 24 78 07 00 	mov    QWORD PTR [rsp+0x778],rsi
    6f20:	00 
    6f21:	4c 89 bc 24 80 07 00 	mov    QWORD PTR [rsp+0x780],r15
    6f28:	00 
    6f29:	48 89 9c 24 88 07 00 	mov    QWORD PTR [rsp+0x788],rbx
    6f30:	00 
    6f31:	48 89 bc 24 90 07 00 	mov    QWORD PTR [rsp+0x790],rdi
    6f38:	00 
    6f39:	ff d0                	call   rax
    6f3b:	48 8b 9c 24 88 07 00 	mov    rbx,QWORD PTR [rsp+0x788]
    6f42:	00 
    6f43:	4c 8b bc 24 80 07 00 	mov    r15,QWORD PTR [rsp+0x780]
    6f4a:	00 
    6f4b:	4c 89 ff             	mov    rdi,r15
    6f4e:	48 81 c7 90 00 00 00 	add    rdi,0x90
    6f55:	48 8b b4 24 70 07 00 	mov    rsi,QWORD PTR [rsp+0x770]
    6f5c:	00 
    6f5d:	48 b8 00 00 00 00 00 	movabs rax,0x0
    6f64:	00 00 00 
			6f5f: R_X86_64_64	caml_initialize
    6f67:	48 89 b4 24 70 07 00 	mov    QWORD PTR [rsp+0x770],rsi
    6f6e:	00 
    6f6f:	4c 89 bc 24 78 07 00 	mov    QWORD PTR [rsp+0x778],r15
    6f76:	00 
    6f77:	48 89 9c 24 80 07 00 	mov    QWORD PTR [rsp+0x780],rbx
    6f7e:	00 
    6f7f:	48 89 bc 24 88 07 00 	mov    QWORD PTR [rsp+0x788],rdi
    6f86:	00 
    6f87:	ff d0                	call   rax
    6f89:	48 8b 9c 24 80 07 00 	mov    rbx,QWORD PTR [rsp+0x780]
    6f90:	00 
    6f91:	4c 8b bc 24 78 07 00 	mov    r15,QWORD PTR [rsp+0x778]
    6f98:	00 
    6f99:	4c 89 ff             	mov    rdi,r15
    6f9c:	48 81 c7 98 00 00 00 	add    rdi,0x98
    6fa3:	48 8b b4 24 68 07 00 	mov    rsi,QWORD PTR [rsp+0x768]
    6faa:	00 
    6fab:	48 b8 00 00 00 00 00 	movabs rax,0x0
    6fb2:	00 00 00 
			6fad: R_X86_64_64	caml_initialize
    6fb5:	48 89 b4 24 68 07 00 	mov    QWORD PTR [rsp+0x768],rsi
    6fbc:	00 
    6fbd:	4c 89 bc 24 70 07 00 	mov    QWORD PTR [rsp+0x770],r15
    6fc4:	00 
    6fc5:	48 89 9c 24 78 07 00 	mov    QWORD PTR [rsp+0x778],rbx
    6fcc:	00 
    6fcd:	48 89 bc 24 80 07 00 	mov    QWORD PTR [rsp+0x780],rdi
    6fd4:	00 
    6fd5:	ff d0                	call   rax
    6fd7:	48 8b 9c 24 78 07 00 	mov    rbx,QWORD PTR [rsp+0x778]
    6fde:	00 
    6fdf:	4c 8b bc 24 70 07 00 	mov    r15,QWORD PTR [rsp+0x770]
    6fe6:	00 
    6fe7:	4c 89 ff             	mov    rdi,r15
    6fea:	48 81 c7 a0 00 00 00 	add    rdi,0xa0
    6ff1:	48 8b b4 24 60 07 00 	mov    rsi,QWORD PTR [rsp+0x760]
    6ff8:	00 
    6ff9:	48 b8 00 00 00 00 00 	movabs rax,0x0
    7000:	00 00 00 
			6ffb: R_X86_64_64	caml_initialize
    7003:	48 89 b4 24 60 07 00 	mov    QWORD PTR [rsp+0x760],rsi
    700a:	00 
    700b:	4c 89 bc 24 68 07 00 	mov    QWORD PTR [rsp+0x768],r15
    7012:	00 
    7013:	48 89 9c 24 70 07 00 	mov    QWORD PTR [rsp+0x770],rbx
    701a:	00 
    701b:	48 89 bc 24 78 07 00 	mov    QWORD PTR [rsp+0x778],rdi
    7022:	00 
    7023:	ff d0                	call   rax
    7025:	48 8b 9c 24 70 07 00 	mov    rbx,QWORD PTR [rsp+0x770]
    702c:	00 
    702d:	4c 8b bc 24 68 07 00 	mov    r15,QWORD PTR [rsp+0x768]
    7034:	00 
    7035:	4c 89 ff             	mov    rdi,r15
    7038:	48 81 c7 a8 00 00 00 	add    rdi,0xa8
    703f:	48 8b b4 24 58 07 00 	mov    rsi,QWORD PTR [rsp+0x758]
    7046:	00 
    7047:	48 b8 00 00 00 00 00 	movabs rax,0x0
    704e:	00 00 00 
			7049: R_X86_64_64	caml_initialize
    7051:	48 89 b4 24 58 07 00 	mov    QWORD PTR [rsp+0x758],rsi
    7058:	00 
    7059:	4c 89 bc 24 60 07 00 	mov    QWORD PTR [rsp+0x760],r15
    7060:	00 
    7061:	48 89 9c 24 68 07 00 	mov    QWORD PTR [rsp+0x768],rbx
    7068:	00 
    7069:	48 89 bc 24 70 07 00 	mov    QWORD PTR [rsp+0x770],rdi
    7070:	00 
    7071:	ff d0                	call   rax
    7073:	48 8b 9c 24 68 07 00 	mov    rbx,QWORD PTR [rsp+0x768]
    707a:	00 
    707b:	4c 8b bc 24 60 07 00 	mov    r15,QWORD PTR [rsp+0x760]
    7082:	00 
    7083:	4c 89 ff             	mov    rdi,r15
    7086:	48 81 c7 b0 00 00 00 	add    rdi,0xb0
    708d:	48 8b b4 24 50 07 00 	mov    rsi,QWORD PTR [rsp+0x750]
    7094:	00 
    7095:	48 b8 00 00 00 00 00 	movabs rax,0x0
    709c:	00 00 00 
			7097: R_X86_64_64	caml_initialize
    709f:	48 89 b4 24 50 07 00 	mov    QWORD PTR [rsp+0x750],rsi
    70a6:	00 
    70a7:	4c 89 bc 24 58 07 00 	mov    QWORD PTR [rsp+0x758],r15
    70ae:	00 
    70af:	48 89 9c 24 60 07 00 	mov    QWORD PTR [rsp+0x760],rbx
    70b6:	00 
    70b7:	48 89 bc 24 68 07 00 	mov    QWORD PTR [rsp+0x768],rdi
    70be:	00 
    70bf:	ff d0                	call   rax
    70c1:	48 8b 9c 24 60 07 00 	mov    rbx,QWORD PTR [rsp+0x760]
    70c8:	00 
    70c9:	4c 8b bc 24 58 07 00 	mov    r15,QWORD PTR [rsp+0x758]
    70d0:	00 
    70d1:	4c 89 ff             	mov    rdi,r15
    70d4:	48 81 c7 b8 00 00 00 	add    rdi,0xb8
    70db:	48 8b b4 24 48 07 00 	mov    rsi,QWORD PTR [rsp+0x748]
    70e2:	00 
    70e3:	48 b8 00 00 00 00 00 	movabs rax,0x0
    70ea:	00 00 00 
			70e5: R_X86_64_64	caml_initialize
    70ed:	48 89 b4 24 48 07 00 	mov    QWORD PTR [rsp+0x748],rsi
    70f4:	00 
    70f5:	4c 89 bc 24 50 07 00 	mov    QWORD PTR [rsp+0x750],r15
    70fc:	00 
    70fd:	48 89 9c 24 58 07 00 	mov    QWORD PTR [rsp+0x758],rbx
    7104:	00 
    7105:	48 89 bc 24 60 07 00 	mov    QWORD PTR [rsp+0x760],rdi
    710c:	00 
    710d:	ff d0                	call   rax
    710f:	48 8b 9c 24 58 07 00 	mov    rbx,QWORD PTR [rsp+0x758]
    7116:	00 
    7117:	4c 8b bc 24 50 07 00 	mov    r15,QWORD PTR [rsp+0x750]
    711e:	00 
    711f:	4c 89 ff             	mov    rdi,r15
    7122:	48 81 c7 c0 00 00 00 	add    rdi,0xc0
    7129:	48 8b b4 24 40 07 00 	mov    rsi,QWORD PTR [rsp+0x740]
    7130:	00 
    7131:	48 b8 00 00 00 00 00 	movabs rax,0x0
    7138:	00 00 00 
			7133: R_X86_64_64	caml_initialize
    713b:	48 89 b4 24 40 07 00 	mov    QWORD PTR [rsp+0x740],rsi
    7142:	00 
    7143:	4c 89 bc 24 48 07 00 	mov    QWORD PTR [rsp+0x748],r15
    714a:	00 
    714b:	48 89 9c 24 50 07 00 	mov    QWORD PTR [rsp+0x750],rbx
    7152:	00 
    7153:	48 89 bc 24 58 07 00 	mov    QWORD PTR [rsp+0x758],rdi
    715a:	00 
    715b:	ff d0                	call   rax
    715d:	48 8b 9c 24 50 07 00 	mov    rbx,QWORD PTR [rsp+0x750]
    7164:	00 
    7165:	4c 8b bc 24 48 07 00 	mov    r15,QWORD PTR [rsp+0x748]
    716c:	00 
    716d:	4c 89 ff             	mov    rdi,r15
    7170:	48 81 c7 c8 00 00 00 	add    rdi,0xc8
    7177:	48 8b b4 24 38 07 00 	mov    rsi,QWORD PTR [rsp+0x738]
    717e:	00 
    717f:	48 b8 00 00 00 00 00 	movabs rax,0x0
    7186:	00 00 00 
			7181: R_X86_64_64	caml_initialize
    7189:	48 89 b4 24 38 07 00 	mov    QWORD PTR [rsp+0x738],rsi
    7190:	00 
    7191:	4c 89 bc 24 40 07 00 	mov    QWORD PTR [rsp+0x740],r15
    7198:	00 
    7199:	48 89 9c 24 48 07 00 	mov    QWORD PTR [rsp+0x748],rbx
    71a0:	00 
    71a1:	48 89 bc 24 50 07 00 	mov    QWORD PTR [rsp+0x750],rdi
    71a8:	00 
    71a9:	ff d0                	call   rax
    71ab:	48 8b 9c 24 48 07 00 	mov    rbx,QWORD PTR [rsp+0x748]
    71b2:	00 
    71b3:	4c 8b bc 24 40 07 00 	mov    r15,QWORD PTR [rsp+0x740]
    71ba:	00 
    71bb:	4c 89 ff             	mov    rdi,r15
    71be:	48 81 c7 d0 00 00 00 	add    rdi,0xd0
    71c5:	48 8b b4 24 30 07 00 	mov    rsi,QWORD PTR [rsp+0x730]
    71cc:	00 
    71cd:	48 b8 00 00 00 00 00 	movabs rax,0x0
    71d4:	00 00 00 
			71cf: R_X86_64_64	caml_initialize
    71d7:	48 89 b4 24 30 07 00 	mov    QWORD PTR [rsp+0x730],rsi
    71de:	00 
    71df:	4c 89 bc 24 38 07 00 	mov    QWORD PTR [rsp+0x738],r15
    71e6:	00 
    71e7:	48 89 9c 24 40 07 00 	mov    QWORD PTR [rsp+0x740],rbx
    71ee:	00 
    71ef:	48 89 bc 24 48 07 00 	mov    QWORD PTR [rsp+0x748],rdi
    71f6:	00 
    71f7:	ff d0                	call   rax
    71f9:	48 8b 9c 24 40 07 00 	mov    rbx,QWORD PTR [rsp+0x740]
    7200:	00 
    7201:	4c 8b bc 24 38 07 00 	mov    r15,QWORD PTR [rsp+0x738]
    7208:	00 
    7209:	4c 89 ff             	mov    rdi,r15
    720c:	48 81 c7 d8 00 00 00 	add    rdi,0xd8
    7213:	48 8b b4 24 28 07 00 	mov    rsi,QWORD PTR [rsp+0x728]
    721a:	00 
    721b:	48 b8 00 00 00 00 00 	movabs rax,0x0
    7222:	00 00 00 
			721d: R_X86_64_64	caml_initialize
    7225:	48 89 b4 24 28 07 00 	mov    QWORD PTR [rsp+0x728],rsi
    722c:	00 
    722d:	4c 89 bc 24 30 07 00 	mov    QWORD PTR [rsp+0x730],r15
    7234:	00 
    7235:	48 89 9c 24 38 07 00 	mov    QWORD PTR [rsp+0x738],rbx
    723c:	00 
    723d:	48 89 bc 24 40 07 00 	mov    QWORD PTR [rsp+0x740],rdi
    7244:	00 
    7245:	ff d0                	call   rax
    7247:	48 8b 9c 24 38 07 00 	mov    rbx,QWORD PTR [rsp+0x738]
    724e:	00 
    724f:	4c 8b bc 24 30 07 00 	mov    r15,QWORD PTR [rsp+0x730]
    7256:	00 
    7257:	4c 89 ff             	mov    rdi,r15
    725a:	48 81 c7 e0 00 00 00 	add    rdi,0xe0
    7261:	48 8b b4 24 20 07 00 	mov    rsi,QWORD PTR [rsp+0x720]
    7268:	00 
    7269:	48 b8 00 00 00 00 00 	movabs rax,0x0
    7270:	00 00 00 
			726b: R_X86_64_64	caml_initialize
    7273:	48 89 b4 24 20 07 00 	mov    QWORD PTR [rsp+0x720],rsi
    727a:	00 
    727b:	4c 89 bc 24 28 07 00 	mov    QWORD PTR [rsp+0x728],r15
    7282:	00 
    7283:	48 89 9c 24 30 07 00 	mov    QWORD PTR [rsp+0x730],rbx
    728a:	00 
    728b:	48 89 bc 24 38 07 00 	mov    QWORD PTR [rsp+0x738],rdi
    7292:	00 
    7293:	ff d0                	call   rax
    7295:	48 8b 9c 24 30 07 00 	mov    rbx,QWORD PTR [rsp+0x730]
    729c:	00 
    729d:	4c 8b bc 24 28 07 00 	mov    r15,QWORD PTR [rsp+0x728]
    72a4:	00 
    72a5:	4c 89 ff             	mov    rdi,r15
    72a8:	48 81 c7 e8 00 00 00 	add    rdi,0xe8
    72af:	48 8b b4 24 18 07 00 	mov    rsi,QWORD PTR [rsp+0x718]
    72b6:	00 
    72b7:	48 b8 00 00 00 00 00 	movabs rax,0x0
    72be:	00 00 00 
			72b9: R_X86_64_64	caml_initialize
    72c1:	48 89 b4 24 18 07 00 	mov    QWORD PTR [rsp+0x718],rsi
    72c8:	00 
    72c9:	4c 89 bc 24 20 07 00 	mov    QWORD PTR [rsp+0x720],r15
    72d0:	00 
    72d1:	48 89 9c 24 28 07 00 	mov    QWORD PTR [rsp+0x728],rbx
    72d8:	00 
    72d9:	48 89 bc 24 30 07 00 	mov    QWORD PTR [rsp+0x730],rdi
    72e0:	00 
    72e1:	ff d0                	call   rax
    72e3:	48 8b 9c 24 28 07 00 	mov    rbx,QWORD PTR [rsp+0x728]
    72ea:	00 
    72eb:	4c 8b bc 24 20 07 00 	mov    r15,QWORD PTR [rsp+0x720]
    72f2:	00 
    72f3:	4c 89 ff             	mov    rdi,r15
    72f6:	48 81 c7 f0 00 00 00 	add    rdi,0xf0
    72fd:	48 8b b4 24 10 07 00 	mov    rsi,QWORD PTR [rsp+0x710]
    7304:	00 
    7305:	48 b8 00 00 00 00 00 	movabs rax,0x0
    730c:	00 00 00 
			7307: R_X86_64_64	caml_initialize
    730f:	48 89 b4 24 10 07 00 	mov    QWORD PTR [rsp+0x710],rsi
    7316:	00 
    7317:	4c 89 bc 24 18 07 00 	mov    QWORD PTR [rsp+0x718],r15
    731e:	00 
    731f:	48 89 9c 24 20 07 00 	mov    QWORD PTR [rsp+0x720],rbx
    7326:	00 
    7327:	48 89 bc 24 28 07 00 	mov    QWORD PTR [rsp+0x728],rdi
    732e:	00 
    732f:	ff d0                	call   rax
    7331:	48 8b 9c 24 20 07 00 	mov    rbx,QWORD PTR [rsp+0x720]
    7338:	00 
    7339:	4c 8b bc 24 18 07 00 	mov    r15,QWORD PTR [rsp+0x718]
    7340:	00 
    7341:	4c 89 ff             	mov    rdi,r15
    7344:	48 81 c7 f8 00 00 00 	add    rdi,0xf8
    734b:	48 8b b4 24 08 07 00 	mov    rsi,QWORD PTR [rsp+0x708]
    7352:	00 
    7353:	48 b8 00 00 00 00 00 	movabs rax,0x0
    735a:	00 00 00 
			7355: R_X86_64_64	caml_initialize
    735d:	48 89 b4 24 08 07 00 	mov    QWORD PTR [rsp+0x708],rsi
    7364:	00 
    7365:	4c 89 bc 24 10 07 00 	mov    QWORD PTR [rsp+0x710],r15
    736c:	00 
    736d:	48 89 9c 24 18 07 00 	mov    QWORD PTR [rsp+0x718],rbx
    7374:	00 
    7375:	48 89 bc 24 20 07 00 	mov    QWORD PTR [rsp+0x720],rdi
    737c:	00 
    737d:	ff d0                	call   rax
    737f:	48 8b 9c 24 18 07 00 	mov    rbx,QWORD PTR [rsp+0x718]
    7386:	00 
    7387:	4c 8b bc 24 10 07 00 	mov    r15,QWORD PTR [rsp+0x710]
    738e:	00 
    738f:	4c 89 ff             	mov    rdi,r15
    7392:	48 81 c7 00 01 00 00 	add    rdi,0x100
    7399:	48 8b b4 24 00 07 00 	mov    rsi,QWORD PTR [rsp+0x700]
    73a0:	00 
    73a1:	48 b8 00 00 00 00 00 	movabs rax,0x0
    73a8:	00 00 00 
			73a3: R_X86_64_64	caml_initialize
    73ab:	48 89 b4 24 00 07 00 	mov    QWORD PTR [rsp+0x700],rsi
    73b2:	00 
    73b3:	4c 89 bc 24 08 07 00 	mov    QWORD PTR [rsp+0x708],r15
    73ba:	00 
    73bb:	48 89 9c 24 10 07 00 	mov    QWORD PTR [rsp+0x710],rbx
    73c2:	00 
    73c3:	48 89 bc 24 18 07 00 	mov    QWORD PTR [rsp+0x718],rdi
    73ca:	00 
    73cb:	ff d0                	call   rax
    73cd:	48 8b 9c 24 10 07 00 	mov    rbx,QWORD PTR [rsp+0x710]
    73d4:	00 
    73d5:	4c 8b bc 24 08 07 00 	mov    r15,QWORD PTR [rsp+0x708]
    73dc:	00 
    73dd:	4c 89 ff             	mov    rdi,r15
    73e0:	48 81 c7 08 01 00 00 	add    rdi,0x108
    73e7:	48 8b b4 24 f8 06 00 	mov    rsi,QWORD PTR [rsp+0x6f8]
    73ee:	00 
    73ef:	48 b8 00 00 00 00 00 	movabs rax,0x0
    73f6:	00 00 00 
			73f1: R_X86_64_64	caml_initialize
    73f9:	48 89 b4 24 f8 06 00 	mov    QWORD PTR [rsp+0x6f8],rsi
    7400:	00 
    7401:	4c 89 bc 24 00 07 00 	mov    QWORD PTR [rsp+0x700],r15
    7408:	00 
    7409:	48 89 9c 24 08 07 00 	mov    QWORD PTR [rsp+0x708],rbx
    7410:	00 
    7411:	48 89 bc 24 10 07 00 	mov    QWORD PTR [rsp+0x710],rdi
    7418:	00 
    7419:	ff d0                	call   rax
    741b:	48 8b 9c 24 08 07 00 	mov    rbx,QWORD PTR [rsp+0x708]
    7422:	00 
    7423:	4c 8b bc 24 00 07 00 	mov    r15,QWORD PTR [rsp+0x700]
    742a:	00 
    742b:	4c 89 ff             	mov    rdi,r15
    742e:	48 81 c7 10 01 00 00 	add    rdi,0x110
    7435:	48 8b b4 24 f0 06 00 	mov    rsi,QWORD PTR [rsp+0x6f0]
    743c:	00 
    743d:	48 b8 00 00 00 00 00 	movabs rax,0x0
    7444:	00 00 00 
			743f: R_X86_64_64	caml_initialize
    7447:	48 89 b4 24 f0 06 00 	mov    QWORD PTR [rsp+0x6f0],rsi
    744e:	00 
    744f:	4c 89 bc 24 f8 06 00 	mov    QWORD PTR [rsp+0x6f8],r15
    7456:	00 
    7457:	48 89 9c 24 00 07 00 	mov    QWORD PTR [rsp+0x700],rbx
    745e:	00 
    745f:	48 89 bc 24 08 07 00 	mov    QWORD PTR [rsp+0x708],rdi
    7466:	00 
    7467:	ff d0                	call   rax
    7469:	48 8b 9c 24 00 07 00 	mov    rbx,QWORD PTR [rsp+0x700]
    7470:	00 
    7471:	4c 8b bc 24 f8 06 00 	mov    r15,QWORD PTR [rsp+0x6f8]
    7478:	00 
    7479:	4c 89 ff             	mov    rdi,r15
    747c:	48 81 c7 18 01 00 00 	add    rdi,0x118
    7483:	48 8b b4 24 e8 06 00 	mov    rsi,QWORD PTR [rsp+0x6e8]
    748a:	00 
    748b:	48 b8 00 00 00 00 00 	movabs rax,0x0
    7492:	00 00 00 
			748d: R_X86_64_64	caml_initialize
    7495:	48 89 b4 24 e8 06 00 	mov    QWORD PTR [rsp+0x6e8],rsi
    749c:	00 
    749d:	4c 89 bc 24 f0 06 00 	mov    QWORD PTR [rsp+0x6f0],r15
    74a4:	00 
    74a5:	48 89 9c 24 f8 06 00 	mov    QWORD PTR [rsp+0x6f8],rbx
    74ac:	00 
    74ad:	48 89 bc 24 00 07 00 	mov    QWORD PTR [rsp+0x700],rdi
    74b4:	00 
    74b5:	ff d0                	call   rax
    74b7:	48 8b 9c 24 f8 06 00 	mov    rbx,QWORD PTR [rsp+0x6f8]
    74be:	00 
    74bf:	4c 8b bc 24 f0 06 00 	mov    r15,QWORD PTR [rsp+0x6f0]
    74c6:	00 
    74c7:	4c 89 ff             	mov    rdi,r15
    74ca:	48 81 c7 20 01 00 00 	add    rdi,0x120
    74d1:	48 8b b4 24 e0 06 00 	mov    rsi,QWORD PTR [rsp+0x6e0]
    74d8:	00 
    74d9:	48 b8 00 00 00 00 00 	movabs rax,0x0
    74e0:	00 00 00 
			74db: R_X86_64_64	caml_initialize
    74e3:	48 89 b4 24 e0 06 00 	mov    QWORD PTR [rsp+0x6e0],rsi
    74ea:	00 
    74eb:	4c 89 bc 24 e8 06 00 	mov    QWORD PTR [rsp+0x6e8],r15
    74f2:	00 
    74f3:	48 89 9c 24 f0 06 00 	mov    QWORD PTR [rsp+0x6f0],rbx
    74fa:	00 
    74fb:	48 89 bc 24 f8 06 00 	mov    QWORD PTR [rsp+0x6f8],rdi
    7502:	00 
    7503:	ff d0                	call   rax
    7505:	48 8b 9c 24 f0 06 00 	mov    rbx,QWORD PTR [rsp+0x6f0]
    750c:	00 
    750d:	4c 8b bc 24 e8 06 00 	mov    r15,QWORD PTR [rsp+0x6e8]
    7514:	00 
    7515:	4c 89 ff             	mov    rdi,r15
    7518:	48 81 c7 28 01 00 00 	add    rdi,0x128
    751f:	48 8b b4 24 d8 06 00 	mov    rsi,QWORD PTR [rsp+0x6d8]
    7526:	00 
    7527:	48 b8 00 00 00 00 00 	movabs rax,0x0
    752e:	00 00 00 
			7529: R_X86_64_64	caml_initialize
    7531:	48 89 b4 24 d8 06 00 	mov    QWORD PTR [rsp+0x6d8],rsi
    7538:	00 
    7539:	4c 89 bc 24 e0 06 00 	mov    QWORD PTR [rsp+0x6e0],r15
    7540:	00 
    7541:	48 89 9c 24 e8 06 00 	mov    QWORD PTR [rsp+0x6e8],rbx
    7548:	00 
    7549:	48 89 bc 24 f0 06 00 	mov    QWORD PTR [rsp+0x6f0],rdi
    7550:	00 
    7551:	ff d0                	call   rax
    7553:	48 8b 9c 24 e8 06 00 	mov    rbx,QWORD PTR [rsp+0x6e8]
    755a:	00 
    755b:	4c 8b bc 24 e0 06 00 	mov    r15,QWORD PTR [rsp+0x6e0]
    7562:	00 
    7563:	4c 89 ff             	mov    rdi,r15
    7566:	48 81 c7 30 01 00 00 	add    rdi,0x130
    756d:	48 8b b4 24 d0 06 00 	mov    rsi,QWORD PTR [rsp+0x6d0]
    7574:	00 
    7575:	48 b8 00 00 00 00 00 	movabs rax,0x0
    757c:	00 00 00 
			7577: R_X86_64_64	caml_initialize
    757f:	48 89 b4 24 d0 06 00 	mov    QWORD PTR [rsp+0x6d0],rsi
    7586:	00 
    7587:	4c 89 bc 24 d8 06 00 	mov    QWORD PTR [rsp+0x6d8],r15
    758e:	00 
    758f:	48 89 9c 24 e0 06 00 	mov    QWORD PTR [rsp+0x6e0],rbx
    7596:	00 
    7597:	48 89 bc 24 e8 06 00 	mov    QWORD PTR [rsp+0x6e8],rdi
    759e:	00 
    759f:	ff d0                	call   rax
    75a1:	48 8b 9c 24 e0 06 00 	mov    rbx,QWORD PTR [rsp+0x6e0]
    75a8:	00 
    75a9:	4c 8b bc 24 d8 06 00 	mov    r15,QWORD PTR [rsp+0x6d8]
    75b0:	00 
    75b1:	4c 89 ff             	mov    rdi,r15
    75b4:	48 81 c7 38 01 00 00 	add    rdi,0x138
    75bb:	48 8b b4 24 c8 06 00 	mov    rsi,QWORD PTR [rsp+0x6c8]
    75c2:	00 
    75c3:	48 b8 00 00 00 00 00 	movabs rax,0x0
    75ca:	00 00 00 
			75c5: R_X86_64_64	caml_initialize
    75cd:	48 89 b4 24 c8 06 00 	mov    QWORD PTR [rsp+0x6c8],rsi
    75d4:	00 
    75d5:	4c 89 bc 24 d0 06 00 	mov    QWORD PTR [rsp+0x6d0],r15
    75dc:	00 
    75dd:	48 89 9c 24 d8 06 00 	mov    QWORD PTR [rsp+0x6d8],rbx
    75e4:	00 
    75e5:	48 89 bc 24 e0 06 00 	mov    QWORD PTR [rsp+0x6e0],rdi
    75ec:	00 
    75ed:	ff d0                	call   rax
    75ef:	48 8b 9c 24 d8 06 00 	mov    rbx,QWORD PTR [rsp+0x6d8]
    75f6:	00 
    75f7:	4c 8b bc 24 d0 06 00 	mov    r15,QWORD PTR [rsp+0x6d0]
    75fe:	00 
    75ff:	4c 89 ff             	mov    rdi,r15
    7602:	48 81 c7 40 01 00 00 	add    rdi,0x140
    7609:	48 8b b4 24 c0 06 00 	mov    rsi,QWORD PTR [rsp+0x6c0]
    7610:	00 
    7611:	48 b8 00 00 00 00 00 	movabs rax,0x0
    7618:	00 00 00 
			7613: R_X86_64_64	caml_initialize
    761b:	48 89 b4 24 c0 06 00 	mov    QWORD PTR [rsp+0x6c0],rsi
    7622:	00 
    7623:	4c 89 bc 24 c8 06 00 	mov    QWORD PTR [rsp+0x6c8],r15
    762a:	00 
    762b:	48 89 9c 24 d0 06 00 	mov    QWORD PTR [rsp+0x6d0],rbx
    7632:	00 
    7633:	48 89 bc 24 d8 06 00 	mov    QWORD PTR [rsp+0x6d8],rdi
    763a:	00 
    763b:	ff d0                	call   rax
    763d:	48 8b 9c 24 d0 06 00 	mov    rbx,QWORD PTR [rsp+0x6d0]
    7644:	00 
    7645:	4c 8b bc 24 c8 06 00 	mov    r15,QWORD PTR [rsp+0x6c8]
    764c:	00 
    764d:	4c 89 ff             	mov    rdi,r15
    7650:	48 81 c7 48 01 00 00 	add    rdi,0x148
    7657:	48 8b b4 24 b8 06 00 	mov    rsi,QWORD PTR [rsp+0x6b8]
    765e:	00 
    765f:	48 b8 00 00 00 00 00 	movabs rax,0x0
    7666:	00 00 00 
			7661: R_X86_64_64	caml_initialize
    7669:	48 89 b4 24 b8 06 00 	mov    QWORD PTR [rsp+0x6b8],rsi
    7670:	00 
    7671:	4c 89 bc 24 c0 06 00 	mov    QWORD PTR [rsp+0x6c0],r15
    7678:	00 
    7679:	48 89 9c 24 c8 06 00 	mov    QWORD PTR [rsp+0x6c8],rbx
    7680:	00 
    7681:	48 89 bc 24 d0 06 00 	mov    QWORD PTR [rsp+0x6d0],rdi
    7688:	00 
    7689:	ff d0                	call   rax
    768b:	48 8b 9c 24 c8 06 00 	mov    rbx,QWORD PTR [rsp+0x6c8]
    7692:	00 
    7693:	4c 8b bc 24 c0 06 00 	mov    r15,QWORD PTR [rsp+0x6c0]
    769a:	00 
    769b:	4c 89 ff             	mov    rdi,r15
    769e:	48 81 c7 50 01 00 00 	add    rdi,0x150
    76a5:	48 8b b4 24 b0 06 00 	mov    rsi,QWORD PTR [rsp+0x6b0]
    76ac:	00 
    76ad:	48 b8 00 00 00 00 00 	movabs rax,0x0
    76b4:	00 00 00 
			76af: R_X86_64_64	caml_initialize
    76b7:	48 89 b4 24 b0 06 00 	mov    QWORD PTR [rsp+0x6b0],rsi
    76be:	00 
    76bf:	4c 89 bc 24 b8 06 00 	mov    QWORD PTR [rsp+0x6b8],r15
    76c6:	00 
    76c7:	48 89 9c 24 c0 06 00 	mov    QWORD PTR [rsp+0x6c0],rbx
    76ce:	00 
    76cf:	48 89 bc 24 c8 06 00 	mov    QWORD PTR [rsp+0x6c8],rdi
    76d6:	00 
    76d7:	ff d0                	call   rax
    76d9:	48 8b 9c 24 c0 06 00 	mov    rbx,QWORD PTR [rsp+0x6c0]
    76e0:	00 
    76e1:	4c 8b bc 24 b8 06 00 	mov    r15,QWORD PTR [rsp+0x6b8]
    76e8:	00 
    76e9:	4c 89 ff             	mov    rdi,r15
    76ec:	48 81 c7 58 01 00 00 	add    rdi,0x158
    76f3:	48 8b b4 24 a8 06 00 	mov    rsi,QWORD PTR [rsp+0x6a8]
    76fa:	00 
    76fb:	48 b8 00 00 00 00 00 	movabs rax,0x0
    7702:	00 00 00 
			76fd: R_X86_64_64	caml_initialize
    7705:	48 89 b4 24 a8 06 00 	mov    QWORD PTR [rsp+0x6a8],rsi
    770c:	00 
    770d:	4c 89 bc 24 b0 06 00 	mov    QWORD PTR [rsp+0x6b0],r15
    7714:	00 
    7715:	48 89 9c 24 b8 06 00 	mov    QWORD PTR [rsp+0x6b8],rbx
    771c:	00 
    771d:	48 89 bc 24 c0 06 00 	mov    QWORD PTR [rsp+0x6c0],rdi
    7724:	00 
    7725:	ff d0                	call   rax
    7727:	48 8b 9c 24 b8 06 00 	mov    rbx,QWORD PTR [rsp+0x6b8]
    772e:	00 
    772f:	4c 8b bc 24 b0 06 00 	mov    r15,QWORD PTR [rsp+0x6b0]
    7736:	00 
    7737:	4c 89 ff             	mov    rdi,r15
    773a:	48 81 c7 60 01 00 00 	add    rdi,0x160
    7741:	48 8b b4 24 a0 06 00 	mov    rsi,QWORD PTR [rsp+0x6a0]
    7748:	00 
    7749:	48 b8 00 00 00 00 00 	movabs rax,0x0
    7750:	00 00 00 
			774b: R_X86_64_64	caml_initialize
    7753:	48 89 b4 24 a0 06 00 	mov    QWORD PTR [rsp+0x6a0],rsi
    775a:	00 
    775b:	4c 89 bc 24 a8 06 00 	mov    QWORD PTR [rsp+0x6a8],r15
    7762:	00 
    7763:	48 89 9c 24 b0 06 00 	mov    QWORD PTR [rsp+0x6b0],rbx
    776a:	00 
    776b:	48 89 bc 24 b8 06 00 	mov    QWORD PTR [rsp+0x6b8],rdi
    7772:	00 
    7773:	ff d0                	call   rax
    7775:	48 8b 9c 24 b0 06 00 	mov    rbx,QWORD PTR [rsp+0x6b0]
    777c:	00 
    777d:	4c 8b bc 24 a8 06 00 	mov    r15,QWORD PTR [rsp+0x6a8]
    7784:	00 
    7785:	4c 89 ff             	mov    rdi,r15
    7788:	48 81 c7 68 01 00 00 	add    rdi,0x168
    778f:	48 8b b4 24 98 06 00 	mov    rsi,QWORD PTR [rsp+0x698]
    7796:	00 
    7797:	48 b8 00 00 00 00 00 	movabs rax,0x0
    779e:	00 00 00 
			7799: R_X86_64_64	caml_initialize
    77a1:	48 89 b4 24 98 06 00 	mov    QWORD PTR [rsp+0x698],rsi
    77a8:	00 
    77a9:	4c 89 bc 24 a0 06 00 	mov    QWORD PTR [rsp+0x6a0],r15
    77b0:	00 
    77b1:	48 89 9c 24 a8 06 00 	mov    QWORD PTR [rsp+0x6a8],rbx
    77b8:	00 
    77b9:	48 89 bc 24 b0 06 00 	mov    QWORD PTR [rsp+0x6b0],rdi
    77c0:	00 
    77c1:	ff d0                	call   rax
    77c3:	48 8b 9c 24 a8 06 00 	mov    rbx,QWORD PTR [rsp+0x6a8]
    77ca:	00 
    77cb:	4c 8b bc 24 a0 06 00 	mov    r15,QWORD PTR [rsp+0x6a0]
    77d2:	00 
    77d3:	4c 89 ff             	mov    rdi,r15
    77d6:	48 81 c7 70 01 00 00 	add    rdi,0x170
    77dd:	48 8b b4 24 90 06 00 	mov    rsi,QWORD PTR [rsp+0x690]
    77e4:	00 
    77e5:	48 b8 00 00 00 00 00 	movabs rax,0x0
    77ec:	00 00 00 
			77e7: R_X86_64_64	caml_initialize
    77ef:	48 89 b4 24 90 06 00 	mov    QWORD PTR [rsp+0x690],rsi
    77f6:	00 
    77f7:	4c 89 bc 24 98 06 00 	mov    QWORD PTR [rsp+0x698],r15
    77fe:	00 
    77ff:	48 89 9c 24 a0 06 00 	mov    QWORD PTR [rsp+0x6a0],rbx
    7806:	00 
    7807:	48 89 bc 24 a8 06 00 	mov    QWORD PTR [rsp+0x6a8],rdi
    780e:	00 
    780f:	ff d0                	call   rax
    7811:	48 8b 9c 24 a0 06 00 	mov    rbx,QWORD PTR [rsp+0x6a0]
    7818:	00 
    7819:	4c 8b bc 24 98 06 00 	mov    r15,QWORD PTR [rsp+0x698]
    7820:	00 
    7821:	4c 89 ff             	mov    rdi,r15
    7824:	48 81 c7 78 01 00 00 	add    rdi,0x178
    782b:	48 8b b4 24 88 06 00 	mov    rsi,QWORD PTR [rsp+0x688]
    7832:	00 
    7833:	48 b8 00 00 00 00 00 	movabs rax,0x0
    783a:	00 00 00 
			7835: R_X86_64_64	caml_initialize
    783d:	48 89 b4 24 88 06 00 	mov    QWORD PTR [rsp+0x688],rsi
    7844:	00 
    7845:	4c 89 bc 24 90 06 00 	mov    QWORD PTR [rsp+0x690],r15
    784c:	00 
    784d:	48 89 9c 24 98 06 00 	mov    QWORD PTR [rsp+0x698],rbx
    7854:	00 
    7855:	48 89 bc 24 a0 06 00 	mov    QWORD PTR [rsp+0x6a0],rdi
    785c:	00 
    785d:	ff d0                	call   rax
    785f:	48 8b 9c 24 98 06 00 	mov    rbx,QWORD PTR [rsp+0x698]
    7866:	00 
    7867:	4c 8b bc 24 90 06 00 	mov    r15,QWORD PTR [rsp+0x690]
    786e:	00 
    786f:	4c 89 ff             	mov    rdi,r15
    7872:	48 81 c7 80 01 00 00 	add    rdi,0x180
    7879:	48 8b b4 24 80 06 00 	mov    rsi,QWORD PTR [rsp+0x680]
    7880:	00 
    7881:	48 b8 00 00 00 00 00 	movabs rax,0x0
    7888:	00 00 00 
			7883: R_X86_64_64	caml_initialize
    788b:	48 89 b4 24 80 06 00 	mov    QWORD PTR [rsp+0x680],rsi
    7892:	00 
    7893:	4c 89 bc 24 88 06 00 	mov    QWORD PTR [rsp+0x688],r15
    789a:	00 
    789b:	48 89 9c 24 90 06 00 	mov    QWORD PTR [rsp+0x690],rbx
    78a2:	00 
    78a3:	48 89 bc 24 98 06 00 	mov    QWORD PTR [rsp+0x698],rdi
    78aa:	00 
    78ab:	ff d0                	call   rax
    78ad:	48 8b 9c 24 90 06 00 	mov    rbx,QWORD PTR [rsp+0x690]
    78b4:	00 
    78b5:	4c 8b bc 24 88 06 00 	mov    r15,QWORD PTR [rsp+0x688]
    78bc:	00 
    78bd:	4c 89 ff             	mov    rdi,r15
    78c0:	48 81 c7 88 01 00 00 	add    rdi,0x188
    78c7:	48 8b b4 24 78 06 00 	mov    rsi,QWORD PTR [rsp+0x678]
    78ce:	00 
    78cf:	48 b8 00 00 00 00 00 	movabs rax,0x0
    78d6:	00 00 00 
			78d1: R_X86_64_64	caml_initialize
    78d9:	48 89 b4 24 78 06 00 	mov    QWORD PTR [rsp+0x678],rsi
    78e0:	00 
    78e1:	4c 89 bc 24 80 06 00 	mov    QWORD PTR [rsp+0x680],r15
    78e8:	00 
    78e9:	48 89 9c 24 88 06 00 	mov    QWORD PTR [rsp+0x688],rbx
    78f0:	00 
    78f1:	48 89 bc 24 90 06 00 	mov    QWORD PTR [rsp+0x690],rdi
    78f8:	00 
    78f9:	ff d0                	call   rax
    78fb:	48 8b 9c 24 88 06 00 	mov    rbx,QWORD PTR [rsp+0x688]
    7902:	00 
    7903:	4c 8b bc 24 80 06 00 	mov    r15,QWORD PTR [rsp+0x680]
    790a:	00 
    790b:	4c 89 ff             	mov    rdi,r15
    790e:	48 81 c7 90 01 00 00 	add    rdi,0x190
    7915:	48 8b b4 24 70 06 00 	mov    rsi,QWORD PTR [rsp+0x670]
    791c:	00 
    791d:	48 b8 00 00 00 00 00 	movabs rax,0x0
    7924:	00 00 00 
			791f: R_X86_64_64	caml_initialize
    7927:	48 89 b4 24 70 06 00 	mov    QWORD PTR [rsp+0x670],rsi
    792e:	00 
    792f:	4c 89 bc 24 78 06 00 	mov    QWORD PTR [rsp+0x678],r15
    7936:	00 
    7937:	48 89 9c 24 80 06 00 	mov    QWORD PTR [rsp+0x680],rbx
    793e:	00 
    793f:	48 89 bc 24 88 06 00 	mov    QWORD PTR [rsp+0x688],rdi
    7946:	00 
    7947:	ff d0                	call   rax
    7949:	48 8b 9c 24 80 06 00 	mov    rbx,QWORD PTR [rsp+0x680]
    7950:	00 
    7951:	4c 8b bc 24 78 06 00 	mov    r15,QWORD PTR [rsp+0x678]
    7958:	00 
    7959:	4c 89 ff             	mov    rdi,r15
    795c:	48 81 c7 98 01 00 00 	add    rdi,0x198
    7963:	48 8b b4 24 68 06 00 	mov    rsi,QWORD PTR [rsp+0x668]
    796a:	00 
    796b:	48 b8 00 00 00 00 00 	movabs rax,0x0
    7972:	00 00 00 
			796d: R_X86_64_64	caml_initialize
    7975:	48 89 b4 24 68 06 00 	mov    QWORD PTR [rsp+0x668],rsi
    797c:	00 
    797d:	4c 89 bc 24 70 06 00 	mov    QWORD PTR [rsp+0x670],r15
    7984:	00 
    7985:	48 89 9c 24 78 06 00 	mov    QWORD PTR [rsp+0x678],rbx
    798c:	00 
    798d:	48 89 bc 24 80 06 00 	mov    QWORD PTR [rsp+0x680],rdi
    7994:	00 
    7995:	ff d0                	call   rax
    7997:	48 8b 9c 24 78 06 00 	mov    rbx,QWORD PTR [rsp+0x678]
    799e:	00 
    799f:	4c 8b bc 24 70 06 00 	mov    r15,QWORD PTR [rsp+0x670]
    79a6:	00 
    79a7:	4c 89 ff             	mov    rdi,r15
    79aa:	48 81 c7 a0 01 00 00 	add    rdi,0x1a0
    79b1:	48 8b b4 24 60 06 00 	mov    rsi,QWORD PTR [rsp+0x660]
    79b8:	00 
    79b9:	48 b8 00 00 00 00 00 	movabs rax,0x0
    79c0:	00 00 00 
			79bb: R_X86_64_64	caml_initialize
    79c3:	48 89 b4 24 60 06 00 	mov    QWORD PTR [rsp+0x660],rsi
    79ca:	00 
    79cb:	4c 89 bc 24 68 06 00 	mov    QWORD PTR [rsp+0x668],r15
    79d2:	00 
    79d3:	48 89 9c 24 70 06 00 	mov    QWORD PTR [rsp+0x670],rbx
    79da:	00 
    79db:	48 89 bc 24 78 06 00 	mov    QWORD PTR [rsp+0x678],rdi
    79e2:	00 
    79e3:	ff d0                	call   rax
    79e5:	48 8b 9c 24 70 06 00 	mov    rbx,QWORD PTR [rsp+0x670]
    79ec:	00 
    79ed:	4c 8b bc 24 68 06 00 	mov    r15,QWORD PTR [rsp+0x668]
    79f4:	00 
    79f5:	4c 89 ff             	mov    rdi,r15
    79f8:	48 81 c7 a8 01 00 00 	add    rdi,0x1a8
    79ff:	48 8b b4 24 58 06 00 	mov    rsi,QWORD PTR [rsp+0x658]
    7a06:	00 
    7a07:	48 b8 00 00 00 00 00 	movabs rax,0x0
    7a0e:	00 00 00 
			7a09: R_X86_64_64	caml_initialize
    7a11:	48 89 b4 24 58 06 00 	mov    QWORD PTR [rsp+0x658],rsi
    7a18:	00 
    7a19:	4c 89 bc 24 60 06 00 	mov    QWORD PTR [rsp+0x660],r15
    7a20:	00 
    7a21:	48 89 9c 24 68 06 00 	mov    QWORD PTR [rsp+0x668],rbx
    7a28:	00 
    7a29:	48 89 bc 24 70 06 00 	mov    QWORD PTR [rsp+0x670],rdi
    7a30:	00 
    7a31:	ff d0                	call   rax
    7a33:	48 8b 9c 24 68 06 00 	mov    rbx,QWORD PTR [rsp+0x668]
    7a3a:	00 
    7a3b:	4c 8b bc 24 60 06 00 	mov    r15,QWORD PTR [rsp+0x660]
    7a42:	00 
    7a43:	4c 89 ff             	mov    rdi,r15
    7a46:	48 81 c7 b0 01 00 00 	add    rdi,0x1b0
    7a4d:	48 8b b4 24 50 06 00 	mov    rsi,QWORD PTR [rsp+0x650]
    7a54:	00 
    7a55:	48 b8 00 00 00 00 00 	movabs rax,0x0
    7a5c:	00 00 00 
			7a57: R_X86_64_64	caml_initialize
    7a5f:	48 89 b4 24 50 06 00 	mov    QWORD PTR [rsp+0x650],rsi
    7a66:	00 
    7a67:	4c 89 bc 24 58 06 00 	mov    QWORD PTR [rsp+0x658],r15
    7a6e:	00 
    7a6f:	48 89 9c 24 60 06 00 	mov    QWORD PTR [rsp+0x660],rbx
    7a76:	00 
    7a77:	48 89 bc 24 68 06 00 	mov    QWORD PTR [rsp+0x668],rdi
    7a7e:	00 
    7a7f:	ff d0                	call   rax
    7a81:	48 8b 9c 24 60 06 00 	mov    rbx,QWORD PTR [rsp+0x660]
    7a88:	00 
    7a89:	4c 8b bc 24 58 06 00 	mov    r15,QWORD PTR [rsp+0x658]
    7a90:	00 
    7a91:	4c 89 ff             	mov    rdi,r15
    7a94:	48 81 c7 b8 01 00 00 	add    rdi,0x1b8
    7a9b:	48 8b b4 24 48 06 00 	mov    rsi,QWORD PTR [rsp+0x648]
    7aa2:	00 
    7aa3:	48 b8 00 00 00 00 00 	movabs rax,0x0
    7aaa:	00 00 00 
			7aa5: R_X86_64_64	caml_initialize
    7aad:	48 89 b4 24 48 06 00 	mov    QWORD PTR [rsp+0x648],rsi
    7ab4:	00 
    7ab5:	4c 89 bc 24 50 06 00 	mov    QWORD PTR [rsp+0x650],r15
    7abc:	00 
    7abd:	48 89 9c 24 58 06 00 	mov    QWORD PTR [rsp+0x658],rbx
    7ac4:	00 
    7ac5:	48 89 bc 24 60 06 00 	mov    QWORD PTR [rsp+0x660],rdi
    7acc:	00 
    7acd:	ff d0                	call   rax
    7acf:	48 8b 9c 24 58 06 00 	mov    rbx,QWORD PTR [rsp+0x658]
    7ad6:	00 
    7ad7:	4c 8b bc 24 50 06 00 	mov    r15,QWORD PTR [rsp+0x650]
    7ade:	00 
    7adf:	4c 89 ff             	mov    rdi,r15
    7ae2:	48 81 c7 c0 01 00 00 	add    rdi,0x1c0
    7ae9:	48 8b b4 24 40 06 00 	mov    rsi,QWORD PTR [rsp+0x640]
    7af0:	00 
    7af1:	48 b8 00 00 00 00 00 	movabs rax,0x0
    7af8:	00 00 00 
			7af3: R_X86_64_64	caml_initialize
    7afb:	48 89 b4 24 40 06 00 	mov    QWORD PTR [rsp+0x640],rsi
    7b02:	00 
    7b03:	4c 89 bc 24 48 06 00 	mov    QWORD PTR [rsp+0x648],r15
    7b0a:	00 
    7b0b:	48 89 9c 24 50 06 00 	mov    QWORD PTR [rsp+0x650],rbx
    7b12:	00 
    7b13:	48 89 bc 24 58 06 00 	mov    QWORD PTR [rsp+0x658],rdi
    7b1a:	00 
    7b1b:	ff d0                	call   rax
    7b1d:	48 8b 9c 24 50 06 00 	mov    rbx,QWORD PTR [rsp+0x650]
    7b24:	00 
    7b25:	4c 8b bc 24 48 06 00 	mov    r15,QWORD PTR [rsp+0x648]
    7b2c:	00 
    7b2d:	4c 89 ff             	mov    rdi,r15
    7b30:	48 81 c7 c8 01 00 00 	add    rdi,0x1c8
    7b37:	48 8b b4 24 38 06 00 	mov    rsi,QWORD PTR [rsp+0x638]
    7b3e:	00 
    7b3f:	48 b8 00 00 00 00 00 	movabs rax,0x0
    7b46:	00 00 00 
			7b41: R_X86_64_64	caml_initialize
    7b49:	48 89 b4 24 38 06 00 	mov    QWORD PTR [rsp+0x638],rsi
    7b50:	00 
    7b51:	4c 89 bc 24 40 06 00 	mov    QWORD PTR [rsp+0x640],r15
    7b58:	00 
    7b59:	48 89 9c 24 48 06 00 	mov    QWORD PTR [rsp+0x648],rbx
    7b60:	00 
    7b61:	48 89 bc 24 50 06 00 	mov    QWORD PTR [rsp+0x650],rdi
    7b68:	00 
    7b69:	ff d0                	call   rax
    7b6b:	48 8b 9c 24 48 06 00 	mov    rbx,QWORD PTR [rsp+0x648]
    7b72:	00 
    7b73:	4c 8b bc 24 40 06 00 	mov    r15,QWORD PTR [rsp+0x640]
    7b7a:	00 
    7b7b:	4c 89 ff             	mov    rdi,r15
    7b7e:	48 81 c7 d0 01 00 00 	add    rdi,0x1d0
    7b85:	48 8b b4 24 30 06 00 	mov    rsi,QWORD PTR [rsp+0x630]
    7b8c:	00 
    7b8d:	48 b8 00 00 00 00 00 	movabs rax,0x0
    7b94:	00 00 00 
			7b8f: R_X86_64_64	caml_initialize
    7b97:	48 89 b4 24 30 06 00 	mov    QWORD PTR [rsp+0x630],rsi
    7b9e:	00 
    7b9f:	4c 89 bc 24 38 06 00 	mov    QWORD PTR [rsp+0x638],r15
    7ba6:	00 
    7ba7:	48 89 9c 24 40 06 00 	mov    QWORD PTR [rsp+0x640],rbx
    7bae:	00 
    7baf:	48 89 bc 24 48 06 00 	mov    QWORD PTR [rsp+0x648],rdi
    7bb6:	00 
    7bb7:	ff d0                	call   rax
    7bb9:	48 8b 9c 24 40 06 00 	mov    rbx,QWORD PTR [rsp+0x640]
    7bc0:	00 
    7bc1:	4c 8b bc 24 38 06 00 	mov    r15,QWORD PTR [rsp+0x638]
    7bc8:	00 
    7bc9:	4c 89 ff             	mov    rdi,r15
    7bcc:	48 81 c7 d8 01 00 00 	add    rdi,0x1d8
    7bd3:	48 8b b4 24 28 06 00 	mov    rsi,QWORD PTR [rsp+0x628]
    7bda:	00 
    7bdb:	48 b8 00 00 00 00 00 	movabs rax,0x0
    7be2:	00 00 00 
			7bdd: R_X86_64_64	caml_initialize
    7be5:	48 89 b4 24 28 06 00 	mov    QWORD PTR [rsp+0x628],rsi
    7bec:	00 
    7bed:	4c 89 bc 24 30 06 00 	mov    QWORD PTR [rsp+0x630],r15
    7bf4:	00 
    7bf5:	48 89 9c 24 38 06 00 	mov    QWORD PTR [rsp+0x638],rbx
    7bfc:	00 
    7bfd:	48 89 bc 24 40 06 00 	mov    QWORD PTR [rsp+0x640],rdi
    7c04:	00 
    7c05:	ff d0                	call   rax
    7c07:	48 8b 9c 24 38 06 00 	mov    rbx,QWORD PTR [rsp+0x638]
    7c0e:	00 
    7c0f:	4c 8b bc 24 30 06 00 	mov    r15,QWORD PTR [rsp+0x630]
    7c16:	00 
    7c17:	4c 89 ff             	mov    rdi,r15
    7c1a:	48 81 c7 e0 01 00 00 	add    rdi,0x1e0
    7c21:	48 8b b4 24 20 06 00 	mov    rsi,QWORD PTR [rsp+0x620]
    7c28:	00 
    7c29:	48 b8 00 00 00 00 00 	movabs rax,0x0
    7c30:	00 00 00 
			7c2b: R_X86_64_64	caml_initialize
    7c33:	48 89 b4 24 20 06 00 	mov    QWORD PTR [rsp+0x620],rsi
    7c3a:	00 
    7c3b:	4c 89 bc 24 28 06 00 	mov    QWORD PTR [rsp+0x628],r15
    7c42:	00 
    7c43:	48 89 9c 24 30 06 00 	mov    QWORD PTR [rsp+0x630],rbx
    7c4a:	00 
    7c4b:	48 89 bc 24 38 06 00 	mov    QWORD PTR [rsp+0x638],rdi
    7c52:	00 
    7c53:	ff d0                	call   rax
    7c55:	48 8b 9c 24 30 06 00 	mov    rbx,QWORD PTR [rsp+0x630]
    7c5c:	00 
    7c5d:	4c 8b bc 24 28 06 00 	mov    r15,QWORD PTR [rsp+0x628]
    7c64:	00 
    7c65:	4c 89 ff             	mov    rdi,r15
    7c68:	48 81 c7 e8 01 00 00 	add    rdi,0x1e8
    7c6f:	48 8b b4 24 18 06 00 	mov    rsi,QWORD PTR [rsp+0x618]
    7c76:	00 
    7c77:	48 b8 00 00 00 00 00 	movabs rax,0x0
    7c7e:	00 00 00 
			7c79: R_X86_64_64	caml_initialize
    7c81:	48 89 b4 24 18 06 00 	mov    QWORD PTR [rsp+0x618],rsi
    7c88:	00 
    7c89:	4c 89 bc 24 20 06 00 	mov    QWORD PTR [rsp+0x620],r15
    7c90:	00 
    7c91:	48 89 9c 24 28 06 00 	mov    QWORD PTR [rsp+0x628],rbx
    7c98:	00 
    7c99:	48 89 bc 24 30 06 00 	mov    QWORD PTR [rsp+0x630],rdi
    7ca0:	00 
    7ca1:	ff d0                	call   rax
    7ca3:	48 8b 9c 24 28 06 00 	mov    rbx,QWORD PTR [rsp+0x628]
    7caa:	00 
    7cab:	4c 8b bc 24 20 06 00 	mov    r15,QWORD PTR [rsp+0x620]
    7cb2:	00 
    7cb3:	4c 89 ff             	mov    rdi,r15
    7cb6:	48 81 c7 f0 01 00 00 	add    rdi,0x1f0
    7cbd:	48 8b b4 24 10 06 00 	mov    rsi,QWORD PTR [rsp+0x610]
    7cc4:	00 
    7cc5:	48 b8 00 00 00 00 00 	movabs rax,0x0
    7ccc:	00 00 00 
			7cc7: R_X86_64_64	caml_initialize
    7ccf:	48 89 b4 24 10 06 00 	mov    QWORD PTR [rsp+0x610],rsi
    7cd6:	00 
    7cd7:	4c 89 bc 24 18 06 00 	mov    QWORD PTR [rsp+0x618],r15
    7cde:	00 
    7cdf:	48 89 9c 24 20 06 00 	mov    QWORD PTR [rsp+0x620],rbx
    7ce6:	00 
    7ce7:	48 89 bc 24 28 06 00 	mov    QWORD PTR [rsp+0x628],rdi
    7cee:	00 
    7cef:	ff d0                	call   rax
    7cf1:	48 8b 9c 24 20 06 00 	mov    rbx,QWORD PTR [rsp+0x620]
    7cf8:	00 
    7cf9:	4c 8b bc 24 18 06 00 	mov    r15,QWORD PTR [rsp+0x618]
    7d00:	00 
    7d01:	4c 89 ff             	mov    rdi,r15
    7d04:	48 81 c7 f8 01 00 00 	add    rdi,0x1f8
    7d0b:	48 8b b4 24 08 06 00 	mov    rsi,QWORD PTR [rsp+0x608]
    7d12:	00 
    7d13:	48 b8 00 00 00 00 00 	movabs rax,0x0
    7d1a:	00 00 00 
			7d15: R_X86_64_64	caml_initialize
    7d1d:	48 89 b4 24 08 06 00 	mov    QWORD PTR [rsp+0x608],rsi
    7d24:	00 
    7d25:	4c 89 bc 24 10 06 00 	mov    QWORD PTR [rsp+0x610],r15
    7d2c:	00 
    7d2d:	48 89 9c 24 18 06 00 	mov    QWORD PTR [rsp+0x618],rbx
    7d34:	00 
    7d35:	48 89 bc 24 20 06 00 	mov    QWORD PTR [rsp+0x620],rdi
    7d3c:	00 
    7d3d:	ff d0                	call   rax
    7d3f:	48 8b 9c 24 18 06 00 	mov    rbx,QWORD PTR [rsp+0x618]
    7d46:	00 
    7d47:	4c 8b bc 24 10 06 00 	mov    r15,QWORD PTR [rsp+0x610]
    7d4e:	00 
    7d4f:	4c 89 ff             	mov    rdi,r15
    7d52:	48 81 c7 00 02 00 00 	add    rdi,0x200
    7d59:	48 8b b4 24 00 06 00 	mov    rsi,QWORD PTR [rsp+0x600]
    7d60:	00 
    7d61:	48 b8 00 00 00 00 00 	movabs rax,0x0
    7d68:	00 00 00 
			7d63: R_X86_64_64	caml_initialize
    7d6b:	48 89 b4 24 00 06 00 	mov    QWORD PTR [rsp+0x600],rsi
    7d72:	00 
    7d73:	4c 89 bc 24 08 06 00 	mov    QWORD PTR [rsp+0x608],r15
    7d7a:	00 
    7d7b:	48 89 9c 24 10 06 00 	mov    QWORD PTR [rsp+0x610],rbx
    7d82:	00 
    7d83:	48 89 bc 24 18 06 00 	mov    QWORD PTR [rsp+0x618],rdi
    7d8a:	00 
    7d8b:	ff d0                	call   rax
    7d8d:	48 8b 9c 24 10 06 00 	mov    rbx,QWORD PTR [rsp+0x610]
    7d94:	00 
    7d95:	4c 8b bc 24 08 06 00 	mov    r15,QWORD PTR [rsp+0x608]
    7d9c:	00 
    7d9d:	4c 89 ff             	mov    rdi,r15
    7da0:	48 81 c7 08 02 00 00 	add    rdi,0x208
    7da7:	48 8b b4 24 f8 05 00 	mov    rsi,QWORD PTR [rsp+0x5f8]
    7dae:	00 
    7daf:	48 b8 00 00 00 00 00 	movabs rax,0x0
    7db6:	00 00 00 
			7db1: R_X86_64_64	caml_initialize
    7db9:	48 89 b4 24 f8 05 00 	mov    QWORD PTR [rsp+0x5f8],rsi
    7dc0:	00 
    7dc1:	4c 89 bc 24 00 06 00 	mov    QWORD PTR [rsp+0x600],r15
    7dc8:	00 
    7dc9:	48 89 9c 24 08 06 00 	mov    QWORD PTR [rsp+0x608],rbx
    7dd0:	00 
    7dd1:	48 89 bc 24 10 06 00 	mov    QWORD PTR [rsp+0x610],rdi
    7dd8:	00 
    7dd9:	ff d0                	call   rax
    7ddb:	48 8b 9c 24 08 06 00 	mov    rbx,QWORD PTR [rsp+0x608]
    7de2:	00 
    7de3:	4c 8b bc 24 00 06 00 	mov    r15,QWORD PTR [rsp+0x600]
    7dea:	00 
    7deb:	4c 89 ff             	mov    rdi,r15
    7dee:	48 81 c7 10 02 00 00 	add    rdi,0x210
    7df5:	48 8b b4 24 f0 05 00 	mov    rsi,QWORD PTR [rsp+0x5f0]
    7dfc:	00 
    7dfd:	48 b8 00 00 00 00 00 	movabs rax,0x0
    7e04:	00 00 00 
			7dff: R_X86_64_64	caml_initialize
    7e07:	48 89 b4 24 f0 05 00 	mov    QWORD PTR [rsp+0x5f0],rsi
    7e0e:	00 
    7e0f:	4c 89 bc 24 f8 05 00 	mov    QWORD PTR [rsp+0x5f8],r15
    7e16:	00 
    7e17:	48 89 9c 24 00 06 00 	mov    QWORD PTR [rsp+0x600],rbx
    7e1e:	00 
    7e1f:	48 89 bc 24 08 06 00 	mov    QWORD PTR [rsp+0x608],rdi
    7e26:	00 
    7e27:	ff d0                	call   rax
    7e29:	48 8b 9c 24 00 06 00 	mov    rbx,QWORD PTR [rsp+0x600]
    7e30:	00 
    7e31:	4c 8b bc 24 f8 05 00 	mov    r15,QWORD PTR [rsp+0x5f8]
    7e38:	00 
    7e39:	4c 89 ff             	mov    rdi,r15
    7e3c:	48 81 c7 18 02 00 00 	add    rdi,0x218
    7e43:	48 8b b4 24 e8 05 00 	mov    rsi,QWORD PTR [rsp+0x5e8]
    7e4a:	00 
    7e4b:	48 b8 00 00 00 00 00 	movabs rax,0x0
    7e52:	00 00 00 
			7e4d: R_X86_64_64	caml_initialize
    7e55:	48 89 b4 24 e8 05 00 	mov    QWORD PTR [rsp+0x5e8],rsi
    7e5c:	00 
    7e5d:	4c 89 bc 24 f0 05 00 	mov    QWORD PTR [rsp+0x5f0],r15
    7e64:	00 
    7e65:	48 89 9c 24 f8 05 00 	mov    QWORD PTR [rsp+0x5f8],rbx
    7e6c:	00 
    7e6d:	48 89 bc 24 00 06 00 	mov    QWORD PTR [rsp+0x600],rdi
    7e74:	00 
    7e75:	ff d0                	call   rax
    7e77:	48 8b 9c 24 f8 05 00 	mov    rbx,QWORD PTR [rsp+0x5f8]
    7e7e:	00 
    7e7f:	4c 8b bc 24 f0 05 00 	mov    r15,QWORD PTR [rsp+0x5f0]
    7e86:	00 
    7e87:	4c 89 ff             	mov    rdi,r15
    7e8a:	48 81 c7 20 02 00 00 	add    rdi,0x220
    7e91:	48 8b b4 24 e0 05 00 	mov    rsi,QWORD PTR [rsp+0x5e0]
    7e98:	00 
    7e99:	48 b8 00 00 00 00 00 	movabs rax,0x0
    7ea0:	00 00 00 
			7e9b: R_X86_64_64	caml_initialize
    7ea3:	48 89 b4 24 e0 05 00 	mov    QWORD PTR [rsp+0x5e0],rsi
    7eaa:	00 
    7eab:	4c 89 bc 24 e8 05 00 	mov    QWORD PTR [rsp+0x5e8],r15
    7eb2:	00 
    7eb3:	48 89 9c 24 f0 05 00 	mov    QWORD PTR [rsp+0x5f0],rbx
    7eba:	00 
    7ebb:	48 89 bc 24 f8 05 00 	mov    QWORD PTR [rsp+0x5f8],rdi
    7ec2:	00 
    7ec3:	ff d0                	call   rax
    7ec5:	48 8b 9c 24 f0 05 00 	mov    rbx,QWORD PTR [rsp+0x5f0]
    7ecc:	00 
    7ecd:	4c 8b bc 24 e8 05 00 	mov    r15,QWORD PTR [rsp+0x5e8]
    7ed4:	00 
    7ed5:	4c 89 ff             	mov    rdi,r15
    7ed8:	48 81 c7 28 02 00 00 	add    rdi,0x228
    7edf:	48 8b b4 24 d8 05 00 	mov    rsi,QWORD PTR [rsp+0x5d8]
    7ee6:	00 
    7ee7:	48 b8 00 00 00 00 00 	movabs rax,0x0
    7eee:	00 00 00 
			7ee9: R_X86_64_64	caml_initialize
    7ef1:	48 89 b4 24 d8 05 00 	mov    QWORD PTR [rsp+0x5d8],rsi
    7ef8:	00 
    7ef9:	4c 89 bc 24 e0 05 00 	mov    QWORD PTR [rsp+0x5e0],r15
    7f00:	00 
    7f01:	48 89 9c 24 e8 05 00 	mov    QWORD PTR [rsp+0x5e8],rbx
    7f08:	00 
    7f09:	48 89 bc 24 f0 05 00 	mov    QWORD PTR [rsp+0x5f0],rdi
    7f10:	00 
    7f11:	ff d0                	call   rax
    7f13:	48 8b 9c 24 e8 05 00 	mov    rbx,QWORD PTR [rsp+0x5e8]
    7f1a:	00 
    7f1b:	4c 8b bc 24 e0 05 00 	mov    r15,QWORD PTR [rsp+0x5e0]
    7f22:	00 
    7f23:	4c 89 ff             	mov    rdi,r15
    7f26:	48 81 c7 30 02 00 00 	add    rdi,0x230
    7f2d:	48 8b b4 24 d0 05 00 	mov    rsi,QWORD PTR [rsp+0x5d0]
    7f34:	00 
    7f35:	48 b8 00 00 00 00 00 	movabs rax,0x0
    7f3c:	00 00 00 
			7f37: R_X86_64_64	caml_initialize
    7f3f:	48 89 b4 24 d0 05 00 	mov    QWORD PTR [rsp+0x5d0],rsi
    7f46:	00 
    7f47:	4c 89 bc 24 d8 05 00 	mov    QWORD PTR [rsp+0x5d8],r15
    7f4e:	00 
    7f4f:	48 89 9c 24 e0 05 00 	mov    QWORD PTR [rsp+0x5e0],rbx
    7f56:	00 
    7f57:	48 89 bc 24 e8 05 00 	mov    QWORD PTR [rsp+0x5e8],rdi
    7f5e:	00 
    7f5f:	ff d0                	call   rax
    7f61:	48 8b 9c 24 e0 05 00 	mov    rbx,QWORD PTR [rsp+0x5e0]
    7f68:	00 
    7f69:	4c 8b bc 24 d8 05 00 	mov    r15,QWORD PTR [rsp+0x5d8]
    7f70:	00 
    7f71:	4c 89 ff             	mov    rdi,r15
    7f74:	48 81 c7 38 02 00 00 	add    rdi,0x238
    7f7b:	48 8b b4 24 c8 05 00 	mov    rsi,QWORD PTR [rsp+0x5c8]
    7f82:	00 
    7f83:	48 b8 00 00 00 00 00 	movabs rax,0x0
    7f8a:	00 00 00 
			7f85: R_X86_64_64	caml_initialize
    7f8d:	48 89 b4 24 c8 05 00 	mov    QWORD PTR [rsp+0x5c8],rsi
    7f94:	00 
    7f95:	4c 89 bc 24 d0 05 00 	mov    QWORD PTR [rsp+0x5d0],r15
    7f9c:	00 
    7f9d:	48 89 9c 24 d8 05 00 	mov    QWORD PTR [rsp+0x5d8],rbx
    7fa4:	00 
    7fa5:	48 89 bc 24 e0 05 00 	mov    QWORD PTR [rsp+0x5e0],rdi
    7fac:	00 
    7fad:	ff d0                	call   rax
    7faf:	48 8b 9c 24 d8 05 00 	mov    rbx,QWORD PTR [rsp+0x5d8]
    7fb6:	00 
    7fb7:	4c 8b bc 24 d0 05 00 	mov    r15,QWORD PTR [rsp+0x5d0]
    7fbe:	00 
    7fbf:	4c 89 ff             	mov    rdi,r15
    7fc2:	48 81 c7 40 02 00 00 	add    rdi,0x240
    7fc9:	48 8b b4 24 c0 05 00 	mov    rsi,QWORD PTR [rsp+0x5c0]
    7fd0:	00 
    7fd1:	48 b8 00 00 00 00 00 	movabs rax,0x0
    7fd8:	00 00 00 
			7fd3: R_X86_64_64	caml_initialize
    7fdb:	48 89 b4 24 c0 05 00 	mov    QWORD PTR [rsp+0x5c0],rsi
    7fe2:	00 
    7fe3:	4c 89 bc 24 c8 05 00 	mov    QWORD PTR [rsp+0x5c8],r15
    7fea:	00 
    7feb:	48 89 9c 24 d0 05 00 	mov    QWORD PTR [rsp+0x5d0],rbx
    7ff2:	00 
    7ff3:	48 89 bc 24 d8 05 00 	mov    QWORD PTR [rsp+0x5d8],rdi
    7ffa:	00 
    7ffb:	ff d0                	call   rax
    7ffd:	48 8b 9c 24 d0 05 00 	mov    rbx,QWORD PTR [rsp+0x5d0]
    8004:	00 
    8005:	4c 8b bc 24 c8 05 00 	mov    r15,QWORD PTR [rsp+0x5c8]
    800c:	00 
    800d:	4c 89 ff             	mov    rdi,r15
    8010:	48 81 c7 48 02 00 00 	add    rdi,0x248
    8017:	48 8b b4 24 b8 05 00 	mov    rsi,QWORD PTR [rsp+0x5b8]
    801e:	00 
    801f:	48 b8 00 00 00 00 00 	movabs rax,0x0
    8026:	00 00 00 
			8021: R_X86_64_64	caml_initialize
    8029:	48 89 b4 24 b8 05 00 	mov    QWORD PTR [rsp+0x5b8],rsi
    8030:	00 
    8031:	4c 89 bc 24 c0 05 00 	mov    QWORD PTR [rsp+0x5c0],r15
    8038:	00 
    8039:	48 89 9c 24 c8 05 00 	mov    QWORD PTR [rsp+0x5c8],rbx
    8040:	00 
    8041:	48 89 bc 24 d0 05 00 	mov    QWORD PTR [rsp+0x5d0],rdi
    8048:	00 
    8049:	ff d0                	call   rax
    804b:	48 8b 9c 24 c8 05 00 	mov    rbx,QWORD PTR [rsp+0x5c8]
    8052:	00 
    8053:	4c 8b bc 24 c0 05 00 	mov    r15,QWORD PTR [rsp+0x5c0]
    805a:	00 
    805b:	4c 89 ff             	mov    rdi,r15
    805e:	48 81 c7 50 02 00 00 	add    rdi,0x250
    8065:	48 8b b4 24 b0 05 00 	mov    rsi,QWORD PTR [rsp+0x5b0]
    806c:	00 
    806d:	48 b8 00 00 00 00 00 	movabs rax,0x0
    8074:	00 00 00 
			806f: R_X86_64_64	caml_initialize
    8077:	48 89 b4 24 b0 05 00 	mov    QWORD PTR [rsp+0x5b0],rsi
    807e:	00 
    807f:	4c 89 bc 24 b8 05 00 	mov    QWORD PTR [rsp+0x5b8],r15
    8086:	00 
    8087:	48 89 9c 24 c0 05 00 	mov    QWORD PTR [rsp+0x5c0],rbx
    808e:	00 
    808f:	48 89 bc 24 c8 05 00 	mov    QWORD PTR [rsp+0x5c8],rdi
    8096:	00 
    8097:	ff d0                	call   rax
    8099:	48 8b 9c 24 c0 05 00 	mov    rbx,QWORD PTR [rsp+0x5c0]
    80a0:	00 
    80a1:	4c 8b bc 24 b8 05 00 	mov    r15,QWORD PTR [rsp+0x5b8]
    80a8:	00 
    80a9:	4c 89 ff             	mov    rdi,r15
    80ac:	48 81 c7 58 02 00 00 	add    rdi,0x258
    80b3:	48 8b b4 24 a8 05 00 	mov    rsi,QWORD PTR [rsp+0x5a8]
    80ba:	00 
    80bb:	48 b8 00 00 00 00 00 	movabs rax,0x0
    80c2:	00 00 00 
			80bd: R_X86_64_64	caml_initialize
    80c5:	48 89 b4 24 a8 05 00 	mov    QWORD PTR [rsp+0x5a8],rsi
    80cc:	00 
    80cd:	4c 89 bc 24 b0 05 00 	mov    QWORD PTR [rsp+0x5b0],r15
    80d4:	00 
    80d5:	48 89 9c 24 b8 05 00 	mov    QWORD PTR [rsp+0x5b8],rbx
    80dc:	00 
    80dd:	48 89 bc 24 c0 05 00 	mov    QWORD PTR [rsp+0x5c0],rdi
    80e4:	00 
    80e5:	ff d0                	call   rax
    80e7:	48 8b 9c 24 b8 05 00 	mov    rbx,QWORD PTR [rsp+0x5b8]
    80ee:	00 
    80ef:	4c 8b bc 24 b0 05 00 	mov    r15,QWORD PTR [rsp+0x5b0]
    80f6:	00 
    80f7:	4c 89 ff             	mov    rdi,r15
    80fa:	48 81 c7 60 02 00 00 	add    rdi,0x260
    8101:	48 8b b4 24 a0 05 00 	mov    rsi,QWORD PTR [rsp+0x5a0]
    8108:	00 
    8109:	48 b8 00 00 00 00 00 	movabs rax,0x0
    8110:	00 00 00 
			810b: R_X86_64_64	caml_initialize
    8113:	48 89 b4 24 a0 05 00 	mov    QWORD PTR [rsp+0x5a0],rsi
    811a:	00 
    811b:	4c 89 bc 24 a8 05 00 	mov    QWORD PTR [rsp+0x5a8],r15
    8122:	00 
    8123:	48 89 9c 24 b0 05 00 	mov    QWORD PTR [rsp+0x5b0],rbx
    812a:	00 
    812b:	48 89 bc 24 b8 05 00 	mov    QWORD PTR [rsp+0x5b8],rdi
    8132:	00 
    8133:	ff d0                	call   rax
    8135:	48 8b 9c 24 b0 05 00 	mov    rbx,QWORD PTR [rsp+0x5b0]
    813c:	00 
    813d:	4c 8b bc 24 a8 05 00 	mov    r15,QWORD PTR [rsp+0x5a8]
    8144:	00 
    8145:	4c 89 ff             	mov    rdi,r15
    8148:	48 81 c7 68 02 00 00 	add    rdi,0x268
    814f:	48 8b b4 24 98 05 00 	mov    rsi,QWORD PTR [rsp+0x598]
    8156:	00 
    8157:	48 b8 00 00 00 00 00 	movabs rax,0x0
    815e:	00 00 00 
			8159: R_X86_64_64	caml_initialize
    8161:	48 89 b4 24 98 05 00 	mov    QWORD PTR [rsp+0x598],rsi
    8168:	00 
    8169:	4c 89 bc 24 a0 05 00 	mov    QWORD PTR [rsp+0x5a0],r15
    8170:	00 
    8171:	48 89 9c 24 a8 05 00 	mov    QWORD PTR [rsp+0x5a8],rbx
    8178:	00 
    8179:	48 89 bc 24 b0 05 00 	mov    QWORD PTR [rsp+0x5b0],rdi
    8180:	00 
    8181:	ff d0                	call   rax
    8183:	48 8b 9c 24 a8 05 00 	mov    rbx,QWORD PTR [rsp+0x5a8]
    818a:	00 
    818b:	4c 8b bc 24 a0 05 00 	mov    r15,QWORD PTR [rsp+0x5a0]
    8192:	00 
    8193:	4c 89 ff             	mov    rdi,r15
    8196:	48 81 c7 70 02 00 00 	add    rdi,0x270
    819d:	48 8b b4 24 90 05 00 	mov    rsi,QWORD PTR [rsp+0x590]
    81a4:	00 
    81a5:	48 b8 00 00 00 00 00 	movabs rax,0x0
    81ac:	00 00 00 
			81a7: R_X86_64_64	caml_initialize
    81af:	48 89 b4 24 90 05 00 	mov    QWORD PTR [rsp+0x590],rsi
    81b6:	00 
    81b7:	4c 89 bc 24 98 05 00 	mov    QWORD PTR [rsp+0x598],r15
    81be:	00 
    81bf:	48 89 9c 24 a0 05 00 	mov    QWORD PTR [rsp+0x5a0],rbx
    81c6:	00 
    81c7:	48 89 bc 24 a8 05 00 	mov    QWORD PTR [rsp+0x5a8],rdi
    81ce:	00 
    81cf:	ff d0                	call   rax
    81d1:	48 8b 9c 24 a0 05 00 	mov    rbx,QWORD PTR [rsp+0x5a0]
    81d8:	00 
    81d9:	4c 8b bc 24 98 05 00 	mov    r15,QWORD PTR [rsp+0x598]
    81e0:	00 
    81e1:	4c 89 ff             	mov    rdi,r15
    81e4:	48 81 c7 78 02 00 00 	add    rdi,0x278
    81eb:	48 8b b4 24 88 05 00 	mov    rsi,QWORD PTR [rsp+0x588]
    81f2:	00 
    81f3:	48 b8 00 00 00 00 00 	movabs rax,0x0
    81fa:	00 00 00 
			81f5: R_X86_64_64	caml_initialize
    81fd:	48 89 b4 24 88 05 00 	mov    QWORD PTR [rsp+0x588],rsi
    8204:	00 
    8205:	4c 89 bc 24 90 05 00 	mov    QWORD PTR [rsp+0x590],r15
    820c:	00 
    820d:	48 89 9c 24 98 05 00 	mov    QWORD PTR [rsp+0x598],rbx
    8214:	00 
    8215:	48 89 bc 24 a0 05 00 	mov    QWORD PTR [rsp+0x5a0],rdi
    821c:	00 
    821d:	ff d0                	call   rax
    821f:	48 8b 9c 24 98 05 00 	mov    rbx,QWORD PTR [rsp+0x598]
    8226:	00 
    8227:	4c 8b bc 24 90 05 00 	mov    r15,QWORD PTR [rsp+0x590]
    822e:	00 
    822f:	4c 89 ff             	mov    rdi,r15
    8232:	48 81 c7 80 02 00 00 	add    rdi,0x280
    8239:	48 8b b4 24 80 05 00 	mov    rsi,QWORD PTR [rsp+0x580]
    8240:	00 
    8241:	48 b8 00 00 00 00 00 	movabs rax,0x0
    8248:	00 00 00 
			8243: R_X86_64_64	caml_initialize
    824b:	48 89 b4 24 80 05 00 	mov    QWORD PTR [rsp+0x580],rsi
    8252:	00 
    8253:	4c 89 bc 24 88 05 00 	mov    QWORD PTR [rsp+0x588],r15
    825a:	00 
    825b:	48 89 9c 24 90 05 00 	mov    QWORD PTR [rsp+0x590],rbx
    8262:	00 
    8263:	48 89 bc 24 98 05 00 	mov    QWORD PTR [rsp+0x598],rdi
    826a:	00 
    826b:	ff d0                	call   rax
    826d:	48 8b 9c 24 90 05 00 	mov    rbx,QWORD PTR [rsp+0x590]
    8274:	00 
    8275:	4c 8b bc 24 88 05 00 	mov    r15,QWORD PTR [rsp+0x588]
    827c:	00 
    827d:	4c 89 ff             	mov    rdi,r15
    8280:	48 81 c7 88 02 00 00 	add    rdi,0x288
    8287:	48 8b b4 24 78 05 00 	mov    rsi,QWORD PTR [rsp+0x578]
    828e:	00 
    828f:	48 b8 00 00 00 00 00 	movabs rax,0x0
    8296:	00 00 00 
			8291: R_X86_64_64	caml_initialize
    8299:	48 89 b4 24 78 05 00 	mov    QWORD PTR [rsp+0x578],rsi
    82a0:	00 
    82a1:	4c 89 bc 24 80 05 00 	mov    QWORD PTR [rsp+0x580],r15
    82a8:	00 
    82a9:	48 89 9c 24 88 05 00 	mov    QWORD PTR [rsp+0x588],rbx
    82b0:	00 
    82b1:	48 89 bc 24 90 05 00 	mov    QWORD PTR [rsp+0x590],rdi
    82b8:	00 
    82b9:	ff d0                	call   rax
    82bb:	48 8b 9c 24 88 05 00 	mov    rbx,QWORD PTR [rsp+0x588]
    82c2:	00 
    82c3:	4c 8b bc 24 80 05 00 	mov    r15,QWORD PTR [rsp+0x580]
    82ca:	00 
    82cb:	4c 89 ff             	mov    rdi,r15
    82ce:	48 81 c7 90 02 00 00 	add    rdi,0x290
    82d5:	48 8b b4 24 70 05 00 	mov    rsi,QWORD PTR [rsp+0x570]
    82dc:	00 
    82dd:	48 b8 00 00 00 00 00 	movabs rax,0x0
    82e4:	00 00 00 
			82df: R_X86_64_64	caml_initialize
    82e7:	48 89 b4 24 70 05 00 	mov    QWORD PTR [rsp+0x570],rsi
    82ee:	00 
    82ef:	4c 89 bc 24 78 05 00 	mov    QWORD PTR [rsp+0x578],r15
    82f6:	00 
    82f7:	48 89 9c 24 80 05 00 	mov    QWORD PTR [rsp+0x580],rbx
    82fe:	00 
    82ff:	48 89 bc 24 88 05 00 	mov    QWORD PTR [rsp+0x588],rdi
    8306:	00 
    8307:	ff d0                	call   rax
    8309:	48 8b 9c 24 80 05 00 	mov    rbx,QWORD PTR [rsp+0x580]
    8310:	00 
    8311:	4c 8b bc 24 78 05 00 	mov    r15,QWORD PTR [rsp+0x578]
    8318:	00 
    8319:	4c 89 ff             	mov    rdi,r15
    831c:	48 81 c7 98 02 00 00 	add    rdi,0x298
    8323:	48 8b b4 24 68 05 00 	mov    rsi,QWORD PTR [rsp+0x568]
    832a:	00 
    832b:	48 b8 00 00 00 00 00 	movabs rax,0x0
    8332:	00 00 00 
			832d: R_X86_64_64	caml_initialize
    8335:	48 89 b4 24 68 05 00 	mov    QWORD PTR [rsp+0x568],rsi
    833c:	00 
    833d:	4c 89 bc 24 70 05 00 	mov    QWORD PTR [rsp+0x570],r15
    8344:	00 
    8345:	48 89 9c 24 78 05 00 	mov    QWORD PTR [rsp+0x578],rbx
    834c:	00 
    834d:	48 89 bc 24 80 05 00 	mov    QWORD PTR [rsp+0x580],rdi
    8354:	00 
    8355:	ff d0                	call   rax
    8357:	48 8b 9c 24 78 05 00 	mov    rbx,QWORD PTR [rsp+0x578]
    835e:	00 
    835f:	4c 8b bc 24 70 05 00 	mov    r15,QWORD PTR [rsp+0x570]
    8366:	00 
    8367:	4c 89 ff             	mov    rdi,r15
    836a:	48 81 c7 a0 02 00 00 	add    rdi,0x2a0
    8371:	48 8b b4 24 60 05 00 	mov    rsi,QWORD PTR [rsp+0x560]
    8378:	00 
    8379:	48 b8 00 00 00 00 00 	movabs rax,0x0
    8380:	00 00 00 
			837b: R_X86_64_64	caml_initialize
    8383:	48 89 b4 24 60 05 00 	mov    QWORD PTR [rsp+0x560],rsi
    838a:	00 
    838b:	4c 89 bc 24 68 05 00 	mov    QWORD PTR [rsp+0x568],r15
    8392:	00 
    8393:	48 89 9c 24 70 05 00 	mov    QWORD PTR [rsp+0x570],rbx
    839a:	00 
    839b:	48 89 bc 24 78 05 00 	mov    QWORD PTR [rsp+0x578],rdi
    83a2:	00 
    83a3:	ff d0                	call   rax
    83a5:	48 8b 9c 24 70 05 00 	mov    rbx,QWORD PTR [rsp+0x570]
    83ac:	00 
    83ad:	4c 8b bc 24 68 05 00 	mov    r15,QWORD PTR [rsp+0x568]
    83b4:	00 
    83b5:	4c 89 ff             	mov    rdi,r15
    83b8:	48 81 c7 a8 02 00 00 	add    rdi,0x2a8
    83bf:	48 8b b4 24 58 05 00 	mov    rsi,QWORD PTR [rsp+0x558]
    83c6:	00 
    83c7:	48 b8 00 00 00 00 00 	movabs rax,0x0
    83ce:	00 00 00 
			83c9: R_X86_64_64	caml_initialize
    83d1:	48 89 b4 24 58 05 00 	mov    QWORD PTR [rsp+0x558],rsi
    83d8:	00 
    83d9:	4c 89 bc 24 60 05 00 	mov    QWORD PTR [rsp+0x560],r15
    83e0:	00 
    83e1:	48 89 9c 24 68 05 00 	mov    QWORD PTR [rsp+0x568],rbx
    83e8:	00 
    83e9:	48 89 bc 24 70 05 00 	mov    QWORD PTR [rsp+0x570],rdi
    83f0:	00 
    83f1:	ff d0                	call   rax
    83f3:	48 8b 9c 24 68 05 00 	mov    rbx,QWORD PTR [rsp+0x568]
    83fa:	00 
    83fb:	4c 8b bc 24 60 05 00 	mov    r15,QWORD PTR [rsp+0x560]
    8402:	00 
    8403:	4c 89 ff             	mov    rdi,r15
    8406:	48 81 c7 b0 02 00 00 	add    rdi,0x2b0
    840d:	48 8b b4 24 50 05 00 	mov    rsi,QWORD PTR [rsp+0x550]
    8414:	00 
    8415:	48 b8 00 00 00 00 00 	movabs rax,0x0
    841c:	00 00 00 
			8417: R_X86_64_64	caml_initialize
    841f:	48 89 b4 24 50 05 00 	mov    QWORD PTR [rsp+0x550],rsi
    8426:	00 
    8427:	4c 89 bc 24 58 05 00 	mov    QWORD PTR [rsp+0x558],r15
    842e:	00 
    842f:	48 89 9c 24 60 05 00 	mov    QWORD PTR [rsp+0x560],rbx
    8436:	00 
    8437:	48 89 bc 24 68 05 00 	mov    QWORD PTR [rsp+0x568],rdi
    843e:	00 
    843f:	ff d0                	call   rax
    8441:	48 8b 9c 24 60 05 00 	mov    rbx,QWORD PTR [rsp+0x560]
    8448:	00 
    8449:	4c 8b bc 24 58 05 00 	mov    r15,QWORD PTR [rsp+0x558]
    8450:	00 
    8451:	4c 89 ff             	mov    rdi,r15
    8454:	48 81 c7 b8 02 00 00 	add    rdi,0x2b8
    845b:	48 8b b4 24 48 05 00 	mov    rsi,QWORD PTR [rsp+0x548]
    8462:	00 
    8463:	48 b8 00 00 00 00 00 	movabs rax,0x0
    846a:	00 00 00 
			8465: R_X86_64_64	caml_initialize
    846d:	48 89 b4 24 48 05 00 	mov    QWORD PTR [rsp+0x548],rsi
    8474:	00 
    8475:	4c 89 bc 24 50 05 00 	mov    QWORD PTR [rsp+0x550],r15
    847c:	00 
    847d:	48 89 9c 24 58 05 00 	mov    QWORD PTR [rsp+0x558],rbx
    8484:	00 
    8485:	48 89 bc 24 60 05 00 	mov    QWORD PTR [rsp+0x560],rdi
    848c:	00 
    848d:	ff d0                	call   rax
    848f:	48 8b 9c 24 58 05 00 	mov    rbx,QWORD PTR [rsp+0x558]
    8496:	00 
    8497:	4c 8b bc 24 50 05 00 	mov    r15,QWORD PTR [rsp+0x550]
    849e:	00 
    849f:	4c 89 ff             	mov    rdi,r15
    84a2:	48 81 c7 c0 02 00 00 	add    rdi,0x2c0
    84a9:	48 8b b4 24 40 05 00 	mov    rsi,QWORD PTR [rsp+0x540]
    84b0:	00 
    84b1:	48 b8 00 00 00 00 00 	movabs rax,0x0
    84b8:	00 00 00 
			84b3: R_X86_64_64	caml_initialize
    84bb:	48 89 b4 24 40 05 00 	mov    QWORD PTR [rsp+0x540],rsi
    84c2:	00 
    84c3:	4c 89 bc 24 48 05 00 	mov    QWORD PTR [rsp+0x548],r15
    84ca:	00 
    84cb:	48 89 9c 24 50 05 00 	mov    QWORD PTR [rsp+0x550],rbx
    84d2:	00 
    84d3:	48 89 bc 24 58 05 00 	mov    QWORD PTR [rsp+0x558],rdi
    84da:	00 
    84db:	ff d0                	call   rax
    84dd:	48 8b 9c 24 50 05 00 	mov    rbx,QWORD PTR [rsp+0x550]
    84e4:	00 
    84e5:	4c 8b bc 24 48 05 00 	mov    r15,QWORD PTR [rsp+0x548]
    84ec:	00 
    84ed:	4c 89 ff             	mov    rdi,r15
    84f0:	48 81 c7 c8 02 00 00 	add    rdi,0x2c8
    84f7:	48 8b b4 24 38 05 00 	mov    rsi,QWORD PTR [rsp+0x538]
    84fe:	00 
    84ff:	48 b8 00 00 00 00 00 	movabs rax,0x0
    8506:	00 00 00 
			8501: R_X86_64_64	caml_initialize
    8509:	48 89 b4 24 38 05 00 	mov    QWORD PTR [rsp+0x538],rsi
    8510:	00 
    8511:	4c 89 bc 24 40 05 00 	mov    QWORD PTR [rsp+0x540],r15
    8518:	00 
    8519:	48 89 9c 24 48 05 00 	mov    QWORD PTR [rsp+0x548],rbx
    8520:	00 
    8521:	48 89 bc 24 50 05 00 	mov    QWORD PTR [rsp+0x550],rdi
    8528:	00 
    8529:	ff d0                	call   rax
    852b:	48 8b 9c 24 48 05 00 	mov    rbx,QWORD PTR [rsp+0x548]
    8532:	00 
    8533:	4c 8b bc 24 40 05 00 	mov    r15,QWORD PTR [rsp+0x540]
    853a:	00 
    853b:	4c 89 ff             	mov    rdi,r15
    853e:	48 81 c7 d0 02 00 00 	add    rdi,0x2d0
    8545:	48 8b b4 24 30 05 00 	mov    rsi,QWORD PTR [rsp+0x530]
    854c:	00 
    854d:	48 b8 00 00 00 00 00 	movabs rax,0x0
    8554:	00 00 00 
			854f: R_X86_64_64	caml_initialize
    8557:	48 89 b4 24 30 05 00 	mov    QWORD PTR [rsp+0x530],rsi
    855e:	00 
    855f:	4c 89 bc 24 38 05 00 	mov    QWORD PTR [rsp+0x538],r15
    8566:	00 
    8567:	48 89 9c 24 40 05 00 	mov    QWORD PTR [rsp+0x540],rbx
    856e:	00 
    856f:	48 89 bc 24 48 05 00 	mov    QWORD PTR [rsp+0x548],rdi
    8576:	00 
    8577:	ff d0                	call   rax
    8579:	48 8b 9c 24 40 05 00 	mov    rbx,QWORD PTR [rsp+0x540]
    8580:	00 
    8581:	4c 8b bc 24 38 05 00 	mov    r15,QWORD PTR [rsp+0x538]
    8588:	00 
    8589:	4c 89 ff             	mov    rdi,r15
    858c:	48 81 c7 d8 02 00 00 	add    rdi,0x2d8
    8593:	48 8b b4 24 28 05 00 	mov    rsi,QWORD PTR [rsp+0x528]
    859a:	00 
    859b:	48 b8 00 00 00 00 00 	movabs rax,0x0
    85a2:	00 00 00 
			859d: R_X86_64_64	caml_initialize
    85a5:	48 89 b4 24 28 05 00 	mov    QWORD PTR [rsp+0x528],rsi
    85ac:	00 
    85ad:	4c 89 bc 24 30 05 00 	mov    QWORD PTR [rsp+0x530],r15
    85b4:	00 
    85b5:	48 89 9c 24 38 05 00 	mov    QWORD PTR [rsp+0x538],rbx
    85bc:	00 
    85bd:	48 89 bc 24 40 05 00 	mov    QWORD PTR [rsp+0x540],rdi
    85c4:	00 
    85c5:	ff d0                	call   rax
    85c7:	48 8b 9c 24 38 05 00 	mov    rbx,QWORD PTR [rsp+0x538]
    85ce:	00 
    85cf:	4c 8b bc 24 30 05 00 	mov    r15,QWORD PTR [rsp+0x530]
    85d6:	00 
    85d7:	4c 89 ff             	mov    rdi,r15
    85da:	48 81 c7 e0 02 00 00 	add    rdi,0x2e0
    85e1:	48 8b b4 24 20 05 00 	mov    rsi,QWORD PTR [rsp+0x520]
    85e8:	00 
    85e9:	48 b8 00 00 00 00 00 	movabs rax,0x0
    85f0:	00 00 00 
			85eb: R_X86_64_64	caml_initialize
    85f3:	48 89 b4 24 20 05 00 	mov    QWORD PTR [rsp+0x520],rsi
    85fa:	00 
    85fb:	4c 89 bc 24 28 05 00 	mov    QWORD PTR [rsp+0x528],r15
    8602:	00 
    8603:	48 89 9c 24 30 05 00 	mov    QWORD PTR [rsp+0x530],rbx
    860a:	00 
    860b:	48 89 bc 24 38 05 00 	mov    QWORD PTR [rsp+0x538],rdi
    8612:	00 
    8613:	ff d0                	call   rax
    8615:	48 8b 9c 24 30 05 00 	mov    rbx,QWORD PTR [rsp+0x530]
    861c:	00 
    861d:	4c 8b bc 24 28 05 00 	mov    r15,QWORD PTR [rsp+0x528]
    8624:	00 
    8625:	4c 89 ff             	mov    rdi,r15
    8628:	48 81 c7 e8 02 00 00 	add    rdi,0x2e8
    862f:	48 8b b4 24 18 05 00 	mov    rsi,QWORD PTR [rsp+0x518]
    8636:	00 
    8637:	48 b8 00 00 00 00 00 	movabs rax,0x0
    863e:	00 00 00 
			8639: R_X86_64_64	caml_initialize
    8641:	48 89 b4 24 18 05 00 	mov    QWORD PTR [rsp+0x518],rsi
    8648:	00 
    8649:	4c 89 bc 24 20 05 00 	mov    QWORD PTR [rsp+0x520],r15
    8650:	00 
    8651:	48 89 9c 24 28 05 00 	mov    QWORD PTR [rsp+0x528],rbx
    8658:	00 
    8659:	48 89 bc 24 30 05 00 	mov    QWORD PTR [rsp+0x530],rdi
    8660:	00 
    8661:	ff d0                	call   rax
    8663:	48 8b 9c 24 28 05 00 	mov    rbx,QWORD PTR [rsp+0x528]
    866a:	00 
    866b:	4c 8b bc 24 20 05 00 	mov    r15,QWORD PTR [rsp+0x520]
    8672:	00 
    8673:	4c 89 ff             	mov    rdi,r15
    8676:	48 81 c7 f0 02 00 00 	add    rdi,0x2f0
    867d:	48 8b b4 24 10 05 00 	mov    rsi,QWORD PTR [rsp+0x510]
    8684:	00 
    8685:	48 b8 00 00 00 00 00 	movabs rax,0x0
    868c:	00 00 00 
			8687: R_X86_64_64	caml_initialize
    868f:	48 89 b4 24 10 05 00 	mov    QWORD PTR [rsp+0x510],rsi
    8696:	00 
    8697:	4c 89 bc 24 18 05 00 	mov    QWORD PTR [rsp+0x518],r15
    869e:	00 
    869f:	48 89 9c 24 20 05 00 	mov    QWORD PTR [rsp+0x520],rbx
    86a6:	00 
    86a7:	48 89 bc 24 28 05 00 	mov    QWORD PTR [rsp+0x528],rdi
    86ae:	00 
    86af:	ff d0                	call   rax
    86b1:	48 8b 9c 24 20 05 00 	mov    rbx,QWORD PTR [rsp+0x520]
    86b8:	00 
    86b9:	4c 8b bc 24 18 05 00 	mov    r15,QWORD PTR [rsp+0x518]
    86c0:	00 
    86c1:	4c 89 ff             	mov    rdi,r15
    86c4:	48 81 c7 f8 02 00 00 	add    rdi,0x2f8
    86cb:	48 8b b4 24 08 05 00 	mov    rsi,QWORD PTR [rsp+0x508]
    86d2:	00 
    86d3:	48 b8 00 00 00 00 00 	movabs rax,0x0
    86da:	00 00 00 
			86d5: R_X86_64_64	caml_initialize
    86dd:	48 89 b4 24 08 05 00 	mov    QWORD PTR [rsp+0x508],rsi
    86e4:	00 
    86e5:	4c 89 bc 24 10 05 00 	mov    QWORD PTR [rsp+0x510],r15
    86ec:	00 
    86ed:	48 89 9c 24 18 05 00 	mov    QWORD PTR [rsp+0x518],rbx
    86f4:	00 
    86f5:	48 89 bc 24 20 05 00 	mov    QWORD PTR [rsp+0x520],rdi
    86fc:	00 
    86fd:	ff d0                	call   rax
    86ff:	48 8b 9c 24 18 05 00 	mov    rbx,QWORD PTR [rsp+0x518]
    8706:	00 
    8707:	4c 8b bc 24 10 05 00 	mov    r15,QWORD PTR [rsp+0x510]
    870e:	00 
    870f:	4c 89 ff             	mov    rdi,r15
    8712:	48 81 c7 00 03 00 00 	add    rdi,0x300
    8719:	48 8b b4 24 00 05 00 	mov    rsi,QWORD PTR [rsp+0x500]
    8720:	00 
    8721:	48 b8 00 00 00 00 00 	movabs rax,0x0
    8728:	00 00 00 
			8723: R_X86_64_64	caml_initialize
    872b:	48 89 b4 24 00 05 00 	mov    QWORD PTR [rsp+0x500],rsi
    8732:	00 
    8733:	4c 89 bc 24 08 05 00 	mov    QWORD PTR [rsp+0x508],r15
    873a:	00 
    873b:	48 89 9c 24 10 05 00 	mov    QWORD PTR [rsp+0x510],rbx
    8742:	00 
    8743:	48 89 bc 24 18 05 00 	mov    QWORD PTR [rsp+0x518],rdi
    874a:	00 
    874b:	ff d0                	call   rax
    874d:	48 8b 9c 24 10 05 00 	mov    rbx,QWORD PTR [rsp+0x510]
    8754:	00 
    8755:	4c 8b bc 24 08 05 00 	mov    r15,QWORD PTR [rsp+0x508]
    875c:	00 
    875d:	4c 89 ff             	mov    rdi,r15
    8760:	48 81 c7 08 03 00 00 	add    rdi,0x308
    8767:	48 8b b4 24 f8 04 00 	mov    rsi,QWORD PTR [rsp+0x4f8]
    876e:	00 
    876f:	48 b8 00 00 00 00 00 	movabs rax,0x0
    8776:	00 00 00 
			8771: R_X86_64_64	caml_initialize
    8779:	48 89 b4 24 f8 04 00 	mov    QWORD PTR [rsp+0x4f8],rsi
    8780:	00 
    8781:	4c 89 bc 24 00 05 00 	mov    QWORD PTR [rsp+0x500],r15
    8788:	00 
    8789:	48 89 9c 24 08 05 00 	mov    QWORD PTR [rsp+0x508],rbx
    8790:	00 
    8791:	48 89 bc 24 10 05 00 	mov    QWORD PTR [rsp+0x510],rdi
    8798:	00 
    8799:	ff d0                	call   rax
    879b:	48 8b 9c 24 08 05 00 	mov    rbx,QWORD PTR [rsp+0x508]
    87a2:	00 
    87a3:	4c 8b bc 24 00 05 00 	mov    r15,QWORD PTR [rsp+0x500]
    87aa:	00 
    87ab:	4c 89 ff             	mov    rdi,r15
    87ae:	48 81 c7 10 03 00 00 	add    rdi,0x310
    87b5:	48 8b b4 24 f0 04 00 	mov    rsi,QWORD PTR [rsp+0x4f0]
    87bc:	00 
    87bd:	48 b8 00 00 00 00 00 	movabs rax,0x0
    87c4:	00 00 00 
			87bf: R_X86_64_64	caml_initialize
    87c7:	48 89 b4 24 f0 04 00 	mov    QWORD PTR [rsp+0x4f0],rsi
    87ce:	00 
    87cf:	4c 89 bc 24 f8 04 00 	mov    QWORD PTR [rsp+0x4f8],r15
    87d6:	00 
    87d7:	48 89 9c 24 00 05 00 	mov    QWORD PTR [rsp+0x500],rbx
    87de:	00 
    87df:	48 89 bc 24 08 05 00 	mov    QWORD PTR [rsp+0x508],rdi
    87e6:	00 
    87e7:	ff d0                	call   rax
    87e9:	48 8b 9c 24 00 05 00 	mov    rbx,QWORD PTR [rsp+0x500]
    87f0:	00 
    87f1:	4c 8b bc 24 f8 04 00 	mov    r15,QWORD PTR [rsp+0x4f8]
    87f8:	00 
    87f9:	4c 89 ff             	mov    rdi,r15
    87fc:	48 81 c7 18 03 00 00 	add    rdi,0x318
    8803:	48 8b b4 24 e8 04 00 	mov    rsi,QWORD PTR [rsp+0x4e8]
    880a:	00 
    880b:	48 b8 00 00 00 00 00 	movabs rax,0x0
    8812:	00 00 00 
			880d: R_X86_64_64	caml_initialize
    8815:	48 89 b4 24 e8 04 00 	mov    QWORD PTR [rsp+0x4e8],rsi
    881c:	00 
    881d:	4c 89 bc 24 f0 04 00 	mov    QWORD PTR [rsp+0x4f0],r15
    8824:	00 
    8825:	48 89 9c 24 f8 04 00 	mov    QWORD PTR [rsp+0x4f8],rbx
    882c:	00 
    882d:	48 89 bc 24 00 05 00 	mov    QWORD PTR [rsp+0x500],rdi
    8834:	00 
    8835:	ff d0                	call   rax
    8837:	48 8b 9c 24 f8 04 00 	mov    rbx,QWORD PTR [rsp+0x4f8]
    883e:	00 
    883f:	4c 8b bc 24 f0 04 00 	mov    r15,QWORD PTR [rsp+0x4f0]
    8846:	00 
    8847:	4c 89 ff             	mov    rdi,r15
    884a:	48 81 c7 20 03 00 00 	add    rdi,0x320
    8851:	48 8b b4 24 e0 04 00 	mov    rsi,QWORD PTR [rsp+0x4e0]
    8858:	00 
    8859:	48 b8 00 00 00 00 00 	movabs rax,0x0
    8860:	00 00 00 
			885b: R_X86_64_64	caml_initialize
    8863:	48 89 b4 24 e0 04 00 	mov    QWORD PTR [rsp+0x4e0],rsi
    886a:	00 
    886b:	4c 89 bc 24 e8 04 00 	mov    QWORD PTR [rsp+0x4e8],r15
    8872:	00 
    8873:	48 89 9c 24 f0 04 00 	mov    QWORD PTR [rsp+0x4f0],rbx
    887a:	00 
    887b:	48 89 bc 24 f8 04 00 	mov    QWORD PTR [rsp+0x4f8],rdi
    8882:	00 
    8883:	ff d0                	call   rax
    8885:	48 8b 9c 24 f0 04 00 	mov    rbx,QWORD PTR [rsp+0x4f0]
    888c:	00 
    888d:	4c 8b bc 24 e8 04 00 	mov    r15,QWORD PTR [rsp+0x4e8]
    8894:	00 
    8895:	4c 89 ff             	mov    rdi,r15
    8898:	48 81 c7 28 03 00 00 	add    rdi,0x328
    889f:	48 8b b4 24 d8 04 00 	mov    rsi,QWORD PTR [rsp+0x4d8]
    88a6:	00 
    88a7:	48 b8 00 00 00 00 00 	movabs rax,0x0
    88ae:	00 00 00 
			88a9: R_X86_64_64	caml_initialize
    88b1:	48 89 b4 24 d8 04 00 	mov    QWORD PTR [rsp+0x4d8],rsi
    88b8:	00 
    88b9:	4c 89 bc 24 e0 04 00 	mov    QWORD PTR [rsp+0x4e0],r15
    88c0:	00 
    88c1:	48 89 9c 24 e8 04 00 	mov    QWORD PTR [rsp+0x4e8],rbx
    88c8:	00 
    88c9:	48 89 bc 24 f0 04 00 	mov    QWORD PTR [rsp+0x4f0],rdi
    88d0:	00 
    88d1:	ff d0                	call   rax
    88d3:	48 8b 9c 24 e8 04 00 	mov    rbx,QWORD PTR [rsp+0x4e8]
    88da:	00 
    88db:	4c 8b bc 24 e0 04 00 	mov    r15,QWORD PTR [rsp+0x4e0]
    88e2:	00 
    88e3:	4c 89 ff             	mov    rdi,r15
    88e6:	48 81 c7 30 03 00 00 	add    rdi,0x330
    88ed:	48 8b b4 24 d0 04 00 	mov    rsi,QWORD PTR [rsp+0x4d0]
    88f4:	00 
    88f5:	48 b8 00 00 00 00 00 	movabs rax,0x0
    88fc:	00 00 00 
			88f7: R_X86_64_64	caml_initialize
    88ff:	48 89 b4 24 d0 04 00 	mov    QWORD PTR [rsp+0x4d0],rsi
    8906:	00 
    8907:	4c 89 bc 24 d8 04 00 	mov    QWORD PTR [rsp+0x4d8],r15
    890e:	00 
    890f:	48 89 9c 24 e0 04 00 	mov    QWORD PTR [rsp+0x4e0],rbx
    8916:	00 
    8917:	48 89 bc 24 e8 04 00 	mov    QWORD PTR [rsp+0x4e8],rdi
    891e:	00 
    891f:	ff d0                	call   rax
    8921:	48 8b 9c 24 e0 04 00 	mov    rbx,QWORD PTR [rsp+0x4e0]
    8928:	00 
    8929:	4c 8b bc 24 d8 04 00 	mov    r15,QWORD PTR [rsp+0x4d8]
    8930:	00 
    8931:	4c 89 ff             	mov    rdi,r15
    8934:	48 81 c7 38 03 00 00 	add    rdi,0x338
    893b:	48 8b b4 24 c8 04 00 	mov    rsi,QWORD PTR [rsp+0x4c8]
    8942:	00 
    8943:	48 b8 00 00 00 00 00 	movabs rax,0x0
    894a:	00 00 00 
			8945: R_X86_64_64	caml_initialize
    894d:	48 89 b4 24 c8 04 00 	mov    QWORD PTR [rsp+0x4c8],rsi
    8954:	00 
    8955:	4c 89 bc 24 d0 04 00 	mov    QWORD PTR [rsp+0x4d0],r15
    895c:	00 
    895d:	48 89 9c 24 d8 04 00 	mov    QWORD PTR [rsp+0x4d8],rbx
    8964:	00 
    8965:	48 89 bc 24 e0 04 00 	mov    QWORD PTR [rsp+0x4e0],rdi
    896c:	00 
    896d:	ff d0                	call   rax
    896f:	48 8b 9c 24 d8 04 00 	mov    rbx,QWORD PTR [rsp+0x4d8]
    8976:	00 
    8977:	4c 8b bc 24 d0 04 00 	mov    r15,QWORD PTR [rsp+0x4d0]
    897e:	00 
    897f:	4c 89 ff             	mov    rdi,r15
    8982:	48 81 c7 40 03 00 00 	add    rdi,0x340
    8989:	48 8b b4 24 c0 04 00 	mov    rsi,QWORD PTR [rsp+0x4c0]
    8990:	00 
    8991:	48 b8 00 00 00 00 00 	movabs rax,0x0
    8998:	00 00 00 
			8993: R_X86_64_64	caml_initialize
    899b:	48 89 b4 24 c0 04 00 	mov    QWORD PTR [rsp+0x4c0],rsi
    89a2:	00 
    89a3:	4c 89 bc 24 c8 04 00 	mov    QWORD PTR [rsp+0x4c8],r15
    89aa:	00 
    89ab:	48 89 9c 24 d0 04 00 	mov    QWORD PTR [rsp+0x4d0],rbx
    89b2:	00 
    89b3:	48 89 bc 24 d8 04 00 	mov    QWORD PTR [rsp+0x4d8],rdi
    89ba:	00 
    89bb:	ff d0                	call   rax
    89bd:	48 8b 9c 24 d0 04 00 	mov    rbx,QWORD PTR [rsp+0x4d0]
    89c4:	00 
    89c5:	4c 8b bc 24 c8 04 00 	mov    r15,QWORD PTR [rsp+0x4c8]
    89cc:	00 
    89cd:	4c 89 ff             	mov    rdi,r15
    89d0:	48 81 c7 48 03 00 00 	add    rdi,0x348
    89d7:	48 8b b4 24 b8 04 00 	mov    rsi,QWORD PTR [rsp+0x4b8]
    89de:	00 
    89df:	48 b8 00 00 00 00 00 	movabs rax,0x0
    89e6:	00 00 00 
			89e1: R_X86_64_64	caml_initialize
    89e9:	48 89 b4 24 b8 04 00 	mov    QWORD PTR [rsp+0x4b8],rsi
    89f0:	00 
    89f1:	4c 89 bc 24 c0 04 00 	mov    QWORD PTR [rsp+0x4c0],r15
    89f8:	00 
    89f9:	48 89 9c 24 c8 04 00 	mov    QWORD PTR [rsp+0x4c8],rbx
    8a00:	00 
    8a01:	48 89 bc 24 d0 04 00 	mov    QWORD PTR [rsp+0x4d0],rdi
    8a08:	00 
    8a09:	ff d0                	call   rax
    8a0b:	48 8b 9c 24 c8 04 00 	mov    rbx,QWORD PTR [rsp+0x4c8]
    8a12:	00 
    8a13:	4c 8b bc 24 c0 04 00 	mov    r15,QWORD PTR [rsp+0x4c0]
    8a1a:	00 
    8a1b:	4c 89 ff             	mov    rdi,r15
    8a1e:	48 81 c7 50 03 00 00 	add    rdi,0x350
    8a25:	48 8b b4 24 b0 04 00 	mov    rsi,QWORD PTR [rsp+0x4b0]
    8a2c:	00 
    8a2d:	48 b8 00 00 00 00 00 	movabs rax,0x0
    8a34:	00 00 00 
			8a2f: R_X86_64_64	caml_initialize
    8a37:	48 89 b4 24 b0 04 00 	mov    QWORD PTR [rsp+0x4b0],rsi
    8a3e:	00 
    8a3f:	4c 89 bc 24 b8 04 00 	mov    QWORD PTR [rsp+0x4b8],r15
    8a46:	00 
    8a47:	48 89 9c 24 c0 04 00 	mov    QWORD PTR [rsp+0x4c0],rbx
    8a4e:	00 
    8a4f:	48 89 bc 24 c8 04 00 	mov    QWORD PTR [rsp+0x4c8],rdi
    8a56:	00 
    8a57:	ff d0                	call   rax
    8a59:	48 8b 9c 24 c0 04 00 	mov    rbx,QWORD PTR [rsp+0x4c0]
    8a60:	00 
    8a61:	4c 8b bc 24 b8 04 00 	mov    r15,QWORD PTR [rsp+0x4b8]
    8a68:	00 
    8a69:	4c 89 ff             	mov    rdi,r15
    8a6c:	48 81 c7 58 03 00 00 	add    rdi,0x358
    8a73:	48 8b b4 24 a8 04 00 	mov    rsi,QWORD PTR [rsp+0x4a8]
    8a7a:	00 
    8a7b:	48 b8 00 00 00 00 00 	movabs rax,0x0
    8a82:	00 00 00 
			8a7d: R_X86_64_64	caml_initialize
    8a85:	48 89 b4 24 a8 04 00 	mov    QWORD PTR [rsp+0x4a8],rsi
    8a8c:	00 
    8a8d:	4c 89 bc 24 b0 04 00 	mov    QWORD PTR [rsp+0x4b0],r15
    8a94:	00 
    8a95:	48 89 9c 24 b8 04 00 	mov    QWORD PTR [rsp+0x4b8],rbx
    8a9c:	00 
    8a9d:	48 89 bc 24 c0 04 00 	mov    QWORD PTR [rsp+0x4c0],rdi
    8aa4:	00 
    8aa5:	ff d0                	call   rax
    8aa7:	48 8b 9c 24 b8 04 00 	mov    rbx,QWORD PTR [rsp+0x4b8]
    8aae:	00 
    8aaf:	4c 8b bc 24 b0 04 00 	mov    r15,QWORD PTR [rsp+0x4b0]
    8ab6:	00 
    8ab7:	4c 89 ff             	mov    rdi,r15
    8aba:	48 81 c7 60 03 00 00 	add    rdi,0x360
    8ac1:	48 8b b4 24 a0 04 00 	mov    rsi,QWORD PTR [rsp+0x4a0]
    8ac8:	00 
    8ac9:	48 b8 00 00 00 00 00 	movabs rax,0x0
    8ad0:	00 00 00 
			8acb: R_X86_64_64	caml_initialize
    8ad3:	48 89 b4 24 a0 04 00 	mov    QWORD PTR [rsp+0x4a0],rsi
    8ada:	00 
    8adb:	4c 89 bc 24 a8 04 00 	mov    QWORD PTR [rsp+0x4a8],r15
    8ae2:	00 
    8ae3:	48 89 9c 24 b0 04 00 	mov    QWORD PTR [rsp+0x4b0],rbx
    8aea:	00 
    8aeb:	48 89 bc 24 b8 04 00 	mov    QWORD PTR [rsp+0x4b8],rdi
    8af2:	00 
    8af3:	ff d0                	call   rax
    8af5:	48 8b 9c 24 b0 04 00 	mov    rbx,QWORD PTR [rsp+0x4b0]
    8afc:	00 
    8afd:	4c 8b bc 24 a8 04 00 	mov    r15,QWORD PTR [rsp+0x4a8]
    8b04:	00 
    8b05:	4c 89 ff             	mov    rdi,r15
    8b08:	48 81 c7 68 03 00 00 	add    rdi,0x368
    8b0f:	48 8b b4 24 98 04 00 	mov    rsi,QWORD PTR [rsp+0x498]
    8b16:	00 
    8b17:	48 b8 00 00 00 00 00 	movabs rax,0x0
    8b1e:	00 00 00 
			8b19: R_X86_64_64	caml_initialize
    8b21:	48 89 b4 24 98 04 00 	mov    QWORD PTR [rsp+0x498],rsi
    8b28:	00 
    8b29:	4c 89 bc 24 a0 04 00 	mov    QWORD PTR [rsp+0x4a0],r15
    8b30:	00 
    8b31:	48 89 9c 24 a8 04 00 	mov    QWORD PTR [rsp+0x4a8],rbx
    8b38:	00 
    8b39:	48 89 bc 24 b0 04 00 	mov    QWORD PTR [rsp+0x4b0],rdi
    8b40:	00 
    8b41:	ff d0                	call   rax
    8b43:	48 8b 9c 24 a8 04 00 	mov    rbx,QWORD PTR [rsp+0x4a8]
    8b4a:	00 
    8b4b:	4c 8b bc 24 a0 04 00 	mov    r15,QWORD PTR [rsp+0x4a0]
    8b52:	00 
    8b53:	4c 89 ff             	mov    rdi,r15
    8b56:	48 81 c7 70 03 00 00 	add    rdi,0x370
    8b5d:	48 8b b4 24 90 04 00 	mov    rsi,QWORD PTR [rsp+0x490]
    8b64:	00 
    8b65:	48 b8 00 00 00 00 00 	movabs rax,0x0
    8b6c:	00 00 00 
			8b67: R_X86_64_64	caml_initialize
    8b6f:	48 89 b4 24 90 04 00 	mov    QWORD PTR [rsp+0x490],rsi
    8b76:	00 
    8b77:	4c 89 bc 24 98 04 00 	mov    QWORD PTR [rsp+0x498],r15
    8b7e:	00 
    8b7f:	48 89 9c 24 a0 04 00 	mov    QWORD PTR [rsp+0x4a0],rbx
    8b86:	00 
    8b87:	48 89 bc 24 a8 04 00 	mov    QWORD PTR [rsp+0x4a8],rdi
    8b8e:	00 
    8b8f:	ff d0                	call   rax
    8b91:	48 8b 9c 24 a0 04 00 	mov    rbx,QWORD PTR [rsp+0x4a0]
    8b98:	00 
    8b99:	4c 8b bc 24 98 04 00 	mov    r15,QWORD PTR [rsp+0x498]
    8ba0:	00 
    8ba1:	4c 89 ff             	mov    rdi,r15
    8ba4:	48 81 c7 78 03 00 00 	add    rdi,0x378
    8bab:	48 8b b4 24 88 04 00 	mov    rsi,QWORD PTR [rsp+0x488]
    8bb2:	00 
    8bb3:	48 b8 00 00 00 00 00 	movabs rax,0x0
    8bba:	00 00 00 
			8bb5: R_X86_64_64	caml_initialize
    8bbd:	48 89 b4 24 88 04 00 	mov    QWORD PTR [rsp+0x488],rsi
    8bc4:	00 
    8bc5:	4c 89 bc 24 90 04 00 	mov    QWORD PTR [rsp+0x490],r15
    8bcc:	00 
    8bcd:	48 89 9c 24 98 04 00 	mov    QWORD PTR [rsp+0x498],rbx
    8bd4:	00 
    8bd5:	48 89 bc 24 a0 04 00 	mov    QWORD PTR [rsp+0x4a0],rdi
    8bdc:	00 
    8bdd:	ff d0                	call   rax
    8bdf:	48 8b 9c 24 98 04 00 	mov    rbx,QWORD PTR [rsp+0x498]
    8be6:	00 
    8be7:	4c 8b bc 24 90 04 00 	mov    r15,QWORD PTR [rsp+0x490]
    8bee:	00 
    8bef:	4c 89 ff             	mov    rdi,r15
    8bf2:	48 81 c7 80 03 00 00 	add    rdi,0x380
    8bf9:	48 8b b4 24 80 04 00 	mov    rsi,QWORD PTR [rsp+0x480]
    8c00:	00 
    8c01:	48 b8 00 00 00 00 00 	movabs rax,0x0
    8c08:	00 00 00 
			8c03: R_X86_64_64	caml_initialize
    8c0b:	48 89 b4 24 80 04 00 	mov    QWORD PTR [rsp+0x480],rsi
    8c12:	00 
    8c13:	4c 89 bc 24 88 04 00 	mov    QWORD PTR [rsp+0x488],r15
    8c1a:	00 
    8c1b:	48 89 9c 24 90 04 00 	mov    QWORD PTR [rsp+0x490],rbx
    8c22:	00 
    8c23:	48 89 bc 24 98 04 00 	mov    QWORD PTR [rsp+0x498],rdi
    8c2a:	00 
    8c2b:	ff d0                	call   rax
    8c2d:	48 8b 9c 24 90 04 00 	mov    rbx,QWORD PTR [rsp+0x490]
    8c34:	00 
    8c35:	4c 8b bc 24 88 04 00 	mov    r15,QWORD PTR [rsp+0x488]
    8c3c:	00 
    8c3d:	4c 89 ff             	mov    rdi,r15
    8c40:	48 81 c7 88 03 00 00 	add    rdi,0x388
    8c47:	48 8b b4 24 78 04 00 	mov    rsi,QWORD PTR [rsp+0x478]
    8c4e:	00 
    8c4f:	48 b8 00 00 00 00 00 	movabs rax,0x0
    8c56:	00 00 00 
			8c51: R_X86_64_64	caml_initialize
    8c59:	48 89 b4 24 78 04 00 	mov    QWORD PTR [rsp+0x478],rsi
    8c60:	00 
    8c61:	4c 89 bc 24 80 04 00 	mov    QWORD PTR [rsp+0x480],r15
    8c68:	00 
    8c69:	48 89 9c 24 88 04 00 	mov    QWORD PTR [rsp+0x488],rbx
    8c70:	00 
    8c71:	48 89 bc 24 90 04 00 	mov    QWORD PTR [rsp+0x490],rdi
    8c78:	00 
    8c79:	ff d0                	call   rax
    8c7b:	48 8b 9c 24 88 04 00 	mov    rbx,QWORD PTR [rsp+0x488]
    8c82:	00 
    8c83:	4c 8b bc 24 80 04 00 	mov    r15,QWORD PTR [rsp+0x480]
    8c8a:	00 
    8c8b:	4c 89 ff             	mov    rdi,r15
    8c8e:	48 81 c7 90 03 00 00 	add    rdi,0x390
    8c95:	48 8b b4 24 70 04 00 	mov    rsi,QWORD PTR [rsp+0x470]
    8c9c:	00 
    8c9d:	48 b8 00 00 00 00 00 	movabs rax,0x0
    8ca4:	00 00 00 
			8c9f: R_X86_64_64	caml_initialize
    8ca7:	48 89 b4 24 70 04 00 	mov    QWORD PTR [rsp+0x470],rsi
    8cae:	00 
    8caf:	4c 89 bc 24 78 04 00 	mov    QWORD PTR [rsp+0x478],r15
    8cb6:	00 
    8cb7:	48 89 9c 24 80 04 00 	mov    QWORD PTR [rsp+0x480],rbx
    8cbe:	00 
    8cbf:	48 89 bc 24 88 04 00 	mov    QWORD PTR [rsp+0x488],rdi
    8cc6:	00 
    8cc7:	ff d0                	call   rax
    8cc9:	48 8b 9c 24 80 04 00 	mov    rbx,QWORD PTR [rsp+0x480]
    8cd0:	00 
    8cd1:	4c 8b bc 24 78 04 00 	mov    r15,QWORD PTR [rsp+0x478]
    8cd8:	00 
    8cd9:	4c 89 ff             	mov    rdi,r15
    8cdc:	48 81 c7 98 03 00 00 	add    rdi,0x398
    8ce3:	48 8b b4 24 68 04 00 	mov    rsi,QWORD PTR [rsp+0x468]
    8cea:	00 
    8ceb:	48 b8 00 00 00 00 00 	movabs rax,0x0
    8cf2:	00 00 00 
			8ced: R_X86_64_64	caml_initialize
    8cf5:	48 89 b4 24 68 04 00 	mov    QWORD PTR [rsp+0x468],rsi
    8cfc:	00 
    8cfd:	4c 89 bc 24 70 04 00 	mov    QWORD PTR [rsp+0x470],r15
    8d04:	00 
    8d05:	48 89 9c 24 78 04 00 	mov    QWORD PTR [rsp+0x478],rbx
    8d0c:	00 
    8d0d:	48 89 bc 24 80 04 00 	mov    QWORD PTR [rsp+0x480],rdi
    8d14:	00 
    8d15:	ff d0                	call   rax
    8d17:	48 8b 9c 24 78 04 00 	mov    rbx,QWORD PTR [rsp+0x478]
    8d1e:	00 
    8d1f:	4c 8b bc 24 70 04 00 	mov    r15,QWORD PTR [rsp+0x470]
    8d26:	00 
    8d27:	4c 89 ff             	mov    rdi,r15
    8d2a:	48 81 c7 a0 03 00 00 	add    rdi,0x3a0
    8d31:	48 8b b4 24 60 04 00 	mov    rsi,QWORD PTR [rsp+0x460]
    8d38:	00 
    8d39:	48 b8 00 00 00 00 00 	movabs rax,0x0
    8d40:	00 00 00 
			8d3b: R_X86_64_64	caml_initialize
    8d43:	48 89 b4 24 60 04 00 	mov    QWORD PTR [rsp+0x460],rsi
    8d4a:	00 
    8d4b:	4c 89 bc 24 68 04 00 	mov    QWORD PTR [rsp+0x468],r15
    8d52:	00 
    8d53:	48 89 9c 24 70 04 00 	mov    QWORD PTR [rsp+0x470],rbx
    8d5a:	00 
    8d5b:	48 89 bc 24 78 04 00 	mov    QWORD PTR [rsp+0x478],rdi
    8d62:	00 
    8d63:	ff d0                	call   rax
    8d65:	48 8b 9c 24 70 04 00 	mov    rbx,QWORD PTR [rsp+0x470]
    8d6c:	00 
    8d6d:	4c 8b bc 24 68 04 00 	mov    r15,QWORD PTR [rsp+0x468]
    8d74:	00 
    8d75:	4c 89 ff             	mov    rdi,r15
    8d78:	48 81 c7 a8 03 00 00 	add    rdi,0x3a8
    8d7f:	48 8b b4 24 58 04 00 	mov    rsi,QWORD PTR [rsp+0x458]
    8d86:	00 
    8d87:	48 b8 00 00 00 00 00 	movabs rax,0x0
    8d8e:	00 00 00 
			8d89: R_X86_64_64	caml_initialize
    8d91:	48 89 b4 24 58 04 00 	mov    QWORD PTR [rsp+0x458],rsi
    8d98:	00 
    8d99:	4c 89 bc 24 60 04 00 	mov    QWORD PTR [rsp+0x460],r15
    8da0:	00 
    8da1:	48 89 9c 24 68 04 00 	mov    QWORD PTR [rsp+0x468],rbx
    8da8:	00 
    8da9:	48 89 bc 24 70 04 00 	mov    QWORD PTR [rsp+0x470],rdi
    8db0:	00 
    8db1:	ff d0                	call   rax
    8db3:	48 8b 9c 24 68 04 00 	mov    rbx,QWORD PTR [rsp+0x468]
    8dba:	00 
    8dbb:	4c 8b bc 24 60 04 00 	mov    r15,QWORD PTR [rsp+0x460]
    8dc2:	00 
    8dc3:	4c 89 ff             	mov    rdi,r15
    8dc6:	48 81 c7 b0 03 00 00 	add    rdi,0x3b0
    8dcd:	48 8b b4 24 50 04 00 	mov    rsi,QWORD PTR [rsp+0x450]
    8dd4:	00 
    8dd5:	48 b8 00 00 00 00 00 	movabs rax,0x0
    8ddc:	00 00 00 
			8dd7: R_X86_64_64	caml_initialize
    8ddf:	48 89 b4 24 50 04 00 	mov    QWORD PTR [rsp+0x450],rsi
    8de6:	00 
    8de7:	4c 89 bc 24 58 04 00 	mov    QWORD PTR [rsp+0x458],r15
    8dee:	00 
    8def:	48 89 9c 24 60 04 00 	mov    QWORD PTR [rsp+0x460],rbx
    8df6:	00 
    8df7:	48 89 bc 24 68 04 00 	mov    QWORD PTR [rsp+0x468],rdi
    8dfe:	00 
    8dff:	ff d0                	call   rax
    8e01:	48 8b 9c 24 60 04 00 	mov    rbx,QWORD PTR [rsp+0x460]
    8e08:	00 
    8e09:	4c 8b bc 24 58 04 00 	mov    r15,QWORD PTR [rsp+0x458]
    8e10:	00 
    8e11:	4c 89 ff             	mov    rdi,r15
    8e14:	48 81 c7 b8 03 00 00 	add    rdi,0x3b8
    8e1b:	48 8b b4 24 48 04 00 	mov    rsi,QWORD PTR [rsp+0x448]
    8e22:	00 
    8e23:	48 b8 00 00 00 00 00 	movabs rax,0x0
    8e2a:	00 00 00 
			8e25: R_X86_64_64	caml_initialize
    8e2d:	48 89 b4 24 48 04 00 	mov    QWORD PTR [rsp+0x448],rsi
    8e34:	00 
    8e35:	4c 89 bc 24 50 04 00 	mov    QWORD PTR [rsp+0x450],r15
    8e3c:	00 
    8e3d:	48 89 9c 24 58 04 00 	mov    QWORD PTR [rsp+0x458],rbx
    8e44:	00 
    8e45:	48 89 bc 24 60 04 00 	mov    QWORD PTR [rsp+0x460],rdi
    8e4c:	00 
    8e4d:	ff d0                	call   rax
    8e4f:	48 8b 9c 24 58 04 00 	mov    rbx,QWORD PTR [rsp+0x458]
    8e56:	00 
    8e57:	4c 8b bc 24 50 04 00 	mov    r15,QWORD PTR [rsp+0x450]
    8e5e:	00 
    8e5f:	4c 89 ff             	mov    rdi,r15
    8e62:	48 81 c7 c0 03 00 00 	add    rdi,0x3c0
    8e69:	48 8b b4 24 40 04 00 	mov    rsi,QWORD PTR [rsp+0x440]
    8e70:	00 
    8e71:	48 b8 00 00 00 00 00 	movabs rax,0x0
    8e78:	00 00 00 
			8e73: R_X86_64_64	caml_initialize
    8e7b:	48 89 b4 24 40 04 00 	mov    QWORD PTR [rsp+0x440],rsi
    8e82:	00 
    8e83:	4c 89 bc 24 48 04 00 	mov    QWORD PTR [rsp+0x448],r15
    8e8a:	00 
    8e8b:	48 89 9c 24 50 04 00 	mov    QWORD PTR [rsp+0x450],rbx
    8e92:	00 
    8e93:	48 89 bc 24 58 04 00 	mov    QWORD PTR [rsp+0x458],rdi
    8e9a:	00 
    8e9b:	ff d0                	call   rax
    8e9d:	48 8b 9c 24 50 04 00 	mov    rbx,QWORD PTR [rsp+0x450]
    8ea4:	00 
    8ea5:	4c 8b bc 24 48 04 00 	mov    r15,QWORD PTR [rsp+0x448]
    8eac:	00 
    8ead:	4c 89 ff             	mov    rdi,r15
    8eb0:	48 81 c7 c8 03 00 00 	add    rdi,0x3c8
    8eb7:	48 8b b4 24 38 04 00 	mov    rsi,QWORD PTR [rsp+0x438]
    8ebe:	00 
    8ebf:	48 b8 00 00 00 00 00 	movabs rax,0x0
    8ec6:	00 00 00 
			8ec1: R_X86_64_64	caml_initialize
    8ec9:	48 89 b4 24 38 04 00 	mov    QWORD PTR [rsp+0x438],rsi
    8ed0:	00 
    8ed1:	4c 89 bc 24 40 04 00 	mov    QWORD PTR [rsp+0x440],r15
    8ed8:	00 
    8ed9:	48 89 9c 24 48 04 00 	mov    QWORD PTR [rsp+0x448],rbx
    8ee0:	00 
    8ee1:	48 89 bc 24 50 04 00 	mov    QWORD PTR [rsp+0x450],rdi
    8ee8:	00 
    8ee9:	ff d0                	call   rax
    8eeb:	48 8b 9c 24 48 04 00 	mov    rbx,QWORD PTR [rsp+0x448]
    8ef2:	00 
    8ef3:	4c 8b bc 24 40 04 00 	mov    r15,QWORD PTR [rsp+0x440]
    8efa:	00 
    8efb:	4c 89 ff             	mov    rdi,r15
    8efe:	48 81 c7 d0 03 00 00 	add    rdi,0x3d0
    8f05:	48 8b b4 24 30 04 00 	mov    rsi,QWORD PTR [rsp+0x430]
    8f0c:	00 
    8f0d:	48 b8 00 00 00 00 00 	movabs rax,0x0
    8f14:	00 00 00 
			8f0f: R_X86_64_64	caml_initialize
    8f17:	48 89 b4 24 30 04 00 	mov    QWORD PTR [rsp+0x430],rsi
    8f1e:	00 
    8f1f:	4c 89 bc 24 38 04 00 	mov    QWORD PTR [rsp+0x438],r15
    8f26:	00 
    8f27:	48 89 9c 24 40 04 00 	mov    QWORD PTR [rsp+0x440],rbx
    8f2e:	00 
    8f2f:	48 89 bc 24 48 04 00 	mov    QWORD PTR [rsp+0x448],rdi
    8f36:	00 
    8f37:	ff d0                	call   rax
    8f39:	48 8b 9c 24 40 04 00 	mov    rbx,QWORD PTR [rsp+0x440]
    8f40:	00 
    8f41:	4c 8b bc 24 38 04 00 	mov    r15,QWORD PTR [rsp+0x438]
    8f48:	00 
    8f49:	4c 89 ff             	mov    rdi,r15
    8f4c:	48 81 c7 d8 03 00 00 	add    rdi,0x3d8
    8f53:	48 8b b4 24 28 04 00 	mov    rsi,QWORD PTR [rsp+0x428]
    8f5a:	00 
    8f5b:	48 b8 00 00 00 00 00 	movabs rax,0x0
    8f62:	00 00 00 
			8f5d: R_X86_64_64	caml_initialize
    8f65:	48 89 b4 24 28 04 00 	mov    QWORD PTR [rsp+0x428],rsi
    8f6c:	00 
    8f6d:	4c 89 bc 24 30 04 00 	mov    QWORD PTR [rsp+0x430],r15
    8f74:	00 
    8f75:	48 89 9c 24 38 04 00 	mov    QWORD PTR [rsp+0x438],rbx
    8f7c:	00 
    8f7d:	48 89 bc 24 40 04 00 	mov    QWORD PTR [rsp+0x440],rdi
    8f84:	00 
    8f85:	ff d0                	call   rax
    8f87:	48 8b 9c 24 38 04 00 	mov    rbx,QWORD PTR [rsp+0x438]
    8f8e:	00 
    8f8f:	4c 8b bc 24 30 04 00 	mov    r15,QWORD PTR [rsp+0x430]
    8f96:	00 
    8f97:	4c 89 ff             	mov    rdi,r15
    8f9a:	48 81 c7 e0 03 00 00 	add    rdi,0x3e0
    8fa1:	48 8b b4 24 20 04 00 	mov    rsi,QWORD PTR [rsp+0x420]
    8fa8:	00 
    8fa9:	48 b8 00 00 00 00 00 	movabs rax,0x0
    8fb0:	00 00 00 
			8fab: R_X86_64_64	caml_initialize
    8fb3:	48 89 b4 24 20 04 00 	mov    QWORD PTR [rsp+0x420],rsi
    8fba:	00 
    8fbb:	4c 89 bc 24 28 04 00 	mov    QWORD PTR [rsp+0x428],r15
    8fc2:	00 
    8fc3:	48 89 9c 24 30 04 00 	mov    QWORD PTR [rsp+0x430],rbx
    8fca:	00 
    8fcb:	48 89 bc 24 38 04 00 	mov    QWORD PTR [rsp+0x438],rdi
    8fd2:	00 
    8fd3:	ff d0                	call   rax
    8fd5:	48 8b 9c 24 30 04 00 	mov    rbx,QWORD PTR [rsp+0x430]
    8fdc:	00 
    8fdd:	4c 8b bc 24 28 04 00 	mov    r15,QWORD PTR [rsp+0x428]
    8fe4:	00 
    8fe5:	4c 89 ff             	mov    rdi,r15
    8fe8:	48 81 c7 e8 03 00 00 	add    rdi,0x3e8
    8fef:	48 8b b4 24 18 04 00 	mov    rsi,QWORD PTR [rsp+0x418]
    8ff6:	00 
    8ff7:	48 b8 00 00 00 00 00 	movabs rax,0x0
    8ffe:	00 00 00 
			8ff9: R_X86_64_64	caml_initialize
    9001:	48 89 b4 24 18 04 00 	mov    QWORD PTR [rsp+0x418],rsi
    9008:	00 
    9009:	4c 89 bc 24 20 04 00 	mov    QWORD PTR [rsp+0x420],r15
    9010:	00 
    9011:	48 89 9c 24 28 04 00 	mov    QWORD PTR [rsp+0x428],rbx
    9018:	00 
    9019:	48 89 bc 24 30 04 00 	mov    QWORD PTR [rsp+0x430],rdi
    9020:	00 
    9021:	ff d0                	call   rax
    9023:	48 8b 9c 24 28 04 00 	mov    rbx,QWORD PTR [rsp+0x428]
    902a:	00 
    902b:	4c 8b bc 24 20 04 00 	mov    r15,QWORD PTR [rsp+0x420]
    9032:	00 
    9033:	4c 89 ff             	mov    rdi,r15
    9036:	48 81 c7 f0 03 00 00 	add    rdi,0x3f0
    903d:	48 8b b4 24 10 04 00 	mov    rsi,QWORD PTR [rsp+0x410]
    9044:	00 
    9045:	48 b8 00 00 00 00 00 	movabs rax,0x0
    904c:	00 00 00 
			9047: R_X86_64_64	caml_initialize
    904f:	48 89 b4 24 10 04 00 	mov    QWORD PTR [rsp+0x410],rsi
    9056:	00 
    9057:	4c 89 bc 24 18 04 00 	mov    QWORD PTR [rsp+0x418],r15
    905e:	00 
    905f:	48 89 9c 24 20 04 00 	mov    QWORD PTR [rsp+0x420],rbx
    9066:	00 
    9067:	48 89 bc 24 28 04 00 	mov    QWORD PTR [rsp+0x428],rdi
    906e:	00 
    906f:	ff d0                	call   rax
    9071:	48 8b 9c 24 20 04 00 	mov    rbx,QWORD PTR [rsp+0x420]
    9078:	00 
    9079:	4c 8b bc 24 18 04 00 	mov    r15,QWORD PTR [rsp+0x418]
    9080:	00 
    9081:	4c 89 ff             	mov    rdi,r15
    9084:	48 81 c7 f8 03 00 00 	add    rdi,0x3f8
    908b:	48 8b b4 24 08 04 00 	mov    rsi,QWORD PTR [rsp+0x408]
    9092:	00 
    9093:	48 b8 00 00 00 00 00 	movabs rax,0x0
    909a:	00 00 00 
			9095: R_X86_64_64	caml_initialize
    909d:	48 89 b4 24 08 04 00 	mov    QWORD PTR [rsp+0x408],rsi
    90a4:	00 
    90a5:	4c 89 bc 24 10 04 00 	mov    QWORD PTR [rsp+0x410],r15
    90ac:	00 
    90ad:	48 89 9c 24 18 04 00 	mov    QWORD PTR [rsp+0x418],rbx
    90b4:	00 
    90b5:	48 89 bc 24 20 04 00 	mov    QWORD PTR [rsp+0x420],rdi
    90bc:	00 
    90bd:	ff d0                	call   rax
    90bf:	48 8b 9c 24 18 04 00 	mov    rbx,QWORD PTR [rsp+0x418]
    90c6:	00 
    90c7:	4c 8b bc 24 10 04 00 	mov    r15,QWORD PTR [rsp+0x410]
    90ce:	00 
    90cf:	4c 89 ff             	mov    rdi,r15
    90d2:	48 81 c7 00 04 00 00 	add    rdi,0x400
    90d9:	48 8b b4 24 00 04 00 	mov    rsi,QWORD PTR [rsp+0x400]
    90e0:	00 
    90e1:	48 b8 00 00 00 00 00 	movabs rax,0x0
    90e8:	00 00 00 
			90e3: R_X86_64_64	caml_initialize
    90eb:	48 89 b4 24 00 04 00 	mov    QWORD PTR [rsp+0x400],rsi
    90f2:	00 
    90f3:	4c 89 bc 24 08 04 00 	mov    QWORD PTR [rsp+0x408],r15
    90fa:	00 
    90fb:	48 89 9c 24 10 04 00 	mov    QWORD PTR [rsp+0x410],rbx
    9102:	00 
    9103:	48 89 bc 24 18 04 00 	mov    QWORD PTR [rsp+0x418],rdi
    910a:	00 
    910b:	ff d0                	call   rax
    910d:	48 8b 9c 24 10 04 00 	mov    rbx,QWORD PTR [rsp+0x410]
    9114:	00 
    9115:	4c 8b bc 24 08 04 00 	mov    r15,QWORD PTR [rsp+0x408]
    911c:	00 
    911d:	4c 89 ff             	mov    rdi,r15
    9120:	48 81 c7 08 04 00 00 	add    rdi,0x408
    9127:	48 8b b4 24 f8 03 00 	mov    rsi,QWORD PTR [rsp+0x3f8]
    912e:	00 
    912f:	48 b8 00 00 00 00 00 	movabs rax,0x0
    9136:	00 00 00 
			9131: R_X86_64_64	caml_initialize
    9139:	48 89 b4 24 f8 03 00 	mov    QWORD PTR [rsp+0x3f8],rsi
    9140:	00 
    9141:	4c 89 bc 24 00 04 00 	mov    QWORD PTR [rsp+0x400],r15
    9148:	00 
    9149:	48 89 9c 24 08 04 00 	mov    QWORD PTR [rsp+0x408],rbx
    9150:	00 
    9151:	48 89 bc 24 10 04 00 	mov    QWORD PTR [rsp+0x410],rdi
    9158:	00 
    9159:	ff d0                	call   rax
    915b:	48 8b 9c 24 08 04 00 	mov    rbx,QWORD PTR [rsp+0x408]
    9162:	00 
    9163:	4c 8b bc 24 00 04 00 	mov    r15,QWORD PTR [rsp+0x400]
    916a:	00 
    916b:	4c 89 ff             	mov    rdi,r15
    916e:	48 81 c7 10 04 00 00 	add    rdi,0x410
    9175:	48 8b b4 24 f0 03 00 	mov    rsi,QWORD PTR [rsp+0x3f0]
    917c:	00 
    917d:	48 b8 00 00 00 00 00 	movabs rax,0x0
    9184:	00 00 00 
			917f: R_X86_64_64	caml_initialize
    9187:	48 89 b4 24 f0 03 00 	mov    QWORD PTR [rsp+0x3f0],rsi
    918e:	00 
    918f:	4c 89 bc 24 f8 03 00 	mov    QWORD PTR [rsp+0x3f8],r15
    9196:	00 
    9197:	48 89 9c 24 00 04 00 	mov    QWORD PTR [rsp+0x400],rbx
    919e:	00 
    919f:	48 89 bc 24 08 04 00 	mov    QWORD PTR [rsp+0x408],rdi
    91a6:	00 
    91a7:	ff d0                	call   rax
    91a9:	48 8b 9c 24 00 04 00 	mov    rbx,QWORD PTR [rsp+0x400]
    91b0:	00 
    91b1:	4c 8b bc 24 f8 03 00 	mov    r15,QWORD PTR [rsp+0x3f8]
    91b8:	00 
    91b9:	4c 89 ff             	mov    rdi,r15
    91bc:	48 81 c7 18 04 00 00 	add    rdi,0x418
    91c3:	48 8b b4 24 e8 03 00 	mov    rsi,QWORD PTR [rsp+0x3e8]
    91ca:	00 
    91cb:	48 b8 00 00 00 00 00 	movabs rax,0x0
    91d2:	00 00 00 
			91cd: R_X86_64_64	caml_initialize
    91d5:	48 89 b4 24 e8 03 00 	mov    QWORD PTR [rsp+0x3e8],rsi
    91dc:	00 
    91dd:	4c 89 bc 24 f0 03 00 	mov    QWORD PTR [rsp+0x3f0],r15
    91e4:	00 
    91e5:	48 89 9c 24 f8 03 00 	mov    QWORD PTR [rsp+0x3f8],rbx
    91ec:	00 
    91ed:	48 89 bc 24 00 04 00 	mov    QWORD PTR [rsp+0x400],rdi
    91f4:	00 
    91f5:	ff d0                	call   rax
    91f7:	48 8b 9c 24 f8 03 00 	mov    rbx,QWORD PTR [rsp+0x3f8]
    91fe:	00 
    91ff:	4c 8b bc 24 f0 03 00 	mov    r15,QWORD PTR [rsp+0x3f0]
    9206:	00 
    9207:	4c 89 ff             	mov    rdi,r15
    920a:	48 81 c7 20 04 00 00 	add    rdi,0x420
    9211:	48 8b b4 24 e0 03 00 	mov    rsi,QWORD PTR [rsp+0x3e0]
    9218:	00 
    9219:	48 b8 00 00 00 00 00 	movabs rax,0x0
    9220:	00 00 00 
			921b: R_X86_64_64	caml_initialize
    9223:	48 89 b4 24 e0 03 00 	mov    QWORD PTR [rsp+0x3e0],rsi
    922a:	00 
    922b:	4c 89 bc 24 e8 03 00 	mov    QWORD PTR [rsp+0x3e8],r15
    9232:	00 
    9233:	48 89 9c 24 f0 03 00 	mov    QWORD PTR [rsp+0x3f0],rbx
    923a:	00 
    923b:	48 89 bc 24 f8 03 00 	mov    QWORD PTR [rsp+0x3f8],rdi
    9242:	00 
    9243:	ff d0                	call   rax
    9245:	48 8b 9c 24 f0 03 00 	mov    rbx,QWORD PTR [rsp+0x3f0]
    924c:	00 
    924d:	4c 8b bc 24 e8 03 00 	mov    r15,QWORD PTR [rsp+0x3e8]
    9254:	00 
    9255:	4c 89 ff             	mov    rdi,r15
    9258:	48 81 c7 28 04 00 00 	add    rdi,0x428
    925f:	48 8b b4 24 d8 03 00 	mov    rsi,QWORD PTR [rsp+0x3d8]
    9266:	00 
    9267:	48 b8 00 00 00 00 00 	movabs rax,0x0
    926e:	00 00 00 
			9269: R_X86_64_64	caml_initialize
    9271:	48 89 b4 24 d8 03 00 	mov    QWORD PTR [rsp+0x3d8],rsi
    9278:	00 
    9279:	4c 89 bc 24 e0 03 00 	mov    QWORD PTR [rsp+0x3e0],r15
    9280:	00 
    9281:	48 89 9c 24 e8 03 00 	mov    QWORD PTR [rsp+0x3e8],rbx
    9288:	00 
    9289:	48 89 bc 24 f0 03 00 	mov    QWORD PTR [rsp+0x3f0],rdi
    9290:	00 
    9291:	ff d0                	call   rax
    9293:	48 8b 9c 24 e8 03 00 	mov    rbx,QWORD PTR [rsp+0x3e8]
    929a:	00 
    929b:	4c 8b bc 24 e0 03 00 	mov    r15,QWORD PTR [rsp+0x3e0]
    92a2:	00 
    92a3:	4c 89 ff             	mov    rdi,r15
    92a6:	48 81 c7 30 04 00 00 	add    rdi,0x430
    92ad:	48 8b b4 24 d0 03 00 	mov    rsi,QWORD PTR [rsp+0x3d0]
    92b4:	00 
    92b5:	48 b8 00 00 00 00 00 	movabs rax,0x0
    92bc:	00 00 00 
			92b7: R_X86_64_64	caml_initialize
    92bf:	48 89 b4 24 d0 03 00 	mov    QWORD PTR [rsp+0x3d0],rsi
    92c6:	00 
    92c7:	4c 89 bc 24 d8 03 00 	mov    QWORD PTR [rsp+0x3d8],r15
    92ce:	00 
    92cf:	48 89 9c 24 e0 03 00 	mov    QWORD PTR [rsp+0x3e0],rbx
    92d6:	00 
    92d7:	48 89 bc 24 e8 03 00 	mov    QWORD PTR [rsp+0x3e8],rdi
    92de:	00 
    92df:	ff d0                	call   rax
    92e1:	48 8b 9c 24 e0 03 00 	mov    rbx,QWORD PTR [rsp+0x3e0]
    92e8:	00 
    92e9:	4c 8b bc 24 d8 03 00 	mov    r15,QWORD PTR [rsp+0x3d8]
    92f0:	00 
    92f1:	4c 89 ff             	mov    rdi,r15
    92f4:	48 81 c7 38 04 00 00 	add    rdi,0x438
    92fb:	48 8b b4 24 c8 03 00 	mov    rsi,QWORD PTR [rsp+0x3c8]
    9302:	00 
    9303:	48 b8 00 00 00 00 00 	movabs rax,0x0
    930a:	00 00 00 
			9305: R_X86_64_64	caml_initialize
    930d:	48 89 b4 24 c8 03 00 	mov    QWORD PTR [rsp+0x3c8],rsi
    9314:	00 
    9315:	4c 89 bc 24 d0 03 00 	mov    QWORD PTR [rsp+0x3d0],r15
    931c:	00 
    931d:	48 89 9c 24 d8 03 00 	mov    QWORD PTR [rsp+0x3d8],rbx
    9324:	00 
    9325:	48 89 bc 24 e0 03 00 	mov    QWORD PTR [rsp+0x3e0],rdi
    932c:	00 
    932d:	ff d0                	call   rax
    932f:	48 8b 9c 24 d8 03 00 	mov    rbx,QWORD PTR [rsp+0x3d8]
    9336:	00 
    9337:	4c 8b bc 24 d0 03 00 	mov    r15,QWORD PTR [rsp+0x3d0]
    933e:	00 
    933f:	4c 89 ff             	mov    rdi,r15
    9342:	48 81 c7 40 04 00 00 	add    rdi,0x440
    9349:	48 8b b4 24 c0 03 00 	mov    rsi,QWORD PTR [rsp+0x3c0]
    9350:	00 
    9351:	48 b8 00 00 00 00 00 	movabs rax,0x0
    9358:	00 00 00 
			9353: R_X86_64_64	caml_initialize
    935b:	48 89 b4 24 c0 03 00 	mov    QWORD PTR [rsp+0x3c0],rsi
    9362:	00 
    9363:	4c 89 bc 24 c8 03 00 	mov    QWORD PTR [rsp+0x3c8],r15
    936a:	00 
    936b:	48 89 9c 24 d0 03 00 	mov    QWORD PTR [rsp+0x3d0],rbx
    9372:	00 
    9373:	48 89 bc 24 d8 03 00 	mov    QWORD PTR [rsp+0x3d8],rdi
    937a:	00 
    937b:	ff d0                	call   rax
    937d:	48 8b 9c 24 d0 03 00 	mov    rbx,QWORD PTR [rsp+0x3d0]
    9384:	00 
    9385:	4c 8b bc 24 c8 03 00 	mov    r15,QWORD PTR [rsp+0x3c8]
    938c:	00 
    938d:	4c 89 ff             	mov    rdi,r15
    9390:	48 81 c7 48 04 00 00 	add    rdi,0x448
    9397:	48 8b b4 24 b8 03 00 	mov    rsi,QWORD PTR [rsp+0x3b8]
    939e:	00 
    939f:	48 b8 00 00 00 00 00 	movabs rax,0x0
    93a6:	00 00 00 
			93a1: R_X86_64_64	caml_initialize
    93a9:	48 89 b4 24 b8 03 00 	mov    QWORD PTR [rsp+0x3b8],rsi
    93b0:	00 
    93b1:	4c 89 bc 24 c0 03 00 	mov    QWORD PTR [rsp+0x3c0],r15
    93b8:	00 
    93b9:	48 89 9c 24 c8 03 00 	mov    QWORD PTR [rsp+0x3c8],rbx
    93c0:	00 
    93c1:	48 89 bc 24 d0 03 00 	mov    QWORD PTR [rsp+0x3d0],rdi
    93c8:	00 
    93c9:	ff d0                	call   rax
    93cb:	48 8b 9c 24 c8 03 00 	mov    rbx,QWORD PTR [rsp+0x3c8]
    93d2:	00 
    93d3:	4c 8b bc 24 c0 03 00 	mov    r15,QWORD PTR [rsp+0x3c0]
    93da:	00 
    93db:	4c 89 ff             	mov    rdi,r15
    93de:	48 81 c7 50 04 00 00 	add    rdi,0x450
    93e5:	48 8b b4 24 b0 03 00 	mov    rsi,QWORD PTR [rsp+0x3b0]
    93ec:	00 
    93ed:	48 b8 00 00 00 00 00 	movabs rax,0x0
    93f4:	00 00 00 
			93ef: R_X86_64_64	caml_initialize
    93f7:	48 89 b4 24 b0 03 00 	mov    QWORD PTR [rsp+0x3b0],rsi
    93fe:	00 
    93ff:	4c 89 bc 24 b8 03 00 	mov    QWORD PTR [rsp+0x3b8],r15
    9406:	00 
    9407:	48 89 9c 24 c0 03 00 	mov    QWORD PTR [rsp+0x3c0],rbx
    940e:	00 
    940f:	48 89 bc 24 c8 03 00 	mov    QWORD PTR [rsp+0x3c8],rdi
    9416:	00 
    9417:	ff d0                	call   rax
    9419:	48 8b 9c 24 c0 03 00 	mov    rbx,QWORD PTR [rsp+0x3c0]
    9420:	00 
    9421:	4c 8b bc 24 b8 03 00 	mov    r15,QWORD PTR [rsp+0x3b8]
    9428:	00 
    9429:	4c 89 ff             	mov    rdi,r15
    942c:	48 81 c7 58 04 00 00 	add    rdi,0x458
    9433:	48 8b b4 24 a8 03 00 	mov    rsi,QWORD PTR [rsp+0x3a8]
    943a:	00 
    943b:	48 b8 00 00 00 00 00 	movabs rax,0x0
    9442:	00 00 00 
			943d: R_X86_64_64	caml_initialize
    9445:	48 89 b4 24 a8 03 00 	mov    QWORD PTR [rsp+0x3a8],rsi
    944c:	00 
    944d:	4c 89 bc 24 b0 03 00 	mov    QWORD PTR [rsp+0x3b0],r15
    9454:	00 
    9455:	48 89 9c 24 b8 03 00 	mov    QWORD PTR [rsp+0x3b8],rbx
    945c:	00 
    945d:	48 89 bc 24 c0 03 00 	mov    QWORD PTR [rsp+0x3c0],rdi
    9464:	00 
    9465:	ff d0                	call   rax
    9467:	48 8b 9c 24 b8 03 00 	mov    rbx,QWORD PTR [rsp+0x3b8]
    946e:	00 
    946f:	4c 8b bc 24 b0 03 00 	mov    r15,QWORD PTR [rsp+0x3b0]
    9476:	00 
    9477:	4c 89 ff             	mov    rdi,r15
    947a:	48 81 c7 60 04 00 00 	add    rdi,0x460
    9481:	48 8b b4 24 a0 03 00 	mov    rsi,QWORD PTR [rsp+0x3a0]
    9488:	00 
    9489:	48 b8 00 00 00 00 00 	movabs rax,0x0
    9490:	00 00 00 
			948b: R_X86_64_64	caml_initialize
    9493:	48 89 b4 24 a0 03 00 	mov    QWORD PTR [rsp+0x3a0],rsi
    949a:	00 
    949b:	4c 89 bc 24 a8 03 00 	mov    QWORD PTR [rsp+0x3a8],r15
    94a2:	00 
    94a3:	48 89 9c 24 b0 03 00 	mov    QWORD PTR [rsp+0x3b0],rbx
    94aa:	00 
    94ab:	48 89 bc 24 b8 03 00 	mov    QWORD PTR [rsp+0x3b8],rdi
    94b2:	00 
    94b3:	ff d0                	call   rax
    94b5:	48 8b 9c 24 b0 03 00 	mov    rbx,QWORD PTR [rsp+0x3b0]
    94bc:	00 
    94bd:	4c 8b bc 24 a8 03 00 	mov    r15,QWORD PTR [rsp+0x3a8]
    94c4:	00 
    94c5:	4c 89 ff             	mov    rdi,r15
    94c8:	48 81 c7 68 04 00 00 	add    rdi,0x468
    94cf:	48 8b b4 24 98 03 00 	mov    rsi,QWORD PTR [rsp+0x398]
    94d6:	00 
    94d7:	48 b8 00 00 00 00 00 	movabs rax,0x0
    94de:	00 00 00 
			94d9: R_X86_64_64	caml_initialize
    94e1:	48 89 b4 24 98 03 00 	mov    QWORD PTR [rsp+0x398],rsi
    94e8:	00 
    94e9:	4c 89 bc 24 a0 03 00 	mov    QWORD PTR [rsp+0x3a0],r15
    94f0:	00 
    94f1:	48 89 9c 24 a8 03 00 	mov    QWORD PTR [rsp+0x3a8],rbx
    94f8:	00 
    94f9:	48 89 bc 24 b0 03 00 	mov    QWORD PTR [rsp+0x3b0],rdi
    9500:	00 
    9501:	ff d0                	call   rax
    9503:	48 8b 9c 24 a8 03 00 	mov    rbx,QWORD PTR [rsp+0x3a8]
    950a:	00 
    950b:	4c 8b bc 24 a0 03 00 	mov    r15,QWORD PTR [rsp+0x3a0]
    9512:	00 
    9513:	4c 89 ff             	mov    rdi,r15
    9516:	48 81 c7 70 04 00 00 	add    rdi,0x470
    951d:	48 8b b4 24 90 03 00 	mov    rsi,QWORD PTR [rsp+0x390]
    9524:	00 
    9525:	48 b8 00 00 00 00 00 	movabs rax,0x0
    952c:	00 00 00 
			9527: R_X86_64_64	caml_initialize
    952f:	48 89 b4 24 90 03 00 	mov    QWORD PTR [rsp+0x390],rsi
    9536:	00 
    9537:	4c 89 bc 24 98 03 00 	mov    QWORD PTR [rsp+0x398],r15
    953e:	00 
    953f:	48 89 9c 24 a0 03 00 	mov    QWORD PTR [rsp+0x3a0],rbx
    9546:	00 
    9547:	48 89 bc 24 a8 03 00 	mov    QWORD PTR [rsp+0x3a8],rdi
    954e:	00 
    954f:	ff d0                	call   rax
    9551:	48 8b 9c 24 a0 03 00 	mov    rbx,QWORD PTR [rsp+0x3a0]
    9558:	00 
    9559:	4c 8b bc 24 98 03 00 	mov    r15,QWORD PTR [rsp+0x398]
    9560:	00 
    9561:	4c 89 ff             	mov    rdi,r15
    9564:	48 81 c7 78 04 00 00 	add    rdi,0x478
    956b:	48 8b b4 24 88 03 00 	mov    rsi,QWORD PTR [rsp+0x388]
    9572:	00 
    9573:	48 b8 00 00 00 00 00 	movabs rax,0x0
    957a:	00 00 00 
			9575: R_X86_64_64	caml_initialize
    957d:	48 89 b4 24 88 03 00 	mov    QWORD PTR [rsp+0x388],rsi
    9584:	00 
    9585:	4c 89 bc 24 90 03 00 	mov    QWORD PTR [rsp+0x390],r15
    958c:	00 
    958d:	48 89 9c 24 98 03 00 	mov    QWORD PTR [rsp+0x398],rbx
    9594:	00 
    9595:	48 89 bc 24 a0 03 00 	mov    QWORD PTR [rsp+0x3a0],rdi
    959c:	00 
    959d:	ff d0                	call   rax
    959f:	48 8b 9c 24 98 03 00 	mov    rbx,QWORD PTR [rsp+0x398]
    95a6:	00 
    95a7:	4c 8b bc 24 90 03 00 	mov    r15,QWORD PTR [rsp+0x390]
    95ae:	00 
    95af:	4c 89 ff             	mov    rdi,r15
    95b2:	48 81 c7 80 04 00 00 	add    rdi,0x480
    95b9:	48 8b b4 24 80 03 00 	mov    rsi,QWORD PTR [rsp+0x380]
    95c0:	00 
    95c1:	48 b8 00 00 00 00 00 	movabs rax,0x0
    95c8:	00 00 00 
			95c3: R_X86_64_64	caml_initialize
    95cb:	48 89 b4 24 80 03 00 	mov    QWORD PTR [rsp+0x380],rsi
    95d2:	00 
    95d3:	4c 89 bc 24 88 03 00 	mov    QWORD PTR [rsp+0x388],r15
    95da:	00 
    95db:	48 89 9c 24 90 03 00 	mov    QWORD PTR [rsp+0x390],rbx
    95e2:	00 
    95e3:	48 89 bc 24 98 03 00 	mov    QWORD PTR [rsp+0x398],rdi
    95ea:	00 
    95eb:	ff d0                	call   rax
    95ed:	48 8b 9c 24 90 03 00 	mov    rbx,QWORD PTR [rsp+0x390]
    95f4:	00 
    95f5:	4c 8b bc 24 88 03 00 	mov    r15,QWORD PTR [rsp+0x388]
    95fc:	00 
    95fd:	4c 89 ff             	mov    rdi,r15
    9600:	48 81 c7 88 04 00 00 	add    rdi,0x488
    9607:	48 8b b4 24 78 03 00 	mov    rsi,QWORD PTR [rsp+0x378]
    960e:	00 
    960f:	48 b8 00 00 00 00 00 	movabs rax,0x0
    9616:	00 00 00 
			9611: R_X86_64_64	caml_initialize
    9619:	48 89 b4 24 78 03 00 	mov    QWORD PTR [rsp+0x378],rsi
    9620:	00 
    9621:	4c 89 bc 24 80 03 00 	mov    QWORD PTR [rsp+0x380],r15
    9628:	00 
    9629:	48 89 9c 24 88 03 00 	mov    QWORD PTR [rsp+0x388],rbx
    9630:	00 
    9631:	48 89 bc 24 90 03 00 	mov    QWORD PTR [rsp+0x390],rdi
    9638:	00 
    9639:	ff d0                	call   rax
    963b:	48 8b 9c 24 88 03 00 	mov    rbx,QWORD PTR [rsp+0x388]
    9642:	00 
    9643:	4c 8b bc 24 80 03 00 	mov    r15,QWORD PTR [rsp+0x380]
    964a:	00 
    964b:	4c 89 ff             	mov    rdi,r15
    964e:	48 81 c7 90 04 00 00 	add    rdi,0x490
    9655:	48 8b b4 24 70 03 00 	mov    rsi,QWORD PTR [rsp+0x370]
    965c:	00 
    965d:	48 b8 00 00 00 00 00 	movabs rax,0x0
    9664:	00 00 00 
			965f: R_X86_64_64	caml_initialize
    9667:	48 89 b4 24 70 03 00 	mov    QWORD PTR [rsp+0x370],rsi
    966e:	00 
    966f:	4c 89 bc 24 78 03 00 	mov    QWORD PTR [rsp+0x378],r15
    9676:	00 
    9677:	48 89 9c 24 80 03 00 	mov    QWORD PTR [rsp+0x380],rbx
    967e:	00 
    967f:	48 89 bc 24 88 03 00 	mov    QWORD PTR [rsp+0x388],rdi
    9686:	00 
    9687:	ff d0                	call   rax
    9689:	48 8b 9c 24 80 03 00 	mov    rbx,QWORD PTR [rsp+0x380]
    9690:	00 
    9691:	4c 8b bc 24 78 03 00 	mov    r15,QWORD PTR [rsp+0x378]
    9698:	00 
    9699:	4c 89 ff             	mov    rdi,r15
    969c:	48 81 c7 98 04 00 00 	add    rdi,0x498
    96a3:	48 8b b4 24 68 03 00 	mov    rsi,QWORD PTR [rsp+0x368]
    96aa:	00 
    96ab:	48 b8 00 00 00 00 00 	movabs rax,0x0
    96b2:	00 00 00 
			96ad: R_X86_64_64	caml_initialize
    96b5:	48 89 b4 24 68 03 00 	mov    QWORD PTR [rsp+0x368],rsi
    96bc:	00 
    96bd:	4c 89 bc 24 70 03 00 	mov    QWORD PTR [rsp+0x370],r15
    96c4:	00 
    96c5:	48 89 9c 24 78 03 00 	mov    QWORD PTR [rsp+0x378],rbx
    96cc:	00 
    96cd:	48 89 bc 24 80 03 00 	mov    QWORD PTR [rsp+0x380],rdi
    96d4:	00 
    96d5:	ff d0                	call   rax
    96d7:	48 8b 9c 24 78 03 00 	mov    rbx,QWORD PTR [rsp+0x378]
    96de:	00 
    96df:	4c 8b bc 24 70 03 00 	mov    r15,QWORD PTR [rsp+0x370]
    96e6:	00 
    96e7:	4c 89 ff             	mov    rdi,r15
    96ea:	48 81 c7 a0 04 00 00 	add    rdi,0x4a0
    96f1:	48 8b b4 24 60 03 00 	mov    rsi,QWORD PTR [rsp+0x360]
    96f8:	00 
    96f9:	48 b8 00 00 00 00 00 	movabs rax,0x0
    9700:	00 00 00 
			96fb: R_X86_64_64	caml_initialize
    9703:	48 89 b4 24 60 03 00 	mov    QWORD PTR [rsp+0x360],rsi
    970a:	00 
    970b:	4c 89 bc 24 68 03 00 	mov    QWORD PTR [rsp+0x368],r15
    9712:	00 
    9713:	48 89 9c 24 70 03 00 	mov    QWORD PTR [rsp+0x370],rbx
    971a:	00 
    971b:	48 89 bc 24 78 03 00 	mov    QWORD PTR [rsp+0x378],rdi
    9722:	00 
    9723:	ff d0                	call   rax
    9725:	48 8b 9c 24 70 03 00 	mov    rbx,QWORD PTR [rsp+0x370]
    972c:	00 
    972d:	4c 8b bc 24 68 03 00 	mov    r15,QWORD PTR [rsp+0x368]
    9734:	00 
    9735:	4c 89 ff             	mov    rdi,r15
    9738:	48 81 c7 a8 04 00 00 	add    rdi,0x4a8
    973f:	48 8b b4 24 58 03 00 	mov    rsi,QWORD PTR [rsp+0x358]
    9746:	00 
    9747:	48 b8 00 00 00 00 00 	movabs rax,0x0
    974e:	00 00 00 
			9749: R_X86_64_64	caml_initialize
    9751:	48 89 b4 24 58 03 00 	mov    QWORD PTR [rsp+0x358],rsi
    9758:	00 
    9759:	4c 89 bc 24 60 03 00 	mov    QWORD PTR [rsp+0x360],r15
    9760:	00 
    9761:	48 89 9c 24 68 03 00 	mov    QWORD PTR [rsp+0x368],rbx
    9768:	00 
    9769:	48 89 bc 24 70 03 00 	mov    QWORD PTR [rsp+0x370],rdi
    9770:	00 
    9771:	ff d0                	call   rax
    9773:	48 8b 9c 24 68 03 00 	mov    rbx,QWORD PTR [rsp+0x368]
    977a:	00 
    977b:	4c 8b bc 24 60 03 00 	mov    r15,QWORD PTR [rsp+0x360]
    9782:	00 
    9783:	4c 89 ff             	mov    rdi,r15
    9786:	48 81 c7 b0 04 00 00 	add    rdi,0x4b0
    978d:	48 8b b4 24 50 03 00 	mov    rsi,QWORD PTR [rsp+0x350]
    9794:	00 
    9795:	48 b8 00 00 00 00 00 	movabs rax,0x0
    979c:	00 00 00 
			9797: R_X86_64_64	caml_initialize
    979f:	48 89 b4 24 50 03 00 	mov    QWORD PTR [rsp+0x350],rsi
    97a6:	00 
    97a7:	4c 89 bc 24 58 03 00 	mov    QWORD PTR [rsp+0x358],r15
    97ae:	00 
    97af:	48 89 9c 24 60 03 00 	mov    QWORD PTR [rsp+0x360],rbx
    97b6:	00 
    97b7:	48 89 bc 24 68 03 00 	mov    QWORD PTR [rsp+0x368],rdi
    97be:	00 
    97bf:	ff d0                	call   rax
    97c1:	48 8b 9c 24 60 03 00 	mov    rbx,QWORD PTR [rsp+0x360]
    97c8:	00 
    97c9:	4c 8b bc 24 58 03 00 	mov    r15,QWORD PTR [rsp+0x358]
    97d0:	00 
    97d1:	4c 89 ff             	mov    rdi,r15
    97d4:	48 81 c7 b8 04 00 00 	add    rdi,0x4b8
    97db:	48 8b b4 24 48 03 00 	mov    rsi,QWORD PTR [rsp+0x348]
    97e2:	00 
    97e3:	48 b8 00 00 00 00 00 	movabs rax,0x0
    97ea:	00 00 00 
			97e5: R_X86_64_64	caml_initialize
    97ed:	48 89 b4 24 48 03 00 	mov    QWORD PTR [rsp+0x348],rsi
    97f4:	00 
    97f5:	4c 89 bc 24 50 03 00 	mov    QWORD PTR [rsp+0x350],r15
    97fc:	00 
    97fd:	48 89 9c 24 58 03 00 	mov    QWORD PTR [rsp+0x358],rbx
    9804:	00 
    9805:	48 89 bc 24 60 03 00 	mov    QWORD PTR [rsp+0x360],rdi
    980c:	00 
    980d:	ff d0                	call   rax
    980f:	48 8b 9c 24 58 03 00 	mov    rbx,QWORD PTR [rsp+0x358]
    9816:	00 
    9817:	4c 8b bc 24 50 03 00 	mov    r15,QWORD PTR [rsp+0x350]
    981e:	00 
    981f:	4c 89 ff             	mov    rdi,r15
    9822:	48 81 c7 c0 04 00 00 	add    rdi,0x4c0
    9829:	48 8b b4 24 40 03 00 	mov    rsi,QWORD PTR [rsp+0x340]
    9830:	00 
    9831:	48 b8 00 00 00 00 00 	movabs rax,0x0
    9838:	00 00 00 
			9833: R_X86_64_64	caml_initialize
    983b:	48 89 b4 24 40 03 00 	mov    QWORD PTR [rsp+0x340],rsi
    9842:	00 
    9843:	4c 89 bc 24 48 03 00 	mov    QWORD PTR [rsp+0x348],r15
    984a:	00 
    984b:	48 89 9c 24 50 03 00 	mov    QWORD PTR [rsp+0x350],rbx
    9852:	00 
    9853:	48 89 bc 24 58 03 00 	mov    QWORD PTR [rsp+0x358],rdi
    985a:	00 
    985b:	ff d0                	call   rax
    985d:	48 8b 9c 24 50 03 00 	mov    rbx,QWORD PTR [rsp+0x350]
    9864:	00 
    9865:	4c 8b bc 24 48 03 00 	mov    r15,QWORD PTR [rsp+0x348]
    986c:	00 
    986d:	4c 89 ff             	mov    rdi,r15
    9870:	48 81 c7 c8 04 00 00 	add    rdi,0x4c8
    9877:	48 8b b4 24 38 03 00 	mov    rsi,QWORD PTR [rsp+0x338]
    987e:	00 
    987f:	48 b8 00 00 00 00 00 	movabs rax,0x0
    9886:	00 00 00 
			9881: R_X86_64_64	caml_initialize
    9889:	48 89 b4 24 38 03 00 	mov    QWORD PTR [rsp+0x338],rsi
    9890:	00 
    9891:	4c 89 bc 24 40 03 00 	mov    QWORD PTR [rsp+0x340],r15
    9898:	00 
    9899:	48 89 9c 24 48 03 00 	mov    QWORD PTR [rsp+0x348],rbx
    98a0:	00 
    98a1:	48 89 bc 24 50 03 00 	mov    QWORD PTR [rsp+0x350],rdi
    98a8:	00 
    98a9:	ff d0                	call   rax
    98ab:	48 8b 9c 24 48 03 00 	mov    rbx,QWORD PTR [rsp+0x348]
    98b2:	00 
    98b3:	4c 8b bc 24 40 03 00 	mov    r15,QWORD PTR [rsp+0x340]
    98ba:	00 
    98bb:	4c 89 ff             	mov    rdi,r15
    98be:	48 81 c7 d0 04 00 00 	add    rdi,0x4d0
    98c5:	48 8b b4 24 30 03 00 	mov    rsi,QWORD PTR [rsp+0x330]
    98cc:	00 
    98cd:	48 b8 00 00 00 00 00 	movabs rax,0x0
    98d4:	00 00 00 
			98cf: R_X86_64_64	caml_initialize
    98d7:	48 89 b4 24 30 03 00 	mov    QWORD PTR [rsp+0x330],rsi
    98de:	00 
    98df:	4c 89 bc 24 38 03 00 	mov    QWORD PTR [rsp+0x338],r15
    98e6:	00 
    98e7:	48 89 9c 24 40 03 00 	mov    QWORD PTR [rsp+0x340],rbx
    98ee:	00 
    98ef:	48 89 bc 24 48 03 00 	mov    QWORD PTR [rsp+0x348],rdi
    98f6:	00 
    98f7:	ff d0                	call   rax
    98f9:	48 8b 9c 24 40 03 00 	mov    rbx,QWORD PTR [rsp+0x340]
    9900:	00 
    9901:	4c 8b bc 24 38 03 00 	mov    r15,QWORD PTR [rsp+0x338]
    9908:	00 
    9909:	4c 89 ff             	mov    rdi,r15
    990c:	48 81 c7 d8 04 00 00 	add    rdi,0x4d8
    9913:	48 8b b4 24 28 03 00 	mov    rsi,QWORD PTR [rsp+0x328]
    991a:	00 
    991b:	48 b8 00 00 00 00 00 	movabs rax,0x0
    9922:	00 00 00 
			991d: R_X86_64_64	caml_initialize
    9925:	48 89 b4 24 28 03 00 	mov    QWORD PTR [rsp+0x328],rsi
    992c:	00 
    992d:	4c 89 bc 24 30 03 00 	mov    QWORD PTR [rsp+0x330],r15
    9934:	00 
    9935:	48 89 9c 24 38 03 00 	mov    QWORD PTR [rsp+0x338],rbx
    993c:	00 
    993d:	48 89 bc 24 40 03 00 	mov    QWORD PTR [rsp+0x340],rdi
    9944:	00 
    9945:	ff d0                	call   rax
    9947:	48 8b 9c 24 38 03 00 	mov    rbx,QWORD PTR [rsp+0x338]
    994e:	00 
    994f:	4c 8b bc 24 30 03 00 	mov    r15,QWORD PTR [rsp+0x330]
    9956:	00 
    9957:	4c 89 ff             	mov    rdi,r15
    995a:	48 81 c7 e0 04 00 00 	add    rdi,0x4e0
    9961:	48 8b b4 24 20 03 00 	mov    rsi,QWORD PTR [rsp+0x320]
    9968:	00 
    9969:	48 b8 00 00 00 00 00 	movabs rax,0x0
    9970:	00 00 00 
			996b: R_X86_64_64	caml_initialize
    9973:	48 89 b4 24 20 03 00 	mov    QWORD PTR [rsp+0x320],rsi
    997a:	00 
    997b:	4c 89 bc 24 28 03 00 	mov    QWORD PTR [rsp+0x328],r15
    9982:	00 
    9983:	48 89 9c 24 30 03 00 	mov    QWORD PTR [rsp+0x330],rbx
    998a:	00 
    998b:	48 89 bc 24 38 03 00 	mov    QWORD PTR [rsp+0x338],rdi
    9992:	00 
    9993:	ff d0                	call   rax
    9995:	48 8b 9c 24 30 03 00 	mov    rbx,QWORD PTR [rsp+0x330]
    999c:	00 
    999d:	4c 8b bc 24 28 03 00 	mov    r15,QWORD PTR [rsp+0x328]
    99a4:	00 
    99a5:	4c 89 ff             	mov    rdi,r15
    99a8:	48 81 c7 e8 04 00 00 	add    rdi,0x4e8
    99af:	48 8b b4 24 18 03 00 	mov    rsi,QWORD PTR [rsp+0x318]
    99b6:	00 
    99b7:	48 b8 00 00 00 00 00 	movabs rax,0x0
    99be:	00 00 00 
			99b9: R_X86_64_64	caml_initialize
    99c1:	48 89 b4 24 18 03 00 	mov    QWORD PTR [rsp+0x318],rsi
    99c8:	00 
    99c9:	4c 89 bc 24 20 03 00 	mov    QWORD PTR [rsp+0x320],r15
    99d0:	00 
    99d1:	48 89 9c 24 28 03 00 	mov    QWORD PTR [rsp+0x328],rbx
    99d8:	00 
    99d9:	48 89 bc 24 30 03 00 	mov    QWORD PTR [rsp+0x330],rdi
    99e0:	00 
    99e1:	ff d0                	call   rax
    99e3:	48 8b 9c 24 28 03 00 	mov    rbx,QWORD PTR [rsp+0x328]
    99ea:	00 
    99eb:	4c 8b bc 24 20 03 00 	mov    r15,QWORD PTR [rsp+0x320]
    99f2:	00 
    99f3:	4c 89 ff             	mov    rdi,r15
    99f6:	48 81 c7 f0 04 00 00 	add    rdi,0x4f0
    99fd:	48 8b b4 24 10 03 00 	mov    rsi,QWORD PTR [rsp+0x310]
    9a04:	00 
    9a05:	48 b8 00 00 00 00 00 	movabs rax,0x0
    9a0c:	00 00 00 
			9a07: R_X86_64_64	caml_initialize
    9a0f:	48 89 b4 24 10 03 00 	mov    QWORD PTR [rsp+0x310],rsi
    9a16:	00 
    9a17:	4c 89 bc 24 18 03 00 	mov    QWORD PTR [rsp+0x318],r15
    9a1e:	00 
    9a1f:	48 89 9c 24 20 03 00 	mov    QWORD PTR [rsp+0x320],rbx
    9a26:	00 
    9a27:	48 89 bc 24 28 03 00 	mov    QWORD PTR [rsp+0x328],rdi
    9a2e:	00 
    9a2f:	ff d0                	call   rax
    9a31:	48 8b 9c 24 20 03 00 	mov    rbx,QWORD PTR [rsp+0x320]
    9a38:	00 
    9a39:	4c 8b bc 24 18 03 00 	mov    r15,QWORD PTR [rsp+0x318]
    9a40:	00 
    9a41:	4c 89 ff             	mov    rdi,r15
    9a44:	48 81 c7 f8 04 00 00 	add    rdi,0x4f8
    9a4b:	48 8b b4 24 08 03 00 	mov    rsi,QWORD PTR [rsp+0x308]
    9a52:	00 
    9a53:	48 b8 00 00 00 00 00 	movabs rax,0x0
    9a5a:	00 00 00 
			9a55: R_X86_64_64	caml_initialize
    9a5d:	48 89 b4 24 08 03 00 	mov    QWORD PTR [rsp+0x308],rsi
    9a64:	00 
    9a65:	4c 89 bc 24 10 03 00 	mov    QWORD PTR [rsp+0x310],r15
    9a6c:	00 
    9a6d:	48 89 9c 24 18 03 00 	mov    QWORD PTR [rsp+0x318],rbx
    9a74:	00 
    9a75:	48 89 bc 24 20 03 00 	mov    QWORD PTR [rsp+0x320],rdi
    9a7c:	00 
    9a7d:	ff d0                	call   rax
    9a7f:	48 8b 9c 24 18 03 00 	mov    rbx,QWORD PTR [rsp+0x318]
    9a86:	00 
    9a87:	4c 8b bc 24 10 03 00 	mov    r15,QWORD PTR [rsp+0x310]
    9a8e:	00 
    9a8f:	4c 89 ff             	mov    rdi,r15
    9a92:	48 81 c7 00 05 00 00 	add    rdi,0x500
    9a99:	48 8b b4 24 00 03 00 	mov    rsi,QWORD PTR [rsp+0x300]
    9aa0:	00 
    9aa1:	48 b8 00 00 00 00 00 	movabs rax,0x0
    9aa8:	00 00 00 
			9aa3: R_X86_64_64	caml_initialize
    9aab:	48 89 b4 24 00 03 00 	mov    QWORD PTR [rsp+0x300],rsi
    9ab2:	00 
    9ab3:	4c 89 bc 24 08 03 00 	mov    QWORD PTR [rsp+0x308],r15
    9aba:	00 
    9abb:	48 89 9c 24 10 03 00 	mov    QWORD PTR [rsp+0x310],rbx
    9ac2:	00 
    9ac3:	48 89 bc 24 18 03 00 	mov    QWORD PTR [rsp+0x318],rdi
    9aca:	00 
    9acb:	ff d0                	call   rax
    9acd:	48 8b 9c 24 10 03 00 	mov    rbx,QWORD PTR [rsp+0x310]
    9ad4:	00 
    9ad5:	4c 8b bc 24 08 03 00 	mov    r15,QWORD PTR [rsp+0x308]
    9adc:	00 
    9add:	4c 89 ff             	mov    rdi,r15
    9ae0:	48 81 c7 08 05 00 00 	add    rdi,0x508
    9ae7:	48 8b b4 24 f8 02 00 	mov    rsi,QWORD PTR [rsp+0x2f8]
    9aee:	00 
    9aef:	48 b8 00 00 00 00 00 	movabs rax,0x0
    9af6:	00 00 00 
			9af1: R_X86_64_64	caml_initialize
    9af9:	48 89 b4 24 f8 02 00 	mov    QWORD PTR [rsp+0x2f8],rsi
    9b00:	00 
    9b01:	4c 89 bc 24 00 03 00 	mov    QWORD PTR [rsp+0x300],r15
    9b08:	00 
    9b09:	48 89 9c 24 08 03 00 	mov    QWORD PTR [rsp+0x308],rbx
    9b10:	00 
    9b11:	48 89 bc 24 10 03 00 	mov    QWORD PTR [rsp+0x310],rdi
    9b18:	00 
    9b19:	ff d0                	call   rax
    9b1b:	48 8b 9c 24 08 03 00 	mov    rbx,QWORD PTR [rsp+0x308]
    9b22:	00 
    9b23:	4c 8b bc 24 00 03 00 	mov    r15,QWORD PTR [rsp+0x300]
    9b2a:	00 
    9b2b:	4c 89 ff             	mov    rdi,r15
    9b2e:	48 81 c7 10 05 00 00 	add    rdi,0x510
    9b35:	48 8b b4 24 f0 02 00 	mov    rsi,QWORD PTR [rsp+0x2f0]
    9b3c:	00 
    9b3d:	48 b8 00 00 00 00 00 	movabs rax,0x0
    9b44:	00 00 00 
			9b3f: R_X86_64_64	caml_initialize
    9b47:	48 89 b4 24 f0 02 00 	mov    QWORD PTR [rsp+0x2f0],rsi
    9b4e:	00 
    9b4f:	4c 89 bc 24 f8 02 00 	mov    QWORD PTR [rsp+0x2f8],r15
    9b56:	00 
    9b57:	48 89 9c 24 00 03 00 	mov    QWORD PTR [rsp+0x300],rbx
    9b5e:	00 
    9b5f:	48 89 bc 24 08 03 00 	mov    QWORD PTR [rsp+0x308],rdi
    9b66:	00 
    9b67:	ff d0                	call   rax
    9b69:	48 8b 9c 24 00 03 00 	mov    rbx,QWORD PTR [rsp+0x300]
    9b70:	00 
    9b71:	4c 8b bc 24 f8 02 00 	mov    r15,QWORD PTR [rsp+0x2f8]
    9b78:	00 
    9b79:	4c 89 ff             	mov    rdi,r15
    9b7c:	48 81 c7 18 05 00 00 	add    rdi,0x518
    9b83:	48 8b b4 24 e8 02 00 	mov    rsi,QWORD PTR [rsp+0x2e8]
    9b8a:	00 
    9b8b:	48 b8 00 00 00 00 00 	movabs rax,0x0
    9b92:	00 00 00 
			9b8d: R_X86_64_64	caml_initialize
    9b95:	48 89 b4 24 e8 02 00 	mov    QWORD PTR [rsp+0x2e8],rsi
    9b9c:	00 
    9b9d:	4c 89 bc 24 f0 02 00 	mov    QWORD PTR [rsp+0x2f0],r15
    9ba4:	00 
    9ba5:	48 89 9c 24 f8 02 00 	mov    QWORD PTR [rsp+0x2f8],rbx
    9bac:	00 
    9bad:	48 89 bc 24 00 03 00 	mov    QWORD PTR [rsp+0x300],rdi
    9bb4:	00 
    9bb5:	ff d0                	call   rax
    9bb7:	48 8b 9c 24 f8 02 00 	mov    rbx,QWORD PTR [rsp+0x2f8]
    9bbe:	00 
    9bbf:	4c 8b bc 24 f0 02 00 	mov    r15,QWORD PTR [rsp+0x2f0]
    9bc6:	00 
    9bc7:	4c 89 ff             	mov    rdi,r15
    9bca:	48 81 c7 20 05 00 00 	add    rdi,0x520
    9bd1:	48 8b b4 24 e0 02 00 	mov    rsi,QWORD PTR [rsp+0x2e0]
    9bd8:	00 
    9bd9:	48 b8 00 00 00 00 00 	movabs rax,0x0
    9be0:	00 00 00 
			9bdb: R_X86_64_64	caml_initialize
    9be3:	48 89 b4 24 e0 02 00 	mov    QWORD PTR [rsp+0x2e0],rsi
    9bea:	00 
    9beb:	4c 89 bc 24 e8 02 00 	mov    QWORD PTR [rsp+0x2e8],r15
    9bf2:	00 
    9bf3:	48 89 9c 24 f0 02 00 	mov    QWORD PTR [rsp+0x2f0],rbx
    9bfa:	00 
    9bfb:	48 89 bc 24 f8 02 00 	mov    QWORD PTR [rsp+0x2f8],rdi
    9c02:	00 
    9c03:	ff d0                	call   rax
    9c05:	48 8b 9c 24 f0 02 00 	mov    rbx,QWORD PTR [rsp+0x2f0]
    9c0c:	00 
    9c0d:	4c 8b bc 24 e8 02 00 	mov    r15,QWORD PTR [rsp+0x2e8]
    9c14:	00 
    9c15:	4c 89 ff             	mov    rdi,r15
    9c18:	48 81 c7 28 05 00 00 	add    rdi,0x528
    9c1f:	48 8b b4 24 d8 02 00 	mov    rsi,QWORD PTR [rsp+0x2d8]
    9c26:	00 
    9c27:	48 b8 00 00 00 00 00 	movabs rax,0x0
    9c2e:	00 00 00 
			9c29: R_X86_64_64	caml_initialize
    9c31:	48 89 b4 24 d8 02 00 	mov    QWORD PTR [rsp+0x2d8],rsi
    9c38:	00 
    9c39:	4c 89 bc 24 e0 02 00 	mov    QWORD PTR [rsp+0x2e0],r15
    9c40:	00 
    9c41:	48 89 9c 24 e8 02 00 	mov    QWORD PTR [rsp+0x2e8],rbx
    9c48:	00 
    9c49:	48 89 bc 24 f0 02 00 	mov    QWORD PTR [rsp+0x2f0],rdi
    9c50:	00 
    9c51:	ff d0                	call   rax
    9c53:	48 8b 9c 24 e8 02 00 	mov    rbx,QWORD PTR [rsp+0x2e8]
    9c5a:	00 
    9c5b:	4c 8b bc 24 e0 02 00 	mov    r15,QWORD PTR [rsp+0x2e0]
    9c62:	00 
    9c63:	4c 89 ff             	mov    rdi,r15
    9c66:	48 81 c7 30 05 00 00 	add    rdi,0x530
    9c6d:	48 8b b4 24 d0 02 00 	mov    rsi,QWORD PTR [rsp+0x2d0]
    9c74:	00 
    9c75:	48 b8 00 00 00 00 00 	movabs rax,0x0
    9c7c:	00 00 00 
			9c77: R_X86_64_64	caml_initialize
    9c7f:	48 89 b4 24 d0 02 00 	mov    QWORD PTR [rsp+0x2d0],rsi
    9c86:	00 
    9c87:	4c 89 bc 24 d8 02 00 	mov    QWORD PTR [rsp+0x2d8],r15
    9c8e:	00 
    9c8f:	48 89 9c 24 e0 02 00 	mov    QWORD PTR [rsp+0x2e0],rbx
    9c96:	00 
    9c97:	48 89 bc 24 e8 02 00 	mov    QWORD PTR [rsp+0x2e8],rdi
    9c9e:	00 
    9c9f:	ff d0                	call   rax
    9ca1:	48 8b 9c 24 e0 02 00 	mov    rbx,QWORD PTR [rsp+0x2e0]
    9ca8:	00 
    9ca9:	4c 8b bc 24 d8 02 00 	mov    r15,QWORD PTR [rsp+0x2d8]
    9cb0:	00 
    9cb1:	4c 89 ff             	mov    rdi,r15
    9cb4:	48 81 c7 38 05 00 00 	add    rdi,0x538
    9cbb:	48 8b b4 24 c8 02 00 	mov    rsi,QWORD PTR [rsp+0x2c8]
    9cc2:	00 
    9cc3:	48 b8 00 00 00 00 00 	movabs rax,0x0
    9cca:	00 00 00 
			9cc5: R_X86_64_64	caml_initialize
    9ccd:	48 89 b4 24 c8 02 00 	mov    QWORD PTR [rsp+0x2c8],rsi
    9cd4:	00 
    9cd5:	4c 89 bc 24 d0 02 00 	mov    QWORD PTR [rsp+0x2d0],r15
    9cdc:	00 
    9cdd:	48 89 9c 24 d8 02 00 	mov    QWORD PTR [rsp+0x2d8],rbx
    9ce4:	00 
    9ce5:	48 89 bc 24 e0 02 00 	mov    QWORD PTR [rsp+0x2e0],rdi
    9cec:	00 
    9ced:	ff d0                	call   rax
    9cef:	48 8b 9c 24 d8 02 00 	mov    rbx,QWORD PTR [rsp+0x2d8]
    9cf6:	00 
    9cf7:	4c 8b bc 24 d0 02 00 	mov    r15,QWORD PTR [rsp+0x2d0]
    9cfe:	00 
    9cff:	4c 89 ff             	mov    rdi,r15
    9d02:	48 81 c7 40 05 00 00 	add    rdi,0x540
    9d09:	48 8b b4 24 c0 02 00 	mov    rsi,QWORD PTR [rsp+0x2c0]
    9d10:	00 
    9d11:	48 b8 00 00 00 00 00 	movabs rax,0x0
    9d18:	00 00 00 
			9d13: R_X86_64_64	caml_initialize
    9d1b:	48 89 b4 24 c0 02 00 	mov    QWORD PTR [rsp+0x2c0],rsi
    9d22:	00 
    9d23:	4c 89 bc 24 c8 02 00 	mov    QWORD PTR [rsp+0x2c8],r15
    9d2a:	00 
    9d2b:	48 89 9c 24 d0 02 00 	mov    QWORD PTR [rsp+0x2d0],rbx
    9d32:	00 
    9d33:	48 89 bc 24 d8 02 00 	mov    QWORD PTR [rsp+0x2d8],rdi
    9d3a:	00 
    9d3b:	ff d0                	call   rax
    9d3d:	48 8b 9c 24 d0 02 00 	mov    rbx,QWORD PTR [rsp+0x2d0]
    9d44:	00 
    9d45:	4c 8b bc 24 c8 02 00 	mov    r15,QWORD PTR [rsp+0x2c8]
    9d4c:	00 
    9d4d:	4c 89 ff             	mov    rdi,r15
    9d50:	48 81 c7 48 05 00 00 	add    rdi,0x548
    9d57:	48 8b b4 24 b8 02 00 	mov    rsi,QWORD PTR [rsp+0x2b8]
    9d5e:	00 
    9d5f:	48 b8 00 00 00 00 00 	movabs rax,0x0
    9d66:	00 00 00 
			9d61: R_X86_64_64	caml_initialize
    9d69:	48 89 b4 24 b8 02 00 	mov    QWORD PTR [rsp+0x2b8],rsi
    9d70:	00 
    9d71:	4c 89 bc 24 c0 02 00 	mov    QWORD PTR [rsp+0x2c0],r15
    9d78:	00 
    9d79:	48 89 9c 24 c8 02 00 	mov    QWORD PTR [rsp+0x2c8],rbx
    9d80:	00 
    9d81:	48 89 bc 24 d0 02 00 	mov    QWORD PTR [rsp+0x2d0],rdi
    9d88:	00 
    9d89:	ff d0                	call   rax
    9d8b:	48 8b 9c 24 c8 02 00 	mov    rbx,QWORD PTR [rsp+0x2c8]
    9d92:	00 
    9d93:	4c 8b bc 24 c0 02 00 	mov    r15,QWORD PTR [rsp+0x2c0]
    9d9a:	00 
    9d9b:	4c 89 ff             	mov    rdi,r15
    9d9e:	48 81 c7 50 05 00 00 	add    rdi,0x550
    9da5:	48 8b b4 24 b0 02 00 	mov    rsi,QWORD PTR [rsp+0x2b0]
    9dac:	00 
    9dad:	48 b8 00 00 00 00 00 	movabs rax,0x0
    9db4:	00 00 00 
			9daf: R_X86_64_64	caml_initialize
    9db7:	48 89 b4 24 b0 02 00 	mov    QWORD PTR [rsp+0x2b0],rsi
    9dbe:	00 
    9dbf:	4c 89 bc 24 b8 02 00 	mov    QWORD PTR [rsp+0x2b8],r15
    9dc6:	00 
    9dc7:	48 89 9c 24 c0 02 00 	mov    QWORD PTR [rsp+0x2c0],rbx
    9dce:	00 
    9dcf:	48 89 bc 24 c8 02 00 	mov    QWORD PTR [rsp+0x2c8],rdi
    9dd6:	00 
    9dd7:	ff d0                	call   rax
    9dd9:	48 8b 9c 24 c0 02 00 	mov    rbx,QWORD PTR [rsp+0x2c0]
    9de0:	00 
    9de1:	4c 8b bc 24 b8 02 00 	mov    r15,QWORD PTR [rsp+0x2b8]
    9de8:	00 
    9de9:	4c 89 ff             	mov    rdi,r15
    9dec:	48 81 c7 58 05 00 00 	add    rdi,0x558
    9df3:	48 8b b4 24 a8 02 00 	mov    rsi,QWORD PTR [rsp+0x2a8]
    9dfa:	00 
    9dfb:	48 b8 00 00 00 00 00 	movabs rax,0x0
    9e02:	00 00 00 
			9dfd: R_X86_64_64	caml_initialize
    9e05:	48 89 b4 24 a8 02 00 	mov    QWORD PTR [rsp+0x2a8],rsi
    9e0c:	00 
    9e0d:	4c 89 bc 24 b0 02 00 	mov    QWORD PTR [rsp+0x2b0],r15
    9e14:	00 
    9e15:	48 89 9c 24 b8 02 00 	mov    QWORD PTR [rsp+0x2b8],rbx
    9e1c:	00 
    9e1d:	48 89 bc 24 c0 02 00 	mov    QWORD PTR [rsp+0x2c0],rdi
    9e24:	00 
    9e25:	ff d0                	call   rax
    9e27:	48 8b 9c 24 b8 02 00 	mov    rbx,QWORD PTR [rsp+0x2b8]
    9e2e:	00 
    9e2f:	4c 8b bc 24 b0 02 00 	mov    r15,QWORD PTR [rsp+0x2b0]
    9e36:	00 
    9e37:	4c 89 ff             	mov    rdi,r15
    9e3a:	48 81 c7 60 05 00 00 	add    rdi,0x560
    9e41:	48 8b b4 24 a0 02 00 	mov    rsi,QWORD PTR [rsp+0x2a0]
    9e48:	00 
    9e49:	48 b8 00 00 00 00 00 	movabs rax,0x0
    9e50:	00 00 00 
			9e4b: R_X86_64_64	caml_initialize
    9e53:	48 89 b4 24 a0 02 00 	mov    QWORD PTR [rsp+0x2a0],rsi
    9e5a:	00 
    9e5b:	4c 89 bc 24 a8 02 00 	mov    QWORD PTR [rsp+0x2a8],r15
    9e62:	00 
    9e63:	48 89 9c 24 b0 02 00 	mov    QWORD PTR [rsp+0x2b0],rbx
    9e6a:	00 
    9e6b:	48 89 bc 24 b8 02 00 	mov    QWORD PTR [rsp+0x2b8],rdi
    9e72:	00 
    9e73:	ff d0                	call   rax
    9e75:	48 8b 9c 24 b0 02 00 	mov    rbx,QWORD PTR [rsp+0x2b0]
    9e7c:	00 
    9e7d:	4c 8b bc 24 a8 02 00 	mov    r15,QWORD PTR [rsp+0x2a8]
    9e84:	00 
    9e85:	4c 89 ff             	mov    rdi,r15
    9e88:	48 81 c7 68 05 00 00 	add    rdi,0x568
    9e8f:	48 8b b4 24 98 02 00 	mov    rsi,QWORD PTR [rsp+0x298]
    9e96:	00 
    9e97:	48 b8 00 00 00 00 00 	movabs rax,0x0
    9e9e:	00 00 00 
			9e99: R_X86_64_64	caml_initialize
    9ea1:	48 89 b4 24 98 02 00 	mov    QWORD PTR [rsp+0x298],rsi
    9ea8:	00 
    9ea9:	4c 89 bc 24 a0 02 00 	mov    QWORD PTR [rsp+0x2a0],r15
    9eb0:	00 
    9eb1:	48 89 9c 24 a8 02 00 	mov    QWORD PTR [rsp+0x2a8],rbx
    9eb8:	00 
    9eb9:	48 89 bc 24 b0 02 00 	mov    QWORD PTR [rsp+0x2b0],rdi
    9ec0:	00 
    9ec1:	ff d0                	call   rax
    9ec3:	48 8b 9c 24 a8 02 00 	mov    rbx,QWORD PTR [rsp+0x2a8]
    9eca:	00 
    9ecb:	4c 8b bc 24 a0 02 00 	mov    r15,QWORD PTR [rsp+0x2a0]
    9ed2:	00 
    9ed3:	4c 89 ff             	mov    rdi,r15
    9ed6:	48 81 c7 70 05 00 00 	add    rdi,0x570
    9edd:	48 8b b4 24 90 02 00 	mov    rsi,QWORD PTR [rsp+0x290]
    9ee4:	00 
    9ee5:	48 b8 00 00 00 00 00 	movabs rax,0x0
    9eec:	00 00 00 
			9ee7: R_X86_64_64	caml_initialize
    9eef:	48 89 b4 24 90 02 00 	mov    QWORD PTR [rsp+0x290],rsi
    9ef6:	00 
    9ef7:	4c 89 bc 24 98 02 00 	mov    QWORD PTR [rsp+0x298],r15
    9efe:	00 
    9eff:	48 89 9c 24 a0 02 00 	mov    QWORD PTR [rsp+0x2a0],rbx
    9f06:	00 
    9f07:	48 89 bc 24 a8 02 00 	mov    QWORD PTR [rsp+0x2a8],rdi
    9f0e:	00 
    9f0f:	ff d0                	call   rax
    9f11:	48 8b 9c 24 a0 02 00 	mov    rbx,QWORD PTR [rsp+0x2a0]
    9f18:	00 
    9f19:	4c 8b bc 24 98 02 00 	mov    r15,QWORD PTR [rsp+0x298]
    9f20:	00 
    9f21:	4c 89 ff             	mov    rdi,r15
    9f24:	48 81 c7 78 05 00 00 	add    rdi,0x578
    9f2b:	48 8b b4 24 88 02 00 	mov    rsi,QWORD PTR [rsp+0x288]
    9f32:	00 
    9f33:	48 b8 00 00 00 00 00 	movabs rax,0x0
    9f3a:	00 00 00 
			9f35: R_X86_64_64	caml_initialize
    9f3d:	48 89 b4 24 88 02 00 	mov    QWORD PTR [rsp+0x288],rsi
    9f44:	00 
    9f45:	4c 89 bc 24 90 02 00 	mov    QWORD PTR [rsp+0x290],r15
    9f4c:	00 
    9f4d:	48 89 9c 24 98 02 00 	mov    QWORD PTR [rsp+0x298],rbx
    9f54:	00 
    9f55:	48 89 bc 24 a0 02 00 	mov    QWORD PTR [rsp+0x2a0],rdi
    9f5c:	00 
    9f5d:	ff d0                	call   rax
    9f5f:	48 8b 9c 24 98 02 00 	mov    rbx,QWORD PTR [rsp+0x298]
    9f66:	00 
    9f67:	4c 8b bc 24 90 02 00 	mov    r15,QWORD PTR [rsp+0x290]
    9f6e:	00 
    9f6f:	4c 89 ff             	mov    rdi,r15
    9f72:	48 81 c7 80 05 00 00 	add    rdi,0x580
    9f79:	48 8b b4 24 80 02 00 	mov    rsi,QWORD PTR [rsp+0x280]
    9f80:	00 
    9f81:	48 b8 00 00 00 00 00 	movabs rax,0x0
    9f88:	00 00 00 
			9f83: R_X86_64_64	caml_initialize
    9f8b:	48 89 b4 24 80 02 00 	mov    QWORD PTR [rsp+0x280],rsi
    9f92:	00 
    9f93:	4c 89 bc 24 88 02 00 	mov    QWORD PTR [rsp+0x288],r15
    9f9a:	00 
    9f9b:	48 89 9c 24 90 02 00 	mov    QWORD PTR [rsp+0x290],rbx
    9fa2:	00 
    9fa3:	48 89 bc 24 98 02 00 	mov    QWORD PTR [rsp+0x298],rdi
    9faa:	00 
    9fab:	ff d0                	call   rax
    9fad:	48 8b 9c 24 90 02 00 	mov    rbx,QWORD PTR [rsp+0x290]
    9fb4:	00 
    9fb5:	4c 8b bc 24 88 02 00 	mov    r15,QWORD PTR [rsp+0x288]
    9fbc:	00 
    9fbd:	4c 89 ff             	mov    rdi,r15
    9fc0:	48 81 c7 88 05 00 00 	add    rdi,0x588
    9fc7:	48 8b b4 24 78 02 00 	mov    rsi,QWORD PTR [rsp+0x278]
    9fce:	00 
    9fcf:	48 b8 00 00 00 00 00 	movabs rax,0x0
    9fd6:	00 00 00 
			9fd1: R_X86_64_64	caml_initialize
    9fd9:	48 89 b4 24 78 02 00 	mov    QWORD PTR [rsp+0x278],rsi
    9fe0:	00 
    9fe1:	4c 89 bc 24 80 02 00 	mov    QWORD PTR [rsp+0x280],r15
    9fe8:	00 
    9fe9:	48 89 9c 24 88 02 00 	mov    QWORD PTR [rsp+0x288],rbx
    9ff0:	00 
    9ff1:	48 89 bc 24 90 02 00 	mov    QWORD PTR [rsp+0x290],rdi
    9ff8:	00 
    9ff9:	ff d0                	call   rax
    9ffb:	48 8b 9c 24 88 02 00 	mov    rbx,QWORD PTR [rsp+0x288]
    a002:	00 
    a003:	4c 8b bc 24 80 02 00 	mov    r15,QWORD PTR [rsp+0x280]
    a00a:	00 
    a00b:	4c 89 ff             	mov    rdi,r15
    a00e:	48 81 c7 90 05 00 00 	add    rdi,0x590
    a015:	48 8b b4 24 70 02 00 	mov    rsi,QWORD PTR [rsp+0x270]
    a01c:	00 
    a01d:	48 b8 00 00 00 00 00 	movabs rax,0x0
    a024:	00 00 00 
			a01f: R_X86_64_64	caml_initialize
    a027:	48 89 b4 24 70 02 00 	mov    QWORD PTR [rsp+0x270],rsi
    a02e:	00 
    a02f:	4c 89 bc 24 78 02 00 	mov    QWORD PTR [rsp+0x278],r15
    a036:	00 
    a037:	48 89 9c 24 80 02 00 	mov    QWORD PTR [rsp+0x280],rbx
    a03e:	00 
    a03f:	48 89 bc 24 88 02 00 	mov    QWORD PTR [rsp+0x288],rdi
    a046:	00 
    a047:	ff d0                	call   rax
    a049:	48 8b 9c 24 80 02 00 	mov    rbx,QWORD PTR [rsp+0x280]
    a050:	00 
    a051:	4c 8b bc 24 78 02 00 	mov    r15,QWORD PTR [rsp+0x278]
    a058:	00 
    a059:	4c 89 ff             	mov    rdi,r15
    a05c:	48 81 c7 98 05 00 00 	add    rdi,0x598
    a063:	48 8b b4 24 68 02 00 	mov    rsi,QWORD PTR [rsp+0x268]
    a06a:	00 
    a06b:	48 b8 00 00 00 00 00 	movabs rax,0x0
    a072:	00 00 00 
			a06d: R_X86_64_64	caml_initialize
    a075:	48 89 b4 24 68 02 00 	mov    QWORD PTR [rsp+0x268],rsi
    a07c:	00 
    a07d:	4c 89 bc 24 70 02 00 	mov    QWORD PTR [rsp+0x270],r15
    a084:	00 
    a085:	48 89 9c 24 78 02 00 	mov    QWORD PTR [rsp+0x278],rbx
    a08c:	00 
    a08d:	48 89 bc 24 80 02 00 	mov    QWORD PTR [rsp+0x280],rdi
    a094:	00 
    a095:	ff d0                	call   rax
    a097:	48 8b 9c 24 78 02 00 	mov    rbx,QWORD PTR [rsp+0x278]
    a09e:	00 
    a09f:	4c 8b bc 24 70 02 00 	mov    r15,QWORD PTR [rsp+0x270]
    a0a6:	00 
    a0a7:	4c 89 ff             	mov    rdi,r15
    a0aa:	48 81 c7 a0 05 00 00 	add    rdi,0x5a0
    a0b1:	48 8b b4 24 60 02 00 	mov    rsi,QWORD PTR [rsp+0x260]
    a0b8:	00 
    a0b9:	48 b8 00 00 00 00 00 	movabs rax,0x0
    a0c0:	00 00 00 
			a0bb: R_X86_64_64	caml_initialize
    a0c3:	48 89 b4 24 60 02 00 	mov    QWORD PTR [rsp+0x260],rsi
    a0ca:	00 
    a0cb:	4c 89 bc 24 68 02 00 	mov    QWORD PTR [rsp+0x268],r15
    a0d2:	00 
    a0d3:	48 89 9c 24 70 02 00 	mov    QWORD PTR [rsp+0x270],rbx
    a0da:	00 
    a0db:	48 89 bc 24 78 02 00 	mov    QWORD PTR [rsp+0x278],rdi
    a0e2:	00 
    a0e3:	ff d0                	call   rax
    a0e5:	48 8b 9c 24 70 02 00 	mov    rbx,QWORD PTR [rsp+0x270]
    a0ec:	00 
    a0ed:	4c 8b bc 24 68 02 00 	mov    r15,QWORD PTR [rsp+0x268]
    a0f4:	00 
    a0f5:	4c 89 ff             	mov    rdi,r15
    a0f8:	48 81 c7 a8 05 00 00 	add    rdi,0x5a8
    a0ff:	48 8b b4 24 58 02 00 	mov    rsi,QWORD PTR [rsp+0x258]
    a106:	00 
    a107:	48 b8 00 00 00 00 00 	movabs rax,0x0
    a10e:	00 00 00 
			a109: R_X86_64_64	caml_initialize
    a111:	48 89 b4 24 58 02 00 	mov    QWORD PTR [rsp+0x258],rsi
    a118:	00 
    a119:	4c 89 bc 24 60 02 00 	mov    QWORD PTR [rsp+0x260],r15
    a120:	00 
    a121:	48 89 9c 24 68 02 00 	mov    QWORD PTR [rsp+0x268],rbx
    a128:	00 
    a129:	48 89 bc 24 70 02 00 	mov    QWORD PTR [rsp+0x270],rdi
    a130:	00 
    a131:	ff d0                	call   rax
    a133:	48 8b 9c 24 68 02 00 	mov    rbx,QWORD PTR [rsp+0x268]
    a13a:	00 
    a13b:	4c 8b bc 24 60 02 00 	mov    r15,QWORD PTR [rsp+0x260]
    a142:	00 
    a143:	4c 89 ff             	mov    rdi,r15
    a146:	48 81 c7 b0 05 00 00 	add    rdi,0x5b0
    a14d:	48 8b b4 24 50 02 00 	mov    rsi,QWORD PTR [rsp+0x250]
    a154:	00 
    a155:	48 b8 00 00 00 00 00 	movabs rax,0x0
    a15c:	00 00 00 
			a157: R_X86_64_64	caml_initialize
    a15f:	48 89 b4 24 50 02 00 	mov    QWORD PTR [rsp+0x250],rsi
    a166:	00 
    a167:	4c 89 bc 24 58 02 00 	mov    QWORD PTR [rsp+0x258],r15
    a16e:	00 
    a16f:	48 89 9c 24 60 02 00 	mov    QWORD PTR [rsp+0x260],rbx
    a176:	00 
    a177:	48 89 bc 24 68 02 00 	mov    QWORD PTR [rsp+0x268],rdi
    a17e:	00 
    a17f:	ff d0                	call   rax
    a181:	48 8b 9c 24 60 02 00 	mov    rbx,QWORD PTR [rsp+0x260]
    a188:	00 
    a189:	4c 8b bc 24 58 02 00 	mov    r15,QWORD PTR [rsp+0x258]
    a190:	00 
    a191:	4c 89 ff             	mov    rdi,r15
    a194:	48 81 c7 b8 05 00 00 	add    rdi,0x5b8
    a19b:	48 8b b4 24 48 02 00 	mov    rsi,QWORD PTR [rsp+0x248]
    a1a2:	00 
    a1a3:	48 b8 00 00 00 00 00 	movabs rax,0x0
    a1aa:	00 00 00 
			a1a5: R_X86_64_64	caml_initialize
    a1ad:	48 89 b4 24 48 02 00 	mov    QWORD PTR [rsp+0x248],rsi
    a1b4:	00 
    a1b5:	4c 89 bc 24 50 02 00 	mov    QWORD PTR [rsp+0x250],r15
    a1bc:	00 
    a1bd:	48 89 9c 24 58 02 00 	mov    QWORD PTR [rsp+0x258],rbx
    a1c4:	00 
    a1c5:	48 89 bc 24 60 02 00 	mov    QWORD PTR [rsp+0x260],rdi
    a1cc:	00 
    a1cd:	ff d0                	call   rax
    a1cf:	48 8b 9c 24 58 02 00 	mov    rbx,QWORD PTR [rsp+0x258]
    a1d6:	00 
    a1d7:	4c 8b bc 24 50 02 00 	mov    r15,QWORD PTR [rsp+0x250]
    a1de:	00 
    a1df:	4c 89 ff             	mov    rdi,r15
    a1e2:	48 81 c7 c0 05 00 00 	add    rdi,0x5c0
    a1e9:	48 8b b4 24 40 02 00 	mov    rsi,QWORD PTR [rsp+0x240]
    a1f0:	00 
    a1f1:	48 b8 00 00 00 00 00 	movabs rax,0x0
    a1f8:	00 00 00 
			a1f3: R_X86_64_64	caml_initialize
    a1fb:	48 89 b4 24 40 02 00 	mov    QWORD PTR [rsp+0x240],rsi
    a202:	00 
    a203:	4c 89 bc 24 48 02 00 	mov    QWORD PTR [rsp+0x248],r15
    a20a:	00 
    a20b:	48 89 9c 24 50 02 00 	mov    QWORD PTR [rsp+0x250],rbx
    a212:	00 
    a213:	48 89 bc 24 58 02 00 	mov    QWORD PTR [rsp+0x258],rdi
    a21a:	00 
    a21b:	ff d0                	call   rax
    a21d:	48 8b 9c 24 50 02 00 	mov    rbx,QWORD PTR [rsp+0x250]
    a224:	00 
    a225:	4c 8b bc 24 48 02 00 	mov    r15,QWORD PTR [rsp+0x248]
    a22c:	00 
    a22d:	4c 89 ff             	mov    rdi,r15
    a230:	48 81 c7 c8 05 00 00 	add    rdi,0x5c8
    a237:	48 8b b4 24 38 02 00 	mov    rsi,QWORD PTR [rsp+0x238]
    a23e:	00 
    a23f:	48 b8 00 00 00 00 00 	movabs rax,0x0
    a246:	00 00 00 
			a241: R_X86_64_64	caml_initialize
    a249:	48 89 b4 24 38 02 00 	mov    QWORD PTR [rsp+0x238],rsi
    a250:	00 
    a251:	4c 89 bc 24 40 02 00 	mov    QWORD PTR [rsp+0x240],r15
    a258:	00 
    a259:	48 89 9c 24 48 02 00 	mov    QWORD PTR [rsp+0x248],rbx
    a260:	00 
    a261:	48 89 bc 24 50 02 00 	mov    QWORD PTR [rsp+0x250],rdi
    a268:	00 
    a269:	ff d0                	call   rax
    a26b:	48 8b 9c 24 48 02 00 	mov    rbx,QWORD PTR [rsp+0x248]
    a272:	00 
    a273:	4c 8b bc 24 40 02 00 	mov    r15,QWORD PTR [rsp+0x240]
    a27a:	00 
    a27b:	4c 89 ff             	mov    rdi,r15
    a27e:	48 81 c7 d0 05 00 00 	add    rdi,0x5d0
    a285:	48 8b b4 24 30 02 00 	mov    rsi,QWORD PTR [rsp+0x230]
    a28c:	00 
    a28d:	48 b8 00 00 00 00 00 	movabs rax,0x0
    a294:	00 00 00 
			a28f: R_X86_64_64	caml_initialize
    a297:	48 89 b4 24 30 02 00 	mov    QWORD PTR [rsp+0x230],rsi
    a29e:	00 
    a29f:	4c 89 bc 24 38 02 00 	mov    QWORD PTR [rsp+0x238],r15
    a2a6:	00 
    a2a7:	48 89 9c 24 40 02 00 	mov    QWORD PTR [rsp+0x240],rbx
    a2ae:	00 
    a2af:	48 89 bc 24 48 02 00 	mov    QWORD PTR [rsp+0x248],rdi
    a2b6:	00 
    a2b7:	ff d0                	call   rax
    a2b9:	48 8b 9c 24 40 02 00 	mov    rbx,QWORD PTR [rsp+0x240]
    a2c0:	00 
    a2c1:	4c 8b bc 24 38 02 00 	mov    r15,QWORD PTR [rsp+0x238]
    a2c8:	00 
    a2c9:	4c 89 ff             	mov    rdi,r15
    a2cc:	48 81 c7 d8 05 00 00 	add    rdi,0x5d8
    a2d3:	48 8b b4 24 28 02 00 	mov    rsi,QWORD PTR [rsp+0x228]
    a2da:	00 
    a2db:	48 b8 00 00 00 00 00 	movabs rax,0x0
    a2e2:	00 00 00 
			a2dd: R_X86_64_64	caml_initialize
    a2e5:	48 89 b4 24 28 02 00 	mov    QWORD PTR [rsp+0x228],rsi
    a2ec:	00 
    a2ed:	4c 89 bc 24 30 02 00 	mov    QWORD PTR [rsp+0x230],r15
    a2f4:	00 
    a2f5:	48 89 9c 24 38 02 00 	mov    QWORD PTR [rsp+0x238],rbx
    a2fc:	00 
    a2fd:	48 89 bc 24 40 02 00 	mov    QWORD PTR [rsp+0x240],rdi
    a304:	00 
    a305:	ff d0                	call   rax
    a307:	48 8b 9c 24 38 02 00 	mov    rbx,QWORD PTR [rsp+0x238]
    a30e:	00 
    a30f:	4c 8b bc 24 30 02 00 	mov    r15,QWORD PTR [rsp+0x230]
    a316:	00 
    a317:	4c 89 ff             	mov    rdi,r15
    a31a:	48 81 c7 e0 05 00 00 	add    rdi,0x5e0
    a321:	48 8b b4 24 20 02 00 	mov    rsi,QWORD PTR [rsp+0x220]
    a328:	00 
    a329:	48 b8 00 00 00 00 00 	movabs rax,0x0
    a330:	00 00 00 
			a32b: R_X86_64_64	caml_initialize
    a333:	48 89 b4 24 20 02 00 	mov    QWORD PTR [rsp+0x220],rsi
    a33a:	00 
    a33b:	4c 89 bc 24 28 02 00 	mov    QWORD PTR [rsp+0x228],r15
    a342:	00 
    a343:	48 89 9c 24 30 02 00 	mov    QWORD PTR [rsp+0x230],rbx
    a34a:	00 
    a34b:	48 89 bc 24 38 02 00 	mov    QWORD PTR [rsp+0x238],rdi
    a352:	00 
    a353:	ff d0                	call   rax
    a355:	48 8b 9c 24 30 02 00 	mov    rbx,QWORD PTR [rsp+0x230]
    a35c:	00 
    a35d:	4c 8b bc 24 28 02 00 	mov    r15,QWORD PTR [rsp+0x228]
    a364:	00 
    a365:	4c 89 ff             	mov    rdi,r15
    a368:	48 81 c7 e8 05 00 00 	add    rdi,0x5e8
    a36f:	48 8b b4 24 18 02 00 	mov    rsi,QWORD PTR [rsp+0x218]
    a376:	00 
    a377:	48 b8 00 00 00 00 00 	movabs rax,0x0
    a37e:	00 00 00 
			a379: R_X86_64_64	caml_initialize
    a381:	48 89 b4 24 18 02 00 	mov    QWORD PTR [rsp+0x218],rsi
    a388:	00 
    a389:	4c 89 bc 24 20 02 00 	mov    QWORD PTR [rsp+0x220],r15
    a390:	00 
    a391:	48 89 9c 24 28 02 00 	mov    QWORD PTR [rsp+0x228],rbx
    a398:	00 
    a399:	48 89 bc 24 30 02 00 	mov    QWORD PTR [rsp+0x230],rdi
    a3a0:	00 
    a3a1:	ff d0                	call   rax
    a3a3:	48 8b 9c 24 28 02 00 	mov    rbx,QWORD PTR [rsp+0x228]
    a3aa:	00 
    a3ab:	4c 8b bc 24 20 02 00 	mov    r15,QWORD PTR [rsp+0x220]
    a3b2:	00 
    a3b3:	4c 89 ff             	mov    rdi,r15
    a3b6:	48 81 c7 f0 05 00 00 	add    rdi,0x5f0
    a3bd:	48 8b b4 24 10 02 00 	mov    rsi,QWORD PTR [rsp+0x210]
    a3c4:	00 
    a3c5:	48 b8 00 00 00 00 00 	movabs rax,0x0
    a3cc:	00 00 00 
			a3c7: R_X86_64_64	caml_initialize
    a3cf:	48 89 b4 24 10 02 00 	mov    QWORD PTR [rsp+0x210],rsi
    a3d6:	00 
    a3d7:	4c 89 bc 24 18 02 00 	mov    QWORD PTR [rsp+0x218],r15
    a3de:	00 
    a3df:	48 89 9c 24 20 02 00 	mov    QWORD PTR [rsp+0x220],rbx
    a3e6:	00 
    a3e7:	48 89 bc 24 28 02 00 	mov    QWORD PTR [rsp+0x228],rdi
    a3ee:	00 
    a3ef:	ff d0                	call   rax
    a3f1:	48 8b 9c 24 20 02 00 	mov    rbx,QWORD PTR [rsp+0x220]
    a3f8:	00 
    a3f9:	4c 8b bc 24 18 02 00 	mov    r15,QWORD PTR [rsp+0x218]
    a400:	00 
    a401:	4c 89 ff             	mov    rdi,r15
    a404:	48 81 c7 f8 05 00 00 	add    rdi,0x5f8
    a40b:	48 8b b4 24 08 02 00 	mov    rsi,QWORD PTR [rsp+0x208]
    a412:	00 
    a413:	48 b8 00 00 00 00 00 	movabs rax,0x0
    a41a:	00 00 00 
			a415: R_X86_64_64	caml_initialize
    a41d:	48 89 b4 24 08 02 00 	mov    QWORD PTR [rsp+0x208],rsi
    a424:	00 
    a425:	4c 89 bc 24 10 02 00 	mov    QWORD PTR [rsp+0x210],r15
    a42c:	00 
    a42d:	48 89 9c 24 18 02 00 	mov    QWORD PTR [rsp+0x218],rbx
    a434:	00 
    a435:	48 89 bc 24 20 02 00 	mov    QWORD PTR [rsp+0x220],rdi
    a43c:	00 
    a43d:	ff d0                	call   rax
    a43f:	48 8b 9c 24 18 02 00 	mov    rbx,QWORD PTR [rsp+0x218]
    a446:	00 
    a447:	4c 8b bc 24 10 02 00 	mov    r15,QWORD PTR [rsp+0x210]
    a44e:	00 
    a44f:	4c 89 ff             	mov    rdi,r15
    a452:	48 81 c7 00 06 00 00 	add    rdi,0x600
    a459:	48 8b b4 24 00 02 00 	mov    rsi,QWORD PTR [rsp+0x200]
    a460:	00 
    a461:	48 b8 00 00 00 00 00 	movabs rax,0x0
    a468:	00 00 00 
			a463: R_X86_64_64	caml_initialize
    a46b:	48 89 b4 24 00 02 00 	mov    QWORD PTR [rsp+0x200],rsi
    a472:	00 
    a473:	4c 89 bc 24 08 02 00 	mov    QWORD PTR [rsp+0x208],r15
    a47a:	00 
    a47b:	48 89 9c 24 10 02 00 	mov    QWORD PTR [rsp+0x210],rbx
    a482:	00 
    a483:	48 89 bc 24 18 02 00 	mov    QWORD PTR [rsp+0x218],rdi
    a48a:	00 
    a48b:	ff d0                	call   rax
    a48d:	48 8b 9c 24 10 02 00 	mov    rbx,QWORD PTR [rsp+0x210]
    a494:	00 
    a495:	4c 8b bc 24 08 02 00 	mov    r15,QWORD PTR [rsp+0x208]
    a49c:	00 
    a49d:	4c 89 ff             	mov    rdi,r15
    a4a0:	48 81 c7 08 06 00 00 	add    rdi,0x608
    a4a7:	48 8b b4 24 f8 01 00 	mov    rsi,QWORD PTR [rsp+0x1f8]
    a4ae:	00 
    a4af:	48 b8 00 00 00 00 00 	movabs rax,0x0
    a4b6:	00 00 00 
			a4b1: R_X86_64_64	caml_initialize
    a4b9:	48 89 b4 24 f8 01 00 	mov    QWORD PTR [rsp+0x1f8],rsi
    a4c0:	00 
    a4c1:	4c 89 bc 24 00 02 00 	mov    QWORD PTR [rsp+0x200],r15
    a4c8:	00 
    a4c9:	48 89 9c 24 08 02 00 	mov    QWORD PTR [rsp+0x208],rbx
    a4d0:	00 
    a4d1:	48 89 bc 24 10 02 00 	mov    QWORD PTR [rsp+0x210],rdi
    a4d8:	00 
    a4d9:	ff d0                	call   rax
    a4db:	48 8b 9c 24 08 02 00 	mov    rbx,QWORD PTR [rsp+0x208]
    a4e2:	00 
    a4e3:	4c 8b bc 24 00 02 00 	mov    r15,QWORD PTR [rsp+0x200]
    a4ea:	00 
    a4eb:	4c 89 ff             	mov    rdi,r15
    a4ee:	48 81 c7 10 06 00 00 	add    rdi,0x610
    a4f5:	48 8b b4 24 f0 01 00 	mov    rsi,QWORD PTR [rsp+0x1f0]
    a4fc:	00 
    a4fd:	48 b8 00 00 00 00 00 	movabs rax,0x0
    a504:	00 00 00 
			a4ff: R_X86_64_64	caml_initialize
    a507:	48 89 b4 24 f0 01 00 	mov    QWORD PTR [rsp+0x1f0],rsi
    a50e:	00 
    a50f:	4c 89 bc 24 f8 01 00 	mov    QWORD PTR [rsp+0x1f8],r15
    a516:	00 
    a517:	48 89 9c 24 00 02 00 	mov    QWORD PTR [rsp+0x200],rbx
    a51e:	00 
    a51f:	48 89 bc 24 08 02 00 	mov    QWORD PTR [rsp+0x208],rdi
    a526:	00 
    a527:	ff d0                	call   rax
    a529:	48 8b 9c 24 00 02 00 	mov    rbx,QWORD PTR [rsp+0x200]
    a530:	00 
    a531:	4c 8b bc 24 f8 01 00 	mov    r15,QWORD PTR [rsp+0x1f8]
    a538:	00 
    a539:	4c 89 ff             	mov    rdi,r15
    a53c:	48 81 c7 18 06 00 00 	add    rdi,0x618
    a543:	48 8b b4 24 e8 01 00 	mov    rsi,QWORD PTR [rsp+0x1e8]
    a54a:	00 
    a54b:	48 b8 00 00 00 00 00 	movabs rax,0x0
    a552:	00 00 00 
			a54d: R_X86_64_64	caml_initialize
    a555:	48 89 b4 24 e8 01 00 	mov    QWORD PTR [rsp+0x1e8],rsi
    a55c:	00 
    a55d:	4c 89 bc 24 f0 01 00 	mov    QWORD PTR [rsp+0x1f0],r15
    a564:	00 
    a565:	48 89 9c 24 f8 01 00 	mov    QWORD PTR [rsp+0x1f8],rbx
    a56c:	00 
    a56d:	48 89 bc 24 00 02 00 	mov    QWORD PTR [rsp+0x200],rdi
    a574:	00 
    a575:	ff d0                	call   rax
    a577:	48 8b 9c 24 f8 01 00 	mov    rbx,QWORD PTR [rsp+0x1f8]
    a57e:	00 
    a57f:	4c 8b bc 24 f0 01 00 	mov    r15,QWORD PTR [rsp+0x1f0]
    a586:	00 
    a587:	4c 89 ff             	mov    rdi,r15
    a58a:	48 81 c7 20 06 00 00 	add    rdi,0x620
    a591:	48 8b b4 24 e0 01 00 	mov    rsi,QWORD PTR [rsp+0x1e0]
    a598:	00 
    a599:	48 b8 00 00 00 00 00 	movabs rax,0x0
    a5a0:	00 00 00 
			a59b: R_X86_64_64	caml_initialize
    a5a3:	48 89 b4 24 e0 01 00 	mov    QWORD PTR [rsp+0x1e0],rsi
    a5aa:	00 
    a5ab:	4c 89 bc 24 e8 01 00 	mov    QWORD PTR [rsp+0x1e8],r15
    a5b2:	00 
    a5b3:	48 89 9c 24 f0 01 00 	mov    QWORD PTR [rsp+0x1f0],rbx
    a5ba:	00 
    a5bb:	48 89 bc 24 f8 01 00 	mov    QWORD PTR [rsp+0x1f8],rdi
    a5c2:	00 
    a5c3:	ff d0                	call   rax
    a5c5:	48 8b 9c 24 f0 01 00 	mov    rbx,QWORD PTR [rsp+0x1f0]
    a5cc:	00 
    a5cd:	4c 8b bc 24 e8 01 00 	mov    r15,QWORD PTR [rsp+0x1e8]
    a5d4:	00 
    a5d5:	4c 89 ff             	mov    rdi,r15
    a5d8:	48 81 c7 28 06 00 00 	add    rdi,0x628
    a5df:	48 8b b4 24 d8 01 00 	mov    rsi,QWORD PTR [rsp+0x1d8]
    a5e6:	00 
    a5e7:	48 b8 00 00 00 00 00 	movabs rax,0x0
    a5ee:	00 00 00 
			a5e9: R_X86_64_64	caml_initialize
    a5f1:	48 89 b4 24 d8 01 00 	mov    QWORD PTR [rsp+0x1d8],rsi
    a5f8:	00 
    a5f9:	4c 89 bc 24 e0 01 00 	mov    QWORD PTR [rsp+0x1e0],r15
    a600:	00 
    a601:	48 89 9c 24 e8 01 00 	mov    QWORD PTR [rsp+0x1e8],rbx
    a608:	00 
    a609:	48 89 bc 24 f0 01 00 	mov    QWORD PTR [rsp+0x1f0],rdi
    a610:	00 
    a611:	ff d0                	call   rax
    a613:	48 8b 9c 24 e8 01 00 	mov    rbx,QWORD PTR [rsp+0x1e8]
    a61a:	00 
    a61b:	4c 8b bc 24 e0 01 00 	mov    r15,QWORD PTR [rsp+0x1e0]
    a622:	00 
    a623:	4c 89 ff             	mov    rdi,r15
    a626:	48 81 c7 30 06 00 00 	add    rdi,0x630
    a62d:	48 8b b4 24 d0 01 00 	mov    rsi,QWORD PTR [rsp+0x1d0]
    a634:	00 
    a635:	48 b8 00 00 00 00 00 	movabs rax,0x0
    a63c:	00 00 00 
			a637: R_X86_64_64	caml_initialize
    a63f:	48 89 b4 24 d0 01 00 	mov    QWORD PTR [rsp+0x1d0],rsi
    a646:	00 
    a647:	4c 89 bc 24 d8 01 00 	mov    QWORD PTR [rsp+0x1d8],r15
    a64e:	00 
    a64f:	48 89 9c 24 e0 01 00 	mov    QWORD PTR [rsp+0x1e0],rbx
    a656:	00 
    a657:	48 89 bc 24 e8 01 00 	mov    QWORD PTR [rsp+0x1e8],rdi
    a65e:	00 
    a65f:	ff d0                	call   rax
    a661:	48 8b 9c 24 e0 01 00 	mov    rbx,QWORD PTR [rsp+0x1e0]
    a668:	00 
    a669:	4c 8b bc 24 d8 01 00 	mov    r15,QWORD PTR [rsp+0x1d8]
    a670:	00 
    a671:	4c 89 ff             	mov    rdi,r15
    a674:	48 81 c7 38 06 00 00 	add    rdi,0x638
    a67b:	48 8b b4 24 c8 01 00 	mov    rsi,QWORD PTR [rsp+0x1c8]
    a682:	00 
    a683:	48 b8 00 00 00 00 00 	movabs rax,0x0
    a68a:	00 00 00 
			a685: R_X86_64_64	caml_initialize
    a68d:	48 89 b4 24 c8 01 00 	mov    QWORD PTR [rsp+0x1c8],rsi
    a694:	00 
    a695:	4c 89 bc 24 d0 01 00 	mov    QWORD PTR [rsp+0x1d0],r15
    a69c:	00 
    a69d:	48 89 9c 24 d8 01 00 	mov    QWORD PTR [rsp+0x1d8],rbx
    a6a4:	00 
    a6a5:	48 89 bc 24 e0 01 00 	mov    QWORD PTR [rsp+0x1e0],rdi
    a6ac:	00 
    a6ad:	ff d0                	call   rax
    a6af:	48 8b 9c 24 d8 01 00 	mov    rbx,QWORD PTR [rsp+0x1d8]
    a6b6:	00 
    a6b7:	4c 8b bc 24 d0 01 00 	mov    r15,QWORD PTR [rsp+0x1d0]
    a6be:	00 
    a6bf:	4c 89 ff             	mov    rdi,r15
    a6c2:	48 81 c7 40 06 00 00 	add    rdi,0x640
    a6c9:	48 8b b4 24 c0 01 00 	mov    rsi,QWORD PTR [rsp+0x1c0]
    a6d0:	00 
    a6d1:	48 b8 00 00 00 00 00 	movabs rax,0x0
    a6d8:	00 00 00 
			a6d3: R_X86_64_64	caml_initialize
    a6db:	48 89 b4 24 c0 01 00 	mov    QWORD PTR [rsp+0x1c0],rsi
    a6e2:	00 
    a6e3:	4c 89 bc 24 c8 01 00 	mov    QWORD PTR [rsp+0x1c8],r15
    a6ea:	00 
    a6eb:	48 89 9c 24 d0 01 00 	mov    QWORD PTR [rsp+0x1d0],rbx
    a6f2:	00 
    a6f3:	48 89 bc 24 d8 01 00 	mov    QWORD PTR [rsp+0x1d8],rdi
    a6fa:	00 
    a6fb:	ff d0                	call   rax
    a6fd:	48 8b 9c 24 d0 01 00 	mov    rbx,QWORD PTR [rsp+0x1d0]
    a704:	00 
    a705:	4c 8b bc 24 c8 01 00 	mov    r15,QWORD PTR [rsp+0x1c8]
    a70c:	00 
    a70d:	4c 89 ff             	mov    rdi,r15
    a710:	48 81 c7 48 06 00 00 	add    rdi,0x648
    a717:	48 8b b4 24 b8 01 00 	mov    rsi,QWORD PTR [rsp+0x1b8]
    a71e:	00 
    a71f:	48 b8 00 00 00 00 00 	movabs rax,0x0
    a726:	00 00 00 
			a721: R_X86_64_64	caml_initialize
    a729:	48 89 b4 24 b8 01 00 	mov    QWORD PTR [rsp+0x1b8],rsi
    a730:	00 
    a731:	4c 89 bc 24 c0 01 00 	mov    QWORD PTR [rsp+0x1c0],r15
    a738:	00 
    a739:	48 89 9c 24 c8 01 00 	mov    QWORD PTR [rsp+0x1c8],rbx
    a740:	00 
    a741:	48 89 bc 24 d0 01 00 	mov    QWORD PTR [rsp+0x1d0],rdi
    a748:	00 
    a749:	ff d0                	call   rax
    a74b:	48 8b 9c 24 c8 01 00 	mov    rbx,QWORD PTR [rsp+0x1c8]
    a752:	00 
    a753:	4c 8b bc 24 c0 01 00 	mov    r15,QWORD PTR [rsp+0x1c0]
    a75a:	00 
    a75b:	4c 89 ff             	mov    rdi,r15
    a75e:	48 81 c7 50 06 00 00 	add    rdi,0x650
    a765:	48 8b b4 24 b0 01 00 	mov    rsi,QWORD PTR [rsp+0x1b0]
    a76c:	00 
    a76d:	48 b8 00 00 00 00 00 	movabs rax,0x0
    a774:	00 00 00 
			a76f: R_X86_64_64	caml_initialize
    a777:	48 89 b4 24 b0 01 00 	mov    QWORD PTR [rsp+0x1b0],rsi
    a77e:	00 
    a77f:	4c 89 bc 24 b8 01 00 	mov    QWORD PTR [rsp+0x1b8],r15
    a786:	00 
    a787:	48 89 9c 24 c0 01 00 	mov    QWORD PTR [rsp+0x1c0],rbx
    a78e:	00 
    a78f:	48 89 bc 24 c8 01 00 	mov    QWORD PTR [rsp+0x1c8],rdi
    a796:	00 
    a797:	ff d0                	call   rax
    a799:	48 8b 9c 24 c0 01 00 	mov    rbx,QWORD PTR [rsp+0x1c0]
    a7a0:	00 
    a7a1:	4c 8b bc 24 b8 01 00 	mov    r15,QWORD PTR [rsp+0x1b8]
    a7a8:	00 
    a7a9:	4c 89 ff             	mov    rdi,r15
    a7ac:	48 81 c7 58 06 00 00 	add    rdi,0x658
    a7b3:	48 8b b4 24 a8 01 00 	mov    rsi,QWORD PTR [rsp+0x1a8]
    a7ba:	00 
    a7bb:	48 b8 00 00 00 00 00 	movabs rax,0x0
    a7c2:	00 00 00 
			a7bd: R_X86_64_64	caml_initialize
    a7c5:	48 89 b4 24 a8 01 00 	mov    QWORD PTR [rsp+0x1a8],rsi
    a7cc:	00 
    a7cd:	4c 89 bc 24 b0 01 00 	mov    QWORD PTR [rsp+0x1b0],r15
    a7d4:	00 
    a7d5:	48 89 9c 24 b8 01 00 	mov    QWORD PTR [rsp+0x1b8],rbx
    a7dc:	00 
    a7dd:	48 89 bc 24 c0 01 00 	mov    QWORD PTR [rsp+0x1c0],rdi
    a7e4:	00 
    a7e5:	ff d0                	call   rax
    a7e7:	48 8b 9c 24 b8 01 00 	mov    rbx,QWORD PTR [rsp+0x1b8]
    a7ee:	00 
    a7ef:	4c 8b bc 24 b0 01 00 	mov    r15,QWORD PTR [rsp+0x1b0]
    a7f6:	00 
    a7f7:	4c 89 ff             	mov    rdi,r15
    a7fa:	48 81 c7 60 06 00 00 	add    rdi,0x660
    a801:	48 8b b4 24 a0 01 00 	mov    rsi,QWORD PTR [rsp+0x1a0]
    a808:	00 
    a809:	48 b8 00 00 00 00 00 	movabs rax,0x0
    a810:	00 00 00 
			a80b: R_X86_64_64	caml_initialize
    a813:	48 89 b4 24 a0 01 00 	mov    QWORD PTR [rsp+0x1a0],rsi
    a81a:	00 
    a81b:	4c 89 bc 24 a8 01 00 	mov    QWORD PTR [rsp+0x1a8],r15
    a822:	00 
    a823:	48 89 9c 24 b0 01 00 	mov    QWORD PTR [rsp+0x1b0],rbx
    a82a:	00 
    a82b:	48 89 bc 24 b8 01 00 	mov    QWORD PTR [rsp+0x1b8],rdi
    a832:	00 
    a833:	ff d0                	call   rax
    a835:	48 8b 9c 24 b0 01 00 	mov    rbx,QWORD PTR [rsp+0x1b0]
    a83c:	00 
    a83d:	4c 8b bc 24 a8 01 00 	mov    r15,QWORD PTR [rsp+0x1a8]
    a844:	00 
    a845:	4c 89 ff             	mov    rdi,r15
    a848:	48 81 c7 68 06 00 00 	add    rdi,0x668
    a84f:	48 8b b4 24 98 01 00 	mov    rsi,QWORD PTR [rsp+0x198]
    a856:	00 
    a857:	48 b8 00 00 00 00 00 	movabs rax,0x0
    a85e:	00 00 00 
			a859: R_X86_64_64	caml_initialize
    a861:	48 89 b4 24 98 01 00 	mov    QWORD PTR [rsp+0x198],rsi
    a868:	00 
    a869:	4c 89 bc 24 a0 01 00 	mov    QWORD PTR [rsp+0x1a0],r15
    a870:	00 
    a871:	48 89 9c 24 a8 01 00 	mov    QWORD PTR [rsp+0x1a8],rbx
    a878:	00 
    a879:	48 89 bc 24 b0 01 00 	mov    QWORD PTR [rsp+0x1b0],rdi
    a880:	00 
    a881:	ff d0                	call   rax
    a883:	48 8b 9c 24 a8 01 00 	mov    rbx,QWORD PTR [rsp+0x1a8]
    a88a:	00 
    a88b:	4c 8b bc 24 a0 01 00 	mov    r15,QWORD PTR [rsp+0x1a0]
    a892:	00 
    a893:	4c 89 ff             	mov    rdi,r15
    a896:	48 81 c7 70 06 00 00 	add    rdi,0x670
    a89d:	48 8b b4 24 90 01 00 	mov    rsi,QWORD PTR [rsp+0x190]
    a8a4:	00 
    a8a5:	48 b8 00 00 00 00 00 	movabs rax,0x0
    a8ac:	00 00 00 
			a8a7: R_X86_64_64	caml_initialize
    a8af:	48 89 b4 24 90 01 00 	mov    QWORD PTR [rsp+0x190],rsi
    a8b6:	00 
    a8b7:	4c 89 bc 24 98 01 00 	mov    QWORD PTR [rsp+0x198],r15
    a8be:	00 
    a8bf:	48 89 9c 24 a0 01 00 	mov    QWORD PTR [rsp+0x1a0],rbx
    a8c6:	00 
    a8c7:	48 89 bc 24 a8 01 00 	mov    QWORD PTR [rsp+0x1a8],rdi
    a8ce:	00 
    a8cf:	ff d0                	call   rax
    a8d1:	48 8b 9c 24 a0 01 00 	mov    rbx,QWORD PTR [rsp+0x1a0]
    a8d8:	00 
    a8d9:	4c 8b bc 24 98 01 00 	mov    r15,QWORD PTR [rsp+0x198]
    a8e0:	00 
    a8e1:	4c 89 ff             	mov    rdi,r15
    a8e4:	48 81 c7 78 06 00 00 	add    rdi,0x678
    a8eb:	48 8b b4 24 88 01 00 	mov    rsi,QWORD PTR [rsp+0x188]
    a8f2:	00 
    a8f3:	48 b8 00 00 00 00 00 	movabs rax,0x0
    a8fa:	00 00 00 
			a8f5: R_X86_64_64	caml_initialize
    a8fd:	48 89 b4 24 88 01 00 	mov    QWORD PTR [rsp+0x188],rsi
    a904:	00 
    a905:	4c 89 bc 24 90 01 00 	mov    QWORD PTR [rsp+0x190],r15
    a90c:	00 
    a90d:	48 89 9c 24 98 01 00 	mov    QWORD PTR [rsp+0x198],rbx
    a914:	00 
    a915:	48 89 bc 24 a0 01 00 	mov    QWORD PTR [rsp+0x1a0],rdi
    a91c:	00 
    a91d:	ff d0                	call   rax
    a91f:	48 8b 9c 24 98 01 00 	mov    rbx,QWORD PTR [rsp+0x198]
    a926:	00 
    a927:	4c 8b bc 24 90 01 00 	mov    r15,QWORD PTR [rsp+0x190]
    a92e:	00 
    a92f:	4c 89 ff             	mov    rdi,r15
    a932:	48 81 c7 80 06 00 00 	add    rdi,0x680
    a939:	48 8b b4 24 80 01 00 	mov    rsi,QWORD PTR [rsp+0x180]
    a940:	00 
    a941:	48 b8 00 00 00 00 00 	movabs rax,0x0
    a948:	00 00 00 
			a943: R_X86_64_64	caml_initialize
    a94b:	48 89 b4 24 80 01 00 	mov    QWORD PTR [rsp+0x180],rsi
    a952:	00 
    a953:	4c 89 bc 24 88 01 00 	mov    QWORD PTR [rsp+0x188],r15
    a95a:	00 
    a95b:	48 89 9c 24 90 01 00 	mov    QWORD PTR [rsp+0x190],rbx
    a962:	00 
    a963:	48 89 bc 24 98 01 00 	mov    QWORD PTR [rsp+0x198],rdi
    a96a:	00 
    a96b:	ff d0                	call   rax
    a96d:	48 8b 9c 24 90 01 00 	mov    rbx,QWORD PTR [rsp+0x190]
    a974:	00 
    a975:	4c 8b bc 24 88 01 00 	mov    r15,QWORD PTR [rsp+0x188]
    a97c:	00 
    a97d:	4c 89 ff             	mov    rdi,r15
    a980:	48 81 c7 88 06 00 00 	add    rdi,0x688
    a987:	48 8b b4 24 78 01 00 	mov    rsi,QWORD PTR [rsp+0x178]
    a98e:	00 
    a98f:	48 b8 00 00 00 00 00 	movabs rax,0x0
    a996:	00 00 00 
			a991: R_X86_64_64	caml_initialize
    a999:	48 89 b4 24 78 01 00 	mov    QWORD PTR [rsp+0x178],rsi
    a9a0:	00 
    a9a1:	4c 89 bc 24 80 01 00 	mov    QWORD PTR [rsp+0x180],r15
    a9a8:	00 
    a9a9:	48 89 9c 24 88 01 00 	mov    QWORD PTR [rsp+0x188],rbx
    a9b0:	00 
    a9b1:	48 89 bc 24 90 01 00 	mov    QWORD PTR [rsp+0x190],rdi
    a9b8:	00 
    a9b9:	ff d0                	call   rax
    a9bb:	48 8b 9c 24 88 01 00 	mov    rbx,QWORD PTR [rsp+0x188]
    a9c2:	00 
    a9c3:	4c 8b bc 24 80 01 00 	mov    r15,QWORD PTR [rsp+0x180]
    a9ca:	00 
    a9cb:	4c 89 ff             	mov    rdi,r15
    a9ce:	48 81 c7 90 06 00 00 	add    rdi,0x690
    a9d5:	48 8b b4 24 70 01 00 	mov    rsi,QWORD PTR [rsp+0x170]
    a9dc:	00 
    a9dd:	48 b8 00 00 00 00 00 	movabs rax,0x0
    a9e4:	00 00 00 
			a9df: R_X86_64_64	caml_initialize
    a9e7:	48 89 b4 24 70 01 00 	mov    QWORD PTR [rsp+0x170],rsi
    a9ee:	00 
    a9ef:	4c 89 bc 24 78 01 00 	mov    QWORD PTR [rsp+0x178],r15
    a9f6:	00 
    a9f7:	48 89 9c 24 80 01 00 	mov    QWORD PTR [rsp+0x180],rbx
    a9fe:	00 
    a9ff:	48 89 bc 24 88 01 00 	mov    QWORD PTR [rsp+0x188],rdi
    aa06:	00 
    aa07:	ff d0                	call   rax
    aa09:	48 8b 9c 24 80 01 00 	mov    rbx,QWORD PTR [rsp+0x180]
    aa10:	00 
    aa11:	4c 8b bc 24 78 01 00 	mov    r15,QWORD PTR [rsp+0x178]
    aa18:	00 
    aa19:	4c 89 ff             	mov    rdi,r15
    aa1c:	48 81 c7 98 06 00 00 	add    rdi,0x698
    aa23:	48 8b b4 24 68 01 00 	mov    rsi,QWORD PTR [rsp+0x168]
    aa2a:	00 
    aa2b:	48 b8 00 00 00 00 00 	movabs rax,0x0
    aa32:	00 00 00 
			aa2d: R_X86_64_64	caml_initialize
    aa35:	48 89 b4 24 68 01 00 	mov    QWORD PTR [rsp+0x168],rsi
    aa3c:	00 
    aa3d:	4c 89 bc 24 70 01 00 	mov    QWORD PTR [rsp+0x170],r15
    aa44:	00 
    aa45:	48 89 9c 24 78 01 00 	mov    QWORD PTR [rsp+0x178],rbx
    aa4c:	00 
    aa4d:	48 89 bc 24 80 01 00 	mov    QWORD PTR [rsp+0x180],rdi
    aa54:	00 
    aa55:	ff d0                	call   rax
    aa57:	48 8b 9c 24 78 01 00 	mov    rbx,QWORD PTR [rsp+0x178]
    aa5e:	00 
    aa5f:	4c 8b bc 24 70 01 00 	mov    r15,QWORD PTR [rsp+0x170]
    aa66:	00 
    aa67:	4c 89 ff             	mov    rdi,r15
    aa6a:	48 81 c7 a0 06 00 00 	add    rdi,0x6a0
    aa71:	48 8b b4 24 60 01 00 	mov    rsi,QWORD PTR [rsp+0x160]
    aa78:	00 
    aa79:	48 b8 00 00 00 00 00 	movabs rax,0x0
    aa80:	00 00 00 
			aa7b: R_X86_64_64	caml_initialize
    aa83:	48 89 b4 24 60 01 00 	mov    QWORD PTR [rsp+0x160],rsi
    aa8a:	00 
    aa8b:	4c 89 bc 24 68 01 00 	mov    QWORD PTR [rsp+0x168],r15
    aa92:	00 
    aa93:	48 89 9c 24 70 01 00 	mov    QWORD PTR [rsp+0x170],rbx
    aa9a:	00 
    aa9b:	48 89 bc 24 78 01 00 	mov    QWORD PTR [rsp+0x178],rdi
    aaa2:	00 
    aaa3:	ff d0                	call   rax
    aaa5:	48 8b 9c 24 70 01 00 	mov    rbx,QWORD PTR [rsp+0x170]
    aaac:	00 
    aaad:	4c 8b bc 24 68 01 00 	mov    r15,QWORD PTR [rsp+0x168]
    aab4:	00 
    aab5:	4c 89 ff             	mov    rdi,r15
    aab8:	48 81 c7 a8 06 00 00 	add    rdi,0x6a8
    aabf:	48 8b b4 24 58 01 00 	mov    rsi,QWORD PTR [rsp+0x158]
    aac6:	00 
    aac7:	48 b8 00 00 00 00 00 	movabs rax,0x0
    aace:	00 00 00 
			aac9: R_X86_64_64	caml_initialize
    aad1:	48 89 b4 24 58 01 00 	mov    QWORD PTR [rsp+0x158],rsi
    aad8:	00 
    aad9:	4c 89 bc 24 60 01 00 	mov    QWORD PTR [rsp+0x160],r15
    aae0:	00 
    aae1:	48 89 9c 24 68 01 00 	mov    QWORD PTR [rsp+0x168],rbx
    aae8:	00 
    aae9:	48 89 bc 24 70 01 00 	mov    QWORD PTR [rsp+0x170],rdi
    aaf0:	00 
    aaf1:	ff d0                	call   rax
    aaf3:	48 8b 9c 24 68 01 00 	mov    rbx,QWORD PTR [rsp+0x168]
    aafa:	00 
    aafb:	4c 8b bc 24 60 01 00 	mov    r15,QWORD PTR [rsp+0x160]
    ab02:	00 
    ab03:	4c 89 ff             	mov    rdi,r15
    ab06:	48 81 c7 b0 06 00 00 	add    rdi,0x6b0
    ab0d:	48 8b b4 24 50 01 00 	mov    rsi,QWORD PTR [rsp+0x150]
    ab14:	00 
    ab15:	48 b8 00 00 00 00 00 	movabs rax,0x0
    ab1c:	00 00 00 
			ab17: R_X86_64_64	caml_initialize
    ab1f:	48 89 b4 24 50 01 00 	mov    QWORD PTR [rsp+0x150],rsi
    ab26:	00 
    ab27:	4c 89 bc 24 58 01 00 	mov    QWORD PTR [rsp+0x158],r15
    ab2e:	00 
    ab2f:	48 89 9c 24 60 01 00 	mov    QWORD PTR [rsp+0x160],rbx
    ab36:	00 
    ab37:	48 89 bc 24 68 01 00 	mov    QWORD PTR [rsp+0x168],rdi
    ab3e:	00 
    ab3f:	ff d0                	call   rax
    ab41:	48 8b 9c 24 60 01 00 	mov    rbx,QWORD PTR [rsp+0x160]
    ab48:	00 
    ab49:	4c 8b bc 24 58 01 00 	mov    r15,QWORD PTR [rsp+0x158]
    ab50:	00 
    ab51:	4c 89 ff             	mov    rdi,r15
    ab54:	48 81 c7 b8 06 00 00 	add    rdi,0x6b8
    ab5b:	48 8b b4 24 48 01 00 	mov    rsi,QWORD PTR [rsp+0x148]
    ab62:	00 
    ab63:	48 b8 00 00 00 00 00 	movabs rax,0x0
    ab6a:	00 00 00 
			ab65: R_X86_64_64	caml_initialize
    ab6d:	48 89 b4 24 48 01 00 	mov    QWORD PTR [rsp+0x148],rsi
    ab74:	00 
    ab75:	4c 89 bc 24 50 01 00 	mov    QWORD PTR [rsp+0x150],r15
    ab7c:	00 
    ab7d:	48 89 9c 24 58 01 00 	mov    QWORD PTR [rsp+0x158],rbx
    ab84:	00 
    ab85:	48 89 bc 24 60 01 00 	mov    QWORD PTR [rsp+0x160],rdi
    ab8c:	00 
    ab8d:	ff d0                	call   rax
    ab8f:	48 8b 9c 24 58 01 00 	mov    rbx,QWORD PTR [rsp+0x158]
    ab96:	00 
    ab97:	4c 8b bc 24 50 01 00 	mov    r15,QWORD PTR [rsp+0x150]
    ab9e:	00 
    ab9f:	4c 89 ff             	mov    rdi,r15
    aba2:	48 81 c7 c0 06 00 00 	add    rdi,0x6c0
    aba9:	48 8b b4 24 40 01 00 	mov    rsi,QWORD PTR [rsp+0x140]
    abb0:	00 
    abb1:	48 b8 00 00 00 00 00 	movabs rax,0x0
    abb8:	00 00 00 
			abb3: R_X86_64_64	caml_initialize
    abbb:	48 89 b4 24 40 01 00 	mov    QWORD PTR [rsp+0x140],rsi
    abc2:	00 
    abc3:	4c 89 bc 24 48 01 00 	mov    QWORD PTR [rsp+0x148],r15
    abca:	00 
    abcb:	48 89 9c 24 50 01 00 	mov    QWORD PTR [rsp+0x150],rbx
    abd2:	00 
    abd3:	48 89 bc 24 58 01 00 	mov    QWORD PTR [rsp+0x158],rdi
    abda:	00 
    abdb:	ff d0                	call   rax
    abdd:	48 8b 9c 24 50 01 00 	mov    rbx,QWORD PTR [rsp+0x150]
    abe4:	00 
    abe5:	4c 8b bc 24 48 01 00 	mov    r15,QWORD PTR [rsp+0x148]
    abec:	00 
    abed:	4c 89 ff             	mov    rdi,r15
    abf0:	48 81 c7 c8 06 00 00 	add    rdi,0x6c8
    abf7:	48 8b b4 24 38 01 00 	mov    rsi,QWORD PTR [rsp+0x138]
    abfe:	00 
    abff:	48 b8 00 00 00 00 00 	movabs rax,0x0
    ac06:	00 00 00 
			ac01: R_X86_64_64	caml_initialize
    ac09:	48 89 b4 24 38 01 00 	mov    QWORD PTR [rsp+0x138],rsi
    ac10:	00 
    ac11:	4c 89 bc 24 40 01 00 	mov    QWORD PTR [rsp+0x140],r15
    ac18:	00 
    ac19:	48 89 9c 24 48 01 00 	mov    QWORD PTR [rsp+0x148],rbx
    ac20:	00 
    ac21:	48 89 bc 24 50 01 00 	mov    QWORD PTR [rsp+0x150],rdi
    ac28:	00 
    ac29:	ff d0                	call   rax
    ac2b:	48 8b 9c 24 48 01 00 	mov    rbx,QWORD PTR [rsp+0x148]
    ac32:	00 
    ac33:	4c 8b bc 24 40 01 00 	mov    r15,QWORD PTR [rsp+0x140]
    ac3a:	00 
    ac3b:	4c 89 ff             	mov    rdi,r15
    ac3e:	48 81 c7 d0 06 00 00 	add    rdi,0x6d0
    ac45:	48 8b b4 24 30 01 00 	mov    rsi,QWORD PTR [rsp+0x130]
    ac4c:	00 
    ac4d:	48 b8 00 00 00 00 00 	movabs rax,0x0
    ac54:	00 00 00 
			ac4f: R_X86_64_64	caml_initialize
    ac57:	48 89 b4 24 30 01 00 	mov    QWORD PTR [rsp+0x130],rsi
    ac5e:	00 
    ac5f:	4c 89 bc 24 38 01 00 	mov    QWORD PTR [rsp+0x138],r15
    ac66:	00 
    ac67:	48 89 9c 24 40 01 00 	mov    QWORD PTR [rsp+0x140],rbx
    ac6e:	00 
    ac6f:	48 89 bc 24 48 01 00 	mov    QWORD PTR [rsp+0x148],rdi
    ac76:	00 
    ac77:	ff d0                	call   rax
    ac79:	48 8b 9c 24 40 01 00 	mov    rbx,QWORD PTR [rsp+0x140]
    ac80:	00 
    ac81:	4c 8b bc 24 38 01 00 	mov    r15,QWORD PTR [rsp+0x138]
    ac88:	00 
    ac89:	4c 89 ff             	mov    rdi,r15
    ac8c:	48 81 c7 d8 06 00 00 	add    rdi,0x6d8
    ac93:	48 8b b4 24 28 01 00 	mov    rsi,QWORD PTR [rsp+0x128]
    ac9a:	00 
    ac9b:	48 b8 00 00 00 00 00 	movabs rax,0x0
    aca2:	00 00 00 
			ac9d: R_X86_64_64	caml_initialize
    aca5:	48 89 b4 24 28 01 00 	mov    QWORD PTR [rsp+0x128],rsi
    acac:	00 
    acad:	4c 89 bc 24 30 01 00 	mov    QWORD PTR [rsp+0x130],r15
    acb4:	00 
    acb5:	48 89 9c 24 38 01 00 	mov    QWORD PTR [rsp+0x138],rbx
    acbc:	00 
    acbd:	48 89 bc 24 40 01 00 	mov    QWORD PTR [rsp+0x140],rdi
    acc4:	00 
    acc5:	ff d0                	call   rax
    acc7:	48 8b 9c 24 38 01 00 	mov    rbx,QWORD PTR [rsp+0x138]
    acce:	00 
    accf:	4c 8b bc 24 30 01 00 	mov    r15,QWORD PTR [rsp+0x130]
    acd6:	00 
    acd7:	4c 89 ff             	mov    rdi,r15
    acda:	48 81 c7 e0 06 00 00 	add    rdi,0x6e0
    ace1:	48 8b b4 24 20 01 00 	mov    rsi,QWORD PTR [rsp+0x120]
    ace8:	00 
    ace9:	48 b8 00 00 00 00 00 	movabs rax,0x0
    acf0:	00 00 00 
			aceb: R_X86_64_64	caml_initialize
    acf3:	48 89 b4 24 20 01 00 	mov    QWORD PTR [rsp+0x120],rsi
    acfa:	00 
    acfb:	4c 89 bc 24 28 01 00 	mov    QWORD PTR [rsp+0x128],r15
    ad02:	00 
    ad03:	48 89 9c 24 30 01 00 	mov    QWORD PTR [rsp+0x130],rbx
    ad0a:	00 
    ad0b:	48 89 bc 24 38 01 00 	mov    QWORD PTR [rsp+0x138],rdi
    ad12:	00 
    ad13:	ff d0                	call   rax
    ad15:	48 8b 9c 24 30 01 00 	mov    rbx,QWORD PTR [rsp+0x130]
    ad1c:	00 
    ad1d:	4c 8b bc 24 28 01 00 	mov    r15,QWORD PTR [rsp+0x128]
    ad24:	00 
    ad25:	4c 89 ff             	mov    rdi,r15
    ad28:	48 81 c7 e8 06 00 00 	add    rdi,0x6e8
    ad2f:	48 8b b4 24 18 01 00 	mov    rsi,QWORD PTR [rsp+0x118]
    ad36:	00 
    ad37:	48 b8 00 00 00 00 00 	movabs rax,0x0
    ad3e:	00 00 00 
			ad39: R_X86_64_64	caml_initialize
    ad41:	48 89 b4 24 18 01 00 	mov    QWORD PTR [rsp+0x118],rsi
    ad48:	00 
    ad49:	4c 89 bc 24 20 01 00 	mov    QWORD PTR [rsp+0x120],r15
    ad50:	00 
    ad51:	48 89 9c 24 28 01 00 	mov    QWORD PTR [rsp+0x128],rbx
    ad58:	00 
    ad59:	48 89 bc 24 30 01 00 	mov    QWORD PTR [rsp+0x130],rdi
    ad60:	00 
    ad61:	ff d0                	call   rax
    ad63:	48 8b 9c 24 28 01 00 	mov    rbx,QWORD PTR [rsp+0x128]
    ad6a:	00 
    ad6b:	4c 8b bc 24 20 01 00 	mov    r15,QWORD PTR [rsp+0x120]
    ad72:	00 
    ad73:	4c 89 ff             	mov    rdi,r15
    ad76:	48 81 c7 f0 06 00 00 	add    rdi,0x6f0
    ad7d:	48 8b b4 24 10 01 00 	mov    rsi,QWORD PTR [rsp+0x110]
    ad84:	00 
    ad85:	48 b8 00 00 00 00 00 	movabs rax,0x0
    ad8c:	00 00 00 
			ad87: R_X86_64_64	caml_initialize
    ad8f:	48 89 b4 24 10 01 00 	mov    QWORD PTR [rsp+0x110],rsi
    ad96:	00 
    ad97:	4c 89 bc 24 18 01 00 	mov    QWORD PTR [rsp+0x118],r15
    ad9e:	00 
    ad9f:	48 89 9c 24 20 01 00 	mov    QWORD PTR [rsp+0x120],rbx
    ada6:	00 
    ada7:	48 89 bc 24 28 01 00 	mov    QWORD PTR [rsp+0x128],rdi
    adae:	00 
    adaf:	ff d0                	call   rax
    adb1:	48 8b 9c 24 20 01 00 	mov    rbx,QWORD PTR [rsp+0x120]
    adb8:	00 
    adb9:	4c 8b bc 24 18 01 00 	mov    r15,QWORD PTR [rsp+0x118]
    adc0:	00 
    adc1:	4c 89 ff             	mov    rdi,r15
    adc4:	48 81 c7 f8 06 00 00 	add    rdi,0x6f8
    adcb:	48 8b b4 24 08 01 00 	mov    rsi,QWORD PTR [rsp+0x108]
    add2:	00 
    add3:	48 b8 00 00 00 00 00 	movabs rax,0x0
    adda:	00 00 00 
			add5: R_X86_64_64	caml_initialize
    addd:	48 89 b4 24 08 01 00 	mov    QWORD PTR [rsp+0x108],rsi
    ade4:	00 
    ade5:	4c 89 bc 24 10 01 00 	mov    QWORD PTR [rsp+0x110],r15
    adec:	00 
    aded:	48 89 9c 24 18 01 00 	mov    QWORD PTR [rsp+0x118],rbx
    adf4:	00 
    adf5:	48 89 bc 24 20 01 00 	mov    QWORD PTR [rsp+0x120],rdi
    adfc:	00 
    adfd:	ff d0                	call   rax
    adff:	48 8b 9c 24 18 01 00 	mov    rbx,QWORD PTR [rsp+0x118]
    ae06:	00 
    ae07:	4c 8b bc 24 10 01 00 	mov    r15,QWORD PTR [rsp+0x110]
    ae0e:	00 
    ae0f:	4c 89 ff             	mov    rdi,r15
    ae12:	48 81 c7 00 07 00 00 	add    rdi,0x700
    ae19:	48 8b b4 24 00 01 00 	mov    rsi,QWORD PTR [rsp+0x100]
    ae20:	00 
    ae21:	48 b8 00 00 00 00 00 	movabs rax,0x0
    ae28:	00 00 00 
			ae23: R_X86_64_64	caml_initialize
    ae2b:	48 89 b4 24 00 01 00 	mov    QWORD PTR [rsp+0x100],rsi
    ae32:	00 
    ae33:	4c 89 bc 24 08 01 00 	mov    QWORD PTR [rsp+0x108],r15
    ae3a:	00 
    ae3b:	48 89 9c 24 10 01 00 	mov    QWORD PTR [rsp+0x110],rbx
    ae42:	00 
    ae43:	48 89 bc 24 18 01 00 	mov    QWORD PTR [rsp+0x118],rdi
    ae4a:	00 
    ae4b:	ff d0                	call   rax
    ae4d:	48 8b 9c 24 10 01 00 	mov    rbx,QWORD PTR [rsp+0x110]
    ae54:	00 
    ae55:	4c 8b bc 24 08 01 00 	mov    r15,QWORD PTR [rsp+0x108]
    ae5c:	00 
    ae5d:	4c 89 ff             	mov    rdi,r15
    ae60:	48 81 c7 08 07 00 00 	add    rdi,0x708
    ae67:	48 8b b4 24 f8 00 00 	mov    rsi,QWORD PTR [rsp+0xf8]
    ae6e:	00 
    ae6f:	48 b8 00 00 00 00 00 	movabs rax,0x0
    ae76:	00 00 00 
			ae71: R_X86_64_64	caml_initialize
    ae79:	48 89 b4 24 f8 00 00 	mov    QWORD PTR [rsp+0xf8],rsi
    ae80:	00 
    ae81:	4c 89 bc 24 00 01 00 	mov    QWORD PTR [rsp+0x100],r15
    ae88:	00 
    ae89:	48 89 9c 24 08 01 00 	mov    QWORD PTR [rsp+0x108],rbx
    ae90:	00 
    ae91:	48 89 bc 24 10 01 00 	mov    QWORD PTR [rsp+0x110],rdi
    ae98:	00 
    ae99:	ff d0                	call   rax
    ae9b:	48 8b 9c 24 08 01 00 	mov    rbx,QWORD PTR [rsp+0x108]
    aea2:	00 
    aea3:	4c 8b bc 24 00 01 00 	mov    r15,QWORD PTR [rsp+0x100]
    aeaa:	00 
    aeab:	4c 89 ff             	mov    rdi,r15
    aeae:	48 81 c7 10 07 00 00 	add    rdi,0x710
    aeb5:	48 8b b4 24 f0 00 00 	mov    rsi,QWORD PTR [rsp+0xf0]
    aebc:	00 
    aebd:	48 b8 00 00 00 00 00 	movabs rax,0x0
    aec4:	00 00 00 
			aebf: R_X86_64_64	caml_initialize
    aec7:	48 89 b4 24 f0 00 00 	mov    QWORD PTR [rsp+0xf0],rsi
    aece:	00 
    aecf:	4c 89 bc 24 f8 00 00 	mov    QWORD PTR [rsp+0xf8],r15
    aed6:	00 
    aed7:	48 89 9c 24 00 01 00 	mov    QWORD PTR [rsp+0x100],rbx
    aede:	00 
    aedf:	48 89 bc 24 08 01 00 	mov    QWORD PTR [rsp+0x108],rdi
    aee6:	00 
    aee7:	ff d0                	call   rax
    aee9:	48 8b 9c 24 00 01 00 	mov    rbx,QWORD PTR [rsp+0x100]
    aef0:	00 
    aef1:	4c 8b bc 24 f8 00 00 	mov    r15,QWORD PTR [rsp+0xf8]
    aef8:	00 
    aef9:	4c 89 ff             	mov    rdi,r15
    aefc:	48 81 c7 18 07 00 00 	add    rdi,0x718
    af03:	48 8b b4 24 e8 00 00 	mov    rsi,QWORD PTR [rsp+0xe8]
    af0a:	00 
    af0b:	48 b8 00 00 00 00 00 	movabs rax,0x0
    af12:	00 00 00 
			af0d: R_X86_64_64	caml_initialize
    af15:	48 89 b4 24 e8 00 00 	mov    QWORD PTR [rsp+0xe8],rsi
    af1c:	00 
    af1d:	4c 89 bc 24 f0 00 00 	mov    QWORD PTR [rsp+0xf0],r15
    af24:	00 
    af25:	48 89 9c 24 f8 00 00 	mov    QWORD PTR [rsp+0xf8],rbx
    af2c:	00 
    af2d:	48 89 bc 24 00 01 00 	mov    QWORD PTR [rsp+0x100],rdi
    af34:	00 
    af35:	ff d0                	call   rax
    af37:	48 8b 9c 24 f8 00 00 	mov    rbx,QWORD PTR [rsp+0xf8]
    af3e:	00 
    af3f:	4c 8b bc 24 f0 00 00 	mov    r15,QWORD PTR [rsp+0xf0]
    af46:	00 
    af47:	4c 89 ff             	mov    rdi,r15
    af4a:	48 81 c7 20 07 00 00 	add    rdi,0x720
    af51:	48 8b b4 24 e0 00 00 	mov    rsi,QWORD PTR [rsp+0xe0]
    af58:	00 
    af59:	48 b8 00 00 00 00 00 	movabs rax,0x0
    af60:	00 00 00 
			af5b: R_X86_64_64	caml_initialize
    af63:	48 89 b4 24 e0 00 00 	mov    QWORD PTR [rsp+0xe0],rsi
    af6a:	00 
    af6b:	4c 89 bc 24 e8 00 00 	mov    QWORD PTR [rsp+0xe8],r15
    af72:	00 
    af73:	48 89 9c 24 f0 00 00 	mov    QWORD PTR [rsp+0xf0],rbx
    af7a:	00 
    af7b:	48 89 bc 24 f8 00 00 	mov    QWORD PTR [rsp+0xf8],rdi
    af82:	00 
    af83:	ff d0                	call   rax
    af85:	48 8b 9c 24 f0 00 00 	mov    rbx,QWORD PTR [rsp+0xf0]
    af8c:	00 
    af8d:	4c 8b bc 24 e8 00 00 	mov    r15,QWORD PTR [rsp+0xe8]
    af94:	00 
    af95:	4c 89 ff             	mov    rdi,r15
    af98:	48 81 c7 28 07 00 00 	add    rdi,0x728
    af9f:	48 8b b4 24 d8 00 00 	mov    rsi,QWORD PTR [rsp+0xd8]
    afa6:	00 
    afa7:	48 b8 00 00 00 00 00 	movabs rax,0x0
    afae:	00 00 00 
			afa9: R_X86_64_64	caml_initialize
    afb1:	48 89 b4 24 d8 00 00 	mov    QWORD PTR [rsp+0xd8],rsi
    afb8:	00 
    afb9:	4c 89 bc 24 e0 00 00 	mov    QWORD PTR [rsp+0xe0],r15
    afc0:	00 
    afc1:	48 89 9c 24 e8 00 00 	mov    QWORD PTR [rsp+0xe8],rbx
    afc8:	00 
    afc9:	48 89 bc 24 f0 00 00 	mov    QWORD PTR [rsp+0xf0],rdi
    afd0:	00 
    afd1:	ff d0                	call   rax
    afd3:	48 8b 9c 24 e8 00 00 	mov    rbx,QWORD PTR [rsp+0xe8]
    afda:	00 
    afdb:	4c 8b bc 24 e0 00 00 	mov    r15,QWORD PTR [rsp+0xe0]
    afe2:	00 
    afe3:	4c 89 ff             	mov    rdi,r15
    afe6:	48 81 c7 30 07 00 00 	add    rdi,0x730
    afed:	48 8b b4 24 d0 00 00 	mov    rsi,QWORD PTR [rsp+0xd0]
    aff4:	00 
    aff5:	48 b8 00 00 00 00 00 	movabs rax,0x0
    affc:	00 00 00 
			aff7: R_X86_64_64	caml_initialize
    afff:	48 89 b4 24 d0 00 00 	mov    QWORD PTR [rsp+0xd0],rsi
    b006:	00 
    b007:	4c 89 bc 24 d8 00 00 	mov    QWORD PTR [rsp+0xd8],r15
    b00e:	00 
    b00f:	48 89 9c 24 e0 00 00 	mov    QWORD PTR [rsp+0xe0],rbx
    b016:	00 
    b017:	48 89 bc 24 e8 00 00 	mov    QWORD PTR [rsp+0xe8],rdi
    b01e:	00 
    b01f:	ff d0                	call   rax
    b021:	48 8b 9c 24 e0 00 00 	mov    rbx,QWORD PTR [rsp+0xe0]
    b028:	00 
    b029:	4c 8b bc 24 d8 00 00 	mov    r15,QWORD PTR [rsp+0xd8]
    b030:	00 
    b031:	4c 89 ff             	mov    rdi,r15
    b034:	48 81 c7 38 07 00 00 	add    rdi,0x738
    b03b:	48 8b b4 24 c8 00 00 	mov    rsi,QWORD PTR [rsp+0xc8]
    b042:	00 
    b043:	48 b8 00 00 00 00 00 	movabs rax,0x0
    b04a:	00 00 00 
			b045: R_X86_64_64	caml_initialize
    b04d:	48 89 b4 24 c8 00 00 	mov    QWORD PTR [rsp+0xc8],rsi
    b054:	00 
    b055:	4c 89 bc 24 d0 00 00 	mov    QWORD PTR [rsp+0xd0],r15
    b05c:	00 
    b05d:	48 89 9c 24 d8 00 00 	mov    QWORD PTR [rsp+0xd8],rbx
    b064:	00 
    b065:	48 89 bc 24 e0 00 00 	mov    QWORD PTR [rsp+0xe0],rdi
    b06c:	00 
    b06d:	ff d0                	call   rax
    b06f:	48 8b 9c 24 d8 00 00 	mov    rbx,QWORD PTR [rsp+0xd8]
    b076:	00 
    b077:	4c 8b bc 24 d0 00 00 	mov    r15,QWORD PTR [rsp+0xd0]
    b07e:	00 
    b07f:	4c 89 ff             	mov    rdi,r15
    b082:	48 81 c7 40 07 00 00 	add    rdi,0x740
    b089:	48 8b b4 24 c0 00 00 	mov    rsi,QWORD PTR [rsp+0xc0]
    b090:	00 
    b091:	48 b8 00 00 00 00 00 	movabs rax,0x0
    b098:	00 00 00 
			b093: R_X86_64_64	caml_initialize
    b09b:	48 89 b4 24 c0 00 00 	mov    QWORD PTR [rsp+0xc0],rsi
    b0a2:	00 
    b0a3:	4c 89 bc 24 c8 00 00 	mov    QWORD PTR [rsp+0xc8],r15
    b0aa:	00 
    b0ab:	48 89 9c 24 d0 00 00 	mov    QWORD PTR [rsp+0xd0],rbx
    b0b2:	00 
    b0b3:	48 89 bc 24 d8 00 00 	mov    QWORD PTR [rsp+0xd8],rdi
    b0ba:	00 
    b0bb:	ff d0                	call   rax
    b0bd:	48 8b 9c 24 d0 00 00 	mov    rbx,QWORD PTR [rsp+0xd0]
    b0c4:	00 
    b0c5:	4c 8b bc 24 c8 00 00 	mov    r15,QWORD PTR [rsp+0xc8]
    b0cc:	00 
    b0cd:	4c 89 ff             	mov    rdi,r15
    b0d0:	48 81 c7 48 07 00 00 	add    rdi,0x748
    b0d7:	48 8b b4 24 b8 00 00 	mov    rsi,QWORD PTR [rsp+0xb8]
    b0de:	00 
    b0df:	48 b8 00 00 00 00 00 	movabs rax,0x0
    b0e6:	00 00 00 
			b0e1: R_X86_64_64	caml_initialize
    b0e9:	48 89 b4 24 b8 00 00 	mov    QWORD PTR [rsp+0xb8],rsi
    b0f0:	00 
    b0f1:	4c 89 bc 24 c0 00 00 	mov    QWORD PTR [rsp+0xc0],r15
    b0f8:	00 
    b0f9:	48 89 9c 24 c8 00 00 	mov    QWORD PTR [rsp+0xc8],rbx
    b100:	00 
    b101:	48 89 bc 24 d0 00 00 	mov    QWORD PTR [rsp+0xd0],rdi
    b108:	00 
    b109:	ff d0                	call   rax
    b10b:	48 8b 9c 24 c8 00 00 	mov    rbx,QWORD PTR [rsp+0xc8]
    b112:	00 
    b113:	4c 8b bc 24 c0 00 00 	mov    r15,QWORD PTR [rsp+0xc0]
    b11a:	00 
    b11b:	4c 89 ff             	mov    rdi,r15
    b11e:	48 81 c7 50 07 00 00 	add    rdi,0x750
    b125:	48 8b b4 24 b0 00 00 	mov    rsi,QWORD PTR [rsp+0xb0]
    b12c:	00 
    b12d:	48 b8 00 00 00 00 00 	movabs rax,0x0
    b134:	00 00 00 
			b12f: R_X86_64_64	caml_initialize
    b137:	48 89 b4 24 b0 00 00 	mov    QWORD PTR [rsp+0xb0],rsi
    b13e:	00 
    b13f:	4c 89 bc 24 b8 00 00 	mov    QWORD PTR [rsp+0xb8],r15
    b146:	00 
    b147:	48 89 9c 24 c0 00 00 	mov    QWORD PTR [rsp+0xc0],rbx
    b14e:	00 
    b14f:	48 89 bc 24 c8 00 00 	mov    QWORD PTR [rsp+0xc8],rdi
    b156:	00 
    b157:	ff d0                	call   rax
    b159:	48 8b 9c 24 c0 00 00 	mov    rbx,QWORD PTR [rsp+0xc0]
    b160:	00 
    b161:	4c 8b bc 24 b8 00 00 	mov    r15,QWORD PTR [rsp+0xb8]
    b168:	00 
    b169:	4c 89 ff             	mov    rdi,r15
    b16c:	48 81 c7 58 07 00 00 	add    rdi,0x758
    b173:	48 8b b4 24 a8 00 00 	mov    rsi,QWORD PTR [rsp+0xa8]
    b17a:	00 
    b17b:	48 b8 00 00 00 00 00 	movabs rax,0x0
    b182:	00 00 00 
			b17d: R_X86_64_64	caml_initialize
    b185:	48 89 b4 24 a8 00 00 	mov    QWORD PTR [rsp+0xa8],rsi
    b18c:	00 
    b18d:	4c 89 bc 24 b0 00 00 	mov    QWORD PTR [rsp+0xb0],r15
    b194:	00 
    b195:	48 89 9c 24 b8 00 00 	mov    QWORD PTR [rsp+0xb8],rbx
    b19c:	00 
    b19d:	48 89 bc 24 c0 00 00 	mov    QWORD PTR [rsp+0xc0],rdi
    b1a4:	00 
    b1a5:	ff d0                	call   rax
    b1a7:	48 8b 9c 24 b8 00 00 	mov    rbx,QWORD PTR [rsp+0xb8]
    b1ae:	00 
    b1af:	4c 8b bc 24 b0 00 00 	mov    r15,QWORD PTR [rsp+0xb0]
    b1b6:	00 
    b1b7:	4c 89 ff             	mov    rdi,r15
    b1ba:	48 81 c7 60 07 00 00 	add    rdi,0x760
    b1c1:	48 8b b4 24 a0 00 00 	mov    rsi,QWORD PTR [rsp+0xa0]
    b1c8:	00 
    b1c9:	48 b8 00 00 00 00 00 	movabs rax,0x0
    b1d0:	00 00 00 
			b1cb: R_X86_64_64	caml_initialize
    b1d3:	48 89 b4 24 a0 00 00 	mov    QWORD PTR [rsp+0xa0],rsi
    b1da:	00 
    b1db:	4c 89 bc 24 a8 00 00 	mov    QWORD PTR [rsp+0xa8],r15
    b1e2:	00 
    b1e3:	48 89 9c 24 b0 00 00 	mov    QWORD PTR [rsp+0xb0],rbx
    b1ea:	00 
    b1eb:	48 89 bc 24 b8 00 00 	mov    QWORD PTR [rsp+0xb8],rdi
    b1f2:	00 
    b1f3:	ff d0                	call   rax
    b1f5:	48 8b 9c 24 b0 00 00 	mov    rbx,QWORD PTR [rsp+0xb0]
    b1fc:	00 
    b1fd:	4c 8b bc 24 a8 00 00 	mov    r15,QWORD PTR [rsp+0xa8]
    b204:	00 
    b205:	4c 89 ff             	mov    rdi,r15
    b208:	48 81 c7 68 07 00 00 	add    rdi,0x768
    b20f:	48 8b b4 24 98 00 00 	mov    rsi,QWORD PTR [rsp+0x98]
    b216:	00 
    b217:	48 b8 00 00 00 00 00 	movabs rax,0x0
    b21e:	00 00 00 
			b219: R_X86_64_64	caml_initialize
    b221:	48 89 b4 24 98 00 00 	mov    QWORD PTR [rsp+0x98],rsi
    b228:	00 
    b229:	4c 89 bc 24 a0 00 00 	mov    QWORD PTR [rsp+0xa0],r15
    b230:	00 
    b231:	48 89 9c 24 a8 00 00 	mov    QWORD PTR [rsp+0xa8],rbx
    b238:	00 
    b239:	48 89 bc 24 b0 00 00 	mov    QWORD PTR [rsp+0xb0],rdi
    b240:	00 
    b241:	ff d0                	call   rax
    b243:	48 8b 9c 24 a8 00 00 	mov    rbx,QWORD PTR [rsp+0xa8]
    b24a:	00 
    b24b:	4c 8b bc 24 a0 00 00 	mov    r15,QWORD PTR [rsp+0xa0]
    b252:	00 
    b253:	4c 89 ff             	mov    rdi,r15
    b256:	48 81 c7 70 07 00 00 	add    rdi,0x770
    b25d:	48 8b b4 24 90 00 00 	mov    rsi,QWORD PTR [rsp+0x90]
    b264:	00 
    b265:	48 b8 00 00 00 00 00 	movabs rax,0x0
    b26c:	00 00 00 
			b267: R_X86_64_64	caml_initialize
    b26f:	48 89 b4 24 90 00 00 	mov    QWORD PTR [rsp+0x90],rsi
    b276:	00 
    b277:	4c 89 bc 24 98 00 00 	mov    QWORD PTR [rsp+0x98],r15
    b27e:	00 
    b27f:	48 89 9c 24 a0 00 00 	mov    QWORD PTR [rsp+0xa0],rbx
    b286:	00 
    b287:	48 89 bc 24 a8 00 00 	mov    QWORD PTR [rsp+0xa8],rdi
    b28e:	00 
    b28f:	ff d0                	call   rax
    b291:	48 8b 9c 24 a0 00 00 	mov    rbx,QWORD PTR [rsp+0xa0]
    b298:	00 
    b299:	4c 8b bc 24 98 00 00 	mov    r15,QWORD PTR [rsp+0x98]
    b2a0:	00 
    b2a1:	4c 89 ff             	mov    rdi,r15
    b2a4:	48 81 c7 78 07 00 00 	add    rdi,0x778
    b2ab:	48 8b b4 24 88 00 00 	mov    rsi,QWORD PTR [rsp+0x88]
    b2b2:	00 
    b2b3:	48 b8 00 00 00 00 00 	movabs rax,0x0
    b2ba:	00 00 00 
			b2b5: R_X86_64_64	caml_initialize
    b2bd:	48 89 b4 24 88 00 00 	mov    QWORD PTR [rsp+0x88],rsi
    b2c4:	00 
    b2c5:	4c 89 bc 24 90 00 00 	mov    QWORD PTR [rsp+0x90],r15
    b2cc:	00 
    b2cd:	48 89 9c 24 98 00 00 	mov    QWORD PTR [rsp+0x98],rbx
    b2d4:	00 
    b2d5:	48 89 bc 24 a0 00 00 	mov    QWORD PTR [rsp+0xa0],rdi
    b2dc:	00 
    b2dd:	ff d0                	call   rax
    b2df:	48 8b 9c 24 98 00 00 	mov    rbx,QWORD PTR [rsp+0x98]
    b2e6:	00 
    b2e7:	4c 8b bc 24 90 00 00 	mov    r15,QWORD PTR [rsp+0x90]
    b2ee:	00 
    b2ef:	4c 89 ff             	mov    rdi,r15
    b2f2:	48 81 c7 80 07 00 00 	add    rdi,0x780
    b2f9:	48 8b b4 24 80 00 00 	mov    rsi,QWORD PTR [rsp+0x80]
    b300:	00 
    b301:	48 b8 00 00 00 00 00 	movabs rax,0x0
    b308:	00 00 00 
			b303: R_X86_64_64	caml_initialize
    b30b:	48 89 b4 24 80 00 00 	mov    QWORD PTR [rsp+0x80],rsi
    b312:	00 
    b313:	4c 89 bc 24 88 00 00 	mov    QWORD PTR [rsp+0x88],r15
    b31a:	00 
    b31b:	48 89 9c 24 90 00 00 	mov    QWORD PTR [rsp+0x90],rbx
    b322:	00 
    b323:	48 89 bc 24 98 00 00 	mov    QWORD PTR [rsp+0x98],rdi
    b32a:	00 
    b32b:	ff d0                	call   rax
    b32d:	48 8b 9c 24 90 00 00 	mov    rbx,QWORD PTR [rsp+0x90]
    b334:	00 
    b335:	4c 8b bc 24 88 00 00 	mov    r15,QWORD PTR [rsp+0x88]
    b33c:	00 
    b33d:	4c 89 ff             	mov    rdi,r15
    b340:	48 81 c7 88 07 00 00 	add    rdi,0x788
    b347:	48 8b 74 24 78       	mov    rsi,QWORD PTR [rsp+0x78]
    b34c:	48 b8 00 00 00 00 00 	movabs rax,0x0
    b353:	00 00 00 
			b34e: R_X86_64_64	caml_initialize
    b356:	48 89 74 24 78       	mov    QWORD PTR [rsp+0x78],rsi
    b35b:	4c 89 bc 24 80 00 00 	mov    QWORD PTR [rsp+0x80],r15
    b362:	00 
    b363:	48 89 9c 24 88 00 00 	mov    QWORD PTR [rsp+0x88],rbx
    b36a:	00 
    b36b:	48 89 bc 24 90 00 00 	mov    QWORD PTR [rsp+0x90],rdi
    b372:	00 
    b373:	ff d0                	call   rax
    b375:	48 8b 9c 24 88 00 00 	mov    rbx,QWORD PTR [rsp+0x88]
    b37c:	00 
    b37d:	4c 8b bc 24 80 00 00 	mov    r15,QWORD PTR [rsp+0x80]
    b384:	00 
    b385:	4c 89 ff             	mov    rdi,r15
    b388:	48 81 c7 90 07 00 00 	add    rdi,0x790
    b38f:	48 8b 74 24 70       	mov    rsi,QWORD PTR [rsp+0x70]
    b394:	48 b8 00 00 00 00 00 	movabs rax,0x0
    b39b:	00 00 00 
			b396: R_X86_64_64	caml_initialize
    b39e:	48 89 74 24 70       	mov    QWORD PTR [rsp+0x70],rsi
    b3a3:	4c 89 7c 24 78       	mov    QWORD PTR [rsp+0x78],r15
    b3a8:	48 89 9c 24 80 00 00 	mov    QWORD PTR [rsp+0x80],rbx
    b3af:	00 
    b3b0:	48 89 bc 24 88 00 00 	mov    QWORD PTR [rsp+0x88],rdi
    b3b7:	00 
    b3b8:	ff d0                	call   rax
    b3ba:	48 8b 9c 24 80 00 00 	mov    rbx,QWORD PTR [rsp+0x80]
    b3c1:	00 
    b3c2:	4c 8b 7c 24 78       	mov    r15,QWORD PTR [rsp+0x78]
    b3c7:	4c 89 ff             	mov    rdi,r15
    b3ca:	48 81 c7 98 07 00 00 	add    rdi,0x798
    b3d1:	48 8b 74 24 68       	mov    rsi,QWORD PTR [rsp+0x68]
    b3d6:	48 b8 00 00 00 00 00 	movabs rax,0x0
    b3dd:	00 00 00 
			b3d8: R_X86_64_64	caml_initialize
    b3e0:	48 89 74 24 68       	mov    QWORD PTR [rsp+0x68],rsi
    b3e5:	4c 89 7c 24 70       	mov    QWORD PTR [rsp+0x70],r15
    b3ea:	48 89 5c 24 78       	mov    QWORD PTR [rsp+0x78],rbx
    b3ef:	48 89 bc 24 80 00 00 	mov    QWORD PTR [rsp+0x80],rdi
    b3f6:	00 
    b3f7:	ff d0                	call   rax
    b3f9:	48 8b 5c 24 78       	mov    rbx,QWORD PTR [rsp+0x78]
    b3fe:	4c 8b 7c 24 70       	mov    r15,QWORD PTR [rsp+0x70]
    b403:	4c 89 ff             	mov    rdi,r15
    b406:	48 81 c7 a0 07 00 00 	add    rdi,0x7a0
    b40d:	48 8b 74 24 60       	mov    rsi,QWORD PTR [rsp+0x60]
    b412:	48 b8 00 00 00 00 00 	movabs rax,0x0
    b419:	00 00 00 
			b414: R_X86_64_64	caml_initialize
    b41c:	48 89 74 24 60       	mov    QWORD PTR [rsp+0x60],rsi
    b421:	4c 89 7c 24 68       	mov    QWORD PTR [rsp+0x68],r15
    b426:	48 89 5c 24 70       	mov    QWORD PTR [rsp+0x70],rbx
    b42b:	48 89 7c 24 78       	mov    QWORD PTR [rsp+0x78],rdi
    b430:	ff d0                	call   rax
    b432:	48 8b 5c 24 70       	mov    rbx,QWORD PTR [rsp+0x70]
    b437:	4c 8b 7c 24 68       	mov    r15,QWORD PTR [rsp+0x68]
    b43c:	4c 89 ff             	mov    rdi,r15
    b43f:	48 81 c7 a8 07 00 00 	add    rdi,0x7a8
    b446:	48 8b 74 24 58       	mov    rsi,QWORD PTR [rsp+0x58]
    b44b:	48 b8 00 00 00 00 00 	movabs rax,0x0
    b452:	00 00 00 
			b44d: R_X86_64_64	caml_initialize
    b455:	48 89 74 24 58       	mov    QWORD PTR [rsp+0x58],rsi
    b45a:	4c 89 7c 24 60       	mov    QWORD PTR [rsp+0x60],r15
    b45f:	48 89 5c 24 68       	mov    QWORD PTR [rsp+0x68],rbx
    b464:	48 89 7c 24 70       	mov    QWORD PTR [rsp+0x70],rdi
    b469:	ff d0                	call   rax
    b46b:	48 8b 5c 24 68       	mov    rbx,QWORD PTR [rsp+0x68]
    b470:	4c 8b 7c 24 60       	mov    r15,QWORD PTR [rsp+0x60]
    b475:	4c 89 ff             	mov    rdi,r15
    b478:	48 81 c7 b0 07 00 00 	add    rdi,0x7b0
    b47f:	48 8b 74 24 50       	mov    rsi,QWORD PTR [rsp+0x50]
    b484:	48 b8 00 00 00 00 00 	movabs rax,0x0
    b48b:	00 00 00 
			b486: R_X86_64_64	caml_initialize
    b48e:	48 89 74 24 50       	mov    QWORD PTR [rsp+0x50],rsi
    b493:	4c 89 7c 24 58       	mov    QWORD PTR [rsp+0x58],r15
    b498:	48 89 5c 24 60       	mov    QWORD PTR [rsp+0x60],rbx
    b49d:	48 89 7c 24 68       	mov    QWORD PTR [rsp+0x68],rdi
    b4a2:	ff d0                	call   rax
    b4a4:	48 8b 5c 24 60       	mov    rbx,QWORD PTR [rsp+0x60]
    b4a9:	4c 8b 7c 24 58       	mov    r15,QWORD PTR [rsp+0x58]
    b4ae:	4c 89 ff             	mov    rdi,r15
    b4b1:	48 81 c7 b8 07 00 00 	add    rdi,0x7b8
    b4b8:	48 8b 74 24 48       	mov    rsi,QWORD PTR [rsp+0x48]
    b4bd:	48 b8 00 00 00 00 00 	movabs rax,0x0
    b4c4:	00 00 00 
			b4bf: R_X86_64_64	caml_initialize
    b4c7:	48 89 74 24 48       	mov    QWORD PTR [rsp+0x48],rsi
    b4cc:	4c 89 7c 24 50       	mov    QWORD PTR [rsp+0x50],r15
    b4d1:	48 89 5c 24 58       	mov    QWORD PTR [rsp+0x58],rbx
    b4d6:	48 89 7c 24 60       	mov    QWORD PTR [rsp+0x60],rdi
    b4db:	ff d0                	call   rax
    b4dd:	48 8b 5c 24 58       	mov    rbx,QWORD PTR [rsp+0x58]
    b4e2:	4c 8b 7c 24 50       	mov    r15,QWORD PTR [rsp+0x50]
    b4e7:	4c 89 ff             	mov    rdi,r15
    b4ea:	48 81 c7 c0 07 00 00 	add    rdi,0x7c0
    b4f1:	48 8b 74 24 40       	mov    rsi,QWORD PTR [rsp+0x40]
    b4f6:	48 b8 00 00 00 00 00 	movabs rax,0x0
    b4fd:	00 00 00 
			b4f8: R_X86_64_64	caml_initialize
    b500:	48 89 74 24 40       	mov    QWORD PTR [rsp+0x40],rsi
    b505:	4c 89 7c 24 48       	mov    QWORD PTR [rsp+0x48],r15
    b50a:	48 89 5c 24 50       	mov    QWORD PTR [rsp+0x50],rbx
    b50f:	48 89 7c 24 58       	mov    QWORD PTR [rsp+0x58],rdi
    b514:	ff d0                	call   rax
    b516:	48 8b 5c 24 50       	mov    rbx,QWORD PTR [rsp+0x50]
    b51b:	4c 8b 7c 24 48       	mov    r15,QWORD PTR [rsp+0x48]
    b520:	4c 89 ff             	mov    rdi,r15
    b523:	48 81 c7 c8 07 00 00 	add    rdi,0x7c8
    b52a:	48 8b 74 24 38       	mov    rsi,QWORD PTR [rsp+0x38]
    b52f:	48 b8 00 00 00 00 00 	movabs rax,0x0
    b536:	00 00 00 
			b531: R_X86_64_64	caml_initialize
    b539:	48 89 74 24 38       	mov    QWORD PTR [rsp+0x38],rsi
    b53e:	4c 89 7c 24 40       	mov    QWORD PTR [rsp+0x40],r15
    b543:	48 89 5c 24 48       	mov    QWORD PTR [rsp+0x48],rbx
    b548:	48 89 7c 24 50       	mov    QWORD PTR [rsp+0x50],rdi
    b54d:	ff d0                	call   rax
    b54f:	48 8b 5c 24 48       	mov    rbx,QWORD PTR [rsp+0x48]
    b554:	4c 8b 7c 24 40       	mov    r15,QWORD PTR [rsp+0x40]
    b559:	4c 89 ff             	mov    rdi,r15
    b55c:	48 81 c7 d0 07 00 00 	add    rdi,0x7d0
    b563:	48 8b 74 24 30       	mov    rsi,QWORD PTR [rsp+0x30]
    b568:	48 b8 00 00 00 00 00 	movabs rax,0x0
    b56f:	00 00 00 
			b56a: R_X86_64_64	caml_initialize
    b572:	48 89 74 24 30       	mov    QWORD PTR [rsp+0x30],rsi
    b577:	4c 89 7c 24 38       	mov    QWORD PTR [rsp+0x38],r15
    b57c:	48 89 5c 24 40       	mov    QWORD PTR [rsp+0x40],rbx
    b581:	48 89 7c 24 48       	mov    QWORD PTR [rsp+0x48],rdi
    b586:	ff d0                	call   rax
    b588:	48 8b 5c 24 40       	mov    rbx,QWORD PTR [rsp+0x40]
    b58d:	4c 8b 7c 24 38       	mov    r15,QWORD PTR [rsp+0x38]
    b592:	4c 89 ff             	mov    rdi,r15
    b595:	48 81 c7 d8 07 00 00 	add    rdi,0x7d8
    b59c:	48 8b 74 24 28       	mov    rsi,QWORD PTR [rsp+0x28]
    b5a1:	48 b8 00 00 00 00 00 	movabs rax,0x0
    b5a8:	00 00 00 
			b5a3: R_X86_64_64	caml_initialize
    b5ab:	48 89 74 24 28       	mov    QWORD PTR [rsp+0x28],rsi
    b5b0:	4c 89 7c 24 30       	mov    QWORD PTR [rsp+0x30],r15
    b5b5:	48 89 5c 24 38       	mov    QWORD PTR [rsp+0x38],rbx
    b5ba:	48 89 7c 24 40       	mov    QWORD PTR [rsp+0x40],rdi
    b5bf:	ff d0                	call   rax
    b5c1:	48 8b 5c 24 38       	mov    rbx,QWORD PTR [rsp+0x38]
    b5c6:	4c 8b 7c 24 30       	mov    r15,QWORD PTR [rsp+0x30]
    b5cb:	4c 89 ff             	mov    rdi,r15
    b5ce:	48 81 c7 e0 07 00 00 	add    rdi,0x7e0
    b5d5:	48 8b 74 24 20       	mov    rsi,QWORD PTR [rsp+0x20]
    b5da:	48 b8 00 00 00 00 00 	movabs rax,0x0
    b5e1:	00 00 00 
			b5dc: R_X86_64_64	caml_initialize
    b5e4:	48 89 74 24 20       	mov    QWORD PTR [rsp+0x20],rsi
    b5e9:	4c 89 7c 24 28       	mov    QWORD PTR [rsp+0x28],r15
    b5ee:	48 89 5c 24 30       	mov    QWORD PTR [rsp+0x30],rbx
    b5f3:	48 89 7c 24 38       	mov    QWORD PTR [rsp+0x38],rdi
    b5f8:	ff d0                	call   rax
    b5fa:	48 8b 5c 24 30       	mov    rbx,QWORD PTR [rsp+0x30]
    b5ff:	4c 8b 7c 24 28       	mov    r15,QWORD PTR [rsp+0x28]
    b604:	4c 89 ff             	mov    rdi,r15
    b607:	48 81 c7 e8 07 00 00 	add    rdi,0x7e8
    b60e:	48 8b 74 24 18       	mov    rsi,QWORD PTR [rsp+0x18]
    b613:	48 b8 00 00 00 00 00 	movabs rax,0x0
    b61a:	00 00 00 
			b615: R_X86_64_64	caml_initialize
    b61d:	48 89 74 24 18       	mov    QWORD PTR [rsp+0x18],rsi
    b622:	4c 89 7c 24 20       	mov    QWORD PTR [rsp+0x20],r15
    b627:	48 89 5c 24 28       	mov    QWORD PTR [rsp+0x28],rbx
    b62c:	48 89 7c 24 30       	mov    QWORD PTR [rsp+0x30],rdi
    b631:	ff d0                	call   rax
    b633:	48 8b 5c 24 28       	mov    rbx,QWORD PTR [rsp+0x28]
    b638:	4c 8b 7c 24 20       	mov    r15,QWORD PTR [rsp+0x20]
    b63d:	4c 89 ff             	mov    rdi,r15
    b640:	48 81 c7 f0 07 00 00 	add    rdi,0x7f0
    b647:	48 8b 74 24 10       	mov    rsi,QWORD PTR [rsp+0x10]
    b64c:	48 b8 00 00 00 00 00 	movabs rax,0x0
    b653:	00 00 00 
			b64e: R_X86_64_64	caml_initialize
    b656:	48 89 74 24 10       	mov    QWORD PTR [rsp+0x10],rsi
    b65b:	4c 89 7c 24 18       	mov    QWORD PTR [rsp+0x18],r15
    b660:	48 89 5c 24 20       	mov    QWORD PTR [rsp+0x20],rbx
    b665:	48 89 7c 24 28       	mov    QWORD PTR [rsp+0x28],rdi
    b66a:	ff d0                	call   rax
    b66c:	48 8b 5c 24 20       	mov    rbx,QWORD PTR [rsp+0x20]
    b671:	4c 8b 7c 24 18       	mov    r15,QWORD PTR [rsp+0x18]
    b676:	4c 89 ff             	mov    rdi,r15
    b679:	48 81 c7 f8 07 00 00 	add    rdi,0x7f8
    b680:	48 8b 74 24 08       	mov    rsi,QWORD PTR [rsp+0x8]
    b685:	48 b8 00 00 00 00 00 	movabs rax,0x0
    b68c:	00 00 00 
			b687: R_X86_64_64	caml_initialize
    b68f:	48 89 74 24 08       	mov    QWORD PTR [rsp+0x8],rsi
    b694:	4c 89 7c 24 10       	mov    QWORD PTR [rsp+0x10],r15
    b699:	48 89 5c 24 18       	mov    QWORD PTR [rsp+0x18],rbx
    b69e:	48 89 7c 24 20       	mov    QWORD PTR [rsp+0x20],rdi
    b6a3:	ff d0                	call   rax
    b6a5:	48 8b 5c 24 18       	mov    rbx,QWORD PTR [rsp+0x18]
    b6aa:	4c 8b 7c 24 10       	mov    r15,QWORD PTR [rsp+0x10]
    b6af:	49 81 c7 00 08 00 00 	add    r15,0x800
    b6b6:	4c 89 ff             	mov    rdi,r15
    b6b9:	48 8b 34 24          	mov    rsi,QWORD PTR [rsp]
    b6bd:	48 b8 00 00 00 00 00 	movabs rax,0x0
    b6c4:	00 00 00 
			b6bf: R_X86_64_64	caml_initialize
    b6c7:	48 89 34 24          	mov    QWORD PTR [rsp],rsi
    b6cb:	48 89 7c 24 08       	mov    QWORD PTR [rsp+0x8],rdi
    b6d0:	48 89 5c 24 10       	mov    QWORD PTR [rsp+0x10],rbx
    b6d5:	ff d0                	call   rax
    b6d7:	48 8b 5c 24 10       	mov    rbx,QWORD PTR [rsp+0x10]
    b6dc:	48 8b b4 24 f8 07 00 	mov    rsi,QWORD PTR [rsp+0x7f8]
    b6e3:	00 
    b6e4:	49 89 34 24          	mov    QWORD PTR [r12],rsi
    b6e8:	48 31 d2             	xor    rdx,rdx
    b6eb:	48 89 d8             	mov    rax,rbx
    b6ee:	4c 8b a4 24 30 08 00 	mov    r12,QWORD PTR [rsp+0x830]
    b6f5:	00 
    b6f6:	4c 8b ac 24 38 08 00 	mov    r13,QWORD PTR [rsp+0x838]
    b6fd:	00 
    b6fe:	4c 8b b4 24 40 08 00 	mov    r14,QWORD PTR [rsp+0x840]
    b705:	00 
    b706:	48 8b 9c 24 48 08 00 	mov    rbx,QWORD PTR [rsp+0x848]
    b70d:	00 
    b70e:	4c 8b bc 24 50 08 00 	mov    r15,QWORD PTR [rsp+0x850]
    b715:	00 
    b716:	48 81 c4 60 08 00 00 	add    rsp,0x860
    b71d:	48 89 ec             	mov    rsp,rbp
    b720:	5d                   	pop    rbp
    b721:	c3                   	ret    
