
<input>:     file format elf64-x86-64


Disassembly of section .text:

0000000000000000 <trigger_gc_please>:
       0:	55                   	push   rbp
       1:	48 89 e5             	mov    rbp,rsp
       4:	48 81 ec 80 03 00 00 	sub    rsp,0x380
       b:	4c 89 a4 24 50 03 00 	mov    QWORD PTR [rsp+0x350],r12
      12:	00 
      13:	4c 89 ac 24 58 03 00 	mov    QWORD PTR [rsp+0x358],r13
      1a:	00 
      1b:	4c 89 b4 24 60 03 00 	mov    QWORD PTR [rsp+0x360],r14
      22:	00 
      23:	48 89 9c 24 68 03 00 	mov    QWORD PTR [rsp+0x368],rbx
      2a:	00 
      2b:	4c 89 bc 24 70 03 00 	mov    QWORD PTR [rsp+0x370],r15
      32:	00 
      33:	48 89 bc 24 20 03 00 	mov    QWORD PTR [rsp+0x320],rdi
      3a:	00 
      3b:	48 89 b4 24 10 03 00 	mov    QWORD PTR [rsp+0x310],rsi
      42:	00 
      43:	48 89 d6             	mov    rsi,rdx
      46:	48 89 b4 24 18 03 00 	mov    QWORD PTR [rsp+0x318],rsi
      4d:	00 
      4e:	48 be 00 00 00 00 00 	movabs rsi,0x0
      55:	00 00 00 
			50: R_X86_64_64	caml_state_addr
      58:	48 89 b4 24 38 03 00 	mov    QWORD PTR [rsp+0x338],rsi
      5f:	00 
      60:	48 8b b4 24 10 03 00 	mov    rsi,QWORD PTR [rsp+0x310]
      67:	00 
      68:	bf 01 00 00 00       	mov    edi,0x1
      6d:	48 39 f7             	cmp    rdi,rsi
      70:	0f 84 31 5a 00 00    	je     5aa7 <trigger_gc_please+0x5aa7>
      76:	be 01 00 00 00       	mov    esi,0x1
      7b:	48 89 b4 24 30 03 00 	mov    QWORD PTR [rsp+0x330],rsi
      82:	00 
      83:	48 8b b4 24 20 03 00 	mov    rsi,QWORD PTR [rsp+0x320]
      8a:	00 
      8b:	48 8b 7e 08          	mov    rdi,QWORD PTR [rsi+0x8]
      8f:	48 8b b4 24 30 03 00 	mov    rsi,QWORD PTR [rsp+0x330]
      96:	00 
      97:	48 b8 00 00 00 00 00 	movabs rax,0x0
      9e:	00 00 00 
			99: R_X86_64_64	apply1
      a1:	48 89 34 24          	mov    QWORD PTR [rsp],rsi
      a5:	48 89 7c 24 08       	mov    QWORD PTR [rsp+0x8],rdi
      aa:	ff d0                	call   rax
      ac:	48 89 c3             	mov    rbx,rax
      af:	49 89 d6             	mov    r14,rdx
      b2:	4d 85 f6             	test   r14,r14
      b5:	0f 85 0d 00 00 00    	jne    c8 <trigger_gc_please+0xc8>
      bb:	48 89 9c 24 08 03 00 	mov    QWORD PTR [rsp+0x308],rbx
      c2:	00 
      c3:	e9 91 00 00 00       	jmp    159 <trigger_gc_please+0x159>
      c8:	48 8b b4 24 38 03 00 	mov    rsi,QWORD PTR [rsp+0x338]
      cf:	00 
      d0:	4c 8b be 98 00 00 00 	mov    r15,QWORD PTR [rsi+0x98]
      d7:	4d 89 f5             	mov    r13,r14
      da:	49 83 c5 ff          	add    r13,0xffffffffffffffff
      de:	4c 89 f2             	mov    rdx,r14
      e1:	48 c1 e2 03          	shl    rdx,0x3
      e5:	4d 89 fc             	mov    r12,r15
      e8:	49 01 d4             	add    r12,rdx
      eb:	4c 89 ff             	mov    rdi,r15
      ee:	48 83 c7 e8          	add    rdi,0xffffffffffffffe8
      f2:	4c 89 fe             	mov    rsi,r15
      f5:	48 b8 00 00 00 00 00 	movabs rax,0x0
      fc:	00 00 00 
			f7: R_X86_64_64	memmove
      ff:	48 89 1c 24          	mov    QWORD PTR [rsp],rbx
     103:	ff d0                	call   rax
     105:	48 8b 1c 24          	mov    rbx,QWORD PTR [rsp]
     109:	48 be 00 00 00 00 00 	movabs rsi,0x0
     110:	00 00 00 
			10b: R_X86_64_64	callback_return_addr
     113:	bf 01 00 00 00       	mov    edi,0x1
     118:	4b 89 7c f7 f8       	mov    QWORD PTR [r15+r14*8-0x8],rdi
     11d:	bf 01 00 00 00       	mov    edi,0x1
     122:	4b 89 7c f7 f0       	mov    QWORD PTR [r15+r14*8-0x10],rdi
     127:	4b 89 74 f7 e8       	mov    QWORD PTR [r15+r14*8-0x18],rsi
     12c:	48 8b b4 24 38 03 00 	mov    rsi,QWORD PTR [rsp+0x338]
     133:	00 
     134:	4c 89 a6 98 00 00 00 	mov    QWORD PTR [rsi+0x98],r12
     13b:	48 89 df             	mov    rdi,rbx
     13e:	4c 89 ee             	mov    rsi,r13
     141:	48 b8 00 00 00 00 00 	movabs rax,0x0
     148:	00 00 00 
			143: R_X86_64_64	apply_n
     14b:	48 89 3c 24          	mov    QWORD PTR [rsp],rdi
     14f:	ff d0                	call   rax
     151:	48 89 84 24 08 03 00 	mov    QWORD PTR [rsp+0x308],rax
     158:	00 
     159:	48 8b b4 24 20 03 00 	mov    rsi,QWORD PTR [rsp+0x320]
     160:	00 
     161:	48 8b 7e 08          	mov    rdi,QWORD PTR [rsi+0x8]
     165:	48 8b b4 24 30 03 00 	mov    rsi,QWORD PTR [rsp+0x330]
     16c:	00 
     16d:	48 b8 00 00 00 00 00 	movabs rax,0x0
     174:	00 00 00 
			16f: R_X86_64_64	apply1
     177:	48 89 34 24          	mov    QWORD PTR [rsp],rsi
     17b:	48 89 7c 24 08       	mov    QWORD PTR [rsp+0x8],rdi
     180:	ff d0                	call   rax
     182:	49 89 c6             	mov    r14,rax
     185:	48 89 d3             	mov    rbx,rdx
     188:	48 85 db             	test   rbx,rbx
     18b:	0f 85 0d 00 00 00    	jne    19e <trigger_gc_please+0x19e>
     191:	4c 89 b4 24 80 01 00 	mov    QWORD PTR [rsp+0x180],r14
     198:	00 
     199:	e9 91 00 00 00       	jmp    22f <trigger_gc_please+0x22f>
     19e:	48 8b b4 24 38 03 00 	mov    rsi,QWORD PTR [rsp+0x338]
     1a5:	00 
     1a6:	4c 8b be 98 00 00 00 	mov    r15,QWORD PTR [rsi+0x98]
     1ad:	49 89 dd             	mov    r13,rbx
     1b0:	49 83 c5 ff          	add    r13,0xffffffffffffffff
     1b4:	48 89 da             	mov    rdx,rbx
     1b7:	48 c1 e2 03          	shl    rdx,0x3
     1bb:	4d 89 fc             	mov    r12,r15
     1be:	49 01 d4             	add    r12,rdx
     1c1:	4c 89 ff             	mov    rdi,r15
     1c4:	48 83 c7 e8          	add    rdi,0xffffffffffffffe8
     1c8:	4c 89 fe             	mov    rsi,r15
     1cb:	48 b8 00 00 00 00 00 	movabs rax,0x0
     1d2:	00 00 00 
			1cd: R_X86_64_64	memmove
     1d5:	4c 89 34 24          	mov    QWORD PTR [rsp],r14
     1d9:	ff d0                	call   rax
     1db:	4c 8b 34 24          	mov    r14,QWORD PTR [rsp]
     1df:	48 be 00 00 00 00 00 	movabs rsi,0x0
     1e6:	00 00 00 
			1e1: R_X86_64_64	callback_return_addr
     1e9:	bf 01 00 00 00       	mov    edi,0x1
     1ee:	49 89 7c df f8       	mov    QWORD PTR [r15+rbx*8-0x8],rdi
     1f3:	bf 01 00 00 00       	mov    edi,0x1
     1f8:	49 89 7c df f0       	mov    QWORD PTR [r15+rbx*8-0x10],rdi
     1fd:	49 89 74 df e8       	mov    QWORD PTR [r15+rbx*8-0x18],rsi
     202:	48 8b b4 24 38 03 00 	mov    rsi,QWORD PTR [rsp+0x338]
     209:	00 
     20a:	4c 89 a6 98 00 00 00 	mov    QWORD PTR [rsi+0x98],r12
     211:	4c 89 f7             	mov    rdi,r14
     214:	4c 89 ee             	mov    rsi,r13
     217:	48 b8 00 00 00 00 00 	movabs rax,0x0
     21e:	00 00 00 
			219: R_X86_64_64	apply_n
     221:	48 89 3c 24          	mov    QWORD PTR [rsp],rdi
     225:	ff d0                	call   rax
     227:	48 89 84 24 80 01 00 	mov    QWORD PTR [rsp+0x180],rax
     22e:	00 
     22f:	48 8b b4 24 20 03 00 	mov    rsi,QWORD PTR [rsp+0x320]
     236:	00 
     237:	48 8b 7e 08          	mov    rdi,QWORD PTR [rsi+0x8]
     23b:	48 8b b4 24 30 03 00 	mov    rsi,QWORD PTR [rsp+0x330]
     242:	00 
     243:	48 b8 00 00 00 00 00 	movabs rax,0x0
     24a:	00 00 00 
			245: R_X86_64_64	apply1
     24d:	48 89 34 24          	mov    QWORD PTR [rsp],rsi
     251:	48 89 7c 24 08       	mov    QWORD PTR [rsp+0x8],rdi
     256:	ff d0                	call   rax
     258:	49 89 c6             	mov    r14,rax
     25b:	48 89 d3             	mov    rbx,rdx
     25e:	48 85 db             	test   rbx,rbx
     261:	0f 85 0d 00 00 00    	jne    274 <trigger_gc_please+0x274>
     267:	4c 89 b4 24 00 03 00 	mov    QWORD PTR [rsp+0x300],r14
     26e:	00 
     26f:	e9 91 00 00 00       	jmp    305 <trigger_gc_please+0x305>
     274:	48 8b b4 24 38 03 00 	mov    rsi,QWORD PTR [rsp+0x338]
     27b:	00 
     27c:	4c 8b be 98 00 00 00 	mov    r15,QWORD PTR [rsi+0x98]
     283:	49 89 dd             	mov    r13,rbx
     286:	49 83 c5 ff          	add    r13,0xffffffffffffffff
     28a:	48 89 da             	mov    rdx,rbx
     28d:	48 c1 e2 03          	shl    rdx,0x3
     291:	4d 89 fc             	mov    r12,r15
     294:	49 01 d4             	add    r12,rdx
     297:	4c 89 ff             	mov    rdi,r15
     29a:	48 83 c7 e8          	add    rdi,0xffffffffffffffe8
     29e:	4c 89 fe             	mov    rsi,r15
     2a1:	48 b8 00 00 00 00 00 	movabs rax,0x0
     2a8:	00 00 00 
			2a3: R_X86_64_64	memmove
     2ab:	4c 89 34 24          	mov    QWORD PTR [rsp],r14
     2af:	ff d0                	call   rax
     2b1:	4c 8b 34 24          	mov    r14,QWORD PTR [rsp]
     2b5:	48 be 00 00 00 00 00 	movabs rsi,0x0
     2bc:	00 00 00 
			2b7: R_X86_64_64	callback_return_addr
     2bf:	bf 01 00 00 00       	mov    edi,0x1
     2c4:	49 89 7c df f8       	mov    QWORD PTR [r15+rbx*8-0x8],rdi
     2c9:	bf 01 00 00 00       	mov    edi,0x1
     2ce:	49 89 7c df f0       	mov    QWORD PTR [r15+rbx*8-0x10],rdi
     2d3:	49 89 74 df e8       	mov    QWORD PTR [r15+rbx*8-0x18],rsi
     2d8:	48 8b b4 24 38 03 00 	mov    rsi,QWORD PTR [rsp+0x338]
     2df:	00 
     2e0:	4c 89 a6 98 00 00 00 	mov    QWORD PTR [rsi+0x98],r12
     2e7:	4c 89 f7             	mov    rdi,r14
     2ea:	4c 89 ee             	mov    rsi,r13
     2ed:	48 b8 00 00 00 00 00 	movabs rax,0x0
     2f4:	00 00 00 
			2ef: R_X86_64_64	apply_n
     2f7:	48 89 3c 24          	mov    QWORD PTR [rsp],rdi
     2fb:	ff d0                	call   rax
     2fd:	48 89 84 24 00 03 00 	mov    QWORD PTR [rsp+0x300],rax
     304:	00 
     305:	48 8b b4 24 20 03 00 	mov    rsi,QWORD PTR [rsp+0x320]
     30c:	00 
     30d:	48 8b 7e 08          	mov    rdi,QWORD PTR [rsi+0x8]
     311:	48 8b b4 24 30 03 00 	mov    rsi,QWORD PTR [rsp+0x330]
     318:	00 
     319:	48 b8 00 00 00 00 00 	movabs rax,0x0
     320:	00 00 00 
			31b: R_X86_64_64	apply1
     323:	48 89 34 24          	mov    QWORD PTR [rsp],rsi
     327:	48 89 7c 24 08       	mov    QWORD PTR [rsp+0x8],rdi
     32c:	ff d0                	call   rax
     32e:	48 89 c3             	mov    rbx,rax
     331:	49 89 d6             	mov    r14,rdx
     334:	4d 85 f6             	test   r14,r14
     337:	0f 85 0d 00 00 00    	jne    34a <trigger_gc_please+0x34a>
     33d:	48 89 9c 24 78 01 00 	mov    QWORD PTR [rsp+0x178],rbx
     344:	00 
     345:	e9 91 00 00 00       	jmp    3db <trigger_gc_please+0x3db>
     34a:	48 8b b4 24 38 03 00 	mov    rsi,QWORD PTR [rsp+0x338]
     351:	00 
     352:	4c 8b be 98 00 00 00 	mov    r15,QWORD PTR [rsi+0x98]
     359:	4d 89 f5             	mov    r13,r14
     35c:	49 83 c5 ff          	add    r13,0xffffffffffffffff
     360:	4c 89 f2             	mov    rdx,r14
     363:	48 c1 e2 03          	shl    rdx,0x3
     367:	4d 89 fc             	mov    r12,r15
     36a:	49 01 d4             	add    r12,rdx
     36d:	4c 89 ff             	mov    rdi,r15
     370:	48 83 c7 e8          	add    rdi,0xffffffffffffffe8
     374:	4c 89 fe             	mov    rsi,r15
     377:	48 b8 00 00 00 00 00 	movabs rax,0x0
     37e:	00 00 00 
			379: R_X86_64_64	memmove
     381:	48 89 1c 24          	mov    QWORD PTR [rsp],rbx
     385:	ff d0                	call   rax
     387:	48 8b 1c 24          	mov    rbx,QWORD PTR [rsp]
     38b:	48 be 00 00 00 00 00 	movabs rsi,0x0
     392:	00 00 00 
			38d: R_X86_64_64	callback_return_addr
     395:	bf 01 00 00 00       	mov    edi,0x1
     39a:	4b 89 7c f7 f8       	mov    QWORD PTR [r15+r14*8-0x8],rdi
     39f:	bf 01 00 00 00       	mov    edi,0x1
     3a4:	4b 89 7c f7 f0       	mov    QWORD PTR [r15+r14*8-0x10],rdi
     3a9:	4b 89 74 f7 e8       	mov    QWORD PTR [r15+r14*8-0x18],rsi
     3ae:	48 8b b4 24 38 03 00 	mov    rsi,QWORD PTR [rsp+0x338]
     3b5:	00 
     3b6:	4c 89 a6 98 00 00 00 	mov    QWORD PTR [rsi+0x98],r12
     3bd:	48 89 df             	mov    rdi,rbx
     3c0:	4c 89 ee             	mov    rsi,r13
     3c3:	48 b8 00 00 00 00 00 	movabs rax,0x0
     3ca:	00 00 00 
			3c5: R_X86_64_64	apply_n
     3cd:	48 89 3c 24          	mov    QWORD PTR [rsp],rdi
     3d1:	ff d0                	call   rax
     3d3:	48 89 84 24 78 01 00 	mov    QWORD PTR [rsp+0x178],rax
     3da:	00 
     3db:	48 8b b4 24 20 03 00 	mov    rsi,QWORD PTR [rsp+0x320]
     3e2:	00 
     3e3:	48 8b 7e 08          	mov    rdi,QWORD PTR [rsi+0x8]
     3e7:	48 8b b4 24 30 03 00 	mov    rsi,QWORD PTR [rsp+0x330]
     3ee:	00 
     3ef:	48 b8 00 00 00 00 00 	movabs rax,0x0
     3f6:	00 00 00 
			3f1: R_X86_64_64	apply1
     3f9:	48 89 34 24          	mov    QWORD PTR [rsp],rsi
     3fd:	48 89 7c 24 08       	mov    QWORD PTR [rsp+0x8],rdi
     402:	ff d0                	call   rax
     404:	49 89 c6             	mov    r14,rax
     407:	48 89 d3             	mov    rbx,rdx
     40a:	48 85 db             	test   rbx,rbx
     40d:	0f 85 0d 00 00 00    	jne    420 <trigger_gc_please+0x420>
     413:	4c 89 b4 24 f8 02 00 	mov    QWORD PTR [rsp+0x2f8],r14
     41a:	00 
     41b:	e9 91 00 00 00       	jmp    4b1 <trigger_gc_please+0x4b1>
     420:	48 8b b4 24 38 03 00 	mov    rsi,QWORD PTR [rsp+0x338]
     427:	00 
     428:	4c 8b be 98 00 00 00 	mov    r15,QWORD PTR [rsi+0x98]
     42f:	49 89 dd             	mov    r13,rbx
     432:	49 83 c5 ff          	add    r13,0xffffffffffffffff
     436:	48 89 da             	mov    rdx,rbx
     439:	48 c1 e2 03          	shl    rdx,0x3
     43d:	4d 89 fc             	mov    r12,r15
     440:	49 01 d4             	add    r12,rdx
     443:	4c 89 ff             	mov    rdi,r15
     446:	48 83 c7 e8          	add    rdi,0xffffffffffffffe8
     44a:	4c 89 fe             	mov    rsi,r15
     44d:	48 b8 00 00 00 00 00 	movabs rax,0x0
     454:	00 00 00 
			44f: R_X86_64_64	memmove
     457:	4c 89 34 24          	mov    QWORD PTR [rsp],r14
     45b:	ff d0                	call   rax
     45d:	4c 8b 34 24          	mov    r14,QWORD PTR [rsp]
     461:	48 be 00 00 00 00 00 	movabs rsi,0x0
     468:	00 00 00 
			463: R_X86_64_64	callback_return_addr
     46b:	bf 01 00 00 00       	mov    edi,0x1
     470:	49 89 7c df f8       	mov    QWORD PTR [r15+rbx*8-0x8],rdi
     475:	bf 01 00 00 00       	mov    edi,0x1
     47a:	49 89 7c df f0       	mov    QWORD PTR [r15+rbx*8-0x10],rdi
     47f:	49 89 74 df e8       	mov    QWORD PTR [r15+rbx*8-0x18],rsi
     484:	48 8b b4 24 38 03 00 	mov    rsi,QWORD PTR [rsp+0x338]
     48b:	00 
     48c:	4c 89 a6 98 00 00 00 	mov    QWORD PTR [rsi+0x98],r12
     493:	4c 89 f7             	mov    rdi,r14
     496:	4c 89 ee             	mov    rsi,r13
     499:	48 b8 00 00 00 00 00 	movabs rax,0x0
     4a0:	00 00 00 
			49b: R_X86_64_64	apply_n
     4a3:	48 89 3c 24          	mov    QWORD PTR [rsp],rdi
     4a7:	ff d0                	call   rax
     4a9:	48 89 84 24 f8 02 00 	mov    QWORD PTR [rsp+0x2f8],rax
     4b0:	00 
     4b1:	48 8b b4 24 20 03 00 	mov    rsi,QWORD PTR [rsp+0x320]
     4b8:	00 
     4b9:	48 8b 7e 08          	mov    rdi,QWORD PTR [rsi+0x8]
     4bd:	48 8b b4 24 30 03 00 	mov    rsi,QWORD PTR [rsp+0x330]
     4c4:	00 
     4c5:	48 b8 00 00 00 00 00 	movabs rax,0x0
     4cc:	00 00 00 
			4c7: R_X86_64_64	apply1
     4cf:	48 89 34 24          	mov    QWORD PTR [rsp],rsi
     4d3:	48 89 7c 24 08       	mov    QWORD PTR [rsp+0x8],rdi
     4d8:	ff d0                	call   rax
     4da:	49 89 c6             	mov    r14,rax
     4dd:	48 89 d3             	mov    rbx,rdx
     4e0:	48 85 db             	test   rbx,rbx
     4e3:	0f 85 0d 00 00 00    	jne    4f6 <trigger_gc_please+0x4f6>
     4e9:	4c 89 b4 24 70 01 00 	mov    QWORD PTR [rsp+0x170],r14
     4f0:	00 
     4f1:	e9 91 00 00 00       	jmp    587 <trigger_gc_please+0x587>
     4f6:	48 8b b4 24 38 03 00 	mov    rsi,QWORD PTR [rsp+0x338]
     4fd:	00 
     4fe:	4c 8b be 98 00 00 00 	mov    r15,QWORD PTR [rsi+0x98]
     505:	49 89 dd             	mov    r13,rbx
     508:	49 83 c5 ff          	add    r13,0xffffffffffffffff
     50c:	48 89 da             	mov    rdx,rbx
     50f:	48 c1 e2 03          	shl    rdx,0x3
     513:	4d 89 fc             	mov    r12,r15
     516:	49 01 d4             	add    r12,rdx
     519:	4c 89 ff             	mov    rdi,r15
     51c:	48 83 c7 e8          	add    rdi,0xffffffffffffffe8
     520:	4c 89 fe             	mov    rsi,r15
     523:	48 b8 00 00 00 00 00 	movabs rax,0x0
     52a:	00 00 00 
			525: R_X86_64_64	memmove
     52d:	4c 89 34 24          	mov    QWORD PTR [rsp],r14
     531:	ff d0                	call   rax
     533:	4c 8b 34 24          	mov    r14,QWORD PTR [rsp]
     537:	48 be 00 00 00 00 00 	movabs rsi,0x0
     53e:	00 00 00 
			539: R_X86_64_64	callback_return_addr
     541:	bf 01 00 00 00       	mov    edi,0x1
     546:	49 89 7c df f8       	mov    QWORD PTR [r15+rbx*8-0x8],rdi
     54b:	bf 01 00 00 00       	mov    edi,0x1
     550:	49 89 7c df f0       	mov    QWORD PTR [r15+rbx*8-0x10],rdi
     555:	49 89 74 df e8       	mov    QWORD PTR [r15+rbx*8-0x18],rsi
     55a:	48 8b b4 24 38 03 00 	mov    rsi,QWORD PTR [rsp+0x338]
     561:	00 
     562:	4c 89 a6 98 00 00 00 	mov    QWORD PTR [rsi+0x98],r12
     569:	4c 89 f7             	mov    rdi,r14
     56c:	4c 89 ee             	mov    rsi,r13
     56f:	48 b8 00 00 00 00 00 	movabs rax,0x0
     576:	00 00 00 
			571: R_X86_64_64	apply_n
     579:	48 89 3c 24          	mov    QWORD PTR [rsp],rdi
     57d:	ff d0                	call   rax
     57f:	48 89 84 24 70 01 00 	mov    QWORD PTR [rsp+0x170],rax
     586:	00 
     587:	48 8b b4 24 20 03 00 	mov    rsi,QWORD PTR [rsp+0x320]
     58e:	00 
     58f:	48 8b 7e 08          	mov    rdi,QWORD PTR [rsi+0x8]
     593:	48 8b b4 24 30 03 00 	mov    rsi,QWORD PTR [rsp+0x330]
     59a:	00 
     59b:	48 b8 00 00 00 00 00 	movabs rax,0x0
     5a2:	00 00 00 
			59d: R_X86_64_64	apply1
     5a5:	48 89 34 24          	mov    QWORD PTR [rsp],rsi
     5a9:	48 89 7c 24 08       	mov    QWORD PTR [rsp+0x8],rdi
     5ae:	ff d0                	call   rax
     5b0:	48 89 c3             	mov    rbx,rax
     5b3:	49 89 d6             	mov    r14,rdx
     5b6:	4d 85 f6             	test   r14,r14
     5b9:	0f 85 0d 00 00 00    	jne    5cc <trigger_gc_please+0x5cc>
     5bf:	48 89 9c 24 f0 02 00 	mov    QWORD PTR [rsp+0x2f0],rbx
     5c6:	00 
     5c7:	e9 91 00 00 00       	jmp    65d <trigger_gc_please+0x65d>
     5cc:	48 8b b4 24 38 03 00 	mov    rsi,QWORD PTR [rsp+0x338]
     5d3:	00 
     5d4:	4c 8b be 98 00 00 00 	mov    r15,QWORD PTR [rsi+0x98]
     5db:	4d 89 f5             	mov    r13,r14
     5de:	49 83 c5 ff          	add    r13,0xffffffffffffffff
     5e2:	4c 89 f2             	mov    rdx,r14
     5e5:	48 c1 e2 03          	shl    rdx,0x3
     5e9:	4d 89 fc             	mov    r12,r15
     5ec:	49 01 d4             	add    r12,rdx
     5ef:	4c 89 ff             	mov    rdi,r15
     5f2:	48 83 c7 e8          	add    rdi,0xffffffffffffffe8
     5f6:	4c 89 fe             	mov    rsi,r15
     5f9:	48 b8 00 00 00 00 00 	movabs rax,0x0
     600:	00 00 00 
			5fb: R_X86_64_64	memmove
     603:	48 89 1c 24          	mov    QWORD PTR [rsp],rbx
     607:	ff d0                	call   rax
     609:	48 8b 1c 24          	mov    rbx,QWORD PTR [rsp]
     60d:	48 be 00 00 00 00 00 	movabs rsi,0x0
     614:	00 00 00 
			60f: R_X86_64_64	callback_return_addr
     617:	bf 01 00 00 00       	mov    edi,0x1
     61c:	4b 89 7c f7 f8       	mov    QWORD PTR [r15+r14*8-0x8],rdi
     621:	bf 01 00 00 00       	mov    edi,0x1
     626:	4b 89 7c f7 f0       	mov    QWORD PTR [r15+r14*8-0x10],rdi
     62b:	4b 89 74 f7 e8       	mov    QWORD PTR [r15+r14*8-0x18],rsi
     630:	48 8b b4 24 38 03 00 	mov    rsi,QWORD PTR [rsp+0x338]
     637:	00 
     638:	4c 89 a6 98 00 00 00 	mov    QWORD PTR [rsi+0x98],r12
     63f:	48 89 df             	mov    rdi,rbx
     642:	4c 89 ee             	mov    rsi,r13
     645:	48 b8 00 00 00 00 00 	movabs rax,0x0
     64c:	00 00 00 
			647: R_X86_64_64	apply_n
     64f:	48 89 3c 24          	mov    QWORD PTR [rsp],rdi
     653:	ff d0                	call   rax
     655:	48 89 84 24 f0 02 00 	mov    QWORD PTR [rsp+0x2f0],rax
     65c:	00 
     65d:	48 8b b4 24 20 03 00 	mov    rsi,QWORD PTR [rsp+0x320]
     664:	00 
     665:	48 8b 7e 08          	mov    rdi,QWORD PTR [rsi+0x8]
     669:	48 8b b4 24 30 03 00 	mov    rsi,QWORD PTR [rsp+0x330]
     670:	00 
     671:	48 b8 00 00 00 00 00 	movabs rax,0x0
     678:	00 00 00 
			673: R_X86_64_64	apply1
     67b:	48 89 34 24          	mov    QWORD PTR [rsp],rsi
     67f:	48 89 7c 24 08       	mov    QWORD PTR [rsp+0x8],rdi
     684:	ff d0                	call   rax
     686:	49 89 c6             	mov    r14,rax
     689:	48 89 d3             	mov    rbx,rdx
     68c:	48 85 db             	test   rbx,rbx
     68f:	0f 85 0d 00 00 00    	jne    6a2 <trigger_gc_please+0x6a2>
     695:	4c 89 b4 24 68 01 00 	mov    QWORD PTR [rsp+0x168],r14
     69c:	00 
     69d:	e9 91 00 00 00       	jmp    733 <trigger_gc_please+0x733>
     6a2:	48 8b b4 24 38 03 00 	mov    rsi,QWORD PTR [rsp+0x338]
     6a9:	00 
     6aa:	4c 8b be 98 00 00 00 	mov    r15,QWORD PTR [rsi+0x98]
     6b1:	49 89 dd             	mov    r13,rbx
     6b4:	49 83 c5 ff          	add    r13,0xffffffffffffffff
     6b8:	48 89 da             	mov    rdx,rbx
     6bb:	48 c1 e2 03          	shl    rdx,0x3
     6bf:	4d 89 fc             	mov    r12,r15
     6c2:	49 01 d4             	add    r12,rdx
     6c5:	4c 89 ff             	mov    rdi,r15
     6c8:	48 83 c7 e8          	add    rdi,0xffffffffffffffe8
     6cc:	4c 89 fe             	mov    rsi,r15
     6cf:	48 b8 00 00 00 00 00 	movabs rax,0x0
     6d6:	00 00 00 
			6d1: R_X86_64_64	memmove
     6d9:	4c 89 34 24          	mov    QWORD PTR [rsp],r14
     6dd:	ff d0                	call   rax
     6df:	4c 8b 34 24          	mov    r14,QWORD PTR [rsp]
     6e3:	48 be 00 00 00 00 00 	movabs rsi,0x0
     6ea:	00 00 00 
			6e5: R_X86_64_64	callback_return_addr
     6ed:	bf 01 00 00 00       	mov    edi,0x1
     6f2:	49 89 7c df f8       	mov    QWORD PTR [r15+rbx*8-0x8],rdi
     6f7:	bf 01 00 00 00       	mov    edi,0x1
     6fc:	49 89 7c df f0       	mov    QWORD PTR [r15+rbx*8-0x10],rdi
     701:	49 89 74 df e8       	mov    QWORD PTR [r15+rbx*8-0x18],rsi
     706:	48 8b b4 24 38 03 00 	mov    rsi,QWORD PTR [rsp+0x338]
     70d:	00 
     70e:	4c 89 a6 98 00 00 00 	mov    QWORD PTR [rsi+0x98],r12
     715:	4c 89 f7             	mov    rdi,r14
     718:	4c 89 ee             	mov    rsi,r13
     71b:	48 b8 00 00 00 00 00 	movabs rax,0x0
     722:	00 00 00 
			71d: R_X86_64_64	apply_n
     725:	48 89 3c 24          	mov    QWORD PTR [rsp],rdi
     729:	ff d0                	call   rax
     72b:	48 89 84 24 68 01 00 	mov    QWORD PTR [rsp+0x168],rax
     732:	00 
     733:	48 8b b4 24 20 03 00 	mov    rsi,QWORD PTR [rsp+0x320]
     73a:	00 
     73b:	48 8b 7e 08          	mov    rdi,QWORD PTR [rsi+0x8]
     73f:	48 8b b4 24 30 03 00 	mov    rsi,QWORD PTR [rsp+0x330]
     746:	00 
     747:	48 b8 00 00 00 00 00 	movabs rax,0x0
     74e:	00 00 00 
			749: R_X86_64_64	apply1
     751:	48 89 34 24          	mov    QWORD PTR [rsp],rsi
     755:	48 89 7c 24 08       	mov    QWORD PTR [rsp+0x8],rdi
     75a:	ff d0                	call   rax
     75c:	49 89 c6             	mov    r14,rax
     75f:	48 89 d3             	mov    rbx,rdx
     762:	48 85 db             	test   rbx,rbx
     765:	0f 85 0d 00 00 00    	jne    778 <trigger_gc_please+0x778>
     76b:	4c 89 b4 24 e8 02 00 	mov    QWORD PTR [rsp+0x2e8],r14
     772:	00 
     773:	e9 91 00 00 00       	jmp    809 <trigger_gc_please+0x809>
     778:	48 8b b4 24 38 03 00 	mov    rsi,QWORD PTR [rsp+0x338]
     77f:	00 
     780:	4c 8b be 98 00 00 00 	mov    r15,QWORD PTR [rsi+0x98]
     787:	49 89 dd             	mov    r13,rbx
     78a:	49 83 c5 ff          	add    r13,0xffffffffffffffff
     78e:	48 89 da             	mov    rdx,rbx
     791:	48 c1 e2 03          	shl    rdx,0x3
     795:	4d 89 fc             	mov    r12,r15
     798:	49 01 d4             	add    r12,rdx
     79b:	4c 89 ff             	mov    rdi,r15
     79e:	48 83 c7 e8          	add    rdi,0xffffffffffffffe8
     7a2:	4c 89 fe             	mov    rsi,r15
     7a5:	48 b8 00 00 00 00 00 	movabs rax,0x0
     7ac:	00 00 00 
			7a7: R_X86_64_64	memmove
     7af:	4c 89 34 24          	mov    QWORD PTR [rsp],r14
     7b3:	ff d0                	call   rax
     7b5:	4c 8b 34 24          	mov    r14,QWORD PTR [rsp]
     7b9:	48 be 00 00 00 00 00 	movabs rsi,0x0
     7c0:	00 00 00 
			7bb: R_X86_64_64	callback_return_addr
     7c3:	bf 01 00 00 00       	mov    edi,0x1
     7c8:	49 89 7c df f8       	mov    QWORD PTR [r15+rbx*8-0x8],rdi
     7cd:	bf 01 00 00 00       	mov    edi,0x1
     7d2:	49 89 7c df f0       	mov    QWORD PTR [r15+rbx*8-0x10],rdi
     7d7:	49 89 74 df e8       	mov    QWORD PTR [r15+rbx*8-0x18],rsi
     7dc:	48 8b b4 24 38 03 00 	mov    rsi,QWORD PTR [rsp+0x338]
     7e3:	00 
     7e4:	4c 89 a6 98 00 00 00 	mov    QWORD PTR [rsi+0x98],r12
     7eb:	4c 89 f7             	mov    rdi,r14
     7ee:	4c 89 ee             	mov    rsi,r13
     7f1:	48 b8 00 00 00 00 00 	movabs rax,0x0
     7f8:	00 00 00 
			7f3: R_X86_64_64	apply_n
     7fb:	48 89 3c 24          	mov    QWORD PTR [rsp],rdi
     7ff:	ff d0                	call   rax
     801:	48 89 84 24 e8 02 00 	mov    QWORD PTR [rsp+0x2e8],rax
     808:	00 
     809:	48 8b b4 24 20 03 00 	mov    rsi,QWORD PTR [rsp+0x320]
     810:	00 
     811:	48 8b 7e 08          	mov    rdi,QWORD PTR [rsi+0x8]
     815:	48 8b b4 24 30 03 00 	mov    rsi,QWORD PTR [rsp+0x330]
     81c:	00 
     81d:	48 b8 00 00 00 00 00 	movabs rax,0x0
     824:	00 00 00 
			81f: R_X86_64_64	apply1
     827:	48 89 34 24          	mov    QWORD PTR [rsp],rsi
     82b:	48 89 7c 24 08       	mov    QWORD PTR [rsp+0x8],rdi
     830:	ff d0                	call   rax
     832:	48 89 c3             	mov    rbx,rax
     835:	49 89 d6             	mov    r14,rdx
     838:	4d 85 f6             	test   r14,r14
     83b:	0f 85 0d 00 00 00    	jne    84e <trigger_gc_please+0x84e>
     841:	48 89 9c 24 60 01 00 	mov    QWORD PTR [rsp+0x160],rbx
     848:	00 
     849:	e9 91 00 00 00       	jmp    8df <trigger_gc_please+0x8df>
     84e:	48 8b b4 24 38 03 00 	mov    rsi,QWORD PTR [rsp+0x338]
     855:	00 
     856:	4c 8b be 98 00 00 00 	mov    r15,QWORD PTR [rsi+0x98]
     85d:	4d 89 f5             	mov    r13,r14
     860:	49 83 c5 ff          	add    r13,0xffffffffffffffff
     864:	4c 89 f2             	mov    rdx,r14
     867:	48 c1 e2 03          	shl    rdx,0x3
     86b:	4d 89 fc             	mov    r12,r15
     86e:	49 01 d4             	add    r12,rdx
     871:	4c 89 ff             	mov    rdi,r15
     874:	48 83 c7 e8          	add    rdi,0xffffffffffffffe8
     878:	4c 89 fe             	mov    rsi,r15
     87b:	48 b8 00 00 00 00 00 	movabs rax,0x0
     882:	00 00 00 
			87d: R_X86_64_64	memmove
     885:	48 89 1c 24          	mov    QWORD PTR [rsp],rbx
     889:	ff d0                	call   rax
     88b:	48 8b 1c 24          	mov    rbx,QWORD PTR [rsp]
     88f:	48 be 00 00 00 00 00 	movabs rsi,0x0
     896:	00 00 00 
			891: R_X86_64_64	callback_return_addr
     899:	bf 01 00 00 00       	mov    edi,0x1
     89e:	4b 89 7c f7 f8       	mov    QWORD PTR [r15+r14*8-0x8],rdi
     8a3:	bf 01 00 00 00       	mov    edi,0x1
     8a8:	4b 89 7c f7 f0       	mov    QWORD PTR [r15+r14*8-0x10],rdi
     8ad:	4b 89 74 f7 e8       	mov    QWORD PTR [r15+r14*8-0x18],rsi
     8b2:	48 8b b4 24 38 03 00 	mov    rsi,QWORD PTR [rsp+0x338]
     8b9:	00 
     8ba:	4c 89 a6 98 00 00 00 	mov    QWORD PTR [rsi+0x98],r12
     8c1:	48 89 df             	mov    rdi,rbx
     8c4:	4c 89 ee             	mov    rsi,r13
     8c7:	48 b8 00 00 00 00 00 	movabs rax,0x0
     8ce:	00 00 00 
			8c9: R_X86_64_64	apply_n
     8d1:	48 89 3c 24          	mov    QWORD PTR [rsp],rdi
     8d5:	ff d0                	call   rax
     8d7:	48 89 84 24 60 01 00 	mov    QWORD PTR [rsp+0x160],rax
     8de:	00 
     8df:	48 8b b4 24 20 03 00 	mov    rsi,QWORD PTR [rsp+0x320]
     8e6:	00 
     8e7:	48 8b 7e 08          	mov    rdi,QWORD PTR [rsi+0x8]
     8eb:	48 8b b4 24 30 03 00 	mov    rsi,QWORD PTR [rsp+0x330]
     8f2:	00 
     8f3:	48 b8 00 00 00 00 00 	movabs rax,0x0
     8fa:	00 00 00 
			8f5: R_X86_64_64	apply1
     8fd:	48 89 34 24          	mov    QWORD PTR [rsp],rsi
     901:	48 89 7c 24 08       	mov    QWORD PTR [rsp+0x8],rdi
     906:	ff d0                	call   rax
     908:	49 89 c6             	mov    r14,rax
     90b:	48 89 d3             	mov    rbx,rdx
     90e:	48 85 db             	test   rbx,rbx
     911:	0f 85 0d 00 00 00    	jne    924 <trigger_gc_please+0x924>
     917:	4c 89 b4 24 e0 02 00 	mov    QWORD PTR [rsp+0x2e0],r14
     91e:	00 
     91f:	e9 91 00 00 00       	jmp    9b5 <trigger_gc_please+0x9b5>
     924:	48 8b b4 24 38 03 00 	mov    rsi,QWORD PTR [rsp+0x338]
     92b:	00 
     92c:	4c 8b be 98 00 00 00 	mov    r15,QWORD PTR [rsi+0x98]
     933:	49 89 dd             	mov    r13,rbx
     936:	49 83 c5 ff          	add    r13,0xffffffffffffffff
     93a:	48 89 da             	mov    rdx,rbx
     93d:	48 c1 e2 03          	shl    rdx,0x3
     941:	4d 89 fc             	mov    r12,r15
     944:	49 01 d4             	add    r12,rdx
     947:	4c 89 ff             	mov    rdi,r15
     94a:	48 83 c7 e8          	add    rdi,0xffffffffffffffe8
     94e:	4c 89 fe             	mov    rsi,r15
     951:	48 b8 00 00 00 00 00 	movabs rax,0x0
     958:	00 00 00 
			953: R_X86_64_64	memmove
     95b:	4c 89 34 24          	mov    QWORD PTR [rsp],r14
     95f:	ff d0                	call   rax
     961:	4c 8b 34 24          	mov    r14,QWORD PTR [rsp]
     965:	48 be 00 00 00 00 00 	movabs rsi,0x0
     96c:	00 00 00 
			967: R_X86_64_64	callback_return_addr
     96f:	bf 01 00 00 00       	mov    edi,0x1
     974:	49 89 7c df f8       	mov    QWORD PTR [r15+rbx*8-0x8],rdi
     979:	bf 01 00 00 00       	mov    edi,0x1
     97e:	49 89 7c df f0       	mov    QWORD PTR [r15+rbx*8-0x10],rdi
     983:	49 89 74 df e8       	mov    QWORD PTR [r15+rbx*8-0x18],rsi
     988:	48 8b b4 24 38 03 00 	mov    rsi,QWORD PTR [rsp+0x338]
     98f:	00 
     990:	4c 89 a6 98 00 00 00 	mov    QWORD PTR [rsi+0x98],r12
     997:	4c 89 f7             	mov    rdi,r14
     99a:	4c 89 ee             	mov    rsi,r13
     99d:	48 b8 00 00 00 00 00 	movabs rax,0x0
     9a4:	00 00 00 
			99f: R_X86_64_64	apply_n
     9a7:	48 89 3c 24          	mov    QWORD PTR [rsp],rdi
     9ab:	ff d0                	call   rax
     9ad:	48 89 84 24 e0 02 00 	mov    QWORD PTR [rsp+0x2e0],rax
     9b4:	00 
     9b5:	48 8b b4 24 20 03 00 	mov    rsi,QWORD PTR [rsp+0x320]
     9bc:	00 
     9bd:	48 8b 7e 08          	mov    rdi,QWORD PTR [rsi+0x8]
     9c1:	48 8b b4 24 30 03 00 	mov    rsi,QWORD PTR [rsp+0x330]
     9c8:	00 
     9c9:	48 b8 00 00 00 00 00 	movabs rax,0x0
     9d0:	00 00 00 
			9cb: R_X86_64_64	apply1
     9d3:	48 89 34 24          	mov    QWORD PTR [rsp],rsi
     9d7:	48 89 7c 24 08       	mov    QWORD PTR [rsp+0x8],rdi
     9dc:	ff d0                	call   rax
     9de:	49 89 c6             	mov    r14,rax
     9e1:	48 89 d3             	mov    rbx,rdx
     9e4:	48 85 db             	test   rbx,rbx
     9e7:	0f 85 0d 00 00 00    	jne    9fa <trigger_gc_please+0x9fa>
     9ed:	4c 89 b4 24 58 01 00 	mov    QWORD PTR [rsp+0x158],r14
     9f4:	00 
     9f5:	e9 91 00 00 00       	jmp    a8b <trigger_gc_please+0xa8b>
     9fa:	48 8b b4 24 38 03 00 	mov    rsi,QWORD PTR [rsp+0x338]
     a01:	00 
     a02:	4c 8b be 98 00 00 00 	mov    r15,QWORD PTR [rsi+0x98]
     a09:	49 89 dd             	mov    r13,rbx
     a0c:	49 83 c5 ff          	add    r13,0xffffffffffffffff
     a10:	48 89 da             	mov    rdx,rbx
     a13:	48 c1 e2 03          	shl    rdx,0x3
     a17:	4d 89 fc             	mov    r12,r15
     a1a:	49 01 d4             	add    r12,rdx
     a1d:	4c 89 ff             	mov    rdi,r15
     a20:	48 83 c7 e8          	add    rdi,0xffffffffffffffe8
     a24:	4c 89 fe             	mov    rsi,r15
     a27:	48 b8 00 00 00 00 00 	movabs rax,0x0
     a2e:	00 00 00 
			a29: R_X86_64_64	memmove
     a31:	4c 89 34 24          	mov    QWORD PTR [rsp],r14
     a35:	ff d0                	call   rax
     a37:	4c 8b 34 24          	mov    r14,QWORD PTR [rsp]
     a3b:	48 be 00 00 00 00 00 	movabs rsi,0x0
     a42:	00 00 00 
			a3d: R_X86_64_64	callback_return_addr
     a45:	bf 01 00 00 00       	mov    edi,0x1
     a4a:	49 89 7c df f8       	mov    QWORD PTR [r15+rbx*8-0x8],rdi
     a4f:	bf 01 00 00 00       	mov    edi,0x1
     a54:	49 89 7c df f0       	mov    QWORD PTR [r15+rbx*8-0x10],rdi
     a59:	49 89 74 df e8       	mov    QWORD PTR [r15+rbx*8-0x18],rsi
     a5e:	48 8b b4 24 38 03 00 	mov    rsi,QWORD PTR [rsp+0x338]
     a65:	00 
     a66:	4c 89 a6 98 00 00 00 	mov    QWORD PTR [rsi+0x98],r12
     a6d:	4c 89 f7             	mov    rdi,r14
     a70:	4c 89 ee             	mov    rsi,r13
     a73:	48 b8 00 00 00 00 00 	movabs rax,0x0
     a7a:	00 00 00 
			a75: R_X86_64_64	apply_n
     a7d:	48 89 3c 24          	mov    QWORD PTR [rsp],rdi
     a81:	ff d0                	call   rax
     a83:	48 89 84 24 58 01 00 	mov    QWORD PTR [rsp+0x158],rax
     a8a:	00 
     a8b:	48 8b b4 24 20 03 00 	mov    rsi,QWORD PTR [rsp+0x320]
     a92:	00 
     a93:	48 8b 7e 08          	mov    rdi,QWORD PTR [rsi+0x8]
     a97:	48 8b b4 24 30 03 00 	mov    rsi,QWORD PTR [rsp+0x330]
     a9e:	00 
     a9f:	48 b8 00 00 00 00 00 	movabs rax,0x0
     aa6:	00 00 00 
			aa1: R_X86_64_64	apply1
     aa9:	48 89 34 24          	mov    QWORD PTR [rsp],rsi
     aad:	48 89 7c 24 08       	mov    QWORD PTR [rsp+0x8],rdi
     ab2:	ff d0                	call   rax
     ab4:	48 89 c3             	mov    rbx,rax
     ab7:	49 89 d6             	mov    r14,rdx
     aba:	4d 85 f6             	test   r14,r14
     abd:	0f 85 0d 00 00 00    	jne    ad0 <trigger_gc_please+0xad0>
     ac3:	48 89 9c 24 d8 02 00 	mov    QWORD PTR [rsp+0x2d8],rbx
     aca:	00 
     acb:	e9 91 00 00 00       	jmp    b61 <trigger_gc_please+0xb61>
     ad0:	48 8b b4 24 38 03 00 	mov    rsi,QWORD PTR [rsp+0x338]
     ad7:	00 
     ad8:	4c 8b be 98 00 00 00 	mov    r15,QWORD PTR [rsi+0x98]
     adf:	4d 89 f5             	mov    r13,r14
     ae2:	49 83 c5 ff          	add    r13,0xffffffffffffffff
     ae6:	4c 89 f2             	mov    rdx,r14
     ae9:	48 c1 e2 03          	shl    rdx,0x3
     aed:	4d 89 fc             	mov    r12,r15
     af0:	49 01 d4             	add    r12,rdx
     af3:	4c 89 ff             	mov    rdi,r15
     af6:	48 83 c7 e8          	add    rdi,0xffffffffffffffe8
     afa:	4c 89 fe             	mov    rsi,r15
     afd:	48 b8 00 00 00 00 00 	movabs rax,0x0
     b04:	00 00 00 
			aff: R_X86_64_64	memmove
     b07:	48 89 1c 24          	mov    QWORD PTR [rsp],rbx
     b0b:	ff d0                	call   rax
     b0d:	48 8b 1c 24          	mov    rbx,QWORD PTR [rsp]
     b11:	48 be 00 00 00 00 00 	movabs rsi,0x0
     b18:	00 00 00 
			b13: R_X86_64_64	callback_return_addr
     b1b:	bf 01 00 00 00       	mov    edi,0x1
     b20:	4b 89 7c f7 f8       	mov    QWORD PTR [r15+r14*8-0x8],rdi
     b25:	bf 01 00 00 00       	mov    edi,0x1
     b2a:	4b 89 7c f7 f0       	mov    QWORD PTR [r15+r14*8-0x10],rdi
     b2f:	4b 89 74 f7 e8       	mov    QWORD PTR [r15+r14*8-0x18],rsi
     b34:	48 8b b4 24 38 03 00 	mov    rsi,QWORD PTR [rsp+0x338]
     b3b:	00 
     b3c:	4c 89 a6 98 00 00 00 	mov    QWORD PTR [rsi+0x98],r12
     b43:	48 89 df             	mov    rdi,rbx
     b46:	4c 89 ee             	mov    rsi,r13
     b49:	48 b8 00 00 00 00 00 	movabs rax,0x0
     b50:	00 00 00 
			b4b: R_X86_64_64	apply_n
     b53:	48 89 3c 24          	mov    QWORD PTR [rsp],rdi
     b57:	ff d0                	call   rax
     b59:	48 89 84 24 d8 02 00 	mov    QWORD PTR [rsp+0x2d8],rax
     b60:	00 
     b61:	48 8b b4 24 20 03 00 	mov    rsi,QWORD PTR [rsp+0x320]
     b68:	00 
     b69:	48 8b 7e 08          	mov    rdi,QWORD PTR [rsi+0x8]
     b6d:	48 8b b4 24 30 03 00 	mov    rsi,QWORD PTR [rsp+0x330]
     b74:	00 
     b75:	48 b8 00 00 00 00 00 	movabs rax,0x0
     b7c:	00 00 00 
			b77: R_X86_64_64	apply1
     b7f:	48 89 34 24          	mov    QWORD PTR [rsp],rsi
     b83:	48 89 7c 24 08       	mov    QWORD PTR [rsp+0x8],rdi
     b88:	ff d0                	call   rax
     b8a:	49 89 c6             	mov    r14,rax
     b8d:	48 89 d3             	mov    rbx,rdx
     b90:	48 85 db             	test   rbx,rbx
     b93:	0f 85 0d 00 00 00    	jne    ba6 <trigger_gc_please+0xba6>
     b99:	4c 89 b4 24 50 01 00 	mov    QWORD PTR [rsp+0x150],r14
     ba0:	00 
     ba1:	e9 91 00 00 00       	jmp    c37 <trigger_gc_please+0xc37>
     ba6:	48 8b b4 24 38 03 00 	mov    rsi,QWORD PTR [rsp+0x338]
     bad:	00 
     bae:	4c 8b be 98 00 00 00 	mov    r15,QWORD PTR [rsi+0x98]
     bb5:	49 89 dd             	mov    r13,rbx
     bb8:	49 83 c5 ff          	add    r13,0xffffffffffffffff
     bbc:	48 89 da             	mov    rdx,rbx
     bbf:	48 c1 e2 03          	shl    rdx,0x3
     bc3:	4d 89 fc             	mov    r12,r15
     bc6:	49 01 d4             	add    r12,rdx
     bc9:	4c 89 ff             	mov    rdi,r15
     bcc:	48 83 c7 e8          	add    rdi,0xffffffffffffffe8
     bd0:	4c 89 fe             	mov    rsi,r15
     bd3:	48 b8 00 00 00 00 00 	movabs rax,0x0
     bda:	00 00 00 
			bd5: R_X86_64_64	memmove
     bdd:	4c 89 34 24          	mov    QWORD PTR [rsp],r14
     be1:	ff d0                	call   rax
     be3:	4c 8b 34 24          	mov    r14,QWORD PTR [rsp]
     be7:	48 be 00 00 00 00 00 	movabs rsi,0x0
     bee:	00 00 00 
			be9: R_X86_64_64	callback_return_addr
     bf1:	bf 01 00 00 00       	mov    edi,0x1
     bf6:	49 89 7c df f8       	mov    QWORD PTR [r15+rbx*8-0x8],rdi
     bfb:	bf 01 00 00 00       	mov    edi,0x1
     c00:	49 89 7c df f0       	mov    QWORD PTR [r15+rbx*8-0x10],rdi
     c05:	49 89 74 df e8       	mov    QWORD PTR [r15+rbx*8-0x18],rsi
     c0a:	48 8b b4 24 38 03 00 	mov    rsi,QWORD PTR [rsp+0x338]
     c11:	00 
     c12:	4c 89 a6 98 00 00 00 	mov    QWORD PTR [rsi+0x98],r12
     c19:	4c 89 f7             	mov    rdi,r14
     c1c:	4c 89 ee             	mov    rsi,r13
     c1f:	48 b8 00 00 00 00 00 	movabs rax,0x0
     c26:	00 00 00 
			c21: R_X86_64_64	apply_n
     c29:	48 89 3c 24          	mov    QWORD PTR [rsp],rdi
     c2d:	ff d0                	call   rax
     c2f:	48 89 84 24 50 01 00 	mov    QWORD PTR [rsp+0x150],rax
     c36:	00 
     c37:	48 8b b4 24 20 03 00 	mov    rsi,QWORD PTR [rsp+0x320]
     c3e:	00 
     c3f:	48 8b 7e 08          	mov    rdi,QWORD PTR [rsi+0x8]
     c43:	48 8b b4 24 30 03 00 	mov    rsi,QWORD PTR [rsp+0x330]
     c4a:	00 
     c4b:	48 b8 00 00 00 00 00 	movabs rax,0x0
     c52:	00 00 00 
			c4d: R_X86_64_64	apply1
     c55:	48 89 34 24          	mov    QWORD PTR [rsp],rsi
     c59:	48 89 7c 24 08       	mov    QWORD PTR [rsp+0x8],rdi
     c5e:	ff d0                	call   rax
     c60:	49 89 c6             	mov    r14,rax
     c63:	48 89 d3             	mov    rbx,rdx
     c66:	48 85 db             	test   rbx,rbx
     c69:	0f 85 0d 00 00 00    	jne    c7c <trigger_gc_please+0xc7c>
     c6f:	4c 89 b4 24 d0 02 00 	mov    QWORD PTR [rsp+0x2d0],r14
     c76:	00 
     c77:	e9 91 00 00 00       	jmp    d0d <trigger_gc_please+0xd0d>
     c7c:	48 8b b4 24 38 03 00 	mov    rsi,QWORD PTR [rsp+0x338]
     c83:	00 
     c84:	4c 8b be 98 00 00 00 	mov    r15,QWORD PTR [rsi+0x98]
     c8b:	49 89 dd             	mov    r13,rbx
     c8e:	49 83 c5 ff          	add    r13,0xffffffffffffffff
     c92:	48 89 da             	mov    rdx,rbx
     c95:	48 c1 e2 03          	shl    rdx,0x3
     c99:	4d 89 fc             	mov    r12,r15
     c9c:	49 01 d4             	add    r12,rdx
     c9f:	4c 89 ff             	mov    rdi,r15
     ca2:	48 83 c7 e8          	add    rdi,0xffffffffffffffe8
     ca6:	4c 89 fe             	mov    rsi,r15
     ca9:	48 b8 00 00 00 00 00 	movabs rax,0x0
     cb0:	00 00 00 
			cab: R_X86_64_64	memmove
     cb3:	4c 89 34 24          	mov    QWORD PTR [rsp],r14
     cb7:	ff d0                	call   rax
     cb9:	4c 8b 34 24          	mov    r14,QWORD PTR [rsp]
     cbd:	48 be 00 00 00 00 00 	movabs rsi,0x0
     cc4:	00 00 00 
			cbf: R_X86_64_64	callback_return_addr
     cc7:	bf 01 00 00 00       	mov    edi,0x1
     ccc:	49 89 7c df f8       	mov    QWORD PTR [r15+rbx*8-0x8],rdi
     cd1:	bf 01 00 00 00       	mov    edi,0x1
     cd6:	49 89 7c df f0       	mov    QWORD PTR [r15+rbx*8-0x10],rdi
     cdb:	49 89 74 df e8       	mov    QWORD PTR [r15+rbx*8-0x18],rsi
     ce0:	48 8b b4 24 38 03 00 	mov    rsi,QWORD PTR [rsp+0x338]
     ce7:	00 
     ce8:	4c 89 a6 98 00 00 00 	mov    QWORD PTR [rsi+0x98],r12
     cef:	4c 89 f7             	mov    rdi,r14
     cf2:	4c 89 ee             	mov    rsi,r13
     cf5:	48 b8 00 00 00 00 00 	movabs rax,0x0
     cfc:	00 00 00 
			cf7: R_X86_64_64	apply_n
     cff:	48 89 3c 24          	mov    QWORD PTR [rsp],rdi
     d03:	ff d0                	call   rax
     d05:	48 89 84 24 d0 02 00 	mov    QWORD PTR [rsp+0x2d0],rax
     d0c:	00 
     d0d:	48 8b b4 24 20 03 00 	mov    rsi,QWORD PTR [rsp+0x320]
     d14:	00 
     d15:	48 8b 7e 08          	mov    rdi,QWORD PTR [rsi+0x8]
     d19:	48 8b b4 24 30 03 00 	mov    rsi,QWORD PTR [rsp+0x330]
     d20:	00 
     d21:	48 b8 00 00 00 00 00 	movabs rax,0x0
     d28:	00 00 00 
			d23: R_X86_64_64	apply1
     d2b:	48 89 34 24          	mov    QWORD PTR [rsp],rsi
     d2f:	48 89 7c 24 08       	mov    QWORD PTR [rsp+0x8],rdi
     d34:	ff d0                	call   rax
     d36:	48 89 c3             	mov    rbx,rax
     d39:	49 89 d6             	mov    r14,rdx
     d3c:	4d 85 f6             	test   r14,r14
     d3f:	0f 85 0d 00 00 00    	jne    d52 <trigger_gc_please+0xd52>
     d45:	48 89 9c 24 48 01 00 	mov    QWORD PTR [rsp+0x148],rbx
     d4c:	00 
     d4d:	e9 91 00 00 00       	jmp    de3 <trigger_gc_please+0xde3>
     d52:	48 8b b4 24 38 03 00 	mov    rsi,QWORD PTR [rsp+0x338]
     d59:	00 
     d5a:	4c 8b be 98 00 00 00 	mov    r15,QWORD PTR [rsi+0x98]
     d61:	4d 89 f5             	mov    r13,r14
     d64:	49 83 c5 ff          	add    r13,0xffffffffffffffff
     d68:	4c 89 f2             	mov    rdx,r14
     d6b:	48 c1 e2 03          	shl    rdx,0x3
     d6f:	4d 89 fc             	mov    r12,r15
     d72:	49 01 d4             	add    r12,rdx
     d75:	4c 89 ff             	mov    rdi,r15
     d78:	48 83 c7 e8          	add    rdi,0xffffffffffffffe8
     d7c:	4c 89 fe             	mov    rsi,r15
     d7f:	48 b8 00 00 00 00 00 	movabs rax,0x0
     d86:	00 00 00 
			d81: R_X86_64_64	memmove
     d89:	48 89 1c 24          	mov    QWORD PTR [rsp],rbx
     d8d:	ff d0                	call   rax
     d8f:	48 8b 1c 24          	mov    rbx,QWORD PTR [rsp]
     d93:	48 be 00 00 00 00 00 	movabs rsi,0x0
     d9a:	00 00 00 
			d95: R_X86_64_64	callback_return_addr
     d9d:	bf 01 00 00 00       	mov    edi,0x1
     da2:	4b 89 7c f7 f8       	mov    QWORD PTR [r15+r14*8-0x8],rdi
     da7:	bf 01 00 00 00       	mov    edi,0x1
     dac:	4b 89 7c f7 f0       	mov    QWORD PTR [r15+r14*8-0x10],rdi
     db1:	4b 89 74 f7 e8       	mov    QWORD PTR [r15+r14*8-0x18],rsi
     db6:	48 8b b4 24 38 03 00 	mov    rsi,QWORD PTR [rsp+0x338]
     dbd:	00 
     dbe:	4c 89 a6 98 00 00 00 	mov    QWORD PTR [rsi+0x98],r12
     dc5:	48 89 df             	mov    rdi,rbx
     dc8:	4c 89 ee             	mov    rsi,r13
     dcb:	48 b8 00 00 00 00 00 	movabs rax,0x0
     dd2:	00 00 00 
			dcd: R_X86_64_64	apply_n
     dd5:	48 89 3c 24          	mov    QWORD PTR [rsp],rdi
     dd9:	ff d0                	call   rax
     ddb:	48 89 84 24 48 01 00 	mov    QWORD PTR [rsp+0x148],rax
     de2:	00 
     de3:	48 8b b4 24 20 03 00 	mov    rsi,QWORD PTR [rsp+0x320]
     dea:	00 
     deb:	48 8b 7e 08          	mov    rdi,QWORD PTR [rsi+0x8]
     def:	48 8b b4 24 30 03 00 	mov    rsi,QWORD PTR [rsp+0x330]
     df6:	00 
     df7:	48 b8 00 00 00 00 00 	movabs rax,0x0
     dfe:	00 00 00 
			df9: R_X86_64_64	apply1
     e01:	48 89 34 24          	mov    QWORD PTR [rsp],rsi
     e05:	48 89 7c 24 08       	mov    QWORD PTR [rsp+0x8],rdi
     e0a:	ff d0                	call   rax
     e0c:	49 89 c6             	mov    r14,rax
     e0f:	48 89 d3             	mov    rbx,rdx
     e12:	48 85 db             	test   rbx,rbx
     e15:	0f 85 0d 00 00 00    	jne    e28 <trigger_gc_please+0xe28>
     e1b:	4c 89 b4 24 c8 02 00 	mov    QWORD PTR [rsp+0x2c8],r14
     e22:	00 
     e23:	e9 91 00 00 00       	jmp    eb9 <trigger_gc_please+0xeb9>
     e28:	48 8b b4 24 38 03 00 	mov    rsi,QWORD PTR [rsp+0x338]
     e2f:	00 
     e30:	4c 8b be 98 00 00 00 	mov    r15,QWORD PTR [rsi+0x98]
     e37:	49 89 dd             	mov    r13,rbx
     e3a:	49 83 c5 ff          	add    r13,0xffffffffffffffff
     e3e:	48 89 da             	mov    rdx,rbx
     e41:	48 c1 e2 03          	shl    rdx,0x3
     e45:	4d 89 fc             	mov    r12,r15
     e48:	49 01 d4             	add    r12,rdx
     e4b:	4c 89 ff             	mov    rdi,r15
     e4e:	48 83 c7 e8          	add    rdi,0xffffffffffffffe8
     e52:	4c 89 fe             	mov    rsi,r15
     e55:	48 b8 00 00 00 00 00 	movabs rax,0x0
     e5c:	00 00 00 
			e57: R_X86_64_64	memmove
     e5f:	4c 89 34 24          	mov    QWORD PTR [rsp],r14
     e63:	ff d0                	call   rax
     e65:	4c 8b 34 24          	mov    r14,QWORD PTR [rsp]
     e69:	48 be 00 00 00 00 00 	movabs rsi,0x0
     e70:	00 00 00 
			e6b: R_X86_64_64	callback_return_addr
     e73:	bf 01 00 00 00       	mov    edi,0x1
     e78:	49 89 7c df f8       	mov    QWORD PTR [r15+rbx*8-0x8],rdi
     e7d:	bf 01 00 00 00       	mov    edi,0x1
     e82:	49 89 7c df f0       	mov    QWORD PTR [r15+rbx*8-0x10],rdi
     e87:	49 89 74 df e8       	mov    QWORD PTR [r15+rbx*8-0x18],rsi
     e8c:	48 8b b4 24 38 03 00 	mov    rsi,QWORD PTR [rsp+0x338]
     e93:	00 
     e94:	4c 89 a6 98 00 00 00 	mov    QWORD PTR [rsi+0x98],r12
     e9b:	4c 89 f7             	mov    rdi,r14
     e9e:	4c 89 ee             	mov    rsi,r13
     ea1:	48 b8 00 00 00 00 00 	movabs rax,0x0
     ea8:	00 00 00 
			ea3: R_X86_64_64	apply_n
     eab:	48 89 3c 24          	mov    QWORD PTR [rsp],rdi
     eaf:	ff d0                	call   rax
     eb1:	48 89 84 24 c8 02 00 	mov    QWORD PTR [rsp+0x2c8],rax
     eb8:	00 
     eb9:	48 8b b4 24 20 03 00 	mov    rsi,QWORD PTR [rsp+0x320]
     ec0:	00 
     ec1:	48 8b 7e 08          	mov    rdi,QWORD PTR [rsi+0x8]
     ec5:	48 8b b4 24 30 03 00 	mov    rsi,QWORD PTR [rsp+0x330]
     ecc:	00 
     ecd:	48 b8 00 00 00 00 00 	movabs rax,0x0
     ed4:	00 00 00 
			ecf: R_X86_64_64	apply1
     ed7:	48 89 34 24          	mov    QWORD PTR [rsp],rsi
     edb:	48 89 7c 24 08       	mov    QWORD PTR [rsp+0x8],rdi
     ee0:	ff d0                	call   rax
     ee2:	49 89 c6             	mov    r14,rax
     ee5:	48 89 d3             	mov    rbx,rdx
     ee8:	48 85 db             	test   rbx,rbx
     eeb:	0f 85 0d 00 00 00    	jne    efe <trigger_gc_please+0xefe>
     ef1:	4c 89 b4 24 40 01 00 	mov    QWORD PTR [rsp+0x140],r14
     ef8:	00 
     ef9:	e9 91 00 00 00       	jmp    f8f <trigger_gc_please+0xf8f>
     efe:	48 8b b4 24 38 03 00 	mov    rsi,QWORD PTR [rsp+0x338]
     f05:	00 
     f06:	4c 8b be 98 00 00 00 	mov    r15,QWORD PTR [rsi+0x98]
     f0d:	49 89 dd             	mov    r13,rbx
     f10:	49 83 c5 ff          	add    r13,0xffffffffffffffff
     f14:	48 89 da             	mov    rdx,rbx
     f17:	48 c1 e2 03          	shl    rdx,0x3
     f1b:	4d 89 fc             	mov    r12,r15
     f1e:	49 01 d4             	add    r12,rdx
     f21:	4c 89 ff             	mov    rdi,r15
     f24:	48 83 c7 e8          	add    rdi,0xffffffffffffffe8
     f28:	4c 89 fe             	mov    rsi,r15
     f2b:	48 b8 00 00 00 00 00 	movabs rax,0x0
     f32:	00 00 00 
			f2d: R_X86_64_64	memmove
     f35:	4c 89 34 24          	mov    QWORD PTR [rsp],r14
     f39:	ff d0                	call   rax
     f3b:	4c 8b 34 24          	mov    r14,QWORD PTR [rsp]
     f3f:	48 be 00 00 00 00 00 	movabs rsi,0x0
     f46:	00 00 00 
			f41: R_X86_64_64	callback_return_addr
     f49:	bf 01 00 00 00       	mov    edi,0x1
     f4e:	49 89 7c df f8       	mov    QWORD PTR [r15+rbx*8-0x8],rdi
     f53:	bf 01 00 00 00       	mov    edi,0x1
     f58:	49 89 7c df f0       	mov    QWORD PTR [r15+rbx*8-0x10],rdi
     f5d:	49 89 74 df e8       	mov    QWORD PTR [r15+rbx*8-0x18],rsi
     f62:	48 8b b4 24 38 03 00 	mov    rsi,QWORD PTR [rsp+0x338]
     f69:	00 
     f6a:	4c 89 a6 98 00 00 00 	mov    QWORD PTR [rsi+0x98],r12
     f71:	4c 89 f7             	mov    rdi,r14
     f74:	4c 89 ee             	mov    rsi,r13
     f77:	48 b8 00 00 00 00 00 	movabs rax,0x0
     f7e:	00 00 00 
			f79: R_X86_64_64	apply_n
     f81:	48 89 3c 24          	mov    QWORD PTR [rsp],rdi
     f85:	ff d0                	call   rax
     f87:	48 89 84 24 40 01 00 	mov    QWORD PTR [rsp+0x140],rax
     f8e:	00 
     f8f:	48 8b b4 24 20 03 00 	mov    rsi,QWORD PTR [rsp+0x320]
     f96:	00 
     f97:	48 8b 7e 08          	mov    rdi,QWORD PTR [rsi+0x8]
     f9b:	48 8b b4 24 30 03 00 	mov    rsi,QWORD PTR [rsp+0x330]
     fa2:	00 
     fa3:	48 b8 00 00 00 00 00 	movabs rax,0x0
     faa:	00 00 00 
			fa5: R_X86_64_64	apply1
     fad:	48 89 34 24          	mov    QWORD PTR [rsp],rsi
     fb1:	48 89 7c 24 08       	mov    QWORD PTR [rsp+0x8],rdi
     fb6:	ff d0                	call   rax
     fb8:	48 89 c3             	mov    rbx,rax
     fbb:	49 89 d6             	mov    r14,rdx
     fbe:	4d 85 f6             	test   r14,r14
     fc1:	0f 85 0d 00 00 00    	jne    fd4 <trigger_gc_please+0xfd4>
     fc7:	48 89 9c 24 c0 02 00 	mov    QWORD PTR [rsp+0x2c0],rbx
     fce:	00 
     fcf:	e9 91 00 00 00       	jmp    1065 <trigger_gc_please+0x1065>
     fd4:	48 8b b4 24 38 03 00 	mov    rsi,QWORD PTR [rsp+0x338]
     fdb:	00 
     fdc:	4c 8b be 98 00 00 00 	mov    r15,QWORD PTR [rsi+0x98]
     fe3:	4d 89 f5             	mov    r13,r14
     fe6:	49 83 c5 ff          	add    r13,0xffffffffffffffff
     fea:	4c 89 f2             	mov    rdx,r14
     fed:	48 c1 e2 03          	shl    rdx,0x3
     ff1:	4d 89 fc             	mov    r12,r15
     ff4:	49 01 d4             	add    r12,rdx
     ff7:	4c 89 ff             	mov    rdi,r15
     ffa:	48 83 c7 e8          	add    rdi,0xffffffffffffffe8
     ffe:	4c 89 fe             	mov    rsi,r15
    1001:	48 b8 00 00 00 00 00 	movabs rax,0x0
    1008:	00 00 00 
			1003: R_X86_64_64	memmove
    100b:	48 89 1c 24          	mov    QWORD PTR [rsp],rbx
    100f:	ff d0                	call   rax
    1011:	48 8b 1c 24          	mov    rbx,QWORD PTR [rsp]
    1015:	48 be 00 00 00 00 00 	movabs rsi,0x0
    101c:	00 00 00 
			1017: R_X86_64_64	callback_return_addr
    101f:	bf 01 00 00 00       	mov    edi,0x1
    1024:	4b 89 7c f7 f8       	mov    QWORD PTR [r15+r14*8-0x8],rdi
    1029:	bf 01 00 00 00       	mov    edi,0x1
    102e:	4b 89 7c f7 f0       	mov    QWORD PTR [r15+r14*8-0x10],rdi
    1033:	4b 89 74 f7 e8       	mov    QWORD PTR [r15+r14*8-0x18],rsi
    1038:	48 8b b4 24 38 03 00 	mov    rsi,QWORD PTR [rsp+0x338]
    103f:	00 
    1040:	4c 89 a6 98 00 00 00 	mov    QWORD PTR [rsi+0x98],r12
    1047:	48 89 df             	mov    rdi,rbx
    104a:	4c 89 ee             	mov    rsi,r13
    104d:	48 b8 00 00 00 00 00 	movabs rax,0x0
    1054:	00 00 00 
			104f: R_X86_64_64	apply_n
    1057:	48 89 3c 24          	mov    QWORD PTR [rsp],rdi
    105b:	ff d0                	call   rax
    105d:	48 89 84 24 c0 02 00 	mov    QWORD PTR [rsp+0x2c0],rax
    1064:	00 
    1065:	48 8b b4 24 20 03 00 	mov    rsi,QWORD PTR [rsp+0x320]
    106c:	00 
    106d:	48 8b 7e 08          	mov    rdi,QWORD PTR [rsi+0x8]
    1071:	48 8b b4 24 30 03 00 	mov    rsi,QWORD PTR [rsp+0x330]
    1078:	00 
    1079:	48 b8 00 00 00 00 00 	movabs rax,0x0
    1080:	00 00 00 
			107b: R_X86_64_64	apply1
    1083:	48 89 34 24          	mov    QWORD PTR [rsp],rsi
    1087:	48 89 7c 24 08       	mov    QWORD PTR [rsp+0x8],rdi
    108c:	ff d0                	call   rax
    108e:	49 89 c6             	mov    r14,rax
    1091:	48 89 d3             	mov    rbx,rdx
    1094:	48 85 db             	test   rbx,rbx
    1097:	0f 85 0d 00 00 00    	jne    10aa <trigger_gc_please+0x10aa>
    109d:	4c 89 b4 24 38 01 00 	mov    QWORD PTR [rsp+0x138],r14
    10a4:	00 
    10a5:	e9 91 00 00 00       	jmp    113b <trigger_gc_please+0x113b>
    10aa:	48 8b b4 24 38 03 00 	mov    rsi,QWORD PTR [rsp+0x338]
    10b1:	00 
    10b2:	4c 8b be 98 00 00 00 	mov    r15,QWORD PTR [rsi+0x98]
    10b9:	49 89 dd             	mov    r13,rbx
    10bc:	49 83 c5 ff          	add    r13,0xffffffffffffffff
    10c0:	48 89 da             	mov    rdx,rbx
    10c3:	48 c1 e2 03          	shl    rdx,0x3
    10c7:	4d 89 fc             	mov    r12,r15
    10ca:	49 01 d4             	add    r12,rdx
    10cd:	4c 89 ff             	mov    rdi,r15
    10d0:	48 83 c7 e8          	add    rdi,0xffffffffffffffe8
    10d4:	4c 89 fe             	mov    rsi,r15
    10d7:	48 b8 00 00 00 00 00 	movabs rax,0x0
    10de:	00 00 00 
			10d9: R_X86_64_64	memmove
    10e1:	4c 89 34 24          	mov    QWORD PTR [rsp],r14
    10e5:	ff d0                	call   rax
    10e7:	4c 8b 34 24          	mov    r14,QWORD PTR [rsp]
    10eb:	48 be 00 00 00 00 00 	movabs rsi,0x0
    10f2:	00 00 00 
			10ed: R_X86_64_64	callback_return_addr
    10f5:	bf 01 00 00 00       	mov    edi,0x1
    10fa:	49 89 7c df f8       	mov    QWORD PTR [r15+rbx*8-0x8],rdi
    10ff:	bf 01 00 00 00       	mov    edi,0x1
    1104:	49 89 7c df f0       	mov    QWORD PTR [r15+rbx*8-0x10],rdi
    1109:	49 89 74 df e8       	mov    QWORD PTR [r15+rbx*8-0x18],rsi
    110e:	48 8b b4 24 38 03 00 	mov    rsi,QWORD PTR [rsp+0x338]
    1115:	00 
    1116:	4c 89 a6 98 00 00 00 	mov    QWORD PTR [rsi+0x98],r12
    111d:	4c 89 f7             	mov    rdi,r14
    1120:	4c 89 ee             	mov    rsi,r13
    1123:	48 b8 00 00 00 00 00 	movabs rax,0x0
    112a:	00 00 00 
			1125: R_X86_64_64	apply_n
    112d:	48 89 3c 24          	mov    QWORD PTR [rsp],rdi
    1131:	ff d0                	call   rax
    1133:	48 89 84 24 38 01 00 	mov    QWORD PTR [rsp+0x138],rax
    113a:	00 
    113b:	48 8b b4 24 20 03 00 	mov    rsi,QWORD PTR [rsp+0x320]
    1142:	00 
    1143:	48 8b 7e 08          	mov    rdi,QWORD PTR [rsi+0x8]
    1147:	48 8b b4 24 30 03 00 	mov    rsi,QWORD PTR [rsp+0x330]
    114e:	00 
    114f:	48 b8 00 00 00 00 00 	movabs rax,0x0
    1156:	00 00 00 
			1151: R_X86_64_64	apply1
    1159:	48 89 34 24          	mov    QWORD PTR [rsp],rsi
    115d:	48 89 7c 24 08       	mov    QWORD PTR [rsp+0x8],rdi
    1162:	ff d0                	call   rax
    1164:	49 89 c6             	mov    r14,rax
    1167:	48 89 d3             	mov    rbx,rdx
    116a:	48 85 db             	test   rbx,rbx
    116d:	0f 85 0d 00 00 00    	jne    1180 <trigger_gc_please+0x1180>
    1173:	4c 89 b4 24 b8 02 00 	mov    QWORD PTR [rsp+0x2b8],r14
    117a:	00 
    117b:	e9 91 00 00 00       	jmp    1211 <trigger_gc_please+0x1211>
    1180:	48 8b b4 24 38 03 00 	mov    rsi,QWORD PTR [rsp+0x338]
    1187:	00 
    1188:	4c 8b be 98 00 00 00 	mov    r15,QWORD PTR [rsi+0x98]
    118f:	49 89 dd             	mov    r13,rbx
    1192:	49 83 c5 ff          	add    r13,0xffffffffffffffff
    1196:	48 89 da             	mov    rdx,rbx
    1199:	48 c1 e2 03          	shl    rdx,0x3
    119d:	4d 89 fc             	mov    r12,r15
    11a0:	49 01 d4             	add    r12,rdx
    11a3:	4c 89 ff             	mov    rdi,r15
    11a6:	48 83 c7 e8          	add    rdi,0xffffffffffffffe8
    11aa:	4c 89 fe             	mov    rsi,r15
    11ad:	48 b8 00 00 00 00 00 	movabs rax,0x0
    11b4:	00 00 00 
			11af: R_X86_64_64	memmove
    11b7:	4c 89 34 24          	mov    QWORD PTR [rsp],r14
    11bb:	ff d0                	call   rax
    11bd:	4c 8b 34 24          	mov    r14,QWORD PTR [rsp]
    11c1:	48 be 00 00 00 00 00 	movabs rsi,0x0
    11c8:	00 00 00 
			11c3: R_X86_64_64	callback_return_addr
    11cb:	bf 01 00 00 00       	mov    edi,0x1
    11d0:	49 89 7c df f8       	mov    QWORD PTR [r15+rbx*8-0x8],rdi
    11d5:	bf 01 00 00 00       	mov    edi,0x1
    11da:	49 89 7c df f0       	mov    QWORD PTR [r15+rbx*8-0x10],rdi
    11df:	49 89 74 df e8       	mov    QWORD PTR [r15+rbx*8-0x18],rsi
    11e4:	48 8b b4 24 38 03 00 	mov    rsi,QWORD PTR [rsp+0x338]
    11eb:	00 
    11ec:	4c 89 a6 98 00 00 00 	mov    QWORD PTR [rsi+0x98],r12
    11f3:	4c 89 f7             	mov    rdi,r14
    11f6:	4c 89 ee             	mov    rsi,r13
    11f9:	48 b8 00 00 00 00 00 	movabs rax,0x0
    1200:	00 00 00 
			11fb: R_X86_64_64	apply_n
    1203:	48 89 3c 24          	mov    QWORD PTR [rsp],rdi
    1207:	ff d0                	call   rax
    1209:	48 89 84 24 b8 02 00 	mov    QWORD PTR [rsp+0x2b8],rax
    1210:	00 
    1211:	48 8b b4 24 20 03 00 	mov    rsi,QWORD PTR [rsp+0x320]
    1218:	00 
    1219:	48 8b 7e 08          	mov    rdi,QWORD PTR [rsi+0x8]
    121d:	48 8b b4 24 30 03 00 	mov    rsi,QWORD PTR [rsp+0x330]
    1224:	00 
    1225:	48 b8 00 00 00 00 00 	movabs rax,0x0
    122c:	00 00 00 
			1227: R_X86_64_64	apply1
    122f:	48 89 34 24          	mov    QWORD PTR [rsp],rsi
    1233:	48 89 7c 24 08       	mov    QWORD PTR [rsp+0x8],rdi
    1238:	ff d0                	call   rax
    123a:	48 89 c3             	mov    rbx,rax
    123d:	49 89 d6             	mov    r14,rdx
    1240:	4d 85 f6             	test   r14,r14
    1243:	0f 85 0d 00 00 00    	jne    1256 <trigger_gc_please+0x1256>
    1249:	48 89 9c 24 30 01 00 	mov    QWORD PTR [rsp+0x130],rbx
    1250:	00 
    1251:	e9 91 00 00 00       	jmp    12e7 <trigger_gc_please+0x12e7>
    1256:	48 8b b4 24 38 03 00 	mov    rsi,QWORD PTR [rsp+0x338]
    125d:	00 
    125e:	4c 8b be 98 00 00 00 	mov    r15,QWORD PTR [rsi+0x98]
    1265:	4d 89 f5             	mov    r13,r14
    1268:	49 83 c5 ff          	add    r13,0xffffffffffffffff
    126c:	4c 89 f2             	mov    rdx,r14
    126f:	48 c1 e2 03          	shl    rdx,0x3
    1273:	4d 89 fc             	mov    r12,r15
    1276:	49 01 d4             	add    r12,rdx
    1279:	4c 89 ff             	mov    rdi,r15
    127c:	48 83 c7 e8          	add    rdi,0xffffffffffffffe8
    1280:	4c 89 fe             	mov    rsi,r15
    1283:	48 b8 00 00 00 00 00 	movabs rax,0x0
    128a:	00 00 00 
			1285: R_X86_64_64	memmove
    128d:	48 89 1c 24          	mov    QWORD PTR [rsp],rbx
    1291:	ff d0                	call   rax
    1293:	48 8b 1c 24          	mov    rbx,QWORD PTR [rsp]
    1297:	48 be 00 00 00 00 00 	movabs rsi,0x0
    129e:	00 00 00 
			1299: R_X86_64_64	callback_return_addr
    12a1:	bf 01 00 00 00       	mov    edi,0x1
    12a6:	4b 89 7c f7 f8       	mov    QWORD PTR [r15+r14*8-0x8],rdi
    12ab:	bf 01 00 00 00       	mov    edi,0x1
    12b0:	4b 89 7c f7 f0       	mov    QWORD PTR [r15+r14*8-0x10],rdi
    12b5:	4b 89 74 f7 e8       	mov    QWORD PTR [r15+r14*8-0x18],rsi
    12ba:	48 8b b4 24 38 03 00 	mov    rsi,QWORD PTR [rsp+0x338]
    12c1:	00 
    12c2:	4c 89 a6 98 00 00 00 	mov    QWORD PTR [rsi+0x98],r12
    12c9:	48 89 df             	mov    rdi,rbx
    12cc:	4c 89 ee             	mov    rsi,r13
    12cf:	48 b8 00 00 00 00 00 	movabs rax,0x0
    12d6:	00 00 00 
			12d1: R_X86_64_64	apply_n
    12d9:	48 89 3c 24          	mov    QWORD PTR [rsp],rdi
    12dd:	ff d0                	call   rax
    12df:	48 89 84 24 30 01 00 	mov    QWORD PTR [rsp+0x130],rax
    12e6:	00 
    12e7:	48 8b b4 24 20 03 00 	mov    rsi,QWORD PTR [rsp+0x320]
    12ee:	00 
    12ef:	48 8b 7e 08          	mov    rdi,QWORD PTR [rsi+0x8]
    12f3:	48 8b b4 24 30 03 00 	mov    rsi,QWORD PTR [rsp+0x330]
    12fa:	00 
    12fb:	48 b8 00 00 00 00 00 	movabs rax,0x0
    1302:	00 00 00 
			12fd: R_X86_64_64	apply1
    1305:	48 89 34 24          	mov    QWORD PTR [rsp],rsi
    1309:	48 89 7c 24 08       	mov    QWORD PTR [rsp+0x8],rdi
    130e:	ff d0                	call   rax
    1310:	49 89 c6             	mov    r14,rax
    1313:	48 89 d3             	mov    rbx,rdx
    1316:	48 85 db             	test   rbx,rbx
    1319:	0f 85 0d 00 00 00    	jne    132c <trigger_gc_please+0x132c>
    131f:	4c 89 b4 24 b0 02 00 	mov    QWORD PTR [rsp+0x2b0],r14
    1326:	00 
    1327:	e9 91 00 00 00       	jmp    13bd <trigger_gc_please+0x13bd>
    132c:	48 8b b4 24 38 03 00 	mov    rsi,QWORD PTR [rsp+0x338]
    1333:	00 
    1334:	4c 8b be 98 00 00 00 	mov    r15,QWORD PTR [rsi+0x98]
    133b:	49 89 dd             	mov    r13,rbx
    133e:	49 83 c5 ff          	add    r13,0xffffffffffffffff
    1342:	48 89 da             	mov    rdx,rbx
    1345:	48 c1 e2 03          	shl    rdx,0x3
    1349:	4d 89 fc             	mov    r12,r15
    134c:	49 01 d4             	add    r12,rdx
    134f:	4c 89 ff             	mov    rdi,r15
    1352:	48 83 c7 e8          	add    rdi,0xffffffffffffffe8
    1356:	4c 89 fe             	mov    rsi,r15
    1359:	48 b8 00 00 00 00 00 	movabs rax,0x0
    1360:	00 00 00 
			135b: R_X86_64_64	memmove
    1363:	4c 89 34 24          	mov    QWORD PTR [rsp],r14
    1367:	ff d0                	call   rax
    1369:	4c 8b 34 24          	mov    r14,QWORD PTR [rsp]
    136d:	48 be 00 00 00 00 00 	movabs rsi,0x0
    1374:	00 00 00 
			136f: R_X86_64_64	callback_return_addr
    1377:	bf 01 00 00 00       	mov    edi,0x1
    137c:	49 89 7c df f8       	mov    QWORD PTR [r15+rbx*8-0x8],rdi
    1381:	bf 01 00 00 00       	mov    edi,0x1
    1386:	49 89 7c df f0       	mov    QWORD PTR [r15+rbx*8-0x10],rdi
    138b:	49 89 74 df e8       	mov    QWORD PTR [r15+rbx*8-0x18],rsi
    1390:	48 8b b4 24 38 03 00 	mov    rsi,QWORD PTR [rsp+0x338]
    1397:	00 
    1398:	4c 89 a6 98 00 00 00 	mov    QWORD PTR [rsi+0x98],r12
    139f:	4c 89 f7             	mov    rdi,r14
    13a2:	4c 89 ee             	mov    rsi,r13
    13a5:	48 b8 00 00 00 00 00 	movabs rax,0x0
    13ac:	00 00 00 
			13a7: R_X86_64_64	apply_n
    13af:	48 89 3c 24          	mov    QWORD PTR [rsp],rdi
    13b3:	ff d0                	call   rax
    13b5:	48 89 84 24 b0 02 00 	mov    QWORD PTR [rsp+0x2b0],rax
    13bc:	00 
    13bd:	48 8b b4 24 20 03 00 	mov    rsi,QWORD PTR [rsp+0x320]
    13c4:	00 
    13c5:	48 8b 7e 08          	mov    rdi,QWORD PTR [rsi+0x8]
    13c9:	48 8b b4 24 30 03 00 	mov    rsi,QWORD PTR [rsp+0x330]
    13d0:	00 
    13d1:	48 b8 00 00 00 00 00 	movabs rax,0x0
    13d8:	00 00 00 
			13d3: R_X86_64_64	apply1
    13db:	48 89 34 24          	mov    QWORD PTR [rsp],rsi
    13df:	48 89 7c 24 08       	mov    QWORD PTR [rsp+0x8],rdi
    13e4:	ff d0                	call   rax
    13e6:	49 89 c6             	mov    r14,rax
    13e9:	48 89 d3             	mov    rbx,rdx
    13ec:	48 85 db             	test   rbx,rbx
    13ef:	0f 85 0d 00 00 00    	jne    1402 <trigger_gc_please+0x1402>
    13f5:	4c 89 b4 24 28 01 00 	mov    QWORD PTR [rsp+0x128],r14
    13fc:	00 
    13fd:	e9 91 00 00 00       	jmp    1493 <trigger_gc_please+0x1493>
    1402:	48 8b b4 24 38 03 00 	mov    rsi,QWORD PTR [rsp+0x338]
    1409:	00 
    140a:	4c 8b be 98 00 00 00 	mov    r15,QWORD PTR [rsi+0x98]
    1411:	49 89 dd             	mov    r13,rbx
    1414:	49 83 c5 ff          	add    r13,0xffffffffffffffff
    1418:	48 89 da             	mov    rdx,rbx
    141b:	48 c1 e2 03          	shl    rdx,0x3
    141f:	4d 89 fc             	mov    r12,r15
    1422:	49 01 d4             	add    r12,rdx
    1425:	4c 89 ff             	mov    rdi,r15
    1428:	48 83 c7 e8          	add    rdi,0xffffffffffffffe8
    142c:	4c 89 fe             	mov    rsi,r15
    142f:	48 b8 00 00 00 00 00 	movabs rax,0x0
    1436:	00 00 00 
			1431: R_X86_64_64	memmove
    1439:	4c 89 34 24          	mov    QWORD PTR [rsp],r14
    143d:	ff d0                	call   rax
    143f:	4c 8b 34 24          	mov    r14,QWORD PTR [rsp]
    1443:	48 be 00 00 00 00 00 	movabs rsi,0x0
    144a:	00 00 00 
			1445: R_X86_64_64	callback_return_addr
    144d:	bf 01 00 00 00       	mov    edi,0x1
    1452:	49 89 7c df f8       	mov    QWORD PTR [r15+rbx*8-0x8],rdi
    1457:	bf 01 00 00 00       	mov    edi,0x1
    145c:	49 89 7c df f0       	mov    QWORD PTR [r15+rbx*8-0x10],rdi
    1461:	49 89 74 df e8       	mov    QWORD PTR [r15+rbx*8-0x18],rsi
    1466:	48 8b b4 24 38 03 00 	mov    rsi,QWORD PTR [rsp+0x338]
    146d:	00 
    146e:	4c 89 a6 98 00 00 00 	mov    QWORD PTR [rsi+0x98],r12
    1475:	4c 89 f7             	mov    rdi,r14
    1478:	4c 89 ee             	mov    rsi,r13
    147b:	48 b8 00 00 00 00 00 	movabs rax,0x0
    1482:	00 00 00 
			147d: R_X86_64_64	apply_n
    1485:	48 89 3c 24          	mov    QWORD PTR [rsp],rdi
    1489:	ff d0                	call   rax
    148b:	48 89 84 24 28 01 00 	mov    QWORD PTR [rsp+0x128],rax
    1492:	00 
    1493:	48 8b b4 24 20 03 00 	mov    rsi,QWORD PTR [rsp+0x320]
    149a:	00 
    149b:	48 8b 7e 08          	mov    rdi,QWORD PTR [rsi+0x8]
    149f:	48 8b b4 24 30 03 00 	mov    rsi,QWORD PTR [rsp+0x330]
    14a6:	00 
    14a7:	48 b8 00 00 00 00 00 	movabs rax,0x0
    14ae:	00 00 00 
			14a9: R_X86_64_64	apply1
    14b1:	48 89 34 24          	mov    QWORD PTR [rsp],rsi
    14b5:	48 89 7c 24 08       	mov    QWORD PTR [rsp+0x8],rdi
    14ba:	ff d0                	call   rax
    14bc:	48 89 c3             	mov    rbx,rax
    14bf:	49 89 d6             	mov    r14,rdx
    14c2:	4d 85 f6             	test   r14,r14
    14c5:	0f 85 0d 00 00 00    	jne    14d8 <trigger_gc_please+0x14d8>
    14cb:	48 89 9c 24 a8 02 00 	mov    QWORD PTR [rsp+0x2a8],rbx
    14d2:	00 
    14d3:	e9 91 00 00 00       	jmp    1569 <trigger_gc_please+0x1569>
    14d8:	48 8b b4 24 38 03 00 	mov    rsi,QWORD PTR [rsp+0x338]
    14df:	00 
    14e0:	4c 8b be 98 00 00 00 	mov    r15,QWORD PTR [rsi+0x98]
    14e7:	4d 89 f5             	mov    r13,r14
    14ea:	49 83 c5 ff          	add    r13,0xffffffffffffffff
    14ee:	4c 89 f2             	mov    rdx,r14
    14f1:	48 c1 e2 03          	shl    rdx,0x3
    14f5:	4d 89 fc             	mov    r12,r15
    14f8:	49 01 d4             	add    r12,rdx
    14fb:	4c 89 ff             	mov    rdi,r15
    14fe:	48 83 c7 e8          	add    rdi,0xffffffffffffffe8
    1502:	4c 89 fe             	mov    rsi,r15
    1505:	48 b8 00 00 00 00 00 	movabs rax,0x0
    150c:	00 00 00 
			1507: R_X86_64_64	memmove
    150f:	48 89 1c 24          	mov    QWORD PTR [rsp],rbx
    1513:	ff d0                	call   rax
    1515:	48 8b 1c 24          	mov    rbx,QWORD PTR [rsp]
    1519:	48 be 00 00 00 00 00 	movabs rsi,0x0
    1520:	00 00 00 
			151b: R_X86_64_64	callback_return_addr
    1523:	bf 01 00 00 00       	mov    edi,0x1
    1528:	4b 89 7c f7 f8       	mov    QWORD PTR [r15+r14*8-0x8],rdi
    152d:	bf 01 00 00 00       	mov    edi,0x1
    1532:	4b 89 7c f7 f0       	mov    QWORD PTR [r15+r14*8-0x10],rdi
    1537:	4b 89 74 f7 e8       	mov    QWORD PTR [r15+r14*8-0x18],rsi
    153c:	48 8b b4 24 38 03 00 	mov    rsi,QWORD PTR [rsp+0x338]
    1543:	00 
    1544:	4c 89 a6 98 00 00 00 	mov    QWORD PTR [rsi+0x98],r12
    154b:	48 89 df             	mov    rdi,rbx
    154e:	4c 89 ee             	mov    rsi,r13
    1551:	48 b8 00 00 00 00 00 	movabs rax,0x0
    1558:	00 00 00 
			1553: R_X86_64_64	apply_n
    155b:	48 89 3c 24          	mov    QWORD PTR [rsp],rdi
    155f:	ff d0                	call   rax
    1561:	48 89 84 24 a8 02 00 	mov    QWORD PTR [rsp+0x2a8],rax
    1568:	00 
    1569:	48 8b b4 24 20 03 00 	mov    rsi,QWORD PTR [rsp+0x320]
    1570:	00 
    1571:	48 8b 7e 08          	mov    rdi,QWORD PTR [rsi+0x8]
    1575:	48 8b b4 24 30 03 00 	mov    rsi,QWORD PTR [rsp+0x330]
    157c:	00 
    157d:	48 b8 00 00 00 00 00 	movabs rax,0x0
    1584:	00 00 00 
			157f: R_X86_64_64	apply1
    1587:	48 89 34 24          	mov    QWORD PTR [rsp],rsi
    158b:	48 89 7c 24 08       	mov    QWORD PTR [rsp+0x8],rdi
    1590:	ff d0                	call   rax
    1592:	49 89 c6             	mov    r14,rax
    1595:	48 89 d3             	mov    rbx,rdx
    1598:	48 85 db             	test   rbx,rbx
    159b:	0f 85 0d 00 00 00    	jne    15ae <trigger_gc_please+0x15ae>
    15a1:	4c 89 b4 24 20 01 00 	mov    QWORD PTR [rsp+0x120],r14
    15a8:	00 
    15a9:	e9 91 00 00 00       	jmp    163f <trigger_gc_please+0x163f>
    15ae:	48 8b b4 24 38 03 00 	mov    rsi,QWORD PTR [rsp+0x338]
    15b5:	00 
    15b6:	4c 8b be 98 00 00 00 	mov    r15,QWORD PTR [rsi+0x98]
    15bd:	49 89 dd             	mov    r13,rbx
    15c0:	49 83 c5 ff          	add    r13,0xffffffffffffffff
    15c4:	48 89 da             	mov    rdx,rbx
    15c7:	48 c1 e2 03          	shl    rdx,0x3
    15cb:	4d 89 fc             	mov    r12,r15
    15ce:	49 01 d4             	add    r12,rdx
    15d1:	4c 89 ff             	mov    rdi,r15
    15d4:	48 83 c7 e8          	add    rdi,0xffffffffffffffe8
    15d8:	4c 89 fe             	mov    rsi,r15
    15db:	48 b8 00 00 00 00 00 	movabs rax,0x0
    15e2:	00 00 00 
			15dd: R_X86_64_64	memmove
    15e5:	4c 89 34 24          	mov    QWORD PTR [rsp],r14
    15e9:	ff d0                	call   rax
    15eb:	4c 8b 34 24          	mov    r14,QWORD PTR [rsp]
    15ef:	48 be 00 00 00 00 00 	movabs rsi,0x0
    15f6:	00 00 00 
			15f1: R_X86_64_64	callback_return_addr
    15f9:	bf 01 00 00 00       	mov    edi,0x1
    15fe:	49 89 7c df f8       	mov    QWORD PTR [r15+rbx*8-0x8],rdi
    1603:	bf 01 00 00 00       	mov    edi,0x1
    1608:	49 89 7c df f0       	mov    QWORD PTR [r15+rbx*8-0x10],rdi
    160d:	49 89 74 df e8       	mov    QWORD PTR [r15+rbx*8-0x18],rsi
    1612:	48 8b b4 24 38 03 00 	mov    rsi,QWORD PTR [rsp+0x338]
    1619:	00 
    161a:	4c 89 a6 98 00 00 00 	mov    QWORD PTR [rsi+0x98],r12
    1621:	4c 89 f7             	mov    rdi,r14
    1624:	4c 89 ee             	mov    rsi,r13
    1627:	48 b8 00 00 00 00 00 	movabs rax,0x0
    162e:	00 00 00 
			1629: R_X86_64_64	apply_n
    1631:	48 89 3c 24          	mov    QWORD PTR [rsp],rdi
    1635:	ff d0                	call   rax
    1637:	48 89 84 24 20 01 00 	mov    QWORD PTR [rsp+0x120],rax
    163e:	00 
    163f:	48 8b b4 24 20 03 00 	mov    rsi,QWORD PTR [rsp+0x320]
    1646:	00 
    1647:	48 8b 7e 08          	mov    rdi,QWORD PTR [rsi+0x8]
    164b:	48 8b b4 24 30 03 00 	mov    rsi,QWORD PTR [rsp+0x330]
    1652:	00 
    1653:	48 b8 00 00 00 00 00 	movabs rax,0x0
    165a:	00 00 00 
			1655: R_X86_64_64	apply1
    165d:	48 89 34 24          	mov    QWORD PTR [rsp],rsi
    1661:	48 89 7c 24 08       	mov    QWORD PTR [rsp+0x8],rdi
    1666:	ff d0                	call   rax
    1668:	49 89 c6             	mov    r14,rax
    166b:	48 89 d3             	mov    rbx,rdx
    166e:	48 85 db             	test   rbx,rbx
    1671:	0f 85 0d 00 00 00    	jne    1684 <trigger_gc_please+0x1684>
    1677:	4c 89 b4 24 a0 02 00 	mov    QWORD PTR [rsp+0x2a0],r14
    167e:	00 
    167f:	e9 91 00 00 00       	jmp    1715 <trigger_gc_please+0x1715>
    1684:	48 8b b4 24 38 03 00 	mov    rsi,QWORD PTR [rsp+0x338]
    168b:	00 
    168c:	4c 8b be 98 00 00 00 	mov    r15,QWORD PTR [rsi+0x98]
    1693:	49 89 dd             	mov    r13,rbx
    1696:	49 83 c5 ff          	add    r13,0xffffffffffffffff
    169a:	48 89 da             	mov    rdx,rbx
    169d:	48 c1 e2 03          	shl    rdx,0x3
    16a1:	4d 89 fc             	mov    r12,r15
    16a4:	49 01 d4             	add    r12,rdx
    16a7:	4c 89 ff             	mov    rdi,r15
    16aa:	48 83 c7 e8          	add    rdi,0xffffffffffffffe8
    16ae:	4c 89 fe             	mov    rsi,r15
    16b1:	48 b8 00 00 00 00 00 	movabs rax,0x0
    16b8:	00 00 00 
			16b3: R_X86_64_64	memmove
    16bb:	4c 89 34 24          	mov    QWORD PTR [rsp],r14
    16bf:	ff d0                	call   rax
    16c1:	4c 8b 34 24          	mov    r14,QWORD PTR [rsp]
    16c5:	48 be 00 00 00 00 00 	movabs rsi,0x0
    16cc:	00 00 00 
			16c7: R_X86_64_64	callback_return_addr
    16cf:	bf 01 00 00 00       	mov    edi,0x1
    16d4:	49 89 7c df f8       	mov    QWORD PTR [r15+rbx*8-0x8],rdi
    16d9:	bf 01 00 00 00       	mov    edi,0x1
    16de:	49 89 7c df f0       	mov    QWORD PTR [r15+rbx*8-0x10],rdi
    16e3:	49 89 74 df e8       	mov    QWORD PTR [r15+rbx*8-0x18],rsi
    16e8:	48 8b b4 24 38 03 00 	mov    rsi,QWORD PTR [rsp+0x338]
    16ef:	00 
    16f0:	4c 89 a6 98 00 00 00 	mov    QWORD PTR [rsi+0x98],r12
    16f7:	4c 89 f7             	mov    rdi,r14
    16fa:	4c 89 ee             	mov    rsi,r13
    16fd:	48 b8 00 00 00 00 00 	movabs rax,0x0
    1704:	00 00 00 
			16ff: R_X86_64_64	apply_n
    1707:	48 89 3c 24          	mov    QWORD PTR [rsp],rdi
    170b:	ff d0                	call   rax
    170d:	48 89 84 24 a0 02 00 	mov    QWORD PTR [rsp+0x2a0],rax
    1714:	00 
    1715:	48 8b b4 24 20 03 00 	mov    rsi,QWORD PTR [rsp+0x320]
    171c:	00 
    171d:	48 8b 7e 08          	mov    rdi,QWORD PTR [rsi+0x8]
    1721:	48 8b b4 24 30 03 00 	mov    rsi,QWORD PTR [rsp+0x330]
    1728:	00 
    1729:	48 b8 00 00 00 00 00 	movabs rax,0x0
    1730:	00 00 00 
			172b: R_X86_64_64	apply1
    1733:	48 89 34 24          	mov    QWORD PTR [rsp],rsi
    1737:	48 89 7c 24 08       	mov    QWORD PTR [rsp+0x8],rdi
    173c:	ff d0                	call   rax
    173e:	48 89 c3             	mov    rbx,rax
    1741:	49 89 d6             	mov    r14,rdx
    1744:	4d 85 f6             	test   r14,r14
    1747:	0f 85 0d 00 00 00    	jne    175a <trigger_gc_please+0x175a>
    174d:	48 89 9c 24 18 01 00 	mov    QWORD PTR [rsp+0x118],rbx
    1754:	00 
    1755:	e9 91 00 00 00       	jmp    17eb <trigger_gc_please+0x17eb>
    175a:	48 8b b4 24 38 03 00 	mov    rsi,QWORD PTR [rsp+0x338]
    1761:	00 
    1762:	4c 8b be 98 00 00 00 	mov    r15,QWORD PTR [rsi+0x98]
    1769:	4d 89 f5             	mov    r13,r14
    176c:	49 83 c5 ff          	add    r13,0xffffffffffffffff
    1770:	4c 89 f2             	mov    rdx,r14
    1773:	48 c1 e2 03          	shl    rdx,0x3
    1777:	4d 89 fc             	mov    r12,r15
    177a:	49 01 d4             	add    r12,rdx
    177d:	4c 89 ff             	mov    rdi,r15
    1780:	48 83 c7 e8          	add    rdi,0xffffffffffffffe8
    1784:	4c 89 fe             	mov    rsi,r15
    1787:	48 b8 00 00 00 00 00 	movabs rax,0x0
    178e:	00 00 00 
			1789: R_X86_64_64	memmove
    1791:	48 89 1c 24          	mov    QWORD PTR [rsp],rbx
    1795:	ff d0                	call   rax
    1797:	48 8b 1c 24          	mov    rbx,QWORD PTR [rsp]
    179b:	48 be 00 00 00 00 00 	movabs rsi,0x0
    17a2:	00 00 00 
			179d: R_X86_64_64	callback_return_addr
    17a5:	bf 01 00 00 00       	mov    edi,0x1
    17aa:	4b 89 7c f7 f8       	mov    QWORD PTR [r15+r14*8-0x8],rdi
    17af:	bf 01 00 00 00       	mov    edi,0x1
    17b4:	4b 89 7c f7 f0       	mov    QWORD PTR [r15+r14*8-0x10],rdi
    17b9:	4b 89 74 f7 e8       	mov    QWORD PTR [r15+r14*8-0x18],rsi
    17be:	48 8b b4 24 38 03 00 	mov    rsi,QWORD PTR [rsp+0x338]
    17c5:	00 
    17c6:	4c 89 a6 98 00 00 00 	mov    QWORD PTR [rsi+0x98],r12
    17cd:	48 89 df             	mov    rdi,rbx
    17d0:	4c 89 ee             	mov    rsi,r13
    17d3:	48 b8 00 00 00 00 00 	movabs rax,0x0
    17da:	00 00 00 
			17d5: R_X86_64_64	apply_n
    17dd:	48 89 3c 24          	mov    QWORD PTR [rsp],rdi
    17e1:	ff d0                	call   rax
    17e3:	48 89 84 24 18 01 00 	mov    QWORD PTR [rsp+0x118],rax
    17ea:	00 
    17eb:	48 8b b4 24 20 03 00 	mov    rsi,QWORD PTR [rsp+0x320]
    17f2:	00 
    17f3:	48 8b 7e 08          	mov    rdi,QWORD PTR [rsi+0x8]
    17f7:	48 8b b4 24 30 03 00 	mov    rsi,QWORD PTR [rsp+0x330]
    17fe:	00 
    17ff:	48 b8 00 00 00 00 00 	movabs rax,0x0
    1806:	00 00 00 
			1801: R_X86_64_64	apply1
    1809:	48 89 34 24          	mov    QWORD PTR [rsp],rsi
    180d:	48 89 7c 24 08       	mov    QWORD PTR [rsp+0x8],rdi
    1812:	ff d0                	call   rax
    1814:	49 89 c6             	mov    r14,rax
    1817:	48 89 d3             	mov    rbx,rdx
    181a:	48 85 db             	test   rbx,rbx
    181d:	0f 85 0d 00 00 00    	jne    1830 <trigger_gc_please+0x1830>
    1823:	4c 89 b4 24 98 02 00 	mov    QWORD PTR [rsp+0x298],r14
    182a:	00 
    182b:	e9 91 00 00 00       	jmp    18c1 <trigger_gc_please+0x18c1>
    1830:	48 8b b4 24 38 03 00 	mov    rsi,QWORD PTR [rsp+0x338]
    1837:	00 
    1838:	4c 8b be 98 00 00 00 	mov    r15,QWORD PTR [rsi+0x98]
    183f:	49 89 dd             	mov    r13,rbx
    1842:	49 83 c5 ff          	add    r13,0xffffffffffffffff
    1846:	48 89 da             	mov    rdx,rbx
    1849:	48 c1 e2 03          	shl    rdx,0x3
    184d:	4d 89 fc             	mov    r12,r15
    1850:	49 01 d4             	add    r12,rdx
    1853:	4c 89 ff             	mov    rdi,r15
    1856:	48 83 c7 e8          	add    rdi,0xffffffffffffffe8
    185a:	4c 89 fe             	mov    rsi,r15
    185d:	48 b8 00 00 00 00 00 	movabs rax,0x0
    1864:	00 00 00 
			185f: R_X86_64_64	memmove
    1867:	4c 89 34 24          	mov    QWORD PTR [rsp],r14
    186b:	ff d0                	call   rax
    186d:	4c 8b 34 24          	mov    r14,QWORD PTR [rsp]
    1871:	48 be 00 00 00 00 00 	movabs rsi,0x0
    1878:	00 00 00 
			1873: R_X86_64_64	callback_return_addr
    187b:	bf 01 00 00 00       	mov    edi,0x1
    1880:	49 89 7c df f8       	mov    QWORD PTR [r15+rbx*8-0x8],rdi
    1885:	bf 01 00 00 00       	mov    edi,0x1
    188a:	49 89 7c df f0       	mov    QWORD PTR [r15+rbx*8-0x10],rdi
    188f:	49 89 74 df e8       	mov    QWORD PTR [r15+rbx*8-0x18],rsi
    1894:	48 8b b4 24 38 03 00 	mov    rsi,QWORD PTR [rsp+0x338]
    189b:	00 
    189c:	4c 89 a6 98 00 00 00 	mov    QWORD PTR [rsi+0x98],r12
    18a3:	4c 89 f7             	mov    rdi,r14
    18a6:	4c 89 ee             	mov    rsi,r13
    18a9:	48 b8 00 00 00 00 00 	movabs rax,0x0
    18b0:	00 00 00 
			18ab: R_X86_64_64	apply_n
    18b3:	48 89 3c 24          	mov    QWORD PTR [rsp],rdi
    18b7:	ff d0                	call   rax
    18b9:	48 89 84 24 98 02 00 	mov    QWORD PTR [rsp+0x298],rax
    18c0:	00 
    18c1:	48 8b b4 24 20 03 00 	mov    rsi,QWORD PTR [rsp+0x320]
    18c8:	00 
    18c9:	48 8b 7e 08          	mov    rdi,QWORD PTR [rsi+0x8]
    18cd:	48 8b b4 24 30 03 00 	mov    rsi,QWORD PTR [rsp+0x330]
    18d4:	00 
    18d5:	48 b8 00 00 00 00 00 	movabs rax,0x0
    18dc:	00 00 00 
			18d7: R_X86_64_64	apply1
    18df:	48 89 34 24          	mov    QWORD PTR [rsp],rsi
    18e3:	48 89 7c 24 08       	mov    QWORD PTR [rsp+0x8],rdi
    18e8:	ff d0                	call   rax
    18ea:	49 89 c6             	mov    r14,rax
    18ed:	48 89 d3             	mov    rbx,rdx
    18f0:	48 85 db             	test   rbx,rbx
    18f3:	0f 85 0d 00 00 00    	jne    1906 <trigger_gc_please+0x1906>
    18f9:	4c 89 b4 24 10 01 00 	mov    QWORD PTR [rsp+0x110],r14
    1900:	00 
    1901:	e9 91 00 00 00       	jmp    1997 <trigger_gc_please+0x1997>
    1906:	48 8b b4 24 38 03 00 	mov    rsi,QWORD PTR [rsp+0x338]
    190d:	00 
    190e:	4c 8b be 98 00 00 00 	mov    r15,QWORD PTR [rsi+0x98]
    1915:	49 89 dd             	mov    r13,rbx
    1918:	49 83 c5 ff          	add    r13,0xffffffffffffffff
    191c:	48 89 da             	mov    rdx,rbx
    191f:	48 c1 e2 03          	shl    rdx,0x3
    1923:	4d 89 fc             	mov    r12,r15
    1926:	49 01 d4             	add    r12,rdx
    1929:	4c 89 ff             	mov    rdi,r15
    192c:	48 83 c7 e8          	add    rdi,0xffffffffffffffe8
    1930:	4c 89 fe             	mov    rsi,r15
    1933:	48 b8 00 00 00 00 00 	movabs rax,0x0
    193a:	00 00 00 
			1935: R_X86_64_64	memmove
    193d:	4c 89 34 24          	mov    QWORD PTR [rsp],r14
    1941:	ff d0                	call   rax
    1943:	4c 8b 34 24          	mov    r14,QWORD PTR [rsp]
    1947:	48 be 00 00 00 00 00 	movabs rsi,0x0
    194e:	00 00 00 
			1949: R_X86_64_64	callback_return_addr
    1951:	bf 01 00 00 00       	mov    edi,0x1
    1956:	49 89 7c df f8       	mov    QWORD PTR [r15+rbx*8-0x8],rdi
    195b:	bf 01 00 00 00       	mov    edi,0x1
    1960:	49 89 7c df f0       	mov    QWORD PTR [r15+rbx*8-0x10],rdi
    1965:	49 89 74 df e8       	mov    QWORD PTR [r15+rbx*8-0x18],rsi
    196a:	48 8b b4 24 38 03 00 	mov    rsi,QWORD PTR [rsp+0x338]
    1971:	00 
    1972:	4c 89 a6 98 00 00 00 	mov    QWORD PTR [rsi+0x98],r12
    1979:	4c 89 f7             	mov    rdi,r14
    197c:	4c 89 ee             	mov    rsi,r13
    197f:	48 b8 00 00 00 00 00 	movabs rax,0x0
    1986:	00 00 00 
			1981: R_X86_64_64	apply_n
    1989:	48 89 3c 24          	mov    QWORD PTR [rsp],rdi
    198d:	ff d0                	call   rax
    198f:	48 89 84 24 10 01 00 	mov    QWORD PTR [rsp+0x110],rax
    1996:	00 
    1997:	48 8b b4 24 20 03 00 	mov    rsi,QWORD PTR [rsp+0x320]
    199e:	00 
    199f:	48 8b 7e 08          	mov    rdi,QWORD PTR [rsi+0x8]
    19a3:	48 8b b4 24 30 03 00 	mov    rsi,QWORD PTR [rsp+0x330]
    19aa:	00 
    19ab:	48 b8 00 00 00 00 00 	movabs rax,0x0
    19b2:	00 00 00 
			19ad: R_X86_64_64	apply1
    19b5:	48 89 34 24          	mov    QWORD PTR [rsp],rsi
    19b9:	48 89 7c 24 08       	mov    QWORD PTR [rsp+0x8],rdi
    19be:	ff d0                	call   rax
    19c0:	48 89 c3             	mov    rbx,rax
    19c3:	49 89 d6             	mov    r14,rdx
    19c6:	4d 85 f6             	test   r14,r14
    19c9:	0f 85 0d 00 00 00    	jne    19dc <trigger_gc_please+0x19dc>
    19cf:	48 89 9c 24 90 02 00 	mov    QWORD PTR [rsp+0x290],rbx
    19d6:	00 
    19d7:	e9 91 00 00 00       	jmp    1a6d <trigger_gc_please+0x1a6d>
    19dc:	48 8b b4 24 38 03 00 	mov    rsi,QWORD PTR [rsp+0x338]
    19e3:	00 
    19e4:	4c 8b be 98 00 00 00 	mov    r15,QWORD PTR [rsi+0x98]
    19eb:	4d 89 f5             	mov    r13,r14
    19ee:	49 83 c5 ff          	add    r13,0xffffffffffffffff
    19f2:	4c 89 f2             	mov    rdx,r14
    19f5:	48 c1 e2 03          	shl    rdx,0x3
    19f9:	4d 89 fc             	mov    r12,r15
    19fc:	49 01 d4             	add    r12,rdx
    19ff:	4c 89 ff             	mov    rdi,r15
    1a02:	48 83 c7 e8          	add    rdi,0xffffffffffffffe8
    1a06:	4c 89 fe             	mov    rsi,r15
    1a09:	48 b8 00 00 00 00 00 	movabs rax,0x0
    1a10:	00 00 00 
			1a0b: R_X86_64_64	memmove
    1a13:	48 89 1c 24          	mov    QWORD PTR [rsp],rbx
    1a17:	ff d0                	call   rax
    1a19:	48 8b 1c 24          	mov    rbx,QWORD PTR [rsp]
    1a1d:	48 be 00 00 00 00 00 	movabs rsi,0x0
    1a24:	00 00 00 
			1a1f: R_X86_64_64	callback_return_addr
    1a27:	bf 01 00 00 00       	mov    edi,0x1
    1a2c:	4b 89 7c f7 f8       	mov    QWORD PTR [r15+r14*8-0x8],rdi
    1a31:	bf 01 00 00 00       	mov    edi,0x1
    1a36:	4b 89 7c f7 f0       	mov    QWORD PTR [r15+r14*8-0x10],rdi
    1a3b:	4b 89 74 f7 e8       	mov    QWORD PTR [r15+r14*8-0x18],rsi
    1a40:	48 8b b4 24 38 03 00 	mov    rsi,QWORD PTR [rsp+0x338]
    1a47:	00 
    1a48:	4c 89 a6 98 00 00 00 	mov    QWORD PTR [rsi+0x98],r12
    1a4f:	48 89 df             	mov    rdi,rbx
    1a52:	4c 89 ee             	mov    rsi,r13
    1a55:	48 b8 00 00 00 00 00 	movabs rax,0x0
    1a5c:	00 00 00 
			1a57: R_X86_64_64	apply_n
    1a5f:	48 89 3c 24          	mov    QWORD PTR [rsp],rdi
    1a63:	ff d0                	call   rax
    1a65:	48 89 84 24 90 02 00 	mov    QWORD PTR [rsp+0x290],rax
    1a6c:	00 
    1a6d:	48 8b b4 24 20 03 00 	mov    rsi,QWORD PTR [rsp+0x320]
    1a74:	00 
    1a75:	48 8b 7e 08          	mov    rdi,QWORD PTR [rsi+0x8]
    1a79:	48 8b b4 24 30 03 00 	mov    rsi,QWORD PTR [rsp+0x330]
    1a80:	00 
    1a81:	48 b8 00 00 00 00 00 	movabs rax,0x0
    1a88:	00 00 00 
			1a83: R_X86_64_64	apply1
    1a8b:	48 89 34 24          	mov    QWORD PTR [rsp],rsi
    1a8f:	48 89 7c 24 08       	mov    QWORD PTR [rsp+0x8],rdi
    1a94:	ff d0                	call   rax
    1a96:	49 89 c6             	mov    r14,rax
    1a99:	48 89 d3             	mov    rbx,rdx
    1a9c:	48 85 db             	test   rbx,rbx
    1a9f:	0f 85 0d 00 00 00    	jne    1ab2 <trigger_gc_please+0x1ab2>
    1aa5:	4c 89 b4 24 08 01 00 	mov    QWORD PTR [rsp+0x108],r14
    1aac:	00 
    1aad:	e9 91 00 00 00       	jmp    1b43 <trigger_gc_please+0x1b43>
    1ab2:	48 8b b4 24 38 03 00 	mov    rsi,QWORD PTR [rsp+0x338]
    1ab9:	00 
    1aba:	4c 8b be 98 00 00 00 	mov    r15,QWORD PTR [rsi+0x98]
    1ac1:	49 89 dd             	mov    r13,rbx
    1ac4:	49 83 c5 ff          	add    r13,0xffffffffffffffff
    1ac8:	48 89 da             	mov    rdx,rbx
    1acb:	48 c1 e2 03          	shl    rdx,0x3
    1acf:	4d 89 fc             	mov    r12,r15
    1ad2:	49 01 d4             	add    r12,rdx
    1ad5:	4c 89 ff             	mov    rdi,r15
    1ad8:	48 83 c7 e8          	add    rdi,0xffffffffffffffe8
    1adc:	4c 89 fe             	mov    rsi,r15
    1adf:	48 b8 00 00 00 00 00 	movabs rax,0x0
    1ae6:	00 00 00 
			1ae1: R_X86_64_64	memmove
    1ae9:	4c 89 34 24          	mov    QWORD PTR [rsp],r14
    1aed:	ff d0                	call   rax
    1aef:	4c 8b 34 24          	mov    r14,QWORD PTR [rsp]
    1af3:	48 be 00 00 00 00 00 	movabs rsi,0x0
    1afa:	00 00 00 
			1af5: R_X86_64_64	callback_return_addr
    1afd:	bf 01 00 00 00       	mov    edi,0x1
    1b02:	49 89 7c df f8       	mov    QWORD PTR [r15+rbx*8-0x8],rdi
    1b07:	bf 01 00 00 00       	mov    edi,0x1
    1b0c:	49 89 7c df f0       	mov    QWORD PTR [r15+rbx*8-0x10],rdi
    1b11:	49 89 74 df e8       	mov    QWORD PTR [r15+rbx*8-0x18],rsi
    1b16:	48 8b b4 24 38 03 00 	mov    rsi,QWORD PTR [rsp+0x338]
    1b1d:	00 
    1b1e:	4c 89 a6 98 00 00 00 	mov    QWORD PTR [rsi+0x98],r12
    1b25:	4c 89 f7             	mov    rdi,r14
    1b28:	4c 89 ee             	mov    rsi,r13
    1b2b:	48 b8 00 00 00 00 00 	movabs rax,0x0
    1b32:	00 00 00 
			1b2d: R_X86_64_64	apply_n
    1b35:	48 89 3c 24          	mov    QWORD PTR [rsp],rdi
    1b39:	ff d0                	call   rax
    1b3b:	48 89 84 24 08 01 00 	mov    QWORD PTR [rsp+0x108],rax
    1b42:	00 
    1b43:	48 8b b4 24 20 03 00 	mov    rsi,QWORD PTR [rsp+0x320]
    1b4a:	00 
    1b4b:	48 8b 7e 08          	mov    rdi,QWORD PTR [rsi+0x8]
    1b4f:	48 8b b4 24 30 03 00 	mov    rsi,QWORD PTR [rsp+0x330]
    1b56:	00 
    1b57:	48 b8 00 00 00 00 00 	movabs rax,0x0
    1b5e:	00 00 00 
			1b59: R_X86_64_64	apply1
    1b61:	48 89 34 24          	mov    QWORD PTR [rsp],rsi
    1b65:	48 89 7c 24 08       	mov    QWORD PTR [rsp+0x8],rdi
    1b6a:	ff d0                	call   rax
    1b6c:	49 89 c6             	mov    r14,rax
    1b6f:	48 89 d3             	mov    rbx,rdx
    1b72:	48 85 db             	test   rbx,rbx
    1b75:	0f 85 0d 00 00 00    	jne    1b88 <trigger_gc_please+0x1b88>
    1b7b:	4c 89 b4 24 88 02 00 	mov    QWORD PTR [rsp+0x288],r14
    1b82:	00 
    1b83:	e9 91 00 00 00       	jmp    1c19 <trigger_gc_please+0x1c19>
    1b88:	48 8b b4 24 38 03 00 	mov    rsi,QWORD PTR [rsp+0x338]
    1b8f:	00 
    1b90:	4c 8b be 98 00 00 00 	mov    r15,QWORD PTR [rsi+0x98]
    1b97:	49 89 dd             	mov    r13,rbx
    1b9a:	49 83 c5 ff          	add    r13,0xffffffffffffffff
    1b9e:	48 89 da             	mov    rdx,rbx
    1ba1:	48 c1 e2 03          	shl    rdx,0x3
    1ba5:	4d 89 fc             	mov    r12,r15
    1ba8:	49 01 d4             	add    r12,rdx
    1bab:	4c 89 ff             	mov    rdi,r15
    1bae:	48 83 c7 e8          	add    rdi,0xffffffffffffffe8
    1bb2:	4c 89 fe             	mov    rsi,r15
    1bb5:	48 b8 00 00 00 00 00 	movabs rax,0x0
    1bbc:	00 00 00 
			1bb7: R_X86_64_64	memmove
    1bbf:	4c 89 34 24          	mov    QWORD PTR [rsp],r14
    1bc3:	ff d0                	call   rax
    1bc5:	4c 8b 34 24          	mov    r14,QWORD PTR [rsp]
    1bc9:	48 be 00 00 00 00 00 	movabs rsi,0x0
    1bd0:	00 00 00 
			1bcb: R_X86_64_64	callback_return_addr
    1bd3:	bf 01 00 00 00       	mov    edi,0x1
    1bd8:	49 89 7c df f8       	mov    QWORD PTR [r15+rbx*8-0x8],rdi
    1bdd:	bf 01 00 00 00       	mov    edi,0x1
    1be2:	49 89 7c df f0       	mov    QWORD PTR [r15+rbx*8-0x10],rdi
    1be7:	49 89 74 df e8       	mov    QWORD PTR [r15+rbx*8-0x18],rsi
    1bec:	48 8b b4 24 38 03 00 	mov    rsi,QWORD PTR [rsp+0x338]
    1bf3:	00 
    1bf4:	4c 89 a6 98 00 00 00 	mov    QWORD PTR [rsi+0x98],r12
    1bfb:	4c 89 f7             	mov    rdi,r14
    1bfe:	4c 89 ee             	mov    rsi,r13
    1c01:	48 b8 00 00 00 00 00 	movabs rax,0x0
    1c08:	00 00 00 
			1c03: R_X86_64_64	apply_n
    1c0b:	48 89 3c 24          	mov    QWORD PTR [rsp],rdi
    1c0f:	ff d0                	call   rax
    1c11:	48 89 84 24 88 02 00 	mov    QWORD PTR [rsp+0x288],rax
    1c18:	00 
    1c19:	48 8b b4 24 20 03 00 	mov    rsi,QWORD PTR [rsp+0x320]
    1c20:	00 
    1c21:	48 8b 7e 08          	mov    rdi,QWORD PTR [rsi+0x8]
    1c25:	48 8b b4 24 30 03 00 	mov    rsi,QWORD PTR [rsp+0x330]
    1c2c:	00 
    1c2d:	48 b8 00 00 00 00 00 	movabs rax,0x0
    1c34:	00 00 00 
			1c2f: R_X86_64_64	apply1
    1c37:	48 89 34 24          	mov    QWORD PTR [rsp],rsi
    1c3b:	48 89 7c 24 08       	mov    QWORD PTR [rsp+0x8],rdi
    1c40:	ff d0                	call   rax
    1c42:	48 89 c3             	mov    rbx,rax
    1c45:	49 89 d6             	mov    r14,rdx
    1c48:	4d 85 f6             	test   r14,r14
    1c4b:	0f 85 0d 00 00 00    	jne    1c5e <trigger_gc_please+0x1c5e>
    1c51:	48 89 9c 24 00 01 00 	mov    QWORD PTR [rsp+0x100],rbx
    1c58:	00 
    1c59:	e9 91 00 00 00       	jmp    1cef <trigger_gc_please+0x1cef>
    1c5e:	48 8b b4 24 38 03 00 	mov    rsi,QWORD PTR [rsp+0x338]
    1c65:	00 
    1c66:	4c 8b be 98 00 00 00 	mov    r15,QWORD PTR [rsi+0x98]
    1c6d:	4d 89 f5             	mov    r13,r14
    1c70:	49 83 c5 ff          	add    r13,0xffffffffffffffff
    1c74:	4c 89 f2             	mov    rdx,r14
    1c77:	48 c1 e2 03          	shl    rdx,0x3
    1c7b:	4d 89 fc             	mov    r12,r15
    1c7e:	49 01 d4             	add    r12,rdx
    1c81:	4c 89 ff             	mov    rdi,r15
    1c84:	48 83 c7 e8          	add    rdi,0xffffffffffffffe8
    1c88:	4c 89 fe             	mov    rsi,r15
    1c8b:	48 b8 00 00 00 00 00 	movabs rax,0x0
    1c92:	00 00 00 
			1c8d: R_X86_64_64	memmove
    1c95:	48 89 1c 24          	mov    QWORD PTR [rsp],rbx
    1c99:	ff d0                	call   rax
    1c9b:	48 8b 1c 24          	mov    rbx,QWORD PTR [rsp]
    1c9f:	48 be 00 00 00 00 00 	movabs rsi,0x0
    1ca6:	00 00 00 
			1ca1: R_X86_64_64	callback_return_addr
    1ca9:	bf 01 00 00 00       	mov    edi,0x1
    1cae:	4b 89 7c f7 f8       	mov    QWORD PTR [r15+r14*8-0x8],rdi
    1cb3:	bf 01 00 00 00       	mov    edi,0x1
    1cb8:	4b 89 7c f7 f0       	mov    QWORD PTR [r15+r14*8-0x10],rdi
    1cbd:	4b 89 74 f7 e8       	mov    QWORD PTR [r15+r14*8-0x18],rsi
    1cc2:	48 8b b4 24 38 03 00 	mov    rsi,QWORD PTR [rsp+0x338]
    1cc9:	00 
    1cca:	4c 89 a6 98 00 00 00 	mov    QWORD PTR [rsi+0x98],r12
    1cd1:	48 89 df             	mov    rdi,rbx
    1cd4:	4c 89 ee             	mov    rsi,r13
    1cd7:	48 b8 00 00 00 00 00 	movabs rax,0x0
    1cde:	00 00 00 
			1cd9: R_X86_64_64	apply_n
    1ce1:	48 89 3c 24          	mov    QWORD PTR [rsp],rdi
    1ce5:	ff d0                	call   rax
    1ce7:	48 89 84 24 00 01 00 	mov    QWORD PTR [rsp+0x100],rax
    1cee:	00 
    1cef:	48 8b b4 24 20 03 00 	mov    rsi,QWORD PTR [rsp+0x320]
    1cf6:	00 
    1cf7:	48 8b 7e 08          	mov    rdi,QWORD PTR [rsi+0x8]
    1cfb:	48 8b b4 24 30 03 00 	mov    rsi,QWORD PTR [rsp+0x330]
    1d02:	00 
    1d03:	48 b8 00 00 00 00 00 	movabs rax,0x0
    1d0a:	00 00 00 
			1d05: R_X86_64_64	apply1
    1d0d:	48 89 34 24          	mov    QWORD PTR [rsp],rsi
    1d11:	48 89 7c 24 08       	mov    QWORD PTR [rsp+0x8],rdi
    1d16:	ff d0                	call   rax
    1d18:	49 89 c6             	mov    r14,rax
    1d1b:	48 89 d3             	mov    rbx,rdx
    1d1e:	48 85 db             	test   rbx,rbx
    1d21:	0f 85 0d 00 00 00    	jne    1d34 <trigger_gc_please+0x1d34>
    1d27:	4c 89 b4 24 80 02 00 	mov    QWORD PTR [rsp+0x280],r14
    1d2e:	00 
    1d2f:	e9 91 00 00 00       	jmp    1dc5 <trigger_gc_please+0x1dc5>
    1d34:	48 8b b4 24 38 03 00 	mov    rsi,QWORD PTR [rsp+0x338]
    1d3b:	00 
    1d3c:	4c 8b be 98 00 00 00 	mov    r15,QWORD PTR [rsi+0x98]
    1d43:	49 89 dd             	mov    r13,rbx
    1d46:	49 83 c5 ff          	add    r13,0xffffffffffffffff
    1d4a:	48 89 da             	mov    rdx,rbx
    1d4d:	48 c1 e2 03          	shl    rdx,0x3
    1d51:	4d 89 fc             	mov    r12,r15
    1d54:	49 01 d4             	add    r12,rdx
    1d57:	4c 89 ff             	mov    rdi,r15
    1d5a:	48 83 c7 e8          	add    rdi,0xffffffffffffffe8
    1d5e:	4c 89 fe             	mov    rsi,r15
    1d61:	48 b8 00 00 00 00 00 	movabs rax,0x0
    1d68:	00 00 00 
			1d63: R_X86_64_64	memmove
    1d6b:	4c 89 34 24          	mov    QWORD PTR [rsp],r14
    1d6f:	ff d0                	call   rax
    1d71:	4c 8b 34 24          	mov    r14,QWORD PTR [rsp]
    1d75:	48 be 00 00 00 00 00 	movabs rsi,0x0
    1d7c:	00 00 00 
			1d77: R_X86_64_64	callback_return_addr
    1d7f:	bf 01 00 00 00       	mov    edi,0x1
    1d84:	49 89 7c df f8       	mov    QWORD PTR [r15+rbx*8-0x8],rdi
    1d89:	bf 01 00 00 00       	mov    edi,0x1
    1d8e:	49 89 7c df f0       	mov    QWORD PTR [r15+rbx*8-0x10],rdi
    1d93:	49 89 74 df e8       	mov    QWORD PTR [r15+rbx*8-0x18],rsi
    1d98:	48 8b b4 24 38 03 00 	mov    rsi,QWORD PTR [rsp+0x338]
    1d9f:	00 
    1da0:	4c 89 a6 98 00 00 00 	mov    QWORD PTR [rsi+0x98],r12
    1da7:	4c 89 f7             	mov    rdi,r14
    1daa:	4c 89 ee             	mov    rsi,r13
    1dad:	48 b8 00 00 00 00 00 	movabs rax,0x0
    1db4:	00 00 00 
			1daf: R_X86_64_64	apply_n
    1db7:	48 89 3c 24          	mov    QWORD PTR [rsp],rdi
    1dbb:	ff d0                	call   rax
    1dbd:	48 89 84 24 80 02 00 	mov    QWORD PTR [rsp+0x280],rax
    1dc4:	00 
    1dc5:	48 8b b4 24 20 03 00 	mov    rsi,QWORD PTR [rsp+0x320]
    1dcc:	00 
    1dcd:	48 8b 7e 08          	mov    rdi,QWORD PTR [rsi+0x8]
    1dd1:	48 8b b4 24 30 03 00 	mov    rsi,QWORD PTR [rsp+0x330]
    1dd8:	00 
    1dd9:	48 b8 00 00 00 00 00 	movabs rax,0x0
    1de0:	00 00 00 
			1ddb: R_X86_64_64	apply1
    1de3:	48 89 34 24          	mov    QWORD PTR [rsp],rsi
    1de7:	48 89 7c 24 08       	mov    QWORD PTR [rsp+0x8],rdi
    1dec:	ff d0                	call   rax
    1dee:	49 89 c6             	mov    r14,rax
    1df1:	48 89 d3             	mov    rbx,rdx
    1df4:	48 85 db             	test   rbx,rbx
    1df7:	0f 85 0d 00 00 00    	jne    1e0a <trigger_gc_please+0x1e0a>
    1dfd:	4c 89 b4 24 f8 00 00 	mov    QWORD PTR [rsp+0xf8],r14
    1e04:	00 
    1e05:	e9 91 00 00 00       	jmp    1e9b <trigger_gc_please+0x1e9b>
    1e0a:	48 8b b4 24 38 03 00 	mov    rsi,QWORD PTR [rsp+0x338]
    1e11:	00 
    1e12:	4c 8b be 98 00 00 00 	mov    r15,QWORD PTR [rsi+0x98]
    1e19:	49 89 dd             	mov    r13,rbx
    1e1c:	49 83 c5 ff          	add    r13,0xffffffffffffffff
    1e20:	48 89 da             	mov    rdx,rbx
    1e23:	48 c1 e2 03          	shl    rdx,0x3
    1e27:	4d 89 fc             	mov    r12,r15
    1e2a:	49 01 d4             	add    r12,rdx
    1e2d:	4c 89 ff             	mov    rdi,r15
    1e30:	48 83 c7 e8          	add    rdi,0xffffffffffffffe8
    1e34:	4c 89 fe             	mov    rsi,r15
    1e37:	48 b8 00 00 00 00 00 	movabs rax,0x0
    1e3e:	00 00 00 
			1e39: R_X86_64_64	memmove
    1e41:	4c 89 34 24          	mov    QWORD PTR [rsp],r14
    1e45:	ff d0                	call   rax
    1e47:	4c 8b 34 24          	mov    r14,QWORD PTR [rsp]
    1e4b:	48 be 00 00 00 00 00 	movabs rsi,0x0
    1e52:	00 00 00 
			1e4d: R_X86_64_64	callback_return_addr
    1e55:	bf 01 00 00 00       	mov    edi,0x1
    1e5a:	49 89 7c df f8       	mov    QWORD PTR [r15+rbx*8-0x8],rdi
    1e5f:	bf 01 00 00 00       	mov    edi,0x1
    1e64:	49 89 7c df f0       	mov    QWORD PTR [r15+rbx*8-0x10],rdi
    1e69:	49 89 74 df e8       	mov    QWORD PTR [r15+rbx*8-0x18],rsi
    1e6e:	48 8b b4 24 38 03 00 	mov    rsi,QWORD PTR [rsp+0x338]
    1e75:	00 
    1e76:	4c 89 a6 98 00 00 00 	mov    QWORD PTR [rsi+0x98],r12
    1e7d:	4c 89 f7             	mov    rdi,r14
    1e80:	4c 89 ee             	mov    rsi,r13
    1e83:	48 b8 00 00 00 00 00 	movabs rax,0x0
    1e8a:	00 00 00 
			1e85: R_X86_64_64	apply_n
    1e8d:	48 89 3c 24          	mov    QWORD PTR [rsp],rdi
    1e91:	ff d0                	call   rax
    1e93:	48 89 84 24 f8 00 00 	mov    QWORD PTR [rsp+0xf8],rax
    1e9a:	00 
    1e9b:	48 8b b4 24 20 03 00 	mov    rsi,QWORD PTR [rsp+0x320]
    1ea2:	00 
    1ea3:	48 8b 7e 08          	mov    rdi,QWORD PTR [rsi+0x8]
    1ea7:	48 8b b4 24 30 03 00 	mov    rsi,QWORD PTR [rsp+0x330]
    1eae:	00 
    1eaf:	48 b8 00 00 00 00 00 	movabs rax,0x0
    1eb6:	00 00 00 
			1eb1: R_X86_64_64	apply1
    1eb9:	48 89 34 24          	mov    QWORD PTR [rsp],rsi
    1ebd:	48 89 7c 24 08       	mov    QWORD PTR [rsp+0x8],rdi
    1ec2:	ff d0                	call   rax
    1ec4:	48 89 c3             	mov    rbx,rax
    1ec7:	49 89 d6             	mov    r14,rdx
    1eca:	4d 85 f6             	test   r14,r14
    1ecd:	0f 85 0d 00 00 00    	jne    1ee0 <trigger_gc_please+0x1ee0>
    1ed3:	48 89 9c 24 78 02 00 	mov    QWORD PTR [rsp+0x278],rbx
    1eda:	00 
    1edb:	e9 91 00 00 00       	jmp    1f71 <trigger_gc_please+0x1f71>
    1ee0:	48 8b b4 24 38 03 00 	mov    rsi,QWORD PTR [rsp+0x338]
    1ee7:	00 
    1ee8:	4c 8b be 98 00 00 00 	mov    r15,QWORD PTR [rsi+0x98]
    1eef:	4d 89 f5             	mov    r13,r14
    1ef2:	49 83 c5 ff          	add    r13,0xffffffffffffffff
    1ef6:	4c 89 f2             	mov    rdx,r14
    1ef9:	48 c1 e2 03          	shl    rdx,0x3
    1efd:	4d 89 fc             	mov    r12,r15
    1f00:	49 01 d4             	add    r12,rdx
    1f03:	4c 89 ff             	mov    rdi,r15
    1f06:	48 83 c7 e8          	add    rdi,0xffffffffffffffe8
    1f0a:	4c 89 fe             	mov    rsi,r15
    1f0d:	48 b8 00 00 00 00 00 	movabs rax,0x0
    1f14:	00 00 00 
			1f0f: R_X86_64_64	memmove
    1f17:	48 89 1c 24          	mov    QWORD PTR [rsp],rbx
    1f1b:	ff d0                	call   rax
    1f1d:	48 8b 1c 24          	mov    rbx,QWORD PTR [rsp]
    1f21:	48 be 00 00 00 00 00 	movabs rsi,0x0
    1f28:	00 00 00 
			1f23: R_X86_64_64	callback_return_addr
    1f2b:	bf 01 00 00 00       	mov    edi,0x1
    1f30:	4b 89 7c f7 f8       	mov    QWORD PTR [r15+r14*8-0x8],rdi
    1f35:	bf 01 00 00 00       	mov    edi,0x1
    1f3a:	4b 89 7c f7 f0       	mov    QWORD PTR [r15+r14*8-0x10],rdi
    1f3f:	4b 89 74 f7 e8       	mov    QWORD PTR [r15+r14*8-0x18],rsi
    1f44:	48 8b b4 24 38 03 00 	mov    rsi,QWORD PTR [rsp+0x338]
    1f4b:	00 
    1f4c:	4c 89 a6 98 00 00 00 	mov    QWORD PTR [rsi+0x98],r12
    1f53:	48 89 df             	mov    rdi,rbx
    1f56:	4c 89 ee             	mov    rsi,r13
    1f59:	48 b8 00 00 00 00 00 	movabs rax,0x0
    1f60:	00 00 00 
			1f5b: R_X86_64_64	apply_n
    1f63:	48 89 3c 24          	mov    QWORD PTR [rsp],rdi
    1f67:	ff d0                	call   rax
    1f69:	48 89 84 24 78 02 00 	mov    QWORD PTR [rsp+0x278],rax
    1f70:	00 
    1f71:	48 8b b4 24 20 03 00 	mov    rsi,QWORD PTR [rsp+0x320]
    1f78:	00 
    1f79:	48 8b 7e 08          	mov    rdi,QWORD PTR [rsi+0x8]
    1f7d:	48 8b b4 24 30 03 00 	mov    rsi,QWORD PTR [rsp+0x330]
    1f84:	00 
    1f85:	48 b8 00 00 00 00 00 	movabs rax,0x0
    1f8c:	00 00 00 
			1f87: R_X86_64_64	apply1
    1f8f:	48 89 34 24          	mov    QWORD PTR [rsp],rsi
    1f93:	48 89 7c 24 08       	mov    QWORD PTR [rsp+0x8],rdi
    1f98:	ff d0                	call   rax
    1f9a:	49 89 c6             	mov    r14,rax
    1f9d:	48 89 d3             	mov    rbx,rdx
    1fa0:	48 85 db             	test   rbx,rbx
    1fa3:	0f 85 0d 00 00 00    	jne    1fb6 <trigger_gc_please+0x1fb6>
    1fa9:	4c 89 b4 24 f0 00 00 	mov    QWORD PTR [rsp+0xf0],r14
    1fb0:	00 
    1fb1:	e9 91 00 00 00       	jmp    2047 <trigger_gc_please+0x2047>
    1fb6:	48 8b b4 24 38 03 00 	mov    rsi,QWORD PTR [rsp+0x338]
    1fbd:	00 
    1fbe:	4c 8b be 98 00 00 00 	mov    r15,QWORD PTR [rsi+0x98]
    1fc5:	49 89 dd             	mov    r13,rbx
    1fc8:	49 83 c5 ff          	add    r13,0xffffffffffffffff
    1fcc:	48 89 da             	mov    rdx,rbx
    1fcf:	48 c1 e2 03          	shl    rdx,0x3
    1fd3:	4d 89 fc             	mov    r12,r15
    1fd6:	49 01 d4             	add    r12,rdx
    1fd9:	4c 89 ff             	mov    rdi,r15
    1fdc:	48 83 c7 e8          	add    rdi,0xffffffffffffffe8
    1fe0:	4c 89 fe             	mov    rsi,r15
    1fe3:	48 b8 00 00 00 00 00 	movabs rax,0x0
    1fea:	00 00 00 
			1fe5: R_X86_64_64	memmove
    1fed:	4c 89 34 24          	mov    QWORD PTR [rsp],r14
    1ff1:	ff d0                	call   rax
    1ff3:	4c 8b 34 24          	mov    r14,QWORD PTR [rsp]
    1ff7:	48 be 00 00 00 00 00 	movabs rsi,0x0
    1ffe:	00 00 00 
			1ff9: R_X86_64_64	callback_return_addr
    2001:	bf 01 00 00 00       	mov    edi,0x1
    2006:	49 89 7c df f8       	mov    QWORD PTR [r15+rbx*8-0x8],rdi
    200b:	bf 01 00 00 00       	mov    edi,0x1
    2010:	49 89 7c df f0       	mov    QWORD PTR [r15+rbx*8-0x10],rdi
    2015:	49 89 74 df e8       	mov    QWORD PTR [r15+rbx*8-0x18],rsi
    201a:	48 8b b4 24 38 03 00 	mov    rsi,QWORD PTR [rsp+0x338]
    2021:	00 
    2022:	4c 89 a6 98 00 00 00 	mov    QWORD PTR [rsi+0x98],r12
    2029:	4c 89 f7             	mov    rdi,r14
    202c:	4c 89 ee             	mov    rsi,r13
    202f:	48 b8 00 00 00 00 00 	movabs rax,0x0
    2036:	00 00 00 
			2031: R_X86_64_64	apply_n
    2039:	48 89 3c 24          	mov    QWORD PTR [rsp],rdi
    203d:	ff d0                	call   rax
    203f:	48 89 84 24 f0 00 00 	mov    QWORD PTR [rsp+0xf0],rax
    2046:	00 
    2047:	48 8b b4 24 20 03 00 	mov    rsi,QWORD PTR [rsp+0x320]
    204e:	00 
    204f:	48 8b 7e 08          	mov    rdi,QWORD PTR [rsi+0x8]
    2053:	48 8b b4 24 30 03 00 	mov    rsi,QWORD PTR [rsp+0x330]
    205a:	00 
    205b:	48 b8 00 00 00 00 00 	movabs rax,0x0
    2062:	00 00 00 
			205d: R_X86_64_64	apply1
    2065:	48 89 34 24          	mov    QWORD PTR [rsp],rsi
    2069:	48 89 7c 24 08       	mov    QWORD PTR [rsp+0x8],rdi
    206e:	ff d0                	call   rax
    2070:	49 89 c6             	mov    r14,rax
    2073:	48 89 d3             	mov    rbx,rdx
    2076:	48 85 db             	test   rbx,rbx
    2079:	0f 85 0d 00 00 00    	jne    208c <trigger_gc_please+0x208c>
    207f:	4c 89 b4 24 70 02 00 	mov    QWORD PTR [rsp+0x270],r14
    2086:	00 
    2087:	e9 91 00 00 00       	jmp    211d <trigger_gc_please+0x211d>
    208c:	48 8b b4 24 38 03 00 	mov    rsi,QWORD PTR [rsp+0x338]
    2093:	00 
    2094:	4c 8b be 98 00 00 00 	mov    r15,QWORD PTR [rsi+0x98]
    209b:	49 89 dd             	mov    r13,rbx
    209e:	49 83 c5 ff          	add    r13,0xffffffffffffffff
    20a2:	48 89 da             	mov    rdx,rbx
    20a5:	48 c1 e2 03          	shl    rdx,0x3
    20a9:	4d 89 fc             	mov    r12,r15
    20ac:	49 01 d4             	add    r12,rdx
    20af:	4c 89 ff             	mov    rdi,r15
    20b2:	48 83 c7 e8          	add    rdi,0xffffffffffffffe8
    20b6:	4c 89 fe             	mov    rsi,r15
    20b9:	48 b8 00 00 00 00 00 	movabs rax,0x0
    20c0:	00 00 00 
			20bb: R_X86_64_64	memmove
    20c3:	4c 89 34 24          	mov    QWORD PTR [rsp],r14
    20c7:	ff d0                	call   rax
    20c9:	4c 8b 34 24          	mov    r14,QWORD PTR [rsp]
    20cd:	48 be 00 00 00 00 00 	movabs rsi,0x0
    20d4:	00 00 00 
			20cf: R_X86_64_64	callback_return_addr
    20d7:	bf 01 00 00 00       	mov    edi,0x1
    20dc:	49 89 7c df f8       	mov    QWORD PTR [r15+rbx*8-0x8],rdi
    20e1:	bf 01 00 00 00       	mov    edi,0x1
    20e6:	49 89 7c df f0       	mov    QWORD PTR [r15+rbx*8-0x10],rdi
    20eb:	49 89 74 df e8       	mov    QWORD PTR [r15+rbx*8-0x18],rsi
    20f0:	48 8b b4 24 38 03 00 	mov    rsi,QWORD PTR [rsp+0x338]
    20f7:	00 
    20f8:	4c 89 a6 98 00 00 00 	mov    QWORD PTR [rsi+0x98],r12
    20ff:	4c 89 f7             	mov    rdi,r14
    2102:	4c 89 ee             	mov    rsi,r13
    2105:	48 b8 00 00 00 00 00 	movabs rax,0x0
    210c:	00 00 00 
			2107: R_X86_64_64	apply_n
    210f:	48 89 3c 24          	mov    QWORD PTR [rsp],rdi
    2113:	ff d0                	call   rax
    2115:	48 89 84 24 70 02 00 	mov    QWORD PTR [rsp+0x270],rax
    211c:	00 
    211d:	48 8b b4 24 20 03 00 	mov    rsi,QWORD PTR [rsp+0x320]
    2124:	00 
    2125:	48 8b 7e 08          	mov    rdi,QWORD PTR [rsi+0x8]
    2129:	48 8b b4 24 30 03 00 	mov    rsi,QWORD PTR [rsp+0x330]
    2130:	00 
    2131:	48 b8 00 00 00 00 00 	movabs rax,0x0
    2138:	00 00 00 
			2133: R_X86_64_64	apply1
    213b:	48 89 34 24          	mov    QWORD PTR [rsp],rsi
    213f:	48 89 7c 24 08       	mov    QWORD PTR [rsp+0x8],rdi
    2144:	ff d0                	call   rax
    2146:	48 89 c3             	mov    rbx,rax
    2149:	49 89 d6             	mov    r14,rdx
    214c:	4d 85 f6             	test   r14,r14
    214f:	0f 85 0d 00 00 00    	jne    2162 <trigger_gc_please+0x2162>
    2155:	48 89 9c 24 e8 00 00 	mov    QWORD PTR [rsp+0xe8],rbx
    215c:	00 
    215d:	e9 91 00 00 00       	jmp    21f3 <trigger_gc_please+0x21f3>
    2162:	48 8b b4 24 38 03 00 	mov    rsi,QWORD PTR [rsp+0x338]
    2169:	00 
    216a:	4c 8b be 98 00 00 00 	mov    r15,QWORD PTR [rsi+0x98]
    2171:	4d 89 f5             	mov    r13,r14
    2174:	49 83 c5 ff          	add    r13,0xffffffffffffffff
    2178:	4c 89 f2             	mov    rdx,r14
    217b:	48 c1 e2 03          	shl    rdx,0x3
    217f:	4d 89 fc             	mov    r12,r15
    2182:	49 01 d4             	add    r12,rdx
    2185:	4c 89 ff             	mov    rdi,r15
    2188:	48 83 c7 e8          	add    rdi,0xffffffffffffffe8
    218c:	4c 89 fe             	mov    rsi,r15
    218f:	48 b8 00 00 00 00 00 	movabs rax,0x0
    2196:	00 00 00 
			2191: R_X86_64_64	memmove
    2199:	48 89 1c 24          	mov    QWORD PTR [rsp],rbx
    219d:	ff d0                	call   rax
    219f:	48 8b 1c 24          	mov    rbx,QWORD PTR [rsp]
    21a3:	48 be 00 00 00 00 00 	movabs rsi,0x0
    21aa:	00 00 00 
			21a5: R_X86_64_64	callback_return_addr
    21ad:	bf 01 00 00 00       	mov    edi,0x1
    21b2:	4b 89 7c f7 f8       	mov    QWORD PTR [r15+r14*8-0x8],rdi
    21b7:	bf 01 00 00 00       	mov    edi,0x1
    21bc:	4b 89 7c f7 f0       	mov    QWORD PTR [r15+r14*8-0x10],rdi
    21c1:	4b 89 74 f7 e8       	mov    QWORD PTR [r15+r14*8-0x18],rsi
    21c6:	48 8b b4 24 38 03 00 	mov    rsi,QWORD PTR [rsp+0x338]
    21cd:	00 
    21ce:	4c 89 a6 98 00 00 00 	mov    QWORD PTR [rsi+0x98],r12
    21d5:	48 89 df             	mov    rdi,rbx
    21d8:	4c 89 ee             	mov    rsi,r13
    21db:	48 b8 00 00 00 00 00 	movabs rax,0x0
    21e2:	00 00 00 
			21dd: R_X86_64_64	apply_n
    21e5:	48 89 3c 24          	mov    QWORD PTR [rsp],rdi
    21e9:	ff d0                	call   rax
    21eb:	48 89 84 24 e8 00 00 	mov    QWORD PTR [rsp+0xe8],rax
    21f2:	00 
    21f3:	48 8b b4 24 20 03 00 	mov    rsi,QWORD PTR [rsp+0x320]
    21fa:	00 
    21fb:	48 8b 7e 08          	mov    rdi,QWORD PTR [rsi+0x8]
    21ff:	48 8b b4 24 30 03 00 	mov    rsi,QWORD PTR [rsp+0x330]
    2206:	00 
    2207:	48 b8 00 00 00 00 00 	movabs rax,0x0
    220e:	00 00 00 
			2209: R_X86_64_64	apply1
    2211:	48 89 34 24          	mov    QWORD PTR [rsp],rsi
    2215:	48 89 7c 24 08       	mov    QWORD PTR [rsp+0x8],rdi
    221a:	ff d0                	call   rax
    221c:	49 89 c6             	mov    r14,rax
    221f:	48 89 d3             	mov    rbx,rdx
    2222:	48 85 db             	test   rbx,rbx
    2225:	0f 85 0d 00 00 00    	jne    2238 <trigger_gc_please+0x2238>
    222b:	4c 89 b4 24 68 02 00 	mov    QWORD PTR [rsp+0x268],r14
    2232:	00 
    2233:	e9 91 00 00 00       	jmp    22c9 <trigger_gc_please+0x22c9>
    2238:	48 8b b4 24 38 03 00 	mov    rsi,QWORD PTR [rsp+0x338]
    223f:	00 
    2240:	4c 8b be 98 00 00 00 	mov    r15,QWORD PTR [rsi+0x98]
    2247:	49 89 dd             	mov    r13,rbx
    224a:	49 83 c5 ff          	add    r13,0xffffffffffffffff
    224e:	48 89 da             	mov    rdx,rbx
    2251:	48 c1 e2 03          	shl    rdx,0x3
    2255:	4d 89 fc             	mov    r12,r15
    2258:	49 01 d4             	add    r12,rdx
    225b:	4c 89 ff             	mov    rdi,r15
    225e:	48 83 c7 e8          	add    rdi,0xffffffffffffffe8
    2262:	4c 89 fe             	mov    rsi,r15
    2265:	48 b8 00 00 00 00 00 	movabs rax,0x0
    226c:	00 00 00 
			2267: R_X86_64_64	memmove
    226f:	4c 89 34 24          	mov    QWORD PTR [rsp],r14
    2273:	ff d0                	call   rax
    2275:	4c 8b 34 24          	mov    r14,QWORD PTR [rsp]
    2279:	48 be 00 00 00 00 00 	movabs rsi,0x0
    2280:	00 00 00 
			227b: R_X86_64_64	callback_return_addr
    2283:	bf 01 00 00 00       	mov    edi,0x1
    2288:	49 89 7c df f8       	mov    QWORD PTR [r15+rbx*8-0x8],rdi
    228d:	bf 01 00 00 00       	mov    edi,0x1
    2292:	49 89 7c df f0       	mov    QWORD PTR [r15+rbx*8-0x10],rdi
    2297:	49 89 74 df e8       	mov    QWORD PTR [r15+rbx*8-0x18],rsi
    229c:	48 8b b4 24 38 03 00 	mov    rsi,QWORD PTR [rsp+0x338]
    22a3:	00 
    22a4:	4c 89 a6 98 00 00 00 	mov    QWORD PTR [rsi+0x98],r12
    22ab:	4c 89 f7             	mov    rdi,r14
    22ae:	4c 89 ee             	mov    rsi,r13
    22b1:	48 b8 00 00 00 00 00 	movabs rax,0x0
    22b8:	00 00 00 
			22b3: R_X86_64_64	apply_n
    22bb:	48 89 3c 24          	mov    QWORD PTR [rsp],rdi
    22bf:	ff d0                	call   rax
    22c1:	48 89 84 24 68 02 00 	mov    QWORD PTR [rsp+0x268],rax
    22c8:	00 
    22c9:	48 8b b4 24 20 03 00 	mov    rsi,QWORD PTR [rsp+0x320]
    22d0:	00 
    22d1:	48 8b 7e 08          	mov    rdi,QWORD PTR [rsi+0x8]
    22d5:	48 8b b4 24 30 03 00 	mov    rsi,QWORD PTR [rsp+0x330]
    22dc:	00 
    22dd:	48 b8 00 00 00 00 00 	movabs rax,0x0
    22e4:	00 00 00 
			22df: R_X86_64_64	apply1
    22e7:	48 89 34 24          	mov    QWORD PTR [rsp],rsi
    22eb:	48 89 7c 24 08       	mov    QWORD PTR [rsp+0x8],rdi
    22f0:	ff d0                	call   rax
    22f2:	49 89 c6             	mov    r14,rax
    22f5:	48 89 d3             	mov    rbx,rdx
    22f8:	48 85 db             	test   rbx,rbx
    22fb:	0f 85 0d 00 00 00    	jne    230e <trigger_gc_please+0x230e>
    2301:	4c 89 b4 24 e0 00 00 	mov    QWORD PTR [rsp+0xe0],r14
    2308:	00 
    2309:	e9 91 00 00 00       	jmp    239f <trigger_gc_please+0x239f>
    230e:	48 8b b4 24 38 03 00 	mov    rsi,QWORD PTR [rsp+0x338]
    2315:	00 
    2316:	4c 8b be 98 00 00 00 	mov    r15,QWORD PTR [rsi+0x98]
    231d:	49 89 dd             	mov    r13,rbx
    2320:	49 83 c5 ff          	add    r13,0xffffffffffffffff
    2324:	48 89 da             	mov    rdx,rbx
    2327:	48 c1 e2 03          	shl    rdx,0x3
    232b:	4d 89 fc             	mov    r12,r15
    232e:	49 01 d4             	add    r12,rdx
    2331:	4c 89 ff             	mov    rdi,r15
    2334:	48 83 c7 e8          	add    rdi,0xffffffffffffffe8
    2338:	4c 89 fe             	mov    rsi,r15
    233b:	48 b8 00 00 00 00 00 	movabs rax,0x0
    2342:	00 00 00 
			233d: R_X86_64_64	memmove
    2345:	4c 89 34 24          	mov    QWORD PTR [rsp],r14
    2349:	ff d0                	call   rax
    234b:	4c 8b 34 24          	mov    r14,QWORD PTR [rsp]
    234f:	48 be 00 00 00 00 00 	movabs rsi,0x0
    2356:	00 00 00 
			2351: R_X86_64_64	callback_return_addr
    2359:	bf 01 00 00 00       	mov    edi,0x1
    235e:	49 89 7c df f8       	mov    QWORD PTR [r15+rbx*8-0x8],rdi
    2363:	bf 01 00 00 00       	mov    edi,0x1
    2368:	49 89 7c df f0       	mov    QWORD PTR [r15+rbx*8-0x10],rdi
    236d:	49 89 74 df e8       	mov    QWORD PTR [r15+rbx*8-0x18],rsi
    2372:	48 8b b4 24 38 03 00 	mov    rsi,QWORD PTR [rsp+0x338]
    2379:	00 
    237a:	4c 89 a6 98 00 00 00 	mov    QWORD PTR [rsi+0x98],r12
    2381:	4c 89 f7             	mov    rdi,r14
    2384:	4c 89 ee             	mov    rsi,r13
    2387:	48 b8 00 00 00 00 00 	movabs rax,0x0
    238e:	00 00 00 
			2389: R_X86_64_64	apply_n
    2391:	48 89 3c 24          	mov    QWORD PTR [rsp],rdi
    2395:	ff d0                	call   rax
    2397:	48 89 84 24 e0 00 00 	mov    QWORD PTR [rsp+0xe0],rax
    239e:	00 
    239f:	48 8b b4 24 20 03 00 	mov    rsi,QWORD PTR [rsp+0x320]
    23a6:	00 
    23a7:	48 8b 7e 08          	mov    rdi,QWORD PTR [rsi+0x8]
    23ab:	48 8b b4 24 30 03 00 	mov    rsi,QWORD PTR [rsp+0x330]
    23b2:	00 
    23b3:	48 b8 00 00 00 00 00 	movabs rax,0x0
    23ba:	00 00 00 
			23b5: R_X86_64_64	apply1
    23bd:	48 89 34 24          	mov    QWORD PTR [rsp],rsi
    23c1:	48 89 7c 24 08       	mov    QWORD PTR [rsp+0x8],rdi
    23c6:	ff d0                	call   rax
    23c8:	48 89 c3             	mov    rbx,rax
    23cb:	49 89 d6             	mov    r14,rdx
    23ce:	4d 85 f6             	test   r14,r14
    23d1:	0f 85 0d 00 00 00    	jne    23e4 <trigger_gc_please+0x23e4>
    23d7:	48 89 9c 24 60 02 00 	mov    QWORD PTR [rsp+0x260],rbx
    23de:	00 
    23df:	e9 91 00 00 00       	jmp    2475 <trigger_gc_please+0x2475>
    23e4:	48 8b b4 24 38 03 00 	mov    rsi,QWORD PTR [rsp+0x338]
    23eb:	00 
    23ec:	4c 8b be 98 00 00 00 	mov    r15,QWORD PTR [rsi+0x98]
    23f3:	4d 89 f5             	mov    r13,r14
    23f6:	49 83 c5 ff          	add    r13,0xffffffffffffffff
    23fa:	4c 89 f2             	mov    rdx,r14
    23fd:	48 c1 e2 03          	shl    rdx,0x3
    2401:	4d 89 fc             	mov    r12,r15
    2404:	49 01 d4             	add    r12,rdx
    2407:	4c 89 ff             	mov    rdi,r15
    240a:	48 83 c7 e8          	add    rdi,0xffffffffffffffe8
    240e:	4c 89 fe             	mov    rsi,r15
    2411:	48 b8 00 00 00 00 00 	movabs rax,0x0
    2418:	00 00 00 
			2413: R_X86_64_64	memmove
    241b:	48 89 1c 24          	mov    QWORD PTR [rsp],rbx
    241f:	ff d0                	call   rax
    2421:	48 8b 1c 24          	mov    rbx,QWORD PTR [rsp]
    2425:	48 be 00 00 00 00 00 	movabs rsi,0x0
    242c:	00 00 00 
			2427: R_X86_64_64	callback_return_addr
    242f:	bf 01 00 00 00       	mov    edi,0x1
    2434:	4b 89 7c f7 f8       	mov    QWORD PTR [r15+r14*8-0x8],rdi
    2439:	bf 01 00 00 00       	mov    edi,0x1
    243e:	4b 89 7c f7 f0       	mov    QWORD PTR [r15+r14*8-0x10],rdi
    2443:	4b 89 74 f7 e8       	mov    QWORD PTR [r15+r14*8-0x18],rsi
    2448:	48 8b b4 24 38 03 00 	mov    rsi,QWORD PTR [rsp+0x338]
    244f:	00 
    2450:	4c 89 a6 98 00 00 00 	mov    QWORD PTR [rsi+0x98],r12
    2457:	48 89 df             	mov    rdi,rbx
    245a:	4c 89 ee             	mov    rsi,r13
    245d:	48 b8 00 00 00 00 00 	movabs rax,0x0
    2464:	00 00 00 
			245f: R_X86_64_64	apply_n
    2467:	48 89 3c 24          	mov    QWORD PTR [rsp],rdi
    246b:	ff d0                	call   rax
    246d:	48 89 84 24 60 02 00 	mov    QWORD PTR [rsp+0x260],rax
    2474:	00 
    2475:	48 8b b4 24 20 03 00 	mov    rsi,QWORD PTR [rsp+0x320]
    247c:	00 
    247d:	48 8b 7e 08          	mov    rdi,QWORD PTR [rsi+0x8]
    2481:	48 8b b4 24 30 03 00 	mov    rsi,QWORD PTR [rsp+0x330]
    2488:	00 
    2489:	48 b8 00 00 00 00 00 	movabs rax,0x0
    2490:	00 00 00 
			248b: R_X86_64_64	apply1
    2493:	48 89 34 24          	mov    QWORD PTR [rsp],rsi
    2497:	48 89 7c 24 08       	mov    QWORD PTR [rsp+0x8],rdi
    249c:	ff d0                	call   rax
    249e:	49 89 c6             	mov    r14,rax
    24a1:	48 89 d3             	mov    rbx,rdx
    24a4:	48 85 db             	test   rbx,rbx
    24a7:	0f 85 0d 00 00 00    	jne    24ba <trigger_gc_please+0x24ba>
    24ad:	4c 89 b4 24 d8 00 00 	mov    QWORD PTR [rsp+0xd8],r14
    24b4:	00 
    24b5:	e9 91 00 00 00       	jmp    254b <trigger_gc_please+0x254b>
    24ba:	48 8b b4 24 38 03 00 	mov    rsi,QWORD PTR [rsp+0x338]
    24c1:	00 
    24c2:	4c 8b be 98 00 00 00 	mov    r15,QWORD PTR [rsi+0x98]
    24c9:	49 89 dd             	mov    r13,rbx
    24cc:	49 83 c5 ff          	add    r13,0xffffffffffffffff
    24d0:	48 89 da             	mov    rdx,rbx
    24d3:	48 c1 e2 03          	shl    rdx,0x3
    24d7:	4d 89 fc             	mov    r12,r15
    24da:	49 01 d4             	add    r12,rdx
    24dd:	4c 89 ff             	mov    rdi,r15
    24e0:	48 83 c7 e8          	add    rdi,0xffffffffffffffe8
    24e4:	4c 89 fe             	mov    rsi,r15
    24e7:	48 b8 00 00 00 00 00 	movabs rax,0x0
    24ee:	00 00 00 
			24e9: R_X86_64_64	memmove
    24f1:	4c 89 34 24          	mov    QWORD PTR [rsp],r14
    24f5:	ff d0                	call   rax
    24f7:	4c 8b 34 24          	mov    r14,QWORD PTR [rsp]
    24fb:	48 be 00 00 00 00 00 	movabs rsi,0x0
    2502:	00 00 00 
			24fd: R_X86_64_64	callback_return_addr
    2505:	bf 01 00 00 00       	mov    edi,0x1
    250a:	49 89 7c df f8       	mov    QWORD PTR [r15+rbx*8-0x8],rdi
    250f:	bf 01 00 00 00       	mov    edi,0x1
    2514:	49 89 7c df f0       	mov    QWORD PTR [r15+rbx*8-0x10],rdi
    2519:	49 89 74 df e8       	mov    QWORD PTR [r15+rbx*8-0x18],rsi
    251e:	48 8b b4 24 38 03 00 	mov    rsi,QWORD PTR [rsp+0x338]
    2525:	00 
    2526:	4c 89 a6 98 00 00 00 	mov    QWORD PTR [rsi+0x98],r12
    252d:	4c 89 f7             	mov    rdi,r14
    2530:	4c 89 ee             	mov    rsi,r13
    2533:	48 b8 00 00 00 00 00 	movabs rax,0x0
    253a:	00 00 00 
			2535: R_X86_64_64	apply_n
    253d:	48 89 3c 24          	mov    QWORD PTR [rsp],rdi
    2541:	ff d0                	call   rax
    2543:	48 89 84 24 d8 00 00 	mov    QWORD PTR [rsp+0xd8],rax
    254a:	00 
    254b:	48 8b b4 24 20 03 00 	mov    rsi,QWORD PTR [rsp+0x320]
    2552:	00 
    2553:	48 8b 7e 08          	mov    rdi,QWORD PTR [rsi+0x8]
    2557:	48 8b b4 24 30 03 00 	mov    rsi,QWORD PTR [rsp+0x330]
    255e:	00 
    255f:	48 b8 00 00 00 00 00 	movabs rax,0x0
    2566:	00 00 00 
			2561: R_X86_64_64	apply1
    2569:	48 89 34 24          	mov    QWORD PTR [rsp],rsi
    256d:	48 89 7c 24 08       	mov    QWORD PTR [rsp+0x8],rdi
    2572:	ff d0                	call   rax
    2574:	49 89 c6             	mov    r14,rax
    2577:	48 89 d3             	mov    rbx,rdx
    257a:	48 85 db             	test   rbx,rbx
    257d:	0f 85 0d 00 00 00    	jne    2590 <trigger_gc_please+0x2590>
    2583:	4c 89 b4 24 58 02 00 	mov    QWORD PTR [rsp+0x258],r14
    258a:	00 
    258b:	e9 91 00 00 00       	jmp    2621 <trigger_gc_please+0x2621>
    2590:	48 8b b4 24 38 03 00 	mov    rsi,QWORD PTR [rsp+0x338]
    2597:	00 
    2598:	4c 8b be 98 00 00 00 	mov    r15,QWORD PTR [rsi+0x98]
    259f:	49 89 dd             	mov    r13,rbx
    25a2:	49 83 c5 ff          	add    r13,0xffffffffffffffff
    25a6:	48 89 da             	mov    rdx,rbx
    25a9:	48 c1 e2 03          	shl    rdx,0x3
    25ad:	4d 89 fc             	mov    r12,r15
    25b0:	49 01 d4             	add    r12,rdx
    25b3:	4c 89 ff             	mov    rdi,r15
    25b6:	48 83 c7 e8          	add    rdi,0xffffffffffffffe8
    25ba:	4c 89 fe             	mov    rsi,r15
    25bd:	48 b8 00 00 00 00 00 	movabs rax,0x0
    25c4:	00 00 00 
			25bf: R_X86_64_64	memmove
    25c7:	4c 89 34 24          	mov    QWORD PTR [rsp],r14
    25cb:	ff d0                	call   rax
    25cd:	4c 8b 34 24          	mov    r14,QWORD PTR [rsp]
    25d1:	48 be 00 00 00 00 00 	movabs rsi,0x0
    25d8:	00 00 00 
			25d3: R_X86_64_64	callback_return_addr
    25db:	bf 01 00 00 00       	mov    edi,0x1
    25e0:	49 89 7c df f8       	mov    QWORD PTR [r15+rbx*8-0x8],rdi
    25e5:	bf 01 00 00 00       	mov    edi,0x1
    25ea:	49 89 7c df f0       	mov    QWORD PTR [r15+rbx*8-0x10],rdi
    25ef:	49 89 74 df e8       	mov    QWORD PTR [r15+rbx*8-0x18],rsi
    25f4:	48 8b b4 24 38 03 00 	mov    rsi,QWORD PTR [rsp+0x338]
    25fb:	00 
    25fc:	4c 89 a6 98 00 00 00 	mov    QWORD PTR [rsi+0x98],r12
    2603:	4c 89 f7             	mov    rdi,r14
    2606:	4c 89 ee             	mov    rsi,r13
    2609:	48 b8 00 00 00 00 00 	movabs rax,0x0
    2610:	00 00 00 
			260b: R_X86_64_64	apply_n
    2613:	48 89 3c 24          	mov    QWORD PTR [rsp],rdi
    2617:	ff d0                	call   rax
    2619:	48 89 84 24 58 02 00 	mov    QWORD PTR [rsp+0x258],rax
    2620:	00 
    2621:	48 8b b4 24 20 03 00 	mov    rsi,QWORD PTR [rsp+0x320]
    2628:	00 
    2629:	48 8b 7e 08          	mov    rdi,QWORD PTR [rsi+0x8]
    262d:	48 8b b4 24 30 03 00 	mov    rsi,QWORD PTR [rsp+0x330]
    2634:	00 
    2635:	48 b8 00 00 00 00 00 	movabs rax,0x0
    263c:	00 00 00 
			2637: R_X86_64_64	apply1
    263f:	48 89 34 24          	mov    QWORD PTR [rsp],rsi
    2643:	48 89 7c 24 08       	mov    QWORD PTR [rsp+0x8],rdi
    2648:	ff d0                	call   rax
    264a:	48 89 c3             	mov    rbx,rax
    264d:	49 89 d6             	mov    r14,rdx
    2650:	4d 85 f6             	test   r14,r14
    2653:	0f 85 0d 00 00 00    	jne    2666 <trigger_gc_please+0x2666>
    2659:	48 89 9c 24 d0 00 00 	mov    QWORD PTR [rsp+0xd0],rbx
    2660:	00 
    2661:	e9 91 00 00 00       	jmp    26f7 <trigger_gc_please+0x26f7>
    2666:	48 8b b4 24 38 03 00 	mov    rsi,QWORD PTR [rsp+0x338]
    266d:	00 
    266e:	4c 8b be 98 00 00 00 	mov    r15,QWORD PTR [rsi+0x98]
    2675:	4d 89 f5             	mov    r13,r14
    2678:	49 83 c5 ff          	add    r13,0xffffffffffffffff
    267c:	4c 89 f2             	mov    rdx,r14
    267f:	48 c1 e2 03          	shl    rdx,0x3
    2683:	4d 89 fc             	mov    r12,r15
    2686:	49 01 d4             	add    r12,rdx
    2689:	4c 89 ff             	mov    rdi,r15
    268c:	48 83 c7 e8          	add    rdi,0xffffffffffffffe8
    2690:	4c 89 fe             	mov    rsi,r15
    2693:	48 b8 00 00 00 00 00 	movabs rax,0x0
    269a:	00 00 00 
			2695: R_X86_64_64	memmove
    269d:	48 89 1c 24          	mov    QWORD PTR [rsp],rbx
    26a1:	ff d0                	call   rax
    26a3:	48 8b 1c 24          	mov    rbx,QWORD PTR [rsp]
    26a7:	48 be 00 00 00 00 00 	movabs rsi,0x0
    26ae:	00 00 00 
			26a9: R_X86_64_64	callback_return_addr
    26b1:	bf 01 00 00 00       	mov    edi,0x1
    26b6:	4b 89 7c f7 f8       	mov    QWORD PTR [r15+r14*8-0x8],rdi
    26bb:	bf 01 00 00 00       	mov    edi,0x1
    26c0:	4b 89 7c f7 f0       	mov    QWORD PTR [r15+r14*8-0x10],rdi
    26c5:	4b 89 74 f7 e8       	mov    QWORD PTR [r15+r14*8-0x18],rsi
    26ca:	48 8b b4 24 38 03 00 	mov    rsi,QWORD PTR [rsp+0x338]
    26d1:	00 
    26d2:	4c 89 a6 98 00 00 00 	mov    QWORD PTR [rsi+0x98],r12
    26d9:	48 89 df             	mov    rdi,rbx
    26dc:	4c 89 ee             	mov    rsi,r13
    26df:	48 b8 00 00 00 00 00 	movabs rax,0x0
    26e6:	00 00 00 
			26e1: R_X86_64_64	apply_n
    26e9:	48 89 3c 24          	mov    QWORD PTR [rsp],rdi
    26ed:	ff d0                	call   rax
    26ef:	48 89 84 24 d0 00 00 	mov    QWORD PTR [rsp+0xd0],rax
    26f6:	00 
    26f7:	48 8b b4 24 20 03 00 	mov    rsi,QWORD PTR [rsp+0x320]
    26fe:	00 
    26ff:	48 8b 7e 08          	mov    rdi,QWORD PTR [rsi+0x8]
    2703:	48 8b b4 24 30 03 00 	mov    rsi,QWORD PTR [rsp+0x330]
    270a:	00 
    270b:	48 b8 00 00 00 00 00 	movabs rax,0x0
    2712:	00 00 00 
			270d: R_X86_64_64	apply1
    2715:	48 89 34 24          	mov    QWORD PTR [rsp],rsi
    2719:	48 89 7c 24 08       	mov    QWORD PTR [rsp+0x8],rdi
    271e:	ff d0                	call   rax
    2720:	49 89 c6             	mov    r14,rax
    2723:	48 89 d3             	mov    rbx,rdx
    2726:	48 85 db             	test   rbx,rbx
    2729:	0f 85 0d 00 00 00    	jne    273c <trigger_gc_please+0x273c>
    272f:	4c 89 b4 24 50 02 00 	mov    QWORD PTR [rsp+0x250],r14
    2736:	00 
    2737:	e9 91 00 00 00       	jmp    27cd <trigger_gc_please+0x27cd>
    273c:	48 8b b4 24 38 03 00 	mov    rsi,QWORD PTR [rsp+0x338]
    2743:	00 
    2744:	4c 8b be 98 00 00 00 	mov    r15,QWORD PTR [rsi+0x98]
    274b:	49 89 dd             	mov    r13,rbx
    274e:	49 83 c5 ff          	add    r13,0xffffffffffffffff
    2752:	48 89 da             	mov    rdx,rbx
    2755:	48 c1 e2 03          	shl    rdx,0x3
    2759:	4d 89 fc             	mov    r12,r15
    275c:	49 01 d4             	add    r12,rdx
    275f:	4c 89 ff             	mov    rdi,r15
    2762:	48 83 c7 e8          	add    rdi,0xffffffffffffffe8
    2766:	4c 89 fe             	mov    rsi,r15
    2769:	48 b8 00 00 00 00 00 	movabs rax,0x0
    2770:	00 00 00 
			276b: R_X86_64_64	memmove
    2773:	4c 89 34 24          	mov    QWORD PTR [rsp],r14
    2777:	ff d0                	call   rax
    2779:	4c 8b 34 24          	mov    r14,QWORD PTR [rsp]
    277d:	48 be 00 00 00 00 00 	movabs rsi,0x0
    2784:	00 00 00 
			277f: R_X86_64_64	callback_return_addr
    2787:	bf 01 00 00 00       	mov    edi,0x1
    278c:	49 89 7c df f8       	mov    QWORD PTR [r15+rbx*8-0x8],rdi
    2791:	bf 01 00 00 00       	mov    edi,0x1
    2796:	49 89 7c df f0       	mov    QWORD PTR [r15+rbx*8-0x10],rdi
    279b:	49 89 74 df e8       	mov    QWORD PTR [r15+rbx*8-0x18],rsi
    27a0:	48 8b b4 24 38 03 00 	mov    rsi,QWORD PTR [rsp+0x338]
    27a7:	00 
    27a8:	4c 89 a6 98 00 00 00 	mov    QWORD PTR [rsi+0x98],r12
    27af:	4c 89 f7             	mov    rdi,r14
    27b2:	4c 89 ee             	mov    rsi,r13
    27b5:	48 b8 00 00 00 00 00 	movabs rax,0x0
    27bc:	00 00 00 
			27b7: R_X86_64_64	apply_n
    27bf:	48 89 3c 24          	mov    QWORD PTR [rsp],rdi
    27c3:	ff d0                	call   rax
    27c5:	48 89 84 24 50 02 00 	mov    QWORD PTR [rsp+0x250],rax
    27cc:	00 
    27cd:	48 8b b4 24 20 03 00 	mov    rsi,QWORD PTR [rsp+0x320]
    27d4:	00 
    27d5:	48 8b 7e 08          	mov    rdi,QWORD PTR [rsi+0x8]
    27d9:	48 8b b4 24 30 03 00 	mov    rsi,QWORD PTR [rsp+0x330]
    27e0:	00 
    27e1:	48 b8 00 00 00 00 00 	movabs rax,0x0
    27e8:	00 00 00 
			27e3: R_X86_64_64	apply1
    27eb:	48 89 34 24          	mov    QWORD PTR [rsp],rsi
    27ef:	48 89 7c 24 08       	mov    QWORD PTR [rsp+0x8],rdi
    27f4:	ff d0                	call   rax
    27f6:	49 89 c6             	mov    r14,rax
    27f9:	48 89 d3             	mov    rbx,rdx
    27fc:	48 85 db             	test   rbx,rbx
    27ff:	0f 85 0d 00 00 00    	jne    2812 <trigger_gc_please+0x2812>
    2805:	4c 89 b4 24 c8 00 00 	mov    QWORD PTR [rsp+0xc8],r14
    280c:	00 
    280d:	e9 91 00 00 00       	jmp    28a3 <trigger_gc_please+0x28a3>
    2812:	48 8b b4 24 38 03 00 	mov    rsi,QWORD PTR [rsp+0x338]
    2819:	00 
    281a:	4c 8b be 98 00 00 00 	mov    r15,QWORD PTR [rsi+0x98]
    2821:	49 89 dd             	mov    r13,rbx
    2824:	49 83 c5 ff          	add    r13,0xffffffffffffffff
    2828:	48 89 da             	mov    rdx,rbx
    282b:	48 c1 e2 03          	shl    rdx,0x3
    282f:	4d 89 fc             	mov    r12,r15
    2832:	49 01 d4             	add    r12,rdx
    2835:	4c 89 ff             	mov    rdi,r15
    2838:	48 83 c7 e8          	add    rdi,0xffffffffffffffe8
    283c:	4c 89 fe             	mov    rsi,r15
    283f:	48 b8 00 00 00 00 00 	movabs rax,0x0
    2846:	00 00 00 
			2841: R_X86_64_64	memmove
    2849:	4c 89 34 24          	mov    QWORD PTR [rsp],r14
    284d:	ff d0                	call   rax
    284f:	4c 8b 34 24          	mov    r14,QWORD PTR [rsp]
    2853:	48 be 00 00 00 00 00 	movabs rsi,0x0
    285a:	00 00 00 
			2855: R_X86_64_64	callback_return_addr
    285d:	bf 01 00 00 00       	mov    edi,0x1
    2862:	49 89 7c df f8       	mov    QWORD PTR [r15+rbx*8-0x8],rdi
    2867:	bf 01 00 00 00       	mov    edi,0x1
    286c:	49 89 7c df f0       	mov    QWORD PTR [r15+rbx*8-0x10],rdi
    2871:	49 89 74 df e8       	mov    QWORD PTR [r15+rbx*8-0x18],rsi
    2876:	48 8b b4 24 38 03 00 	mov    rsi,QWORD PTR [rsp+0x338]
    287d:	00 
    287e:	4c 89 a6 98 00 00 00 	mov    QWORD PTR [rsi+0x98],r12
    2885:	4c 89 f7             	mov    rdi,r14
    2888:	4c 89 ee             	mov    rsi,r13
    288b:	48 b8 00 00 00 00 00 	movabs rax,0x0
    2892:	00 00 00 
			288d: R_X86_64_64	apply_n
    2895:	48 89 3c 24          	mov    QWORD PTR [rsp],rdi
    2899:	ff d0                	call   rax
    289b:	48 89 84 24 c8 00 00 	mov    QWORD PTR [rsp+0xc8],rax
    28a2:	00 
    28a3:	48 8b b4 24 20 03 00 	mov    rsi,QWORD PTR [rsp+0x320]
    28aa:	00 
    28ab:	48 8b 7e 08          	mov    rdi,QWORD PTR [rsi+0x8]
    28af:	48 8b b4 24 30 03 00 	mov    rsi,QWORD PTR [rsp+0x330]
    28b6:	00 
    28b7:	48 b8 00 00 00 00 00 	movabs rax,0x0
    28be:	00 00 00 
			28b9: R_X86_64_64	apply1
    28c1:	48 89 34 24          	mov    QWORD PTR [rsp],rsi
    28c5:	48 89 7c 24 08       	mov    QWORD PTR [rsp+0x8],rdi
    28ca:	ff d0                	call   rax
    28cc:	48 89 c3             	mov    rbx,rax
    28cf:	49 89 d6             	mov    r14,rdx
    28d2:	4d 85 f6             	test   r14,r14
    28d5:	0f 85 0d 00 00 00    	jne    28e8 <trigger_gc_please+0x28e8>
    28db:	48 89 9c 24 48 02 00 	mov    QWORD PTR [rsp+0x248],rbx
    28e2:	00 
    28e3:	e9 91 00 00 00       	jmp    2979 <trigger_gc_please+0x2979>
    28e8:	48 8b b4 24 38 03 00 	mov    rsi,QWORD PTR [rsp+0x338]
    28ef:	00 
    28f0:	4c 8b be 98 00 00 00 	mov    r15,QWORD PTR [rsi+0x98]
    28f7:	4d 89 f5             	mov    r13,r14
    28fa:	49 83 c5 ff          	add    r13,0xffffffffffffffff
    28fe:	4c 89 f2             	mov    rdx,r14
    2901:	48 c1 e2 03          	shl    rdx,0x3
    2905:	4d 89 fc             	mov    r12,r15
    2908:	49 01 d4             	add    r12,rdx
    290b:	4c 89 ff             	mov    rdi,r15
    290e:	48 83 c7 e8          	add    rdi,0xffffffffffffffe8
    2912:	4c 89 fe             	mov    rsi,r15
    2915:	48 b8 00 00 00 00 00 	movabs rax,0x0
    291c:	00 00 00 
			2917: R_X86_64_64	memmove
    291f:	48 89 1c 24          	mov    QWORD PTR [rsp],rbx
    2923:	ff d0                	call   rax
    2925:	48 8b 1c 24          	mov    rbx,QWORD PTR [rsp]
    2929:	48 be 00 00 00 00 00 	movabs rsi,0x0
    2930:	00 00 00 
			292b: R_X86_64_64	callback_return_addr
    2933:	bf 01 00 00 00       	mov    edi,0x1
    2938:	4b 89 7c f7 f8       	mov    QWORD PTR [r15+r14*8-0x8],rdi
    293d:	bf 01 00 00 00       	mov    edi,0x1
    2942:	4b 89 7c f7 f0       	mov    QWORD PTR [r15+r14*8-0x10],rdi
    2947:	4b 89 74 f7 e8       	mov    QWORD PTR [r15+r14*8-0x18],rsi
    294c:	48 8b b4 24 38 03 00 	mov    rsi,QWORD PTR [rsp+0x338]
    2953:	00 
    2954:	4c 89 a6 98 00 00 00 	mov    QWORD PTR [rsi+0x98],r12
    295b:	48 89 df             	mov    rdi,rbx
    295e:	4c 89 ee             	mov    rsi,r13
    2961:	48 b8 00 00 00 00 00 	movabs rax,0x0
    2968:	00 00 00 
			2963: R_X86_64_64	apply_n
    296b:	48 89 3c 24          	mov    QWORD PTR [rsp],rdi
    296f:	ff d0                	call   rax
    2971:	48 89 84 24 48 02 00 	mov    QWORD PTR [rsp+0x248],rax
    2978:	00 
    2979:	48 8b b4 24 20 03 00 	mov    rsi,QWORD PTR [rsp+0x320]
    2980:	00 
    2981:	48 8b 7e 08          	mov    rdi,QWORD PTR [rsi+0x8]
    2985:	48 8b b4 24 30 03 00 	mov    rsi,QWORD PTR [rsp+0x330]
    298c:	00 
    298d:	48 b8 00 00 00 00 00 	movabs rax,0x0
    2994:	00 00 00 
			298f: R_X86_64_64	apply1
    2997:	48 89 34 24          	mov    QWORD PTR [rsp],rsi
    299b:	48 89 7c 24 08       	mov    QWORD PTR [rsp+0x8],rdi
    29a0:	ff d0                	call   rax
    29a2:	49 89 c6             	mov    r14,rax
    29a5:	48 89 d3             	mov    rbx,rdx
    29a8:	48 85 db             	test   rbx,rbx
    29ab:	0f 85 0d 00 00 00    	jne    29be <trigger_gc_please+0x29be>
    29b1:	4c 89 b4 24 c0 00 00 	mov    QWORD PTR [rsp+0xc0],r14
    29b8:	00 
    29b9:	e9 91 00 00 00       	jmp    2a4f <trigger_gc_please+0x2a4f>
    29be:	48 8b b4 24 38 03 00 	mov    rsi,QWORD PTR [rsp+0x338]
    29c5:	00 
    29c6:	4c 8b be 98 00 00 00 	mov    r15,QWORD PTR [rsi+0x98]
    29cd:	49 89 dd             	mov    r13,rbx
    29d0:	49 83 c5 ff          	add    r13,0xffffffffffffffff
    29d4:	48 89 da             	mov    rdx,rbx
    29d7:	48 c1 e2 03          	shl    rdx,0x3
    29db:	4d 89 fc             	mov    r12,r15
    29de:	49 01 d4             	add    r12,rdx
    29e1:	4c 89 ff             	mov    rdi,r15
    29e4:	48 83 c7 e8          	add    rdi,0xffffffffffffffe8
    29e8:	4c 89 fe             	mov    rsi,r15
    29eb:	48 b8 00 00 00 00 00 	movabs rax,0x0
    29f2:	00 00 00 
			29ed: R_X86_64_64	memmove
    29f5:	4c 89 34 24          	mov    QWORD PTR [rsp],r14
    29f9:	ff d0                	call   rax
    29fb:	4c 8b 34 24          	mov    r14,QWORD PTR [rsp]
    29ff:	48 be 00 00 00 00 00 	movabs rsi,0x0
    2a06:	00 00 00 
			2a01: R_X86_64_64	callback_return_addr
    2a09:	bf 01 00 00 00       	mov    edi,0x1
    2a0e:	49 89 7c df f8       	mov    QWORD PTR [r15+rbx*8-0x8],rdi
    2a13:	bf 01 00 00 00       	mov    edi,0x1
    2a18:	49 89 7c df f0       	mov    QWORD PTR [r15+rbx*8-0x10],rdi
    2a1d:	49 89 74 df e8       	mov    QWORD PTR [r15+rbx*8-0x18],rsi
    2a22:	48 8b b4 24 38 03 00 	mov    rsi,QWORD PTR [rsp+0x338]
    2a29:	00 
    2a2a:	4c 89 a6 98 00 00 00 	mov    QWORD PTR [rsi+0x98],r12
    2a31:	4c 89 f7             	mov    rdi,r14
    2a34:	4c 89 ee             	mov    rsi,r13
    2a37:	48 b8 00 00 00 00 00 	movabs rax,0x0
    2a3e:	00 00 00 
			2a39: R_X86_64_64	apply_n
    2a41:	48 89 3c 24          	mov    QWORD PTR [rsp],rdi
    2a45:	ff d0                	call   rax
    2a47:	48 89 84 24 c0 00 00 	mov    QWORD PTR [rsp+0xc0],rax
    2a4e:	00 
    2a4f:	48 8b b4 24 20 03 00 	mov    rsi,QWORD PTR [rsp+0x320]
    2a56:	00 
    2a57:	48 8b 7e 08          	mov    rdi,QWORD PTR [rsi+0x8]
    2a5b:	48 8b b4 24 30 03 00 	mov    rsi,QWORD PTR [rsp+0x330]
    2a62:	00 
    2a63:	48 b8 00 00 00 00 00 	movabs rax,0x0
    2a6a:	00 00 00 
			2a65: R_X86_64_64	apply1
    2a6d:	48 89 34 24          	mov    QWORD PTR [rsp],rsi
    2a71:	48 89 7c 24 08       	mov    QWORD PTR [rsp+0x8],rdi
    2a76:	ff d0                	call   rax
    2a78:	49 89 c6             	mov    r14,rax
    2a7b:	48 89 d3             	mov    rbx,rdx
    2a7e:	48 85 db             	test   rbx,rbx
    2a81:	0f 85 0d 00 00 00    	jne    2a94 <trigger_gc_please+0x2a94>
    2a87:	4c 89 b4 24 40 02 00 	mov    QWORD PTR [rsp+0x240],r14
    2a8e:	00 
    2a8f:	e9 91 00 00 00       	jmp    2b25 <trigger_gc_please+0x2b25>
    2a94:	48 8b b4 24 38 03 00 	mov    rsi,QWORD PTR [rsp+0x338]
    2a9b:	00 
    2a9c:	4c 8b be 98 00 00 00 	mov    r15,QWORD PTR [rsi+0x98]
    2aa3:	49 89 dd             	mov    r13,rbx
    2aa6:	49 83 c5 ff          	add    r13,0xffffffffffffffff
    2aaa:	48 89 da             	mov    rdx,rbx
    2aad:	48 c1 e2 03          	shl    rdx,0x3
    2ab1:	4d 89 fc             	mov    r12,r15
    2ab4:	49 01 d4             	add    r12,rdx
    2ab7:	4c 89 ff             	mov    rdi,r15
    2aba:	48 83 c7 e8          	add    rdi,0xffffffffffffffe8
    2abe:	4c 89 fe             	mov    rsi,r15
    2ac1:	48 b8 00 00 00 00 00 	movabs rax,0x0
    2ac8:	00 00 00 
			2ac3: R_X86_64_64	memmove
    2acb:	4c 89 34 24          	mov    QWORD PTR [rsp],r14
    2acf:	ff d0                	call   rax
    2ad1:	4c 8b 34 24          	mov    r14,QWORD PTR [rsp]
    2ad5:	48 be 00 00 00 00 00 	movabs rsi,0x0
    2adc:	00 00 00 
			2ad7: R_X86_64_64	callback_return_addr
    2adf:	bf 01 00 00 00       	mov    edi,0x1
    2ae4:	49 89 7c df f8       	mov    QWORD PTR [r15+rbx*8-0x8],rdi
    2ae9:	bf 01 00 00 00       	mov    edi,0x1
    2aee:	49 89 7c df f0       	mov    QWORD PTR [r15+rbx*8-0x10],rdi
    2af3:	49 89 74 df e8       	mov    QWORD PTR [r15+rbx*8-0x18],rsi
    2af8:	48 8b b4 24 38 03 00 	mov    rsi,QWORD PTR [rsp+0x338]
    2aff:	00 
    2b00:	4c 89 a6 98 00 00 00 	mov    QWORD PTR [rsi+0x98],r12
    2b07:	4c 89 f7             	mov    rdi,r14
    2b0a:	4c 89 ee             	mov    rsi,r13
    2b0d:	48 b8 00 00 00 00 00 	movabs rax,0x0
    2b14:	00 00 00 
			2b0f: R_X86_64_64	apply_n
    2b17:	48 89 3c 24          	mov    QWORD PTR [rsp],rdi
    2b1b:	ff d0                	call   rax
    2b1d:	48 89 84 24 40 02 00 	mov    QWORD PTR [rsp+0x240],rax
    2b24:	00 
    2b25:	48 8b b4 24 20 03 00 	mov    rsi,QWORD PTR [rsp+0x320]
    2b2c:	00 
    2b2d:	48 8b 7e 08          	mov    rdi,QWORD PTR [rsi+0x8]
    2b31:	48 8b b4 24 30 03 00 	mov    rsi,QWORD PTR [rsp+0x330]
    2b38:	00 
    2b39:	48 b8 00 00 00 00 00 	movabs rax,0x0
    2b40:	00 00 00 
			2b3b: R_X86_64_64	apply1
    2b43:	48 89 34 24          	mov    QWORD PTR [rsp],rsi
    2b47:	48 89 7c 24 08       	mov    QWORD PTR [rsp+0x8],rdi
    2b4c:	ff d0                	call   rax
    2b4e:	48 89 c3             	mov    rbx,rax
    2b51:	49 89 d6             	mov    r14,rdx
    2b54:	4d 85 f6             	test   r14,r14
    2b57:	0f 85 0d 00 00 00    	jne    2b6a <trigger_gc_please+0x2b6a>
    2b5d:	48 89 9c 24 b8 00 00 	mov    QWORD PTR [rsp+0xb8],rbx
    2b64:	00 
    2b65:	e9 91 00 00 00       	jmp    2bfb <trigger_gc_please+0x2bfb>
    2b6a:	48 8b b4 24 38 03 00 	mov    rsi,QWORD PTR [rsp+0x338]
    2b71:	00 
    2b72:	4c 8b be 98 00 00 00 	mov    r15,QWORD PTR [rsi+0x98]
    2b79:	4d 89 f5             	mov    r13,r14
    2b7c:	49 83 c5 ff          	add    r13,0xffffffffffffffff
    2b80:	4c 89 f2             	mov    rdx,r14
    2b83:	48 c1 e2 03          	shl    rdx,0x3
    2b87:	4d 89 fc             	mov    r12,r15
    2b8a:	49 01 d4             	add    r12,rdx
    2b8d:	4c 89 ff             	mov    rdi,r15
    2b90:	48 83 c7 e8          	add    rdi,0xffffffffffffffe8
    2b94:	4c 89 fe             	mov    rsi,r15
    2b97:	48 b8 00 00 00 00 00 	movabs rax,0x0
    2b9e:	00 00 00 
			2b99: R_X86_64_64	memmove
    2ba1:	48 89 1c 24          	mov    QWORD PTR [rsp],rbx
    2ba5:	ff d0                	call   rax
    2ba7:	48 8b 1c 24          	mov    rbx,QWORD PTR [rsp]
    2bab:	48 be 00 00 00 00 00 	movabs rsi,0x0
    2bb2:	00 00 00 
			2bad: R_X86_64_64	callback_return_addr
    2bb5:	bf 01 00 00 00       	mov    edi,0x1
    2bba:	4b 89 7c f7 f8       	mov    QWORD PTR [r15+r14*8-0x8],rdi
    2bbf:	bf 01 00 00 00       	mov    edi,0x1
    2bc4:	4b 89 7c f7 f0       	mov    QWORD PTR [r15+r14*8-0x10],rdi
    2bc9:	4b 89 74 f7 e8       	mov    QWORD PTR [r15+r14*8-0x18],rsi
    2bce:	48 8b b4 24 38 03 00 	mov    rsi,QWORD PTR [rsp+0x338]
    2bd5:	00 
    2bd6:	4c 89 a6 98 00 00 00 	mov    QWORD PTR [rsi+0x98],r12
    2bdd:	48 89 df             	mov    rdi,rbx
    2be0:	4c 89 ee             	mov    rsi,r13
    2be3:	48 b8 00 00 00 00 00 	movabs rax,0x0
    2bea:	00 00 00 
			2be5: R_X86_64_64	apply_n
    2bed:	48 89 3c 24          	mov    QWORD PTR [rsp],rdi
    2bf1:	ff d0                	call   rax
    2bf3:	48 89 84 24 b8 00 00 	mov    QWORD PTR [rsp+0xb8],rax
    2bfa:	00 
    2bfb:	48 8b b4 24 20 03 00 	mov    rsi,QWORD PTR [rsp+0x320]
    2c02:	00 
    2c03:	48 8b 7e 08          	mov    rdi,QWORD PTR [rsi+0x8]
    2c07:	48 8b b4 24 30 03 00 	mov    rsi,QWORD PTR [rsp+0x330]
    2c0e:	00 
    2c0f:	48 b8 00 00 00 00 00 	movabs rax,0x0
    2c16:	00 00 00 
			2c11: R_X86_64_64	apply1
    2c19:	48 89 34 24          	mov    QWORD PTR [rsp],rsi
    2c1d:	48 89 7c 24 08       	mov    QWORD PTR [rsp+0x8],rdi
    2c22:	ff d0                	call   rax
    2c24:	49 89 c6             	mov    r14,rax
    2c27:	48 89 d3             	mov    rbx,rdx
    2c2a:	48 85 db             	test   rbx,rbx
    2c2d:	0f 85 0d 00 00 00    	jne    2c40 <trigger_gc_please+0x2c40>
    2c33:	4c 89 b4 24 38 02 00 	mov    QWORD PTR [rsp+0x238],r14
    2c3a:	00 
    2c3b:	e9 91 00 00 00       	jmp    2cd1 <trigger_gc_please+0x2cd1>
    2c40:	48 8b b4 24 38 03 00 	mov    rsi,QWORD PTR [rsp+0x338]
    2c47:	00 
    2c48:	4c 8b be 98 00 00 00 	mov    r15,QWORD PTR [rsi+0x98]
    2c4f:	49 89 dd             	mov    r13,rbx
    2c52:	49 83 c5 ff          	add    r13,0xffffffffffffffff
    2c56:	48 89 da             	mov    rdx,rbx
    2c59:	48 c1 e2 03          	shl    rdx,0x3
    2c5d:	4d 89 fc             	mov    r12,r15
    2c60:	49 01 d4             	add    r12,rdx
    2c63:	4c 89 ff             	mov    rdi,r15
    2c66:	48 83 c7 e8          	add    rdi,0xffffffffffffffe8
    2c6a:	4c 89 fe             	mov    rsi,r15
    2c6d:	48 b8 00 00 00 00 00 	movabs rax,0x0
    2c74:	00 00 00 
			2c6f: R_X86_64_64	memmove
    2c77:	4c 89 34 24          	mov    QWORD PTR [rsp],r14
    2c7b:	ff d0                	call   rax
    2c7d:	4c 8b 34 24          	mov    r14,QWORD PTR [rsp]
    2c81:	48 be 00 00 00 00 00 	movabs rsi,0x0
    2c88:	00 00 00 
			2c83: R_X86_64_64	callback_return_addr
    2c8b:	bf 01 00 00 00       	mov    edi,0x1
    2c90:	49 89 7c df f8       	mov    QWORD PTR [r15+rbx*8-0x8],rdi
    2c95:	bf 01 00 00 00       	mov    edi,0x1
    2c9a:	49 89 7c df f0       	mov    QWORD PTR [r15+rbx*8-0x10],rdi
    2c9f:	49 89 74 df e8       	mov    QWORD PTR [r15+rbx*8-0x18],rsi
    2ca4:	48 8b b4 24 38 03 00 	mov    rsi,QWORD PTR [rsp+0x338]
    2cab:	00 
    2cac:	4c 89 a6 98 00 00 00 	mov    QWORD PTR [rsi+0x98],r12
    2cb3:	4c 89 f7             	mov    rdi,r14
    2cb6:	4c 89 ee             	mov    rsi,r13
    2cb9:	48 b8 00 00 00 00 00 	movabs rax,0x0
    2cc0:	00 00 00 
			2cbb: R_X86_64_64	apply_n
    2cc3:	48 89 3c 24          	mov    QWORD PTR [rsp],rdi
    2cc7:	ff d0                	call   rax
    2cc9:	48 89 84 24 38 02 00 	mov    QWORD PTR [rsp+0x238],rax
    2cd0:	00 
    2cd1:	48 8b b4 24 20 03 00 	mov    rsi,QWORD PTR [rsp+0x320]
    2cd8:	00 
    2cd9:	48 8b 7e 08          	mov    rdi,QWORD PTR [rsi+0x8]
    2cdd:	48 8b b4 24 30 03 00 	mov    rsi,QWORD PTR [rsp+0x330]
    2ce4:	00 
    2ce5:	48 b8 00 00 00 00 00 	movabs rax,0x0
    2cec:	00 00 00 
			2ce7: R_X86_64_64	apply1
    2cef:	48 89 34 24          	mov    QWORD PTR [rsp],rsi
    2cf3:	48 89 7c 24 08       	mov    QWORD PTR [rsp+0x8],rdi
    2cf8:	ff d0                	call   rax
    2cfa:	49 89 c6             	mov    r14,rax
    2cfd:	48 89 d3             	mov    rbx,rdx
    2d00:	48 85 db             	test   rbx,rbx
    2d03:	0f 85 0d 00 00 00    	jne    2d16 <trigger_gc_please+0x2d16>
    2d09:	4c 89 b4 24 b0 00 00 	mov    QWORD PTR [rsp+0xb0],r14
    2d10:	00 
    2d11:	e9 91 00 00 00       	jmp    2da7 <trigger_gc_please+0x2da7>
    2d16:	48 8b b4 24 38 03 00 	mov    rsi,QWORD PTR [rsp+0x338]
    2d1d:	00 
    2d1e:	4c 8b be 98 00 00 00 	mov    r15,QWORD PTR [rsi+0x98]
    2d25:	49 89 dd             	mov    r13,rbx
    2d28:	49 83 c5 ff          	add    r13,0xffffffffffffffff
    2d2c:	48 89 da             	mov    rdx,rbx
    2d2f:	48 c1 e2 03          	shl    rdx,0x3
    2d33:	4d 89 fc             	mov    r12,r15
    2d36:	49 01 d4             	add    r12,rdx
    2d39:	4c 89 ff             	mov    rdi,r15
    2d3c:	48 83 c7 e8          	add    rdi,0xffffffffffffffe8
    2d40:	4c 89 fe             	mov    rsi,r15
    2d43:	48 b8 00 00 00 00 00 	movabs rax,0x0
    2d4a:	00 00 00 
			2d45: R_X86_64_64	memmove
    2d4d:	4c 89 34 24          	mov    QWORD PTR [rsp],r14
    2d51:	ff d0                	call   rax
    2d53:	4c 8b 34 24          	mov    r14,QWORD PTR [rsp]
    2d57:	48 be 00 00 00 00 00 	movabs rsi,0x0
    2d5e:	00 00 00 
			2d59: R_X86_64_64	callback_return_addr
    2d61:	bf 01 00 00 00       	mov    edi,0x1
    2d66:	49 89 7c df f8       	mov    QWORD PTR [r15+rbx*8-0x8],rdi
    2d6b:	bf 01 00 00 00       	mov    edi,0x1
    2d70:	49 89 7c df f0       	mov    QWORD PTR [r15+rbx*8-0x10],rdi
    2d75:	49 89 74 df e8       	mov    QWORD PTR [r15+rbx*8-0x18],rsi
    2d7a:	48 8b b4 24 38 03 00 	mov    rsi,QWORD PTR [rsp+0x338]
    2d81:	00 
    2d82:	4c 89 a6 98 00 00 00 	mov    QWORD PTR [rsi+0x98],r12
    2d89:	4c 89 f7             	mov    rdi,r14
    2d8c:	4c 89 ee             	mov    rsi,r13
    2d8f:	48 b8 00 00 00 00 00 	movabs rax,0x0
    2d96:	00 00 00 
			2d91: R_X86_64_64	apply_n
    2d99:	48 89 3c 24          	mov    QWORD PTR [rsp],rdi
    2d9d:	ff d0                	call   rax
    2d9f:	48 89 84 24 b0 00 00 	mov    QWORD PTR [rsp+0xb0],rax
    2da6:	00 
    2da7:	48 8b b4 24 20 03 00 	mov    rsi,QWORD PTR [rsp+0x320]
    2dae:	00 
    2daf:	48 8b 7e 08          	mov    rdi,QWORD PTR [rsi+0x8]
    2db3:	48 8b b4 24 30 03 00 	mov    rsi,QWORD PTR [rsp+0x330]
    2dba:	00 
    2dbb:	48 b8 00 00 00 00 00 	movabs rax,0x0
    2dc2:	00 00 00 
			2dbd: R_X86_64_64	apply1
    2dc5:	48 89 34 24          	mov    QWORD PTR [rsp],rsi
    2dc9:	48 89 7c 24 08       	mov    QWORD PTR [rsp+0x8],rdi
    2dce:	ff d0                	call   rax
    2dd0:	48 89 c3             	mov    rbx,rax
    2dd3:	49 89 d6             	mov    r14,rdx
    2dd6:	4d 85 f6             	test   r14,r14
    2dd9:	0f 85 0d 00 00 00    	jne    2dec <trigger_gc_please+0x2dec>
    2ddf:	48 89 9c 24 30 02 00 	mov    QWORD PTR [rsp+0x230],rbx
    2de6:	00 
    2de7:	e9 91 00 00 00       	jmp    2e7d <trigger_gc_please+0x2e7d>
    2dec:	48 8b b4 24 38 03 00 	mov    rsi,QWORD PTR [rsp+0x338]
    2df3:	00 
    2df4:	4c 8b be 98 00 00 00 	mov    r15,QWORD PTR [rsi+0x98]
    2dfb:	4d 89 f5             	mov    r13,r14
    2dfe:	49 83 c5 ff          	add    r13,0xffffffffffffffff
    2e02:	4c 89 f2             	mov    rdx,r14
    2e05:	48 c1 e2 03          	shl    rdx,0x3
    2e09:	4d 89 fc             	mov    r12,r15
    2e0c:	49 01 d4             	add    r12,rdx
    2e0f:	4c 89 ff             	mov    rdi,r15
    2e12:	48 83 c7 e8          	add    rdi,0xffffffffffffffe8
    2e16:	4c 89 fe             	mov    rsi,r15
    2e19:	48 b8 00 00 00 00 00 	movabs rax,0x0
    2e20:	00 00 00 
			2e1b: R_X86_64_64	memmove
    2e23:	48 89 1c 24          	mov    QWORD PTR [rsp],rbx
    2e27:	ff d0                	call   rax
    2e29:	48 8b 1c 24          	mov    rbx,QWORD PTR [rsp]
    2e2d:	48 be 00 00 00 00 00 	movabs rsi,0x0
    2e34:	00 00 00 
			2e2f: R_X86_64_64	callback_return_addr
    2e37:	bf 01 00 00 00       	mov    edi,0x1
    2e3c:	4b 89 7c f7 f8       	mov    QWORD PTR [r15+r14*8-0x8],rdi
    2e41:	bf 01 00 00 00       	mov    edi,0x1
    2e46:	4b 89 7c f7 f0       	mov    QWORD PTR [r15+r14*8-0x10],rdi
    2e4b:	4b 89 74 f7 e8       	mov    QWORD PTR [r15+r14*8-0x18],rsi
    2e50:	48 8b b4 24 38 03 00 	mov    rsi,QWORD PTR [rsp+0x338]
    2e57:	00 
    2e58:	4c 89 a6 98 00 00 00 	mov    QWORD PTR [rsi+0x98],r12
    2e5f:	48 89 df             	mov    rdi,rbx
    2e62:	4c 89 ee             	mov    rsi,r13
    2e65:	48 b8 00 00 00 00 00 	movabs rax,0x0
    2e6c:	00 00 00 
			2e67: R_X86_64_64	apply_n
    2e6f:	48 89 3c 24          	mov    QWORD PTR [rsp],rdi
    2e73:	ff d0                	call   rax
    2e75:	48 89 84 24 30 02 00 	mov    QWORD PTR [rsp+0x230],rax
    2e7c:	00 
    2e7d:	48 8b b4 24 20 03 00 	mov    rsi,QWORD PTR [rsp+0x320]
    2e84:	00 
    2e85:	48 8b 7e 08          	mov    rdi,QWORD PTR [rsi+0x8]
    2e89:	48 8b b4 24 30 03 00 	mov    rsi,QWORD PTR [rsp+0x330]
    2e90:	00 
    2e91:	48 b8 00 00 00 00 00 	movabs rax,0x0
    2e98:	00 00 00 
			2e93: R_X86_64_64	apply1
    2e9b:	48 89 34 24          	mov    QWORD PTR [rsp],rsi
    2e9f:	48 89 7c 24 08       	mov    QWORD PTR [rsp+0x8],rdi
    2ea4:	ff d0                	call   rax
    2ea6:	49 89 c6             	mov    r14,rax
    2ea9:	48 89 d3             	mov    rbx,rdx
    2eac:	48 85 db             	test   rbx,rbx
    2eaf:	0f 85 0d 00 00 00    	jne    2ec2 <trigger_gc_please+0x2ec2>
    2eb5:	4c 89 b4 24 a8 00 00 	mov    QWORD PTR [rsp+0xa8],r14
    2ebc:	00 
    2ebd:	e9 91 00 00 00       	jmp    2f53 <trigger_gc_please+0x2f53>
    2ec2:	48 8b b4 24 38 03 00 	mov    rsi,QWORD PTR [rsp+0x338]
    2ec9:	00 
    2eca:	4c 8b be 98 00 00 00 	mov    r15,QWORD PTR [rsi+0x98]
    2ed1:	49 89 dd             	mov    r13,rbx
    2ed4:	49 83 c5 ff          	add    r13,0xffffffffffffffff
    2ed8:	48 89 da             	mov    rdx,rbx
    2edb:	48 c1 e2 03          	shl    rdx,0x3
    2edf:	4d 89 fc             	mov    r12,r15
    2ee2:	49 01 d4             	add    r12,rdx
    2ee5:	4c 89 ff             	mov    rdi,r15
    2ee8:	48 83 c7 e8          	add    rdi,0xffffffffffffffe8
    2eec:	4c 89 fe             	mov    rsi,r15
    2eef:	48 b8 00 00 00 00 00 	movabs rax,0x0
    2ef6:	00 00 00 
			2ef1: R_X86_64_64	memmove
    2ef9:	4c 89 34 24          	mov    QWORD PTR [rsp],r14
    2efd:	ff d0                	call   rax
    2eff:	4c 8b 34 24          	mov    r14,QWORD PTR [rsp]
    2f03:	48 be 00 00 00 00 00 	movabs rsi,0x0
    2f0a:	00 00 00 
			2f05: R_X86_64_64	callback_return_addr
    2f0d:	bf 01 00 00 00       	mov    edi,0x1
    2f12:	49 89 7c df f8       	mov    QWORD PTR [r15+rbx*8-0x8],rdi
    2f17:	bf 01 00 00 00       	mov    edi,0x1
    2f1c:	49 89 7c df f0       	mov    QWORD PTR [r15+rbx*8-0x10],rdi
    2f21:	49 89 74 df e8       	mov    QWORD PTR [r15+rbx*8-0x18],rsi
    2f26:	48 8b b4 24 38 03 00 	mov    rsi,QWORD PTR [rsp+0x338]
    2f2d:	00 
    2f2e:	4c 89 a6 98 00 00 00 	mov    QWORD PTR [rsi+0x98],r12
    2f35:	4c 89 f7             	mov    rdi,r14
    2f38:	4c 89 ee             	mov    rsi,r13
    2f3b:	48 b8 00 00 00 00 00 	movabs rax,0x0
    2f42:	00 00 00 
			2f3d: R_X86_64_64	apply_n
    2f45:	48 89 3c 24          	mov    QWORD PTR [rsp],rdi
    2f49:	ff d0                	call   rax
    2f4b:	48 89 84 24 a8 00 00 	mov    QWORD PTR [rsp+0xa8],rax
    2f52:	00 
    2f53:	48 8b b4 24 20 03 00 	mov    rsi,QWORD PTR [rsp+0x320]
    2f5a:	00 
    2f5b:	48 8b 7e 08          	mov    rdi,QWORD PTR [rsi+0x8]
    2f5f:	48 8b b4 24 30 03 00 	mov    rsi,QWORD PTR [rsp+0x330]
    2f66:	00 
    2f67:	48 b8 00 00 00 00 00 	movabs rax,0x0
    2f6e:	00 00 00 
			2f69: R_X86_64_64	apply1
    2f71:	48 89 34 24          	mov    QWORD PTR [rsp],rsi
    2f75:	48 89 7c 24 08       	mov    QWORD PTR [rsp+0x8],rdi
    2f7a:	ff d0                	call   rax
    2f7c:	49 89 c6             	mov    r14,rax
    2f7f:	48 89 d3             	mov    rbx,rdx
    2f82:	48 85 db             	test   rbx,rbx
    2f85:	0f 85 0d 00 00 00    	jne    2f98 <trigger_gc_please+0x2f98>
    2f8b:	4c 89 b4 24 28 02 00 	mov    QWORD PTR [rsp+0x228],r14
    2f92:	00 
    2f93:	e9 91 00 00 00       	jmp    3029 <trigger_gc_please+0x3029>
    2f98:	48 8b b4 24 38 03 00 	mov    rsi,QWORD PTR [rsp+0x338]
    2f9f:	00 
    2fa0:	4c 8b be 98 00 00 00 	mov    r15,QWORD PTR [rsi+0x98]
    2fa7:	49 89 dd             	mov    r13,rbx
    2faa:	49 83 c5 ff          	add    r13,0xffffffffffffffff
    2fae:	48 89 da             	mov    rdx,rbx
    2fb1:	48 c1 e2 03          	shl    rdx,0x3
    2fb5:	4d 89 fc             	mov    r12,r15
    2fb8:	49 01 d4             	add    r12,rdx
    2fbb:	4c 89 ff             	mov    rdi,r15
    2fbe:	48 83 c7 e8          	add    rdi,0xffffffffffffffe8
    2fc2:	4c 89 fe             	mov    rsi,r15
    2fc5:	48 b8 00 00 00 00 00 	movabs rax,0x0
    2fcc:	00 00 00 
			2fc7: R_X86_64_64	memmove
    2fcf:	4c 89 34 24          	mov    QWORD PTR [rsp],r14
    2fd3:	ff d0                	call   rax
    2fd5:	4c 8b 34 24          	mov    r14,QWORD PTR [rsp]
    2fd9:	48 be 00 00 00 00 00 	movabs rsi,0x0
    2fe0:	00 00 00 
			2fdb: R_X86_64_64	callback_return_addr
    2fe3:	bf 01 00 00 00       	mov    edi,0x1
    2fe8:	49 89 7c df f8       	mov    QWORD PTR [r15+rbx*8-0x8],rdi
    2fed:	bf 01 00 00 00       	mov    edi,0x1
    2ff2:	49 89 7c df f0       	mov    QWORD PTR [r15+rbx*8-0x10],rdi
    2ff7:	49 89 74 df e8       	mov    QWORD PTR [r15+rbx*8-0x18],rsi
    2ffc:	48 8b b4 24 38 03 00 	mov    rsi,QWORD PTR [rsp+0x338]
    3003:	00 
    3004:	4c 89 a6 98 00 00 00 	mov    QWORD PTR [rsi+0x98],r12
    300b:	4c 89 f7             	mov    rdi,r14
    300e:	4c 89 ee             	mov    rsi,r13
    3011:	48 b8 00 00 00 00 00 	movabs rax,0x0
    3018:	00 00 00 
			3013: R_X86_64_64	apply_n
    301b:	48 89 3c 24          	mov    QWORD PTR [rsp],rdi
    301f:	ff d0                	call   rax
    3021:	48 89 84 24 28 02 00 	mov    QWORD PTR [rsp+0x228],rax
    3028:	00 
    3029:	48 8b b4 24 20 03 00 	mov    rsi,QWORD PTR [rsp+0x320]
    3030:	00 
    3031:	48 8b 7e 08          	mov    rdi,QWORD PTR [rsi+0x8]
    3035:	48 8b b4 24 30 03 00 	mov    rsi,QWORD PTR [rsp+0x330]
    303c:	00 
    303d:	48 b8 00 00 00 00 00 	movabs rax,0x0
    3044:	00 00 00 
			303f: R_X86_64_64	apply1
    3047:	48 89 34 24          	mov    QWORD PTR [rsp],rsi
    304b:	48 89 7c 24 08       	mov    QWORD PTR [rsp+0x8],rdi
    3050:	ff d0                	call   rax
    3052:	48 89 c3             	mov    rbx,rax
    3055:	49 89 d6             	mov    r14,rdx
    3058:	4d 85 f6             	test   r14,r14
    305b:	0f 85 0d 00 00 00    	jne    306e <trigger_gc_please+0x306e>
    3061:	48 89 9c 24 a0 00 00 	mov    QWORD PTR [rsp+0xa0],rbx
    3068:	00 
    3069:	e9 91 00 00 00       	jmp    30ff <trigger_gc_please+0x30ff>
    306e:	48 8b b4 24 38 03 00 	mov    rsi,QWORD PTR [rsp+0x338]
    3075:	00 
    3076:	4c 8b be 98 00 00 00 	mov    r15,QWORD PTR [rsi+0x98]
    307d:	4d 89 f5             	mov    r13,r14
    3080:	49 83 c5 ff          	add    r13,0xffffffffffffffff
    3084:	4c 89 f2             	mov    rdx,r14
    3087:	48 c1 e2 03          	shl    rdx,0x3
    308b:	4d 89 fc             	mov    r12,r15
    308e:	49 01 d4             	add    r12,rdx
    3091:	4c 89 ff             	mov    rdi,r15
    3094:	48 83 c7 e8          	add    rdi,0xffffffffffffffe8
    3098:	4c 89 fe             	mov    rsi,r15
    309b:	48 b8 00 00 00 00 00 	movabs rax,0x0
    30a2:	00 00 00 
			309d: R_X86_64_64	memmove
    30a5:	48 89 1c 24          	mov    QWORD PTR [rsp],rbx
    30a9:	ff d0                	call   rax
    30ab:	48 8b 1c 24          	mov    rbx,QWORD PTR [rsp]
    30af:	48 be 00 00 00 00 00 	movabs rsi,0x0
    30b6:	00 00 00 
			30b1: R_X86_64_64	callback_return_addr
    30b9:	bf 01 00 00 00       	mov    edi,0x1
    30be:	4b 89 7c f7 f8       	mov    QWORD PTR [r15+r14*8-0x8],rdi
    30c3:	bf 01 00 00 00       	mov    edi,0x1
    30c8:	4b 89 7c f7 f0       	mov    QWORD PTR [r15+r14*8-0x10],rdi
    30cd:	4b 89 74 f7 e8       	mov    QWORD PTR [r15+r14*8-0x18],rsi
    30d2:	48 8b b4 24 38 03 00 	mov    rsi,QWORD PTR [rsp+0x338]
    30d9:	00 
    30da:	4c 89 a6 98 00 00 00 	mov    QWORD PTR [rsi+0x98],r12
    30e1:	48 89 df             	mov    rdi,rbx
    30e4:	4c 89 ee             	mov    rsi,r13
    30e7:	48 b8 00 00 00 00 00 	movabs rax,0x0
    30ee:	00 00 00 
			30e9: R_X86_64_64	apply_n
    30f1:	48 89 3c 24          	mov    QWORD PTR [rsp],rdi
    30f5:	ff d0                	call   rax
    30f7:	48 89 84 24 a0 00 00 	mov    QWORD PTR [rsp+0xa0],rax
    30fe:	00 
    30ff:	48 8b b4 24 20 03 00 	mov    rsi,QWORD PTR [rsp+0x320]
    3106:	00 
    3107:	48 8b 7e 08          	mov    rdi,QWORD PTR [rsi+0x8]
    310b:	48 8b b4 24 30 03 00 	mov    rsi,QWORD PTR [rsp+0x330]
    3112:	00 
    3113:	48 b8 00 00 00 00 00 	movabs rax,0x0
    311a:	00 00 00 
			3115: R_X86_64_64	apply1
    311d:	48 89 34 24          	mov    QWORD PTR [rsp],rsi
    3121:	48 89 7c 24 08       	mov    QWORD PTR [rsp+0x8],rdi
    3126:	ff d0                	call   rax
    3128:	49 89 c6             	mov    r14,rax
    312b:	48 89 d3             	mov    rbx,rdx
    312e:	48 85 db             	test   rbx,rbx
    3131:	0f 85 0d 00 00 00    	jne    3144 <trigger_gc_please+0x3144>
    3137:	4c 89 b4 24 20 02 00 	mov    QWORD PTR [rsp+0x220],r14
    313e:	00 
    313f:	e9 91 00 00 00       	jmp    31d5 <trigger_gc_please+0x31d5>
    3144:	48 8b b4 24 38 03 00 	mov    rsi,QWORD PTR [rsp+0x338]
    314b:	00 
    314c:	4c 8b be 98 00 00 00 	mov    r15,QWORD PTR [rsi+0x98]
    3153:	49 89 dd             	mov    r13,rbx
    3156:	49 83 c5 ff          	add    r13,0xffffffffffffffff
    315a:	48 89 da             	mov    rdx,rbx
    315d:	48 c1 e2 03          	shl    rdx,0x3
    3161:	4d 89 fc             	mov    r12,r15
    3164:	49 01 d4             	add    r12,rdx
    3167:	4c 89 ff             	mov    rdi,r15
    316a:	48 83 c7 e8          	add    rdi,0xffffffffffffffe8
    316e:	4c 89 fe             	mov    rsi,r15
    3171:	48 b8 00 00 00 00 00 	movabs rax,0x0
    3178:	00 00 00 
			3173: R_X86_64_64	memmove
    317b:	4c 89 34 24          	mov    QWORD PTR [rsp],r14
    317f:	ff d0                	call   rax
    3181:	4c 8b 34 24          	mov    r14,QWORD PTR [rsp]
    3185:	48 be 00 00 00 00 00 	movabs rsi,0x0
    318c:	00 00 00 
			3187: R_X86_64_64	callback_return_addr
    318f:	bf 01 00 00 00       	mov    edi,0x1
    3194:	49 89 7c df f8       	mov    QWORD PTR [r15+rbx*8-0x8],rdi
    3199:	bf 01 00 00 00       	mov    edi,0x1
    319e:	49 89 7c df f0       	mov    QWORD PTR [r15+rbx*8-0x10],rdi
    31a3:	49 89 74 df e8       	mov    QWORD PTR [r15+rbx*8-0x18],rsi
    31a8:	48 8b b4 24 38 03 00 	mov    rsi,QWORD PTR [rsp+0x338]
    31af:	00 
    31b0:	4c 89 a6 98 00 00 00 	mov    QWORD PTR [rsi+0x98],r12
    31b7:	4c 89 f7             	mov    rdi,r14
    31ba:	4c 89 ee             	mov    rsi,r13
    31bd:	48 b8 00 00 00 00 00 	movabs rax,0x0
    31c4:	00 00 00 
			31bf: R_X86_64_64	apply_n
    31c7:	48 89 3c 24          	mov    QWORD PTR [rsp],rdi
    31cb:	ff d0                	call   rax
    31cd:	48 89 84 24 20 02 00 	mov    QWORD PTR [rsp+0x220],rax
    31d4:	00 
    31d5:	48 8b b4 24 20 03 00 	mov    rsi,QWORD PTR [rsp+0x320]
    31dc:	00 
    31dd:	48 8b 7e 08          	mov    rdi,QWORD PTR [rsi+0x8]
    31e1:	48 8b b4 24 30 03 00 	mov    rsi,QWORD PTR [rsp+0x330]
    31e8:	00 
    31e9:	48 b8 00 00 00 00 00 	movabs rax,0x0
    31f0:	00 00 00 
			31eb: R_X86_64_64	apply1
    31f3:	48 89 34 24          	mov    QWORD PTR [rsp],rsi
    31f7:	48 89 7c 24 08       	mov    QWORD PTR [rsp+0x8],rdi
    31fc:	ff d0                	call   rax
    31fe:	49 89 c6             	mov    r14,rax
    3201:	48 89 d3             	mov    rbx,rdx
    3204:	48 85 db             	test   rbx,rbx
    3207:	0f 85 0d 00 00 00    	jne    321a <trigger_gc_please+0x321a>
    320d:	4c 89 b4 24 98 00 00 	mov    QWORD PTR [rsp+0x98],r14
    3214:	00 
    3215:	e9 91 00 00 00       	jmp    32ab <trigger_gc_please+0x32ab>
    321a:	48 8b b4 24 38 03 00 	mov    rsi,QWORD PTR [rsp+0x338]
    3221:	00 
    3222:	4c 8b be 98 00 00 00 	mov    r15,QWORD PTR [rsi+0x98]
    3229:	49 89 dd             	mov    r13,rbx
    322c:	49 83 c5 ff          	add    r13,0xffffffffffffffff
    3230:	48 89 da             	mov    rdx,rbx
    3233:	48 c1 e2 03          	shl    rdx,0x3
    3237:	4d 89 fc             	mov    r12,r15
    323a:	49 01 d4             	add    r12,rdx
    323d:	4c 89 ff             	mov    rdi,r15
    3240:	48 83 c7 e8          	add    rdi,0xffffffffffffffe8
    3244:	4c 89 fe             	mov    rsi,r15
    3247:	48 b8 00 00 00 00 00 	movabs rax,0x0
    324e:	00 00 00 
			3249: R_X86_64_64	memmove
    3251:	4c 89 34 24          	mov    QWORD PTR [rsp],r14
    3255:	ff d0                	call   rax
    3257:	4c 8b 34 24          	mov    r14,QWORD PTR [rsp]
    325b:	48 be 00 00 00 00 00 	movabs rsi,0x0
    3262:	00 00 00 
			325d: R_X86_64_64	callback_return_addr
    3265:	bf 01 00 00 00       	mov    edi,0x1
    326a:	49 89 7c df f8       	mov    QWORD PTR [r15+rbx*8-0x8],rdi
    326f:	bf 01 00 00 00       	mov    edi,0x1
    3274:	49 89 7c df f0       	mov    QWORD PTR [r15+rbx*8-0x10],rdi
    3279:	49 89 74 df e8       	mov    QWORD PTR [r15+rbx*8-0x18],rsi
    327e:	48 8b b4 24 38 03 00 	mov    rsi,QWORD PTR [rsp+0x338]
    3285:	00 
    3286:	4c 89 a6 98 00 00 00 	mov    QWORD PTR [rsi+0x98],r12
    328d:	4c 89 f7             	mov    rdi,r14
    3290:	4c 89 ee             	mov    rsi,r13
    3293:	48 b8 00 00 00 00 00 	movabs rax,0x0
    329a:	00 00 00 
			3295: R_X86_64_64	apply_n
    329d:	48 89 3c 24          	mov    QWORD PTR [rsp],rdi
    32a1:	ff d0                	call   rax
    32a3:	48 89 84 24 98 00 00 	mov    QWORD PTR [rsp+0x98],rax
    32aa:	00 
    32ab:	48 8b b4 24 20 03 00 	mov    rsi,QWORD PTR [rsp+0x320]
    32b2:	00 
    32b3:	48 8b 7e 08          	mov    rdi,QWORD PTR [rsi+0x8]
    32b7:	48 8b b4 24 30 03 00 	mov    rsi,QWORD PTR [rsp+0x330]
    32be:	00 
    32bf:	48 b8 00 00 00 00 00 	movabs rax,0x0
    32c6:	00 00 00 
			32c1: R_X86_64_64	apply1
    32c9:	48 89 34 24          	mov    QWORD PTR [rsp],rsi
    32cd:	48 89 7c 24 08       	mov    QWORD PTR [rsp+0x8],rdi
    32d2:	ff d0                	call   rax
    32d4:	48 89 c3             	mov    rbx,rax
    32d7:	49 89 d6             	mov    r14,rdx
    32da:	4d 85 f6             	test   r14,r14
    32dd:	0f 85 0d 00 00 00    	jne    32f0 <trigger_gc_please+0x32f0>
    32e3:	48 89 9c 24 18 02 00 	mov    QWORD PTR [rsp+0x218],rbx
    32ea:	00 
    32eb:	e9 91 00 00 00       	jmp    3381 <trigger_gc_please+0x3381>
    32f0:	48 8b b4 24 38 03 00 	mov    rsi,QWORD PTR [rsp+0x338]
    32f7:	00 
    32f8:	4c 8b be 98 00 00 00 	mov    r15,QWORD PTR [rsi+0x98]
    32ff:	4d 89 f5             	mov    r13,r14
    3302:	49 83 c5 ff          	add    r13,0xffffffffffffffff
    3306:	4c 89 f2             	mov    rdx,r14
    3309:	48 c1 e2 03          	shl    rdx,0x3
    330d:	4d 89 fc             	mov    r12,r15
    3310:	49 01 d4             	add    r12,rdx
    3313:	4c 89 ff             	mov    rdi,r15
    3316:	48 83 c7 e8          	add    rdi,0xffffffffffffffe8
    331a:	4c 89 fe             	mov    rsi,r15
    331d:	48 b8 00 00 00 00 00 	movabs rax,0x0
    3324:	00 00 00 
			331f: R_X86_64_64	memmove
    3327:	48 89 1c 24          	mov    QWORD PTR [rsp],rbx
    332b:	ff d0                	call   rax
    332d:	48 8b 1c 24          	mov    rbx,QWORD PTR [rsp]
    3331:	48 be 00 00 00 00 00 	movabs rsi,0x0
    3338:	00 00 00 
			3333: R_X86_64_64	callback_return_addr
    333b:	bf 01 00 00 00       	mov    edi,0x1
    3340:	4b 89 7c f7 f8       	mov    QWORD PTR [r15+r14*8-0x8],rdi
    3345:	bf 01 00 00 00       	mov    edi,0x1
    334a:	4b 89 7c f7 f0       	mov    QWORD PTR [r15+r14*8-0x10],rdi
    334f:	4b 89 74 f7 e8       	mov    QWORD PTR [r15+r14*8-0x18],rsi
    3354:	48 8b b4 24 38 03 00 	mov    rsi,QWORD PTR [rsp+0x338]
    335b:	00 
    335c:	4c 89 a6 98 00 00 00 	mov    QWORD PTR [rsi+0x98],r12
    3363:	48 89 df             	mov    rdi,rbx
    3366:	4c 89 ee             	mov    rsi,r13
    3369:	48 b8 00 00 00 00 00 	movabs rax,0x0
    3370:	00 00 00 
			336b: R_X86_64_64	apply_n
    3373:	48 89 3c 24          	mov    QWORD PTR [rsp],rdi
    3377:	ff d0                	call   rax
    3379:	48 89 84 24 18 02 00 	mov    QWORD PTR [rsp+0x218],rax
    3380:	00 
    3381:	48 8b b4 24 20 03 00 	mov    rsi,QWORD PTR [rsp+0x320]
    3388:	00 
    3389:	48 8b 7e 08          	mov    rdi,QWORD PTR [rsi+0x8]
    338d:	48 8b b4 24 30 03 00 	mov    rsi,QWORD PTR [rsp+0x330]
    3394:	00 
    3395:	48 b8 00 00 00 00 00 	movabs rax,0x0
    339c:	00 00 00 
			3397: R_X86_64_64	apply1
    339f:	48 89 34 24          	mov    QWORD PTR [rsp],rsi
    33a3:	48 89 7c 24 08       	mov    QWORD PTR [rsp+0x8],rdi
    33a8:	ff d0                	call   rax
    33aa:	49 89 c6             	mov    r14,rax
    33ad:	48 89 d3             	mov    rbx,rdx
    33b0:	48 85 db             	test   rbx,rbx
    33b3:	0f 85 0d 00 00 00    	jne    33c6 <trigger_gc_please+0x33c6>
    33b9:	4c 89 b4 24 90 00 00 	mov    QWORD PTR [rsp+0x90],r14
    33c0:	00 
    33c1:	e9 91 00 00 00       	jmp    3457 <trigger_gc_please+0x3457>
    33c6:	48 8b b4 24 38 03 00 	mov    rsi,QWORD PTR [rsp+0x338]
    33cd:	00 
    33ce:	4c 8b be 98 00 00 00 	mov    r15,QWORD PTR [rsi+0x98]
    33d5:	49 89 dd             	mov    r13,rbx
    33d8:	49 83 c5 ff          	add    r13,0xffffffffffffffff
    33dc:	48 89 da             	mov    rdx,rbx
    33df:	48 c1 e2 03          	shl    rdx,0x3
    33e3:	4d 89 fc             	mov    r12,r15
    33e6:	49 01 d4             	add    r12,rdx
    33e9:	4c 89 ff             	mov    rdi,r15
    33ec:	48 83 c7 e8          	add    rdi,0xffffffffffffffe8
    33f0:	4c 89 fe             	mov    rsi,r15
    33f3:	48 b8 00 00 00 00 00 	movabs rax,0x0
    33fa:	00 00 00 
			33f5: R_X86_64_64	memmove
    33fd:	4c 89 34 24          	mov    QWORD PTR [rsp],r14
    3401:	ff d0                	call   rax
    3403:	4c 8b 34 24          	mov    r14,QWORD PTR [rsp]
    3407:	48 be 00 00 00 00 00 	movabs rsi,0x0
    340e:	00 00 00 
			3409: R_X86_64_64	callback_return_addr
    3411:	bf 01 00 00 00       	mov    edi,0x1
    3416:	49 89 7c df f8       	mov    QWORD PTR [r15+rbx*8-0x8],rdi
    341b:	bf 01 00 00 00       	mov    edi,0x1
    3420:	49 89 7c df f0       	mov    QWORD PTR [r15+rbx*8-0x10],rdi
    3425:	49 89 74 df e8       	mov    QWORD PTR [r15+rbx*8-0x18],rsi
    342a:	48 8b b4 24 38 03 00 	mov    rsi,QWORD PTR [rsp+0x338]
    3431:	00 
    3432:	4c 89 a6 98 00 00 00 	mov    QWORD PTR [rsi+0x98],r12
    3439:	4c 89 f7             	mov    rdi,r14
    343c:	4c 89 ee             	mov    rsi,r13
    343f:	48 b8 00 00 00 00 00 	movabs rax,0x0
    3446:	00 00 00 
			3441: R_X86_64_64	apply_n
    3449:	48 89 3c 24          	mov    QWORD PTR [rsp],rdi
    344d:	ff d0                	call   rax
    344f:	48 89 84 24 90 00 00 	mov    QWORD PTR [rsp+0x90],rax
    3456:	00 
    3457:	48 8b b4 24 20 03 00 	mov    rsi,QWORD PTR [rsp+0x320]
    345e:	00 
    345f:	48 8b 7e 08          	mov    rdi,QWORD PTR [rsi+0x8]
    3463:	48 8b b4 24 30 03 00 	mov    rsi,QWORD PTR [rsp+0x330]
    346a:	00 
    346b:	48 b8 00 00 00 00 00 	movabs rax,0x0
    3472:	00 00 00 
			346d: R_X86_64_64	apply1
    3475:	48 89 34 24          	mov    QWORD PTR [rsp],rsi
    3479:	48 89 7c 24 08       	mov    QWORD PTR [rsp+0x8],rdi
    347e:	ff d0                	call   rax
    3480:	49 89 c6             	mov    r14,rax
    3483:	48 89 d3             	mov    rbx,rdx
    3486:	48 85 db             	test   rbx,rbx
    3489:	0f 85 0d 00 00 00    	jne    349c <trigger_gc_please+0x349c>
    348f:	4c 89 b4 24 10 02 00 	mov    QWORD PTR [rsp+0x210],r14
    3496:	00 
    3497:	e9 91 00 00 00       	jmp    352d <trigger_gc_please+0x352d>
    349c:	48 8b b4 24 38 03 00 	mov    rsi,QWORD PTR [rsp+0x338]
    34a3:	00 
    34a4:	4c 8b be 98 00 00 00 	mov    r15,QWORD PTR [rsi+0x98]
    34ab:	49 89 dd             	mov    r13,rbx
    34ae:	49 83 c5 ff          	add    r13,0xffffffffffffffff
    34b2:	48 89 da             	mov    rdx,rbx
    34b5:	48 c1 e2 03          	shl    rdx,0x3
    34b9:	4d 89 fc             	mov    r12,r15
    34bc:	49 01 d4             	add    r12,rdx
    34bf:	4c 89 ff             	mov    rdi,r15
    34c2:	48 83 c7 e8          	add    rdi,0xffffffffffffffe8
    34c6:	4c 89 fe             	mov    rsi,r15
    34c9:	48 b8 00 00 00 00 00 	movabs rax,0x0
    34d0:	00 00 00 
			34cb: R_X86_64_64	memmove
    34d3:	4c 89 34 24          	mov    QWORD PTR [rsp],r14
    34d7:	ff d0                	call   rax
    34d9:	4c 8b 34 24          	mov    r14,QWORD PTR [rsp]
    34dd:	48 be 00 00 00 00 00 	movabs rsi,0x0
    34e4:	00 00 00 
			34df: R_X86_64_64	callback_return_addr
    34e7:	bf 01 00 00 00       	mov    edi,0x1
    34ec:	49 89 7c df f8       	mov    QWORD PTR [r15+rbx*8-0x8],rdi
    34f1:	bf 01 00 00 00       	mov    edi,0x1
    34f6:	49 89 7c df f0       	mov    QWORD PTR [r15+rbx*8-0x10],rdi
    34fb:	49 89 74 df e8       	mov    QWORD PTR [r15+rbx*8-0x18],rsi
    3500:	48 8b b4 24 38 03 00 	mov    rsi,QWORD PTR [rsp+0x338]
    3507:	00 
    3508:	4c 89 a6 98 00 00 00 	mov    QWORD PTR [rsi+0x98],r12
    350f:	4c 89 f7             	mov    rdi,r14
    3512:	4c 89 ee             	mov    rsi,r13
    3515:	48 b8 00 00 00 00 00 	movabs rax,0x0
    351c:	00 00 00 
			3517: R_X86_64_64	apply_n
    351f:	48 89 3c 24          	mov    QWORD PTR [rsp],rdi
    3523:	ff d0                	call   rax
    3525:	48 89 84 24 10 02 00 	mov    QWORD PTR [rsp+0x210],rax
    352c:	00 
    352d:	48 8b b4 24 20 03 00 	mov    rsi,QWORD PTR [rsp+0x320]
    3534:	00 
    3535:	48 8b 7e 08          	mov    rdi,QWORD PTR [rsi+0x8]
    3539:	48 8b b4 24 30 03 00 	mov    rsi,QWORD PTR [rsp+0x330]
    3540:	00 
    3541:	48 b8 00 00 00 00 00 	movabs rax,0x0
    3548:	00 00 00 
			3543: R_X86_64_64	apply1
    354b:	48 89 34 24          	mov    QWORD PTR [rsp],rsi
    354f:	48 89 7c 24 08       	mov    QWORD PTR [rsp+0x8],rdi
    3554:	ff d0                	call   rax
    3556:	48 89 c3             	mov    rbx,rax
    3559:	49 89 d6             	mov    r14,rdx
    355c:	4d 85 f6             	test   r14,r14
    355f:	0f 85 0d 00 00 00    	jne    3572 <trigger_gc_please+0x3572>
    3565:	48 89 9c 24 88 00 00 	mov    QWORD PTR [rsp+0x88],rbx
    356c:	00 
    356d:	e9 91 00 00 00       	jmp    3603 <trigger_gc_please+0x3603>
    3572:	48 8b b4 24 38 03 00 	mov    rsi,QWORD PTR [rsp+0x338]
    3579:	00 
    357a:	4c 8b be 98 00 00 00 	mov    r15,QWORD PTR [rsi+0x98]
    3581:	4d 89 f5             	mov    r13,r14
    3584:	49 83 c5 ff          	add    r13,0xffffffffffffffff
    3588:	4c 89 f2             	mov    rdx,r14
    358b:	48 c1 e2 03          	shl    rdx,0x3
    358f:	4d 89 fc             	mov    r12,r15
    3592:	49 01 d4             	add    r12,rdx
    3595:	4c 89 ff             	mov    rdi,r15
    3598:	48 83 c7 e8          	add    rdi,0xffffffffffffffe8
    359c:	4c 89 fe             	mov    rsi,r15
    359f:	48 b8 00 00 00 00 00 	movabs rax,0x0
    35a6:	00 00 00 
			35a1: R_X86_64_64	memmove
    35a9:	48 89 1c 24          	mov    QWORD PTR [rsp],rbx
    35ad:	ff d0                	call   rax
    35af:	48 8b 1c 24          	mov    rbx,QWORD PTR [rsp]
    35b3:	48 be 00 00 00 00 00 	movabs rsi,0x0
    35ba:	00 00 00 
			35b5: R_X86_64_64	callback_return_addr
    35bd:	bf 01 00 00 00       	mov    edi,0x1
    35c2:	4b 89 7c f7 f8       	mov    QWORD PTR [r15+r14*8-0x8],rdi
    35c7:	bf 01 00 00 00       	mov    edi,0x1
    35cc:	4b 89 7c f7 f0       	mov    QWORD PTR [r15+r14*8-0x10],rdi
    35d1:	4b 89 74 f7 e8       	mov    QWORD PTR [r15+r14*8-0x18],rsi
    35d6:	48 8b b4 24 38 03 00 	mov    rsi,QWORD PTR [rsp+0x338]
    35dd:	00 
    35de:	4c 89 a6 98 00 00 00 	mov    QWORD PTR [rsi+0x98],r12
    35e5:	48 89 df             	mov    rdi,rbx
    35e8:	4c 89 ee             	mov    rsi,r13
    35eb:	48 b8 00 00 00 00 00 	movabs rax,0x0
    35f2:	00 00 00 
			35ed: R_X86_64_64	apply_n
    35f5:	48 89 3c 24          	mov    QWORD PTR [rsp],rdi
    35f9:	ff d0                	call   rax
    35fb:	48 89 84 24 88 00 00 	mov    QWORD PTR [rsp+0x88],rax
    3602:	00 
    3603:	48 8b b4 24 20 03 00 	mov    rsi,QWORD PTR [rsp+0x320]
    360a:	00 
    360b:	48 8b 7e 08          	mov    rdi,QWORD PTR [rsi+0x8]
    360f:	48 8b b4 24 30 03 00 	mov    rsi,QWORD PTR [rsp+0x330]
    3616:	00 
    3617:	48 b8 00 00 00 00 00 	movabs rax,0x0
    361e:	00 00 00 
			3619: R_X86_64_64	apply1
    3621:	48 89 34 24          	mov    QWORD PTR [rsp],rsi
    3625:	48 89 7c 24 08       	mov    QWORD PTR [rsp+0x8],rdi
    362a:	ff d0                	call   rax
    362c:	49 89 c6             	mov    r14,rax
    362f:	48 89 d3             	mov    rbx,rdx
    3632:	48 85 db             	test   rbx,rbx
    3635:	0f 85 0d 00 00 00    	jne    3648 <trigger_gc_please+0x3648>
    363b:	4c 89 b4 24 08 02 00 	mov    QWORD PTR [rsp+0x208],r14
    3642:	00 
    3643:	e9 91 00 00 00       	jmp    36d9 <trigger_gc_please+0x36d9>
    3648:	48 8b b4 24 38 03 00 	mov    rsi,QWORD PTR [rsp+0x338]
    364f:	00 
    3650:	4c 8b be 98 00 00 00 	mov    r15,QWORD PTR [rsi+0x98]
    3657:	49 89 dd             	mov    r13,rbx
    365a:	49 83 c5 ff          	add    r13,0xffffffffffffffff
    365e:	48 89 da             	mov    rdx,rbx
    3661:	48 c1 e2 03          	shl    rdx,0x3
    3665:	4d 89 fc             	mov    r12,r15
    3668:	49 01 d4             	add    r12,rdx
    366b:	4c 89 ff             	mov    rdi,r15
    366e:	48 83 c7 e8          	add    rdi,0xffffffffffffffe8
    3672:	4c 89 fe             	mov    rsi,r15
    3675:	48 b8 00 00 00 00 00 	movabs rax,0x0
    367c:	00 00 00 
			3677: R_X86_64_64	memmove
    367f:	4c 89 34 24          	mov    QWORD PTR [rsp],r14
    3683:	ff d0                	call   rax
    3685:	4c 8b 34 24          	mov    r14,QWORD PTR [rsp]
    3689:	48 be 00 00 00 00 00 	movabs rsi,0x0
    3690:	00 00 00 
			368b: R_X86_64_64	callback_return_addr
    3693:	bf 01 00 00 00       	mov    edi,0x1
    3698:	49 89 7c df f8       	mov    QWORD PTR [r15+rbx*8-0x8],rdi
    369d:	bf 01 00 00 00       	mov    edi,0x1
    36a2:	49 89 7c df f0       	mov    QWORD PTR [r15+rbx*8-0x10],rdi
    36a7:	49 89 74 df e8       	mov    QWORD PTR [r15+rbx*8-0x18],rsi
    36ac:	48 8b b4 24 38 03 00 	mov    rsi,QWORD PTR [rsp+0x338]
    36b3:	00 
    36b4:	4c 89 a6 98 00 00 00 	mov    QWORD PTR [rsi+0x98],r12
    36bb:	4c 89 f7             	mov    rdi,r14
    36be:	4c 89 ee             	mov    rsi,r13
    36c1:	48 b8 00 00 00 00 00 	movabs rax,0x0
    36c8:	00 00 00 
			36c3: R_X86_64_64	apply_n
    36cb:	48 89 3c 24          	mov    QWORD PTR [rsp],rdi
    36cf:	ff d0                	call   rax
    36d1:	48 89 84 24 08 02 00 	mov    QWORD PTR [rsp+0x208],rax
    36d8:	00 
    36d9:	48 8b b4 24 20 03 00 	mov    rsi,QWORD PTR [rsp+0x320]
    36e0:	00 
    36e1:	48 8b 7e 08          	mov    rdi,QWORD PTR [rsi+0x8]
    36e5:	48 8b b4 24 30 03 00 	mov    rsi,QWORD PTR [rsp+0x330]
    36ec:	00 
    36ed:	48 b8 00 00 00 00 00 	movabs rax,0x0
    36f4:	00 00 00 
			36ef: R_X86_64_64	apply1
    36f7:	48 89 34 24          	mov    QWORD PTR [rsp],rsi
    36fb:	48 89 7c 24 08       	mov    QWORD PTR [rsp+0x8],rdi
    3700:	ff d0                	call   rax
    3702:	49 89 c6             	mov    r14,rax
    3705:	48 89 d3             	mov    rbx,rdx
    3708:	48 85 db             	test   rbx,rbx
    370b:	0f 85 0d 00 00 00    	jne    371e <trigger_gc_please+0x371e>
    3711:	4c 89 b4 24 80 00 00 	mov    QWORD PTR [rsp+0x80],r14
    3718:	00 
    3719:	e9 91 00 00 00       	jmp    37af <trigger_gc_please+0x37af>
    371e:	48 8b b4 24 38 03 00 	mov    rsi,QWORD PTR [rsp+0x338]
    3725:	00 
    3726:	4c 8b be 98 00 00 00 	mov    r15,QWORD PTR [rsi+0x98]
    372d:	49 89 dd             	mov    r13,rbx
    3730:	49 83 c5 ff          	add    r13,0xffffffffffffffff
    3734:	48 89 da             	mov    rdx,rbx
    3737:	48 c1 e2 03          	shl    rdx,0x3
    373b:	4d 89 fc             	mov    r12,r15
    373e:	49 01 d4             	add    r12,rdx
    3741:	4c 89 ff             	mov    rdi,r15
    3744:	48 83 c7 e8          	add    rdi,0xffffffffffffffe8
    3748:	4c 89 fe             	mov    rsi,r15
    374b:	48 b8 00 00 00 00 00 	movabs rax,0x0
    3752:	00 00 00 
			374d: R_X86_64_64	memmove
    3755:	4c 89 34 24          	mov    QWORD PTR [rsp],r14
    3759:	ff d0                	call   rax
    375b:	4c 8b 34 24          	mov    r14,QWORD PTR [rsp]
    375f:	48 be 00 00 00 00 00 	movabs rsi,0x0
    3766:	00 00 00 
			3761: R_X86_64_64	callback_return_addr
    3769:	bf 01 00 00 00       	mov    edi,0x1
    376e:	49 89 7c df f8       	mov    QWORD PTR [r15+rbx*8-0x8],rdi
    3773:	bf 01 00 00 00       	mov    edi,0x1
    3778:	49 89 7c df f0       	mov    QWORD PTR [r15+rbx*8-0x10],rdi
    377d:	49 89 74 df e8       	mov    QWORD PTR [r15+rbx*8-0x18],rsi
    3782:	48 8b b4 24 38 03 00 	mov    rsi,QWORD PTR [rsp+0x338]
    3789:	00 
    378a:	4c 89 a6 98 00 00 00 	mov    QWORD PTR [rsi+0x98],r12
    3791:	4c 89 f7             	mov    rdi,r14
    3794:	4c 89 ee             	mov    rsi,r13
    3797:	48 b8 00 00 00 00 00 	movabs rax,0x0
    379e:	00 00 00 
			3799: R_X86_64_64	apply_n
    37a1:	48 89 3c 24          	mov    QWORD PTR [rsp],rdi
    37a5:	ff d0                	call   rax
    37a7:	48 89 84 24 80 00 00 	mov    QWORD PTR [rsp+0x80],rax
    37ae:	00 
    37af:	48 8b b4 24 20 03 00 	mov    rsi,QWORD PTR [rsp+0x320]
    37b6:	00 
    37b7:	48 8b 7e 08          	mov    rdi,QWORD PTR [rsi+0x8]
    37bb:	48 8b b4 24 30 03 00 	mov    rsi,QWORD PTR [rsp+0x330]
    37c2:	00 
    37c3:	48 b8 00 00 00 00 00 	movabs rax,0x0
    37ca:	00 00 00 
			37c5: R_X86_64_64	apply1
    37cd:	48 89 34 24          	mov    QWORD PTR [rsp],rsi
    37d1:	48 89 7c 24 08       	mov    QWORD PTR [rsp+0x8],rdi
    37d6:	ff d0                	call   rax
    37d8:	48 89 c3             	mov    rbx,rax
    37db:	49 89 d6             	mov    r14,rdx
    37de:	4d 85 f6             	test   r14,r14
    37e1:	0f 85 0d 00 00 00    	jne    37f4 <trigger_gc_please+0x37f4>
    37e7:	48 89 9c 24 00 02 00 	mov    QWORD PTR [rsp+0x200],rbx
    37ee:	00 
    37ef:	e9 91 00 00 00       	jmp    3885 <trigger_gc_please+0x3885>
    37f4:	48 8b b4 24 38 03 00 	mov    rsi,QWORD PTR [rsp+0x338]
    37fb:	00 
    37fc:	4c 8b be 98 00 00 00 	mov    r15,QWORD PTR [rsi+0x98]
    3803:	4d 89 f5             	mov    r13,r14
    3806:	49 83 c5 ff          	add    r13,0xffffffffffffffff
    380a:	4c 89 f2             	mov    rdx,r14
    380d:	48 c1 e2 03          	shl    rdx,0x3
    3811:	4d 89 fc             	mov    r12,r15
    3814:	49 01 d4             	add    r12,rdx
    3817:	4c 89 ff             	mov    rdi,r15
    381a:	48 83 c7 e8          	add    rdi,0xffffffffffffffe8
    381e:	4c 89 fe             	mov    rsi,r15
    3821:	48 b8 00 00 00 00 00 	movabs rax,0x0
    3828:	00 00 00 
			3823: R_X86_64_64	memmove
    382b:	48 89 1c 24          	mov    QWORD PTR [rsp],rbx
    382f:	ff d0                	call   rax
    3831:	48 8b 1c 24          	mov    rbx,QWORD PTR [rsp]
    3835:	48 be 00 00 00 00 00 	movabs rsi,0x0
    383c:	00 00 00 
			3837: R_X86_64_64	callback_return_addr
    383f:	bf 01 00 00 00       	mov    edi,0x1
    3844:	4b 89 7c f7 f8       	mov    QWORD PTR [r15+r14*8-0x8],rdi
    3849:	bf 01 00 00 00       	mov    edi,0x1
    384e:	4b 89 7c f7 f0       	mov    QWORD PTR [r15+r14*8-0x10],rdi
    3853:	4b 89 74 f7 e8       	mov    QWORD PTR [r15+r14*8-0x18],rsi
    3858:	48 8b b4 24 38 03 00 	mov    rsi,QWORD PTR [rsp+0x338]
    385f:	00 
    3860:	4c 89 a6 98 00 00 00 	mov    QWORD PTR [rsi+0x98],r12
    3867:	48 89 df             	mov    rdi,rbx
    386a:	4c 89 ee             	mov    rsi,r13
    386d:	48 b8 00 00 00 00 00 	movabs rax,0x0
    3874:	00 00 00 
			386f: R_X86_64_64	apply_n
    3877:	48 89 3c 24          	mov    QWORD PTR [rsp],rdi
    387b:	ff d0                	call   rax
    387d:	48 89 84 24 00 02 00 	mov    QWORD PTR [rsp+0x200],rax
    3884:	00 
    3885:	48 8b b4 24 20 03 00 	mov    rsi,QWORD PTR [rsp+0x320]
    388c:	00 
    388d:	48 8b 7e 08          	mov    rdi,QWORD PTR [rsi+0x8]
    3891:	48 8b b4 24 30 03 00 	mov    rsi,QWORD PTR [rsp+0x330]
    3898:	00 
    3899:	48 b8 00 00 00 00 00 	movabs rax,0x0
    38a0:	00 00 00 
			389b: R_X86_64_64	apply1
    38a3:	48 89 34 24          	mov    QWORD PTR [rsp],rsi
    38a7:	48 89 7c 24 08       	mov    QWORD PTR [rsp+0x8],rdi
    38ac:	ff d0                	call   rax
    38ae:	49 89 c6             	mov    r14,rax
    38b1:	48 89 d3             	mov    rbx,rdx
    38b4:	48 85 db             	test   rbx,rbx
    38b7:	0f 85 0a 00 00 00    	jne    38c7 <trigger_gc_please+0x38c7>
    38bd:	4c 89 74 24 78       	mov    QWORD PTR [rsp+0x78],r14
    38c2:	e9 8e 00 00 00       	jmp    3955 <trigger_gc_please+0x3955>
    38c7:	48 8b b4 24 38 03 00 	mov    rsi,QWORD PTR [rsp+0x338]
    38ce:	00 
    38cf:	4c 8b be 98 00 00 00 	mov    r15,QWORD PTR [rsi+0x98]
    38d6:	49 89 dd             	mov    r13,rbx
    38d9:	49 83 c5 ff          	add    r13,0xffffffffffffffff
    38dd:	48 89 da             	mov    rdx,rbx
    38e0:	48 c1 e2 03          	shl    rdx,0x3
    38e4:	4d 89 fc             	mov    r12,r15
    38e7:	49 01 d4             	add    r12,rdx
    38ea:	4c 89 ff             	mov    rdi,r15
    38ed:	48 83 c7 e8          	add    rdi,0xffffffffffffffe8
    38f1:	4c 89 fe             	mov    rsi,r15
    38f4:	48 b8 00 00 00 00 00 	movabs rax,0x0
    38fb:	00 00 00 
			38f6: R_X86_64_64	memmove
    38fe:	4c 89 34 24          	mov    QWORD PTR [rsp],r14
    3902:	ff d0                	call   rax
    3904:	4c 8b 34 24          	mov    r14,QWORD PTR [rsp]
    3908:	48 be 00 00 00 00 00 	movabs rsi,0x0
    390f:	00 00 00 
			390a: R_X86_64_64	callback_return_addr
    3912:	bf 01 00 00 00       	mov    edi,0x1
    3917:	49 89 7c df f8       	mov    QWORD PTR [r15+rbx*8-0x8],rdi
    391c:	bf 01 00 00 00       	mov    edi,0x1
    3921:	49 89 7c df f0       	mov    QWORD PTR [r15+rbx*8-0x10],rdi
    3926:	49 89 74 df e8       	mov    QWORD PTR [r15+rbx*8-0x18],rsi
    392b:	48 8b b4 24 38 03 00 	mov    rsi,QWORD PTR [rsp+0x338]
    3932:	00 
    3933:	4c 89 a6 98 00 00 00 	mov    QWORD PTR [rsi+0x98],r12
    393a:	4c 89 f7             	mov    rdi,r14
    393d:	4c 89 ee             	mov    rsi,r13
    3940:	48 b8 00 00 00 00 00 	movabs rax,0x0
    3947:	00 00 00 
			3942: R_X86_64_64	apply_n
    394a:	48 89 3c 24          	mov    QWORD PTR [rsp],rdi
    394e:	ff d0                	call   rax
    3950:	48 89 44 24 78       	mov    QWORD PTR [rsp+0x78],rax
    3955:	48 8b b4 24 20 03 00 	mov    rsi,QWORD PTR [rsp+0x320]
    395c:	00 
    395d:	48 8b 7e 08          	mov    rdi,QWORD PTR [rsi+0x8]
    3961:	48 8b b4 24 30 03 00 	mov    rsi,QWORD PTR [rsp+0x330]
    3968:	00 
    3969:	48 b8 00 00 00 00 00 	movabs rax,0x0
    3970:	00 00 00 
			396b: R_X86_64_64	apply1
    3973:	48 89 34 24          	mov    QWORD PTR [rsp],rsi
    3977:	48 89 7c 24 08       	mov    QWORD PTR [rsp+0x8],rdi
    397c:	ff d0                	call   rax
    397e:	49 89 c6             	mov    r14,rax
    3981:	48 89 d3             	mov    rbx,rdx
    3984:	48 85 db             	test   rbx,rbx
    3987:	0f 85 0d 00 00 00    	jne    399a <trigger_gc_please+0x399a>
    398d:	4c 89 b4 24 f8 01 00 	mov    QWORD PTR [rsp+0x1f8],r14
    3994:	00 
    3995:	e9 91 00 00 00       	jmp    3a2b <trigger_gc_please+0x3a2b>
    399a:	48 8b b4 24 38 03 00 	mov    rsi,QWORD PTR [rsp+0x338]
    39a1:	00 
    39a2:	4c 8b be 98 00 00 00 	mov    r15,QWORD PTR [rsi+0x98]
    39a9:	49 89 dd             	mov    r13,rbx
    39ac:	49 83 c5 ff          	add    r13,0xffffffffffffffff
    39b0:	48 89 da             	mov    rdx,rbx
    39b3:	48 c1 e2 03          	shl    rdx,0x3
    39b7:	4d 89 fc             	mov    r12,r15
    39ba:	49 01 d4             	add    r12,rdx
    39bd:	4c 89 ff             	mov    rdi,r15
    39c0:	48 83 c7 e8          	add    rdi,0xffffffffffffffe8
    39c4:	4c 89 fe             	mov    rsi,r15
    39c7:	48 b8 00 00 00 00 00 	movabs rax,0x0
    39ce:	00 00 00 
			39c9: R_X86_64_64	memmove
    39d1:	4c 89 34 24          	mov    QWORD PTR [rsp],r14
    39d5:	ff d0                	call   rax
    39d7:	4c 8b 34 24          	mov    r14,QWORD PTR [rsp]
    39db:	48 be 00 00 00 00 00 	movabs rsi,0x0
    39e2:	00 00 00 
			39dd: R_X86_64_64	callback_return_addr
    39e5:	bf 01 00 00 00       	mov    edi,0x1
    39ea:	49 89 7c df f8       	mov    QWORD PTR [r15+rbx*8-0x8],rdi
    39ef:	bf 01 00 00 00       	mov    edi,0x1
    39f4:	49 89 7c df f0       	mov    QWORD PTR [r15+rbx*8-0x10],rdi
    39f9:	49 89 74 df e8       	mov    QWORD PTR [r15+rbx*8-0x18],rsi
    39fe:	48 8b b4 24 38 03 00 	mov    rsi,QWORD PTR [rsp+0x338]
    3a05:	00 
    3a06:	4c 89 a6 98 00 00 00 	mov    QWORD PTR [rsi+0x98],r12
    3a0d:	4c 89 f7             	mov    rdi,r14
    3a10:	4c 89 ee             	mov    rsi,r13
    3a13:	48 b8 00 00 00 00 00 	movabs rax,0x0
    3a1a:	00 00 00 
			3a15: R_X86_64_64	apply_n
    3a1d:	48 89 3c 24          	mov    QWORD PTR [rsp],rdi
    3a21:	ff d0                	call   rax
    3a23:	48 89 84 24 f8 01 00 	mov    QWORD PTR [rsp+0x1f8],rax
    3a2a:	00 
    3a2b:	48 8b b4 24 20 03 00 	mov    rsi,QWORD PTR [rsp+0x320]
    3a32:	00 
    3a33:	48 8b 7e 08          	mov    rdi,QWORD PTR [rsi+0x8]
    3a37:	48 8b b4 24 30 03 00 	mov    rsi,QWORD PTR [rsp+0x330]
    3a3e:	00 
    3a3f:	48 b8 00 00 00 00 00 	movabs rax,0x0
    3a46:	00 00 00 
			3a41: R_X86_64_64	apply1
    3a49:	48 89 34 24          	mov    QWORD PTR [rsp],rsi
    3a4d:	48 89 7c 24 08       	mov    QWORD PTR [rsp+0x8],rdi
    3a52:	ff d0                	call   rax
    3a54:	48 89 c3             	mov    rbx,rax
    3a57:	49 89 d6             	mov    r14,rdx
    3a5a:	4d 85 f6             	test   r14,r14
    3a5d:	0f 85 0a 00 00 00    	jne    3a6d <trigger_gc_please+0x3a6d>
    3a63:	48 89 5c 24 70       	mov    QWORD PTR [rsp+0x70],rbx
    3a68:	e9 8e 00 00 00       	jmp    3afb <trigger_gc_please+0x3afb>
    3a6d:	48 8b b4 24 38 03 00 	mov    rsi,QWORD PTR [rsp+0x338]
    3a74:	00 
    3a75:	4c 8b be 98 00 00 00 	mov    r15,QWORD PTR [rsi+0x98]
    3a7c:	4d 89 f5             	mov    r13,r14
    3a7f:	49 83 c5 ff          	add    r13,0xffffffffffffffff
    3a83:	4c 89 f2             	mov    rdx,r14
    3a86:	48 c1 e2 03          	shl    rdx,0x3
    3a8a:	4d 89 fc             	mov    r12,r15
    3a8d:	49 01 d4             	add    r12,rdx
    3a90:	4c 89 ff             	mov    rdi,r15
    3a93:	48 83 c7 e8          	add    rdi,0xffffffffffffffe8
    3a97:	4c 89 fe             	mov    rsi,r15
    3a9a:	48 b8 00 00 00 00 00 	movabs rax,0x0
    3aa1:	00 00 00 
			3a9c: R_X86_64_64	memmove
    3aa4:	48 89 1c 24          	mov    QWORD PTR [rsp],rbx
    3aa8:	ff d0                	call   rax
    3aaa:	48 8b 1c 24          	mov    rbx,QWORD PTR [rsp]
    3aae:	48 be 00 00 00 00 00 	movabs rsi,0x0
    3ab5:	00 00 00 
			3ab0: R_X86_64_64	callback_return_addr
    3ab8:	bf 01 00 00 00       	mov    edi,0x1
    3abd:	4b 89 7c f7 f8       	mov    QWORD PTR [r15+r14*8-0x8],rdi
    3ac2:	bf 01 00 00 00       	mov    edi,0x1
    3ac7:	4b 89 7c f7 f0       	mov    QWORD PTR [r15+r14*8-0x10],rdi
    3acc:	4b 89 74 f7 e8       	mov    QWORD PTR [r15+r14*8-0x18],rsi
    3ad1:	48 8b b4 24 38 03 00 	mov    rsi,QWORD PTR [rsp+0x338]
    3ad8:	00 
    3ad9:	4c 89 a6 98 00 00 00 	mov    QWORD PTR [rsi+0x98],r12
    3ae0:	48 89 df             	mov    rdi,rbx
    3ae3:	4c 89 ee             	mov    rsi,r13
    3ae6:	48 b8 00 00 00 00 00 	movabs rax,0x0
    3aed:	00 00 00 
			3ae8: R_X86_64_64	apply_n
    3af0:	48 89 3c 24          	mov    QWORD PTR [rsp],rdi
    3af4:	ff d0                	call   rax
    3af6:	48 89 44 24 70       	mov    QWORD PTR [rsp+0x70],rax
    3afb:	48 8b b4 24 20 03 00 	mov    rsi,QWORD PTR [rsp+0x320]
    3b02:	00 
    3b03:	48 8b 7e 08          	mov    rdi,QWORD PTR [rsi+0x8]
    3b07:	48 8b b4 24 30 03 00 	mov    rsi,QWORD PTR [rsp+0x330]
    3b0e:	00 
    3b0f:	48 b8 00 00 00 00 00 	movabs rax,0x0
    3b16:	00 00 00 
			3b11: R_X86_64_64	apply1
    3b19:	48 89 34 24          	mov    QWORD PTR [rsp],rsi
    3b1d:	48 89 7c 24 08       	mov    QWORD PTR [rsp+0x8],rdi
    3b22:	ff d0                	call   rax
    3b24:	49 89 c6             	mov    r14,rax
    3b27:	48 89 d3             	mov    rbx,rdx
    3b2a:	48 85 db             	test   rbx,rbx
    3b2d:	0f 85 0d 00 00 00    	jne    3b40 <trigger_gc_please+0x3b40>
    3b33:	4c 89 b4 24 f0 01 00 	mov    QWORD PTR [rsp+0x1f0],r14
    3b3a:	00 
    3b3b:	e9 91 00 00 00       	jmp    3bd1 <trigger_gc_please+0x3bd1>
    3b40:	48 8b b4 24 38 03 00 	mov    rsi,QWORD PTR [rsp+0x338]
    3b47:	00 
    3b48:	4c 8b be 98 00 00 00 	mov    r15,QWORD PTR [rsi+0x98]
    3b4f:	49 89 dd             	mov    r13,rbx
    3b52:	49 83 c5 ff          	add    r13,0xffffffffffffffff
    3b56:	48 89 da             	mov    rdx,rbx
    3b59:	48 c1 e2 03          	shl    rdx,0x3
    3b5d:	4d 89 fc             	mov    r12,r15
    3b60:	49 01 d4             	add    r12,rdx
    3b63:	4c 89 ff             	mov    rdi,r15
    3b66:	48 83 c7 e8          	add    rdi,0xffffffffffffffe8
    3b6a:	4c 89 fe             	mov    rsi,r15
    3b6d:	48 b8 00 00 00 00 00 	movabs rax,0x0
    3b74:	00 00 00 
			3b6f: R_X86_64_64	memmove
    3b77:	4c 89 34 24          	mov    QWORD PTR [rsp],r14
    3b7b:	ff d0                	call   rax
    3b7d:	4c 8b 34 24          	mov    r14,QWORD PTR [rsp]
    3b81:	48 be 00 00 00 00 00 	movabs rsi,0x0
    3b88:	00 00 00 
			3b83: R_X86_64_64	callback_return_addr
    3b8b:	bf 01 00 00 00       	mov    edi,0x1
    3b90:	49 89 7c df f8       	mov    QWORD PTR [r15+rbx*8-0x8],rdi
    3b95:	bf 01 00 00 00       	mov    edi,0x1
    3b9a:	49 89 7c df f0       	mov    QWORD PTR [r15+rbx*8-0x10],rdi
    3b9f:	49 89 74 df e8       	mov    QWORD PTR [r15+rbx*8-0x18],rsi
    3ba4:	48 8b b4 24 38 03 00 	mov    rsi,QWORD PTR [rsp+0x338]
    3bab:	00 
    3bac:	4c 89 a6 98 00 00 00 	mov    QWORD PTR [rsi+0x98],r12
    3bb3:	4c 89 f7             	mov    rdi,r14
    3bb6:	4c 89 ee             	mov    rsi,r13
    3bb9:	48 b8 00 00 00 00 00 	movabs rax,0x0
    3bc0:	00 00 00 
			3bbb: R_X86_64_64	apply_n
    3bc3:	48 89 3c 24          	mov    QWORD PTR [rsp],rdi
    3bc7:	ff d0                	call   rax
    3bc9:	48 89 84 24 f0 01 00 	mov    QWORD PTR [rsp+0x1f0],rax
    3bd0:	00 
    3bd1:	48 8b b4 24 20 03 00 	mov    rsi,QWORD PTR [rsp+0x320]
    3bd8:	00 
    3bd9:	48 8b 7e 08          	mov    rdi,QWORD PTR [rsi+0x8]
    3bdd:	48 8b b4 24 30 03 00 	mov    rsi,QWORD PTR [rsp+0x330]
    3be4:	00 
    3be5:	48 b8 00 00 00 00 00 	movabs rax,0x0
    3bec:	00 00 00 
			3be7: R_X86_64_64	apply1
    3bef:	48 89 34 24          	mov    QWORD PTR [rsp],rsi
    3bf3:	48 89 7c 24 08       	mov    QWORD PTR [rsp+0x8],rdi
    3bf8:	ff d0                	call   rax
    3bfa:	49 89 c6             	mov    r14,rax
    3bfd:	48 89 d3             	mov    rbx,rdx
    3c00:	48 85 db             	test   rbx,rbx
    3c03:	0f 85 0a 00 00 00    	jne    3c13 <trigger_gc_please+0x3c13>
    3c09:	4c 89 74 24 68       	mov    QWORD PTR [rsp+0x68],r14
    3c0e:	e9 8e 00 00 00       	jmp    3ca1 <trigger_gc_please+0x3ca1>
    3c13:	48 8b b4 24 38 03 00 	mov    rsi,QWORD PTR [rsp+0x338]
    3c1a:	00 
    3c1b:	4c 8b be 98 00 00 00 	mov    r15,QWORD PTR [rsi+0x98]
    3c22:	49 89 dd             	mov    r13,rbx
    3c25:	49 83 c5 ff          	add    r13,0xffffffffffffffff
    3c29:	48 89 da             	mov    rdx,rbx
    3c2c:	48 c1 e2 03          	shl    rdx,0x3
    3c30:	4d 89 fc             	mov    r12,r15
    3c33:	49 01 d4             	add    r12,rdx
    3c36:	4c 89 ff             	mov    rdi,r15
    3c39:	48 83 c7 e8          	add    rdi,0xffffffffffffffe8
    3c3d:	4c 89 fe             	mov    rsi,r15
    3c40:	48 b8 00 00 00 00 00 	movabs rax,0x0
    3c47:	00 00 00 
			3c42: R_X86_64_64	memmove
    3c4a:	4c 89 34 24          	mov    QWORD PTR [rsp],r14
    3c4e:	ff d0                	call   rax
    3c50:	4c 8b 34 24          	mov    r14,QWORD PTR [rsp]
    3c54:	48 be 00 00 00 00 00 	movabs rsi,0x0
    3c5b:	00 00 00 
			3c56: R_X86_64_64	callback_return_addr
    3c5e:	bf 01 00 00 00       	mov    edi,0x1
    3c63:	49 89 7c df f8       	mov    QWORD PTR [r15+rbx*8-0x8],rdi
    3c68:	bf 01 00 00 00       	mov    edi,0x1
    3c6d:	49 89 7c df f0       	mov    QWORD PTR [r15+rbx*8-0x10],rdi
    3c72:	49 89 74 df e8       	mov    QWORD PTR [r15+rbx*8-0x18],rsi
    3c77:	48 8b b4 24 38 03 00 	mov    rsi,QWORD PTR [rsp+0x338]
    3c7e:	00 
    3c7f:	4c 89 a6 98 00 00 00 	mov    QWORD PTR [rsi+0x98],r12
    3c86:	4c 89 f7             	mov    rdi,r14
    3c89:	4c 89 ee             	mov    rsi,r13
    3c8c:	48 b8 00 00 00 00 00 	movabs rax,0x0
    3c93:	00 00 00 
			3c8e: R_X86_64_64	apply_n
    3c96:	48 89 3c 24          	mov    QWORD PTR [rsp],rdi
    3c9a:	ff d0                	call   rax
    3c9c:	48 89 44 24 68       	mov    QWORD PTR [rsp+0x68],rax
    3ca1:	48 8b b4 24 20 03 00 	mov    rsi,QWORD PTR [rsp+0x320]
    3ca8:	00 
    3ca9:	48 8b 7e 08          	mov    rdi,QWORD PTR [rsi+0x8]
    3cad:	48 8b b4 24 30 03 00 	mov    rsi,QWORD PTR [rsp+0x330]
    3cb4:	00 
    3cb5:	48 b8 00 00 00 00 00 	movabs rax,0x0
    3cbc:	00 00 00 
			3cb7: R_X86_64_64	apply1
    3cbf:	48 89 34 24          	mov    QWORD PTR [rsp],rsi
    3cc3:	48 89 7c 24 08       	mov    QWORD PTR [rsp+0x8],rdi
    3cc8:	ff d0                	call   rax
    3cca:	48 89 c3             	mov    rbx,rax
    3ccd:	49 89 d6             	mov    r14,rdx
    3cd0:	4d 85 f6             	test   r14,r14
    3cd3:	0f 85 0d 00 00 00    	jne    3ce6 <trigger_gc_please+0x3ce6>
    3cd9:	48 89 9c 24 e8 01 00 	mov    QWORD PTR [rsp+0x1e8],rbx
    3ce0:	00 
    3ce1:	e9 91 00 00 00       	jmp    3d77 <trigger_gc_please+0x3d77>
    3ce6:	48 8b b4 24 38 03 00 	mov    rsi,QWORD PTR [rsp+0x338]
    3ced:	00 
    3cee:	4c 8b be 98 00 00 00 	mov    r15,QWORD PTR [rsi+0x98]
    3cf5:	4d 89 f5             	mov    r13,r14
    3cf8:	49 83 c5 ff          	add    r13,0xffffffffffffffff
    3cfc:	4c 89 f2             	mov    rdx,r14
    3cff:	48 c1 e2 03          	shl    rdx,0x3
    3d03:	4d 89 fc             	mov    r12,r15
    3d06:	49 01 d4             	add    r12,rdx
    3d09:	4c 89 ff             	mov    rdi,r15
    3d0c:	48 83 c7 e8          	add    rdi,0xffffffffffffffe8
    3d10:	4c 89 fe             	mov    rsi,r15
    3d13:	48 b8 00 00 00 00 00 	movabs rax,0x0
    3d1a:	00 00 00 
			3d15: R_X86_64_64	memmove
    3d1d:	48 89 1c 24          	mov    QWORD PTR [rsp],rbx
    3d21:	ff d0                	call   rax
    3d23:	48 8b 1c 24          	mov    rbx,QWORD PTR [rsp]
    3d27:	48 be 00 00 00 00 00 	movabs rsi,0x0
    3d2e:	00 00 00 
			3d29: R_X86_64_64	callback_return_addr
    3d31:	bf 01 00 00 00       	mov    edi,0x1
    3d36:	4b 89 7c f7 f8       	mov    QWORD PTR [r15+r14*8-0x8],rdi
    3d3b:	bf 01 00 00 00       	mov    edi,0x1
    3d40:	4b 89 7c f7 f0       	mov    QWORD PTR [r15+r14*8-0x10],rdi
    3d45:	4b 89 74 f7 e8       	mov    QWORD PTR [r15+r14*8-0x18],rsi
    3d4a:	48 8b b4 24 38 03 00 	mov    rsi,QWORD PTR [rsp+0x338]
    3d51:	00 
    3d52:	4c 89 a6 98 00 00 00 	mov    QWORD PTR [rsi+0x98],r12
    3d59:	48 89 df             	mov    rdi,rbx
    3d5c:	4c 89 ee             	mov    rsi,r13
    3d5f:	48 b8 00 00 00 00 00 	movabs rax,0x0
    3d66:	00 00 00 
			3d61: R_X86_64_64	apply_n
    3d69:	48 89 3c 24          	mov    QWORD PTR [rsp],rdi
    3d6d:	ff d0                	call   rax
    3d6f:	48 89 84 24 e8 01 00 	mov    QWORD PTR [rsp+0x1e8],rax
    3d76:	00 
    3d77:	48 8b b4 24 20 03 00 	mov    rsi,QWORD PTR [rsp+0x320]
    3d7e:	00 
    3d7f:	48 8b 7e 08          	mov    rdi,QWORD PTR [rsi+0x8]
    3d83:	48 8b b4 24 30 03 00 	mov    rsi,QWORD PTR [rsp+0x330]
    3d8a:	00 
    3d8b:	48 b8 00 00 00 00 00 	movabs rax,0x0
    3d92:	00 00 00 
			3d8d: R_X86_64_64	apply1
    3d95:	48 89 34 24          	mov    QWORD PTR [rsp],rsi
    3d99:	48 89 7c 24 08       	mov    QWORD PTR [rsp+0x8],rdi
    3d9e:	ff d0                	call   rax
    3da0:	49 89 c6             	mov    r14,rax
    3da3:	48 89 d3             	mov    rbx,rdx
    3da6:	48 85 db             	test   rbx,rbx
    3da9:	0f 85 0a 00 00 00    	jne    3db9 <trigger_gc_please+0x3db9>
    3daf:	4c 89 74 24 60       	mov    QWORD PTR [rsp+0x60],r14
    3db4:	e9 8e 00 00 00       	jmp    3e47 <trigger_gc_please+0x3e47>
    3db9:	48 8b b4 24 38 03 00 	mov    rsi,QWORD PTR [rsp+0x338]
    3dc0:	00 
    3dc1:	4c 8b be 98 00 00 00 	mov    r15,QWORD PTR [rsi+0x98]
    3dc8:	49 89 dd             	mov    r13,rbx
    3dcb:	49 83 c5 ff          	add    r13,0xffffffffffffffff
    3dcf:	48 89 da             	mov    rdx,rbx
    3dd2:	48 c1 e2 03          	shl    rdx,0x3
    3dd6:	4d 89 fc             	mov    r12,r15
    3dd9:	49 01 d4             	add    r12,rdx
    3ddc:	4c 89 ff             	mov    rdi,r15
    3ddf:	48 83 c7 e8          	add    rdi,0xffffffffffffffe8
    3de3:	4c 89 fe             	mov    rsi,r15
    3de6:	48 b8 00 00 00 00 00 	movabs rax,0x0
    3ded:	00 00 00 
			3de8: R_X86_64_64	memmove
    3df0:	4c 89 34 24          	mov    QWORD PTR [rsp],r14
    3df4:	ff d0                	call   rax
    3df6:	4c 8b 34 24          	mov    r14,QWORD PTR [rsp]
    3dfa:	48 be 00 00 00 00 00 	movabs rsi,0x0
    3e01:	00 00 00 
			3dfc: R_X86_64_64	callback_return_addr
    3e04:	bf 01 00 00 00       	mov    edi,0x1
    3e09:	49 89 7c df f8       	mov    QWORD PTR [r15+rbx*8-0x8],rdi
    3e0e:	bf 01 00 00 00       	mov    edi,0x1
    3e13:	49 89 7c df f0       	mov    QWORD PTR [r15+rbx*8-0x10],rdi
    3e18:	49 89 74 df e8       	mov    QWORD PTR [r15+rbx*8-0x18],rsi
    3e1d:	48 8b b4 24 38 03 00 	mov    rsi,QWORD PTR [rsp+0x338]
    3e24:	00 
    3e25:	4c 89 a6 98 00 00 00 	mov    QWORD PTR [rsi+0x98],r12
    3e2c:	4c 89 f7             	mov    rdi,r14
    3e2f:	4c 89 ee             	mov    rsi,r13
    3e32:	48 b8 00 00 00 00 00 	movabs rax,0x0
    3e39:	00 00 00 
			3e34: R_X86_64_64	apply_n
    3e3c:	48 89 3c 24          	mov    QWORD PTR [rsp],rdi
    3e40:	ff d0                	call   rax
    3e42:	48 89 44 24 60       	mov    QWORD PTR [rsp+0x60],rax
    3e47:	48 8b b4 24 20 03 00 	mov    rsi,QWORD PTR [rsp+0x320]
    3e4e:	00 
    3e4f:	48 8b 7e 08          	mov    rdi,QWORD PTR [rsi+0x8]
    3e53:	48 8b b4 24 30 03 00 	mov    rsi,QWORD PTR [rsp+0x330]
    3e5a:	00 
    3e5b:	48 b8 00 00 00 00 00 	movabs rax,0x0
    3e62:	00 00 00 
			3e5d: R_X86_64_64	apply1
    3e65:	48 89 34 24          	mov    QWORD PTR [rsp],rsi
    3e69:	48 89 7c 24 08       	mov    QWORD PTR [rsp+0x8],rdi
    3e6e:	ff d0                	call   rax
    3e70:	49 89 c6             	mov    r14,rax
    3e73:	48 89 d3             	mov    rbx,rdx
    3e76:	48 85 db             	test   rbx,rbx
    3e79:	0f 85 0d 00 00 00    	jne    3e8c <trigger_gc_please+0x3e8c>
    3e7f:	4c 89 b4 24 e0 01 00 	mov    QWORD PTR [rsp+0x1e0],r14
    3e86:	00 
    3e87:	e9 91 00 00 00       	jmp    3f1d <trigger_gc_please+0x3f1d>
    3e8c:	48 8b b4 24 38 03 00 	mov    rsi,QWORD PTR [rsp+0x338]
    3e93:	00 
    3e94:	4c 8b be 98 00 00 00 	mov    r15,QWORD PTR [rsi+0x98]
    3e9b:	49 89 dd             	mov    r13,rbx
    3e9e:	49 83 c5 ff          	add    r13,0xffffffffffffffff
    3ea2:	48 89 da             	mov    rdx,rbx
    3ea5:	48 c1 e2 03          	shl    rdx,0x3
    3ea9:	4d 89 fc             	mov    r12,r15
    3eac:	49 01 d4             	add    r12,rdx
    3eaf:	4c 89 ff             	mov    rdi,r15
    3eb2:	48 83 c7 e8          	add    rdi,0xffffffffffffffe8
    3eb6:	4c 89 fe             	mov    rsi,r15
    3eb9:	48 b8 00 00 00 00 00 	movabs rax,0x0
    3ec0:	00 00 00 
			3ebb: R_X86_64_64	memmove
    3ec3:	4c 89 34 24          	mov    QWORD PTR [rsp],r14
    3ec7:	ff d0                	call   rax
    3ec9:	4c 8b 34 24          	mov    r14,QWORD PTR [rsp]
    3ecd:	48 be 00 00 00 00 00 	movabs rsi,0x0
    3ed4:	00 00 00 
			3ecf: R_X86_64_64	callback_return_addr
    3ed7:	bf 01 00 00 00       	mov    edi,0x1
    3edc:	49 89 7c df f8       	mov    QWORD PTR [r15+rbx*8-0x8],rdi
    3ee1:	bf 01 00 00 00       	mov    edi,0x1
    3ee6:	49 89 7c df f0       	mov    QWORD PTR [r15+rbx*8-0x10],rdi
    3eeb:	49 89 74 df e8       	mov    QWORD PTR [r15+rbx*8-0x18],rsi
    3ef0:	48 8b b4 24 38 03 00 	mov    rsi,QWORD PTR [rsp+0x338]
    3ef7:	00 
    3ef8:	4c 89 a6 98 00 00 00 	mov    QWORD PTR [rsi+0x98],r12
    3eff:	4c 89 f7             	mov    rdi,r14
    3f02:	4c 89 ee             	mov    rsi,r13
    3f05:	48 b8 00 00 00 00 00 	movabs rax,0x0
    3f0c:	00 00 00 
			3f07: R_X86_64_64	apply_n
    3f0f:	48 89 3c 24          	mov    QWORD PTR [rsp],rdi
    3f13:	ff d0                	call   rax
    3f15:	48 89 84 24 e0 01 00 	mov    QWORD PTR [rsp+0x1e0],rax
    3f1c:	00 
    3f1d:	48 8b b4 24 20 03 00 	mov    rsi,QWORD PTR [rsp+0x320]
    3f24:	00 
    3f25:	48 8b 7e 08          	mov    rdi,QWORD PTR [rsi+0x8]
    3f29:	48 8b b4 24 30 03 00 	mov    rsi,QWORD PTR [rsp+0x330]
    3f30:	00 
    3f31:	48 b8 00 00 00 00 00 	movabs rax,0x0
    3f38:	00 00 00 
			3f33: R_X86_64_64	apply1
    3f3b:	48 89 34 24          	mov    QWORD PTR [rsp],rsi
    3f3f:	48 89 7c 24 08       	mov    QWORD PTR [rsp+0x8],rdi
    3f44:	ff d0                	call   rax
    3f46:	48 89 c3             	mov    rbx,rax
    3f49:	49 89 d6             	mov    r14,rdx
    3f4c:	4d 85 f6             	test   r14,r14
    3f4f:	0f 85 0a 00 00 00    	jne    3f5f <trigger_gc_please+0x3f5f>
    3f55:	48 89 5c 24 58       	mov    QWORD PTR [rsp+0x58],rbx
    3f5a:	e9 8e 00 00 00       	jmp    3fed <trigger_gc_please+0x3fed>
    3f5f:	48 8b b4 24 38 03 00 	mov    rsi,QWORD PTR [rsp+0x338]
    3f66:	00 
    3f67:	4c 8b be 98 00 00 00 	mov    r15,QWORD PTR [rsi+0x98]
    3f6e:	4d 89 f5             	mov    r13,r14
    3f71:	49 83 c5 ff          	add    r13,0xffffffffffffffff
    3f75:	4c 89 f2             	mov    rdx,r14
    3f78:	48 c1 e2 03          	shl    rdx,0x3
    3f7c:	4d 89 fc             	mov    r12,r15
    3f7f:	49 01 d4             	add    r12,rdx
    3f82:	4c 89 ff             	mov    rdi,r15
    3f85:	48 83 c7 e8          	add    rdi,0xffffffffffffffe8
    3f89:	4c 89 fe             	mov    rsi,r15
    3f8c:	48 b8 00 00 00 00 00 	movabs rax,0x0
    3f93:	00 00 00 
			3f8e: R_X86_64_64	memmove
    3f96:	48 89 1c 24          	mov    QWORD PTR [rsp],rbx
    3f9a:	ff d0                	call   rax
    3f9c:	48 8b 1c 24          	mov    rbx,QWORD PTR [rsp]
    3fa0:	48 be 00 00 00 00 00 	movabs rsi,0x0
    3fa7:	00 00 00 
			3fa2: R_X86_64_64	callback_return_addr
    3faa:	bf 01 00 00 00       	mov    edi,0x1
    3faf:	4b 89 7c f7 f8       	mov    QWORD PTR [r15+r14*8-0x8],rdi
    3fb4:	bf 01 00 00 00       	mov    edi,0x1
    3fb9:	4b 89 7c f7 f0       	mov    QWORD PTR [r15+r14*8-0x10],rdi
    3fbe:	4b 89 74 f7 e8       	mov    QWORD PTR [r15+r14*8-0x18],rsi
    3fc3:	48 8b b4 24 38 03 00 	mov    rsi,QWORD PTR [rsp+0x338]
    3fca:	00 
    3fcb:	4c 89 a6 98 00 00 00 	mov    QWORD PTR [rsi+0x98],r12
    3fd2:	48 89 df             	mov    rdi,rbx
    3fd5:	4c 89 ee             	mov    rsi,r13
    3fd8:	48 b8 00 00 00 00 00 	movabs rax,0x0
    3fdf:	00 00 00 
			3fda: R_X86_64_64	apply_n
    3fe2:	48 89 3c 24          	mov    QWORD PTR [rsp],rdi
    3fe6:	ff d0                	call   rax
    3fe8:	48 89 44 24 58       	mov    QWORD PTR [rsp+0x58],rax
    3fed:	48 8b b4 24 20 03 00 	mov    rsi,QWORD PTR [rsp+0x320]
    3ff4:	00 
    3ff5:	48 8b 7e 08          	mov    rdi,QWORD PTR [rsi+0x8]
    3ff9:	48 8b b4 24 30 03 00 	mov    rsi,QWORD PTR [rsp+0x330]
    4000:	00 
    4001:	48 b8 00 00 00 00 00 	movabs rax,0x0
    4008:	00 00 00 
			4003: R_X86_64_64	apply1
    400b:	48 89 34 24          	mov    QWORD PTR [rsp],rsi
    400f:	48 89 7c 24 08       	mov    QWORD PTR [rsp+0x8],rdi
    4014:	ff d0                	call   rax
    4016:	49 89 c6             	mov    r14,rax
    4019:	48 89 d3             	mov    rbx,rdx
    401c:	48 85 db             	test   rbx,rbx
    401f:	0f 85 0d 00 00 00    	jne    4032 <trigger_gc_please+0x4032>
    4025:	4c 89 b4 24 d8 01 00 	mov    QWORD PTR [rsp+0x1d8],r14
    402c:	00 
    402d:	e9 91 00 00 00       	jmp    40c3 <trigger_gc_please+0x40c3>
    4032:	48 8b b4 24 38 03 00 	mov    rsi,QWORD PTR [rsp+0x338]
    4039:	00 
    403a:	4c 8b be 98 00 00 00 	mov    r15,QWORD PTR [rsi+0x98]
    4041:	49 89 dd             	mov    r13,rbx
    4044:	49 83 c5 ff          	add    r13,0xffffffffffffffff
    4048:	48 89 da             	mov    rdx,rbx
    404b:	48 c1 e2 03          	shl    rdx,0x3
    404f:	4d 89 fc             	mov    r12,r15
    4052:	49 01 d4             	add    r12,rdx
    4055:	4c 89 ff             	mov    rdi,r15
    4058:	48 83 c7 e8          	add    rdi,0xffffffffffffffe8
    405c:	4c 89 fe             	mov    rsi,r15
    405f:	48 b8 00 00 00 00 00 	movabs rax,0x0
    4066:	00 00 00 
			4061: R_X86_64_64	memmove
    4069:	4c 89 34 24          	mov    QWORD PTR [rsp],r14
    406d:	ff d0                	call   rax
    406f:	4c 8b 34 24          	mov    r14,QWORD PTR [rsp]
    4073:	48 be 00 00 00 00 00 	movabs rsi,0x0
    407a:	00 00 00 
			4075: R_X86_64_64	callback_return_addr
    407d:	bf 01 00 00 00       	mov    edi,0x1
    4082:	49 89 7c df f8       	mov    QWORD PTR [r15+rbx*8-0x8],rdi
    4087:	bf 01 00 00 00       	mov    edi,0x1
    408c:	49 89 7c df f0       	mov    QWORD PTR [r15+rbx*8-0x10],rdi
    4091:	49 89 74 df e8       	mov    QWORD PTR [r15+rbx*8-0x18],rsi
    4096:	48 8b b4 24 38 03 00 	mov    rsi,QWORD PTR [rsp+0x338]
    409d:	00 
    409e:	4c 89 a6 98 00 00 00 	mov    QWORD PTR [rsi+0x98],r12
    40a5:	4c 89 f7             	mov    rdi,r14
    40a8:	4c 89 ee             	mov    rsi,r13
    40ab:	48 b8 00 00 00 00 00 	movabs rax,0x0
    40b2:	00 00 00 
			40ad: R_X86_64_64	apply_n
    40b5:	48 89 3c 24          	mov    QWORD PTR [rsp],rdi
    40b9:	ff d0                	call   rax
    40bb:	48 89 84 24 d8 01 00 	mov    QWORD PTR [rsp+0x1d8],rax
    40c2:	00 
    40c3:	48 8b b4 24 20 03 00 	mov    rsi,QWORD PTR [rsp+0x320]
    40ca:	00 
    40cb:	48 8b 7e 08          	mov    rdi,QWORD PTR [rsi+0x8]
    40cf:	48 8b b4 24 30 03 00 	mov    rsi,QWORD PTR [rsp+0x330]
    40d6:	00 
    40d7:	48 b8 00 00 00 00 00 	movabs rax,0x0
    40de:	00 00 00 
			40d9: R_X86_64_64	apply1
    40e1:	48 89 34 24          	mov    QWORD PTR [rsp],rsi
    40e5:	48 89 7c 24 08       	mov    QWORD PTR [rsp+0x8],rdi
    40ea:	ff d0                	call   rax
    40ec:	49 89 c6             	mov    r14,rax
    40ef:	48 89 d3             	mov    rbx,rdx
    40f2:	48 85 db             	test   rbx,rbx
    40f5:	0f 85 0a 00 00 00    	jne    4105 <trigger_gc_please+0x4105>
    40fb:	4c 89 74 24 50       	mov    QWORD PTR [rsp+0x50],r14
    4100:	e9 8e 00 00 00       	jmp    4193 <trigger_gc_please+0x4193>
    4105:	48 8b b4 24 38 03 00 	mov    rsi,QWORD PTR [rsp+0x338]
    410c:	00 
    410d:	4c 8b be 98 00 00 00 	mov    r15,QWORD PTR [rsi+0x98]
    4114:	49 89 dd             	mov    r13,rbx
    4117:	49 83 c5 ff          	add    r13,0xffffffffffffffff
    411b:	48 89 da             	mov    rdx,rbx
    411e:	48 c1 e2 03          	shl    rdx,0x3
    4122:	4d 89 fc             	mov    r12,r15
    4125:	49 01 d4             	add    r12,rdx
    4128:	4c 89 ff             	mov    rdi,r15
    412b:	48 83 c7 e8          	add    rdi,0xffffffffffffffe8
    412f:	4c 89 fe             	mov    rsi,r15
    4132:	48 b8 00 00 00 00 00 	movabs rax,0x0
    4139:	00 00 00 
			4134: R_X86_64_64	memmove
    413c:	4c 89 34 24          	mov    QWORD PTR [rsp],r14
    4140:	ff d0                	call   rax
    4142:	4c 8b 34 24          	mov    r14,QWORD PTR [rsp]
    4146:	48 be 00 00 00 00 00 	movabs rsi,0x0
    414d:	00 00 00 
			4148: R_X86_64_64	callback_return_addr
    4150:	bf 01 00 00 00       	mov    edi,0x1
    4155:	49 89 7c df f8       	mov    QWORD PTR [r15+rbx*8-0x8],rdi
    415a:	bf 01 00 00 00       	mov    edi,0x1
    415f:	49 89 7c df f0       	mov    QWORD PTR [r15+rbx*8-0x10],rdi
    4164:	49 89 74 df e8       	mov    QWORD PTR [r15+rbx*8-0x18],rsi
    4169:	48 8b b4 24 38 03 00 	mov    rsi,QWORD PTR [rsp+0x338]
    4170:	00 
    4171:	4c 89 a6 98 00 00 00 	mov    QWORD PTR [rsi+0x98],r12
    4178:	4c 89 f7             	mov    rdi,r14
    417b:	4c 89 ee             	mov    rsi,r13
    417e:	48 b8 00 00 00 00 00 	movabs rax,0x0
    4185:	00 00 00 
			4180: R_X86_64_64	apply_n
    4188:	48 89 3c 24          	mov    QWORD PTR [rsp],rdi
    418c:	ff d0                	call   rax
    418e:	48 89 44 24 50       	mov    QWORD PTR [rsp+0x50],rax
    4193:	48 8b b4 24 20 03 00 	mov    rsi,QWORD PTR [rsp+0x320]
    419a:	00 
    419b:	48 8b 7e 08          	mov    rdi,QWORD PTR [rsi+0x8]
    419f:	48 8b b4 24 30 03 00 	mov    rsi,QWORD PTR [rsp+0x330]
    41a6:	00 
    41a7:	48 b8 00 00 00 00 00 	movabs rax,0x0
    41ae:	00 00 00 
			41a9: R_X86_64_64	apply1
    41b1:	48 89 34 24          	mov    QWORD PTR [rsp],rsi
    41b5:	48 89 7c 24 08       	mov    QWORD PTR [rsp+0x8],rdi
    41ba:	ff d0                	call   rax
    41bc:	48 89 c3             	mov    rbx,rax
    41bf:	49 89 d6             	mov    r14,rdx
    41c2:	4d 85 f6             	test   r14,r14
    41c5:	0f 85 0d 00 00 00    	jne    41d8 <trigger_gc_please+0x41d8>
    41cb:	48 89 9c 24 d0 01 00 	mov    QWORD PTR [rsp+0x1d0],rbx
    41d2:	00 
    41d3:	e9 91 00 00 00       	jmp    4269 <trigger_gc_please+0x4269>
    41d8:	48 8b b4 24 38 03 00 	mov    rsi,QWORD PTR [rsp+0x338]
    41df:	00 
    41e0:	4c 8b be 98 00 00 00 	mov    r15,QWORD PTR [rsi+0x98]
    41e7:	4d 89 f5             	mov    r13,r14
    41ea:	49 83 c5 ff          	add    r13,0xffffffffffffffff
    41ee:	4c 89 f2             	mov    rdx,r14
    41f1:	48 c1 e2 03          	shl    rdx,0x3
    41f5:	4d 89 fc             	mov    r12,r15
    41f8:	49 01 d4             	add    r12,rdx
    41fb:	4c 89 ff             	mov    rdi,r15
    41fe:	48 83 c7 e8          	add    rdi,0xffffffffffffffe8
    4202:	4c 89 fe             	mov    rsi,r15
    4205:	48 b8 00 00 00 00 00 	movabs rax,0x0
    420c:	00 00 00 
			4207: R_X86_64_64	memmove
    420f:	48 89 1c 24          	mov    QWORD PTR [rsp],rbx
    4213:	ff d0                	call   rax
    4215:	48 8b 1c 24          	mov    rbx,QWORD PTR [rsp]
    4219:	48 be 00 00 00 00 00 	movabs rsi,0x0
    4220:	00 00 00 
			421b: R_X86_64_64	callback_return_addr
    4223:	bf 01 00 00 00       	mov    edi,0x1
    4228:	4b 89 7c f7 f8       	mov    QWORD PTR [r15+r14*8-0x8],rdi
    422d:	bf 01 00 00 00       	mov    edi,0x1
    4232:	4b 89 7c f7 f0       	mov    QWORD PTR [r15+r14*8-0x10],rdi
    4237:	4b 89 74 f7 e8       	mov    QWORD PTR [r15+r14*8-0x18],rsi
    423c:	48 8b b4 24 38 03 00 	mov    rsi,QWORD PTR [rsp+0x338]
    4243:	00 
    4244:	4c 89 a6 98 00 00 00 	mov    QWORD PTR [rsi+0x98],r12
    424b:	48 89 df             	mov    rdi,rbx
    424e:	4c 89 ee             	mov    rsi,r13
    4251:	48 b8 00 00 00 00 00 	movabs rax,0x0
    4258:	00 00 00 
			4253: R_X86_64_64	apply_n
    425b:	48 89 3c 24          	mov    QWORD PTR [rsp],rdi
    425f:	ff d0                	call   rax
    4261:	48 89 84 24 d0 01 00 	mov    QWORD PTR [rsp+0x1d0],rax
    4268:	00 
    4269:	48 8b b4 24 20 03 00 	mov    rsi,QWORD PTR [rsp+0x320]
    4270:	00 
    4271:	48 8b 7e 08          	mov    rdi,QWORD PTR [rsi+0x8]
    4275:	48 8b b4 24 30 03 00 	mov    rsi,QWORD PTR [rsp+0x330]
    427c:	00 
    427d:	48 b8 00 00 00 00 00 	movabs rax,0x0
    4284:	00 00 00 
			427f: R_X86_64_64	apply1
    4287:	48 89 34 24          	mov    QWORD PTR [rsp],rsi
    428b:	48 89 7c 24 08       	mov    QWORD PTR [rsp+0x8],rdi
    4290:	ff d0                	call   rax
    4292:	49 89 c6             	mov    r14,rax
    4295:	48 89 d3             	mov    rbx,rdx
    4298:	48 85 db             	test   rbx,rbx
    429b:	0f 85 0a 00 00 00    	jne    42ab <trigger_gc_please+0x42ab>
    42a1:	4c 89 74 24 48       	mov    QWORD PTR [rsp+0x48],r14
    42a6:	e9 8e 00 00 00       	jmp    4339 <trigger_gc_please+0x4339>
    42ab:	48 8b b4 24 38 03 00 	mov    rsi,QWORD PTR [rsp+0x338]
    42b2:	00 
    42b3:	4c 8b be 98 00 00 00 	mov    r15,QWORD PTR [rsi+0x98]
    42ba:	49 89 dd             	mov    r13,rbx
    42bd:	49 83 c5 ff          	add    r13,0xffffffffffffffff
    42c1:	48 89 da             	mov    rdx,rbx
    42c4:	48 c1 e2 03          	shl    rdx,0x3
    42c8:	4d 89 fc             	mov    r12,r15
    42cb:	49 01 d4             	add    r12,rdx
    42ce:	4c 89 ff             	mov    rdi,r15
    42d1:	48 83 c7 e8          	add    rdi,0xffffffffffffffe8
    42d5:	4c 89 fe             	mov    rsi,r15
    42d8:	48 b8 00 00 00 00 00 	movabs rax,0x0
    42df:	00 00 00 
			42da: R_X86_64_64	memmove
    42e2:	4c 89 34 24          	mov    QWORD PTR [rsp],r14
    42e6:	ff d0                	call   rax
    42e8:	4c 8b 34 24          	mov    r14,QWORD PTR [rsp]
    42ec:	48 be 00 00 00 00 00 	movabs rsi,0x0
    42f3:	00 00 00 
			42ee: R_X86_64_64	callback_return_addr
    42f6:	bf 01 00 00 00       	mov    edi,0x1
    42fb:	49 89 7c df f8       	mov    QWORD PTR [r15+rbx*8-0x8],rdi
    4300:	bf 01 00 00 00       	mov    edi,0x1
    4305:	49 89 7c df f0       	mov    QWORD PTR [r15+rbx*8-0x10],rdi
    430a:	49 89 74 df e8       	mov    QWORD PTR [r15+rbx*8-0x18],rsi
    430f:	48 8b b4 24 38 03 00 	mov    rsi,QWORD PTR [rsp+0x338]
    4316:	00 
    4317:	4c 89 a6 98 00 00 00 	mov    QWORD PTR [rsi+0x98],r12
    431e:	4c 89 f7             	mov    rdi,r14
    4321:	4c 89 ee             	mov    rsi,r13
    4324:	48 b8 00 00 00 00 00 	movabs rax,0x0
    432b:	00 00 00 
			4326: R_X86_64_64	apply_n
    432e:	48 89 3c 24          	mov    QWORD PTR [rsp],rdi
    4332:	ff d0                	call   rax
    4334:	48 89 44 24 48       	mov    QWORD PTR [rsp+0x48],rax
    4339:	48 8b b4 24 20 03 00 	mov    rsi,QWORD PTR [rsp+0x320]
    4340:	00 
    4341:	48 8b 7e 08          	mov    rdi,QWORD PTR [rsi+0x8]
    4345:	48 8b b4 24 30 03 00 	mov    rsi,QWORD PTR [rsp+0x330]
    434c:	00 
    434d:	48 b8 00 00 00 00 00 	movabs rax,0x0
    4354:	00 00 00 
			434f: R_X86_64_64	apply1
    4357:	48 89 34 24          	mov    QWORD PTR [rsp],rsi
    435b:	48 89 7c 24 08       	mov    QWORD PTR [rsp+0x8],rdi
    4360:	ff d0                	call   rax
    4362:	49 89 c6             	mov    r14,rax
    4365:	48 89 d3             	mov    rbx,rdx
    4368:	48 85 db             	test   rbx,rbx
    436b:	0f 85 0d 00 00 00    	jne    437e <trigger_gc_please+0x437e>
    4371:	4c 89 b4 24 c8 01 00 	mov    QWORD PTR [rsp+0x1c8],r14
    4378:	00 
    4379:	e9 91 00 00 00       	jmp    440f <trigger_gc_please+0x440f>
    437e:	48 8b b4 24 38 03 00 	mov    rsi,QWORD PTR [rsp+0x338]
    4385:	00 
    4386:	4c 8b be 98 00 00 00 	mov    r15,QWORD PTR [rsi+0x98]
    438d:	49 89 dd             	mov    r13,rbx
    4390:	49 83 c5 ff          	add    r13,0xffffffffffffffff
    4394:	48 89 da             	mov    rdx,rbx
    4397:	48 c1 e2 03          	shl    rdx,0x3
    439b:	4d 89 fc             	mov    r12,r15
    439e:	49 01 d4             	add    r12,rdx
    43a1:	4c 89 ff             	mov    rdi,r15
    43a4:	48 83 c7 e8          	add    rdi,0xffffffffffffffe8
    43a8:	4c 89 fe             	mov    rsi,r15
    43ab:	48 b8 00 00 00 00 00 	movabs rax,0x0
    43b2:	00 00 00 
			43ad: R_X86_64_64	memmove
    43b5:	4c 89 34 24          	mov    QWORD PTR [rsp],r14
    43b9:	ff d0                	call   rax
    43bb:	4c 8b 34 24          	mov    r14,QWORD PTR [rsp]
    43bf:	48 be 00 00 00 00 00 	movabs rsi,0x0
    43c6:	00 00 00 
			43c1: R_X86_64_64	callback_return_addr
    43c9:	bf 01 00 00 00       	mov    edi,0x1
    43ce:	49 89 7c df f8       	mov    QWORD PTR [r15+rbx*8-0x8],rdi
    43d3:	bf 01 00 00 00       	mov    edi,0x1
    43d8:	49 89 7c df f0       	mov    QWORD PTR [r15+rbx*8-0x10],rdi
    43dd:	49 89 74 df e8       	mov    QWORD PTR [r15+rbx*8-0x18],rsi
    43e2:	48 8b b4 24 38 03 00 	mov    rsi,QWORD PTR [rsp+0x338]
    43e9:	00 
    43ea:	4c 89 a6 98 00 00 00 	mov    QWORD PTR [rsi+0x98],r12
    43f1:	4c 89 f7             	mov    rdi,r14
    43f4:	4c 89 ee             	mov    rsi,r13
    43f7:	48 b8 00 00 00 00 00 	movabs rax,0x0
    43fe:	00 00 00 
			43f9: R_X86_64_64	apply_n
    4401:	48 89 3c 24          	mov    QWORD PTR [rsp],rdi
    4405:	ff d0                	call   rax
    4407:	48 89 84 24 c8 01 00 	mov    QWORD PTR [rsp+0x1c8],rax
    440e:	00 
    440f:	48 8b b4 24 20 03 00 	mov    rsi,QWORD PTR [rsp+0x320]
    4416:	00 
    4417:	48 8b 7e 08          	mov    rdi,QWORD PTR [rsi+0x8]
    441b:	48 8b b4 24 30 03 00 	mov    rsi,QWORD PTR [rsp+0x330]
    4422:	00 
    4423:	48 b8 00 00 00 00 00 	movabs rax,0x0
    442a:	00 00 00 
			4425: R_X86_64_64	apply1
    442d:	48 89 34 24          	mov    QWORD PTR [rsp],rsi
    4431:	48 89 7c 24 08       	mov    QWORD PTR [rsp+0x8],rdi
    4436:	ff d0                	call   rax
    4438:	48 89 c3             	mov    rbx,rax
    443b:	49 89 d6             	mov    r14,rdx
    443e:	4d 85 f6             	test   r14,r14
    4441:	0f 85 0a 00 00 00    	jne    4451 <trigger_gc_please+0x4451>
    4447:	48 89 5c 24 40       	mov    QWORD PTR [rsp+0x40],rbx
    444c:	e9 8e 00 00 00       	jmp    44df <trigger_gc_please+0x44df>
    4451:	48 8b b4 24 38 03 00 	mov    rsi,QWORD PTR [rsp+0x338]
    4458:	00 
    4459:	4c 8b be 98 00 00 00 	mov    r15,QWORD PTR [rsi+0x98]
    4460:	4d 89 f5             	mov    r13,r14
    4463:	49 83 c5 ff          	add    r13,0xffffffffffffffff
    4467:	4c 89 f2             	mov    rdx,r14
    446a:	48 c1 e2 03          	shl    rdx,0x3
    446e:	4d 89 fc             	mov    r12,r15
    4471:	49 01 d4             	add    r12,rdx
    4474:	4c 89 ff             	mov    rdi,r15
    4477:	48 83 c7 e8          	add    rdi,0xffffffffffffffe8
    447b:	4c 89 fe             	mov    rsi,r15
    447e:	48 b8 00 00 00 00 00 	movabs rax,0x0
    4485:	00 00 00 
			4480: R_X86_64_64	memmove
    4488:	48 89 1c 24          	mov    QWORD PTR [rsp],rbx
    448c:	ff d0                	call   rax
    448e:	48 8b 1c 24          	mov    rbx,QWORD PTR [rsp]
    4492:	48 be 00 00 00 00 00 	movabs rsi,0x0
    4499:	00 00 00 
			4494: R_X86_64_64	callback_return_addr
    449c:	bf 01 00 00 00       	mov    edi,0x1
    44a1:	4b 89 7c f7 f8       	mov    QWORD PTR [r15+r14*8-0x8],rdi
    44a6:	bf 01 00 00 00       	mov    edi,0x1
    44ab:	4b 89 7c f7 f0       	mov    QWORD PTR [r15+r14*8-0x10],rdi
    44b0:	4b 89 74 f7 e8       	mov    QWORD PTR [r15+r14*8-0x18],rsi
    44b5:	48 8b b4 24 38 03 00 	mov    rsi,QWORD PTR [rsp+0x338]
    44bc:	00 
    44bd:	4c 89 a6 98 00 00 00 	mov    QWORD PTR [rsi+0x98],r12
    44c4:	48 89 df             	mov    rdi,rbx
    44c7:	4c 89 ee             	mov    rsi,r13
    44ca:	48 b8 00 00 00 00 00 	movabs rax,0x0
    44d1:	00 00 00 
			44cc: R_X86_64_64	apply_n
    44d4:	48 89 3c 24          	mov    QWORD PTR [rsp],rdi
    44d8:	ff d0                	call   rax
    44da:	48 89 44 24 40       	mov    QWORD PTR [rsp+0x40],rax
    44df:	48 8b b4 24 20 03 00 	mov    rsi,QWORD PTR [rsp+0x320]
    44e6:	00 
    44e7:	48 8b 7e 08          	mov    rdi,QWORD PTR [rsi+0x8]
    44eb:	48 8b b4 24 30 03 00 	mov    rsi,QWORD PTR [rsp+0x330]
    44f2:	00 
    44f3:	48 b8 00 00 00 00 00 	movabs rax,0x0
    44fa:	00 00 00 
			44f5: R_X86_64_64	apply1
    44fd:	48 89 34 24          	mov    QWORD PTR [rsp],rsi
    4501:	48 89 7c 24 08       	mov    QWORD PTR [rsp+0x8],rdi
    4506:	ff d0                	call   rax
    4508:	49 89 c6             	mov    r14,rax
    450b:	48 89 d3             	mov    rbx,rdx
    450e:	48 85 db             	test   rbx,rbx
    4511:	0f 85 0d 00 00 00    	jne    4524 <trigger_gc_please+0x4524>
    4517:	4c 89 b4 24 c0 01 00 	mov    QWORD PTR [rsp+0x1c0],r14
    451e:	00 
    451f:	e9 91 00 00 00       	jmp    45b5 <trigger_gc_please+0x45b5>
    4524:	48 8b b4 24 38 03 00 	mov    rsi,QWORD PTR [rsp+0x338]
    452b:	00 
    452c:	4c 8b be 98 00 00 00 	mov    r15,QWORD PTR [rsi+0x98]
    4533:	49 89 dd             	mov    r13,rbx
    4536:	49 83 c5 ff          	add    r13,0xffffffffffffffff
    453a:	48 89 da             	mov    rdx,rbx
    453d:	48 c1 e2 03          	shl    rdx,0x3
    4541:	4d 89 fc             	mov    r12,r15
    4544:	49 01 d4             	add    r12,rdx
    4547:	4c 89 ff             	mov    rdi,r15
    454a:	48 83 c7 e8          	add    rdi,0xffffffffffffffe8
    454e:	4c 89 fe             	mov    rsi,r15
    4551:	48 b8 00 00 00 00 00 	movabs rax,0x0
    4558:	00 00 00 
			4553: R_X86_64_64	memmove
    455b:	4c 89 34 24          	mov    QWORD PTR [rsp],r14
    455f:	ff d0                	call   rax
    4561:	4c 8b 34 24          	mov    r14,QWORD PTR [rsp]
    4565:	48 be 00 00 00 00 00 	movabs rsi,0x0
    456c:	00 00 00 
			4567: R_X86_64_64	callback_return_addr
    456f:	bf 01 00 00 00       	mov    edi,0x1
    4574:	49 89 7c df f8       	mov    QWORD PTR [r15+rbx*8-0x8],rdi
    4579:	bf 01 00 00 00       	mov    edi,0x1
    457e:	49 89 7c df f0       	mov    QWORD PTR [r15+rbx*8-0x10],rdi
    4583:	49 89 74 df e8       	mov    QWORD PTR [r15+rbx*8-0x18],rsi
    4588:	48 8b b4 24 38 03 00 	mov    rsi,QWORD PTR [rsp+0x338]
    458f:	00 
    4590:	4c 89 a6 98 00 00 00 	mov    QWORD PTR [rsi+0x98],r12
    4597:	4c 89 f7             	mov    rdi,r14
    459a:	4c 89 ee             	mov    rsi,r13
    459d:	48 b8 00 00 00 00 00 	movabs rax,0x0
    45a4:	00 00 00 
			459f: R_X86_64_64	apply_n
    45a7:	48 89 3c 24          	mov    QWORD PTR [rsp],rdi
    45ab:	ff d0                	call   rax
    45ad:	48 89 84 24 c0 01 00 	mov    QWORD PTR [rsp+0x1c0],rax
    45b4:	00 
    45b5:	48 8b b4 24 20 03 00 	mov    rsi,QWORD PTR [rsp+0x320]
    45bc:	00 
    45bd:	48 8b 7e 08          	mov    rdi,QWORD PTR [rsi+0x8]
    45c1:	48 8b b4 24 30 03 00 	mov    rsi,QWORD PTR [rsp+0x330]
    45c8:	00 
    45c9:	48 b8 00 00 00 00 00 	movabs rax,0x0
    45d0:	00 00 00 
			45cb: R_X86_64_64	apply1
    45d3:	48 89 34 24          	mov    QWORD PTR [rsp],rsi
    45d7:	48 89 7c 24 08       	mov    QWORD PTR [rsp+0x8],rdi
    45dc:	ff d0                	call   rax
    45de:	49 89 c6             	mov    r14,rax
    45e1:	48 89 d3             	mov    rbx,rdx
    45e4:	48 85 db             	test   rbx,rbx
    45e7:	0f 85 0a 00 00 00    	jne    45f7 <trigger_gc_please+0x45f7>
    45ed:	4c 89 74 24 38       	mov    QWORD PTR [rsp+0x38],r14
    45f2:	e9 8e 00 00 00       	jmp    4685 <trigger_gc_please+0x4685>
    45f7:	48 8b b4 24 38 03 00 	mov    rsi,QWORD PTR [rsp+0x338]
    45fe:	00 
    45ff:	4c 8b be 98 00 00 00 	mov    r15,QWORD PTR [rsi+0x98]
    4606:	49 89 dd             	mov    r13,rbx
    4609:	49 83 c5 ff          	add    r13,0xffffffffffffffff
    460d:	48 89 da             	mov    rdx,rbx
    4610:	48 c1 e2 03          	shl    rdx,0x3
    4614:	4d 89 fc             	mov    r12,r15
    4617:	49 01 d4             	add    r12,rdx
    461a:	4c 89 ff             	mov    rdi,r15
    461d:	48 83 c7 e8          	add    rdi,0xffffffffffffffe8
    4621:	4c 89 fe             	mov    rsi,r15
    4624:	48 b8 00 00 00 00 00 	movabs rax,0x0
    462b:	00 00 00 
			4626: R_X86_64_64	memmove
    462e:	4c 89 34 24          	mov    QWORD PTR [rsp],r14
    4632:	ff d0                	call   rax
    4634:	4c 8b 34 24          	mov    r14,QWORD PTR [rsp]
    4638:	48 be 00 00 00 00 00 	movabs rsi,0x0
    463f:	00 00 00 
			463a: R_X86_64_64	callback_return_addr
    4642:	bf 01 00 00 00       	mov    edi,0x1
    4647:	49 89 7c df f8       	mov    QWORD PTR [r15+rbx*8-0x8],rdi
    464c:	bf 01 00 00 00       	mov    edi,0x1
    4651:	49 89 7c df f0       	mov    QWORD PTR [r15+rbx*8-0x10],rdi
    4656:	49 89 74 df e8       	mov    QWORD PTR [r15+rbx*8-0x18],rsi
    465b:	48 8b b4 24 38 03 00 	mov    rsi,QWORD PTR [rsp+0x338]
    4662:	00 
    4663:	4c 89 a6 98 00 00 00 	mov    QWORD PTR [rsi+0x98],r12
    466a:	4c 89 f7             	mov    rdi,r14
    466d:	4c 89 ee             	mov    rsi,r13
    4670:	48 b8 00 00 00 00 00 	movabs rax,0x0
    4677:	00 00 00 
			4672: R_X86_64_64	apply_n
    467a:	48 89 3c 24          	mov    QWORD PTR [rsp],rdi
    467e:	ff d0                	call   rax
    4680:	48 89 44 24 38       	mov    QWORD PTR [rsp+0x38],rax
    4685:	48 8b b4 24 20 03 00 	mov    rsi,QWORD PTR [rsp+0x320]
    468c:	00 
    468d:	48 8b 7e 08          	mov    rdi,QWORD PTR [rsi+0x8]
    4691:	48 8b b4 24 30 03 00 	mov    rsi,QWORD PTR [rsp+0x330]
    4698:	00 
    4699:	48 b8 00 00 00 00 00 	movabs rax,0x0
    46a0:	00 00 00 
			469b: R_X86_64_64	apply1
    46a3:	48 89 34 24          	mov    QWORD PTR [rsp],rsi
    46a7:	48 89 7c 24 08       	mov    QWORD PTR [rsp+0x8],rdi
    46ac:	ff d0                	call   rax
    46ae:	48 89 c3             	mov    rbx,rax
    46b1:	49 89 d6             	mov    r14,rdx
    46b4:	4d 85 f6             	test   r14,r14
    46b7:	0f 85 0d 00 00 00    	jne    46ca <trigger_gc_please+0x46ca>
    46bd:	48 89 9c 24 b8 01 00 	mov    QWORD PTR [rsp+0x1b8],rbx
    46c4:	00 
    46c5:	e9 91 00 00 00       	jmp    475b <trigger_gc_please+0x475b>
    46ca:	48 8b b4 24 38 03 00 	mov    rsi,QWORD PTR [rsp+0x338]
    46d1:	00 
    46d2:	4c 8b be 98 00 00 00 	mov    r15,QWORD PTR [rsi+0x98]
    46d9:	4d 89 f5             	mov    r13,r14
    46dc:	49 83 c5 ff          	add    r13,0xffffffffffffffff
    46e0:	4c 89 f2             	mov    rdx,r14
    46e3:	48 c1 e2 03          	shl    rdx,0x3
    46e7:	4d 89 fc             	mov    r12,r15
    46ea:	49 01 d4             	add    r12,rdx
    46ed:	4c 89 ff             	mov    rdi,r15
    46f0:	48 83 c7 e8          	add    rdi,0xffffffffffffffe8
    46f4:	4c 89 fe             	mov    rsi,r15
    46f7:	48 b8 00 00 00 00 00 	movabs rax,0x0
    46fe:	00 00 00 
			46f9: R_X86_64_64	memmove
    4701:	48 89 1c 24          	mov    QWORD PTR [rsp],rbx
    4705:	ff d0                	call   rax
    4707:	48 8b 1c 24          	mov    rbx,QWORD PTR [rsp]
    470b:	48 be 00 00 00 00 00 	movabs rsi,0x0
    4712:	00 00 00 
			470d: R_X86_64_64	callback_return_addr
    4715:	bf 01 00 00 00       	mov    edi,0x1
    471a:	4b 89 7c f7 f8       	mov    QWORD PTR [r15+r14*8-0x8],rdi
    471f:	bf 01 00 00 00       	mov    edi,0x1
    4724:	4b 89 7c f7 f0       	mov    QWORD PTR [r15+r14*8-0x10],rdi
    4729:	4b 89 74 f7 e8       	mov    QWORD PTR [r15+r14*8-0x18],rsi
    472e:	48 8b b4 24 38 03 00 	mov    rsi,QWORD PTR [rsp+0x338]
    4735:	00 
    4736:	4c 89 a6 98 00 00 00 	mov    QWORD PTR [rsi+0x98],r12
    473d:	48 89 df             	mov    rdi,rbx
    4740:	4c 89 ee             	mov    rsi,r13
    4743:	48 b8 00 00 00 00 00 	movabs rax,0x0
    474a:	00 00 00 
			4745: R_X86_64_64	apply_n
    474d:	48 89 3c 24          	mov    QWORD PTR [rsp],rdi
    4751:	ff d0                	call   rax
    4753:	48 89 84 24 b8 01 00 	mov    QWORD PTR [rsp+0x1b8],rax
    475a:	00 
    475b:	48 8b b4 24 20 03 00 	mov    rsi,QWORD PTR [rsp+0x320]
    4762:	00 
    4763:	48 8b 7e 08          	mov    rdi,QWORD PTR [rsi+0x8]
    4767:	48 8b b4 24 30 03 00 	mov    rsi,QWORD PTR [rsp+0x330]
    476e:	00 
    476f:	48 b8 00 00 00 00 00 	movabs rax,0x0
    4776:	00 00 00 
			4771: R_X86_64_64	apply1
    4779:	48 89 34 24          	mov    QWORD PTR [rsp],rsi
    477d:	48 89 7c 24 08       	mov    QWORD PTR [rsp+0x8],rdi
    4782:	ff d0                	call   rax
    4784:	49 89 c6             	mov    r14,rax
    4787:	48 89 d3             	mov    rbx,rdx
    478a:	48 85 db             	test   rbx,rbx
    478d:	0f 85 0a 00 00 00    	jne    479d <trigger_gc_please+0x479d>
    4793:	4c 89 74 24 30       	mov    QWORD PTR [rsp+0x30],r14
    4798:	e9 8e 00 00 00       	jmp    482b <trigger_gc_please+0x482b>
    479d:	48 8b b4 24 38 03 00 	mov    rsi,QWORD PTR [rsp+0x338]
    47a4:	00 
    47a5:	4c 8b be 98 00 00 00 	mov    r15,QWORD PTR [rsi+0x98]
    47ac:	49 89 dd             	mov    r13,rbx
    47af:	49 83 c5 ff          	add    r13,0xffffffffffffffff
    47b3:	48 89 da             	mov    rdx,rbx
    47b6:	48 c1 e2 03          	shl    rdx,0x3
    47ba:	4d 89 fc             	mov    r12,r15
    47bd:	49 01 d4             	add    r12,rdx
    47c0:	4c 89 ff             	mov    rdi,r15
    47c3:	48 83 c7 e8          	add    rdi,0xffffffffffffffe8
    47c7:	4c 89 fe             	mov    rsi,r15
    47ca:	48 b8 00 00 00 00 00 	movabs rax,0x0
    47d1:	00 00 00 
			47cc: R_X86_64_64	memmove
    47d4:	4c 89 34 24          	mov    QWORD PTR [rsp],r14
    47d8:	ff d0                	call   rax
    47da:	4c 8b 34 24          	mov    r14,QWORD PTR [rsp]
    47de:	48 be 00 00 00 00 00 	movabs rsi,0x0
    47e5:	00 00 00 
			47e0: R_X86_64_64	callback_return_addr
    47e8:	bf 01 00 00 00       	mov    edi,0x1
    47ed:	49 89 7c df f8       	mov    QWORD PTR [r15+rbx*8-0x8],rdi
    47f2:	bf 01 00 00 00       	mov    edi,0x1
    47f7:	49 89 7c df f0       	mov    QWORD PTR [r15+rbx*8-0x10],rdi
    47fc:	49 89 74 df e8       	mov    QWORD PTR [r15+rbx*8-0x18],rsi
    4801:	48 8b b4 24 38 03 00 	mov    rsi,QWORD PTR [rsp+0x338]
    4808:	00 
    4809:	4c 89 a6 98 00 00 00 	mov    QWORD PTR [rsi+0x98],r12
    4810:	4c 89 f7             	mov    rdi,r14
    4813:	4c 89 ee             	mov    rsi,r13
    4816:	48 b8 00 00 00 00 00 	movabs rax,0x0
    481d:	00 00 00 
			4818: R_X86_64_64	apply_n
    4820:	48 89 3c 24          	mov    QWORD PTR [rsp],rdi
    4824:	ff d0                	call   rax
    4826:	48 89 44 24 30       	mov    QWORD PTR [rsp+0x30],rax
    482b:	48 8b b4 24 20 03 00 	mov    rsi,QWORD PTR [rsp+0x320]
    4832:	00 
    4833:	48 8b 7e 08          	mov    rdi,QWORD PTR [rsi+0x8]
    4837:	48 8b b4 24 30 03 00 	mov    rsi,QWORD PTR [rsp+0x330]
    483e:	00 
    483f:	48 b8 00 00 00 00 00 	movabs rax,0x0
    4846:	00 00 00 
			4841: R_X86_64_64	apply1
    4849:	48 89 34 24          	mov    QWORD PTR [rsp],rsi
    484d:	48 89 7c 24 08       	mov    QWORD PTR [rsp+0x8],rdi
    4852:	ff d0                	call   rax
    4854:	49 89 c6             	mov    r14,rax
    4857:	48 89 d3             	mov    rbx,rdx
    485a:	48 85 db             	test   rbx,rbx
    485d:	0f 85 0d 00 00 00    	jne    4870 <trigger_gc_please+0x4870>
    4863:	4c 89 b4 24 b0 01 00 	mov    QWORD PTR [rsp+0x1b0],r14
    486a:	00 
    486b:	e9 91 00 00 00       	jmp    4901 <trigger_gc_please+0x4901>
    4870:	48 8b b4 24 38 03 00 	mov    rsi,QWORD PTR [rsp+0x338]
    4877:	00 
    4878:	4c 8b be 98 00 00 00 	mov    r15,QWORD PTR [rsi+0x98]
    487f:	49 89 dd             	mov    r13,rbx
    4882:	49 83 c5 ff          	add    r13,0xffffffffffffffff
    4886:	48 89 da             	mov    rdx,rbx
    4889:	48 c1 e2 03          	shl    rdx,0x3
    488d:	4d 89 fc             	mov    r12,r15
    4890:	49 01 d4             	add    r12,rdx
    4893:	4c 89 ff             	mov    rdi,r15
    4896:	48 83 c7 e8          	add    rdi,0xffffffffffffffe8
    489a:	4c 89 fe             	mov    rsi,r15
    489d:	48 b8 00 00 00 00 00 	movabs rax,0x0
    48a4:	00 00 00 
			489f: R_X86_64_64	memmove
    48a7:	4c 89 34 24          	mov    QWORD PTR [rsp],r14
    48ab:	ff d0                	call   rax
    48ad:	4c 8b 34 24          	mov    r14,QWORD PTR [rsp]
    48b1:	48 be 00 00 00 00 00 	movabs rsi,0x0
    48b8:	00 00 00 
			48b3: R_X86_64_64	callback_return_addr
    48bb:	bf 01 00 00 00       	mov    edi,0x1
    48c0:	49 89 7c df f8       	mov    QWORD PTR [r15+rbx*8-0x8],rdi
    48c5:	bf 01 00 00 00       	mov    edi,0x1
    48ca:	49 89 7c df f0       	mov    QWORD PTR [r15+rbx*8-0x10],rdi
    48cf:	49 89 74 df e8       	mov    QWORD PTR [r15+rbx*8-0x18],rsi
    48d4:	48 8b b4 24 38 03 00 	mov    rsi,QWORD PTR [rsp+0x338]
    48db:	00 
    48dc:	4c 89 a6 98 00 00 00 	mov    QWORD PTR [rsi+0x98],r12
    48e3:	4c 89 f7             	mov    rdi,r14
    48e6:	4c 89 ee             	mov    rsi,r13
    48e9:	48 b8 00 00 00 00 00 	movabs rax,0x0
    48f0:	00 00 00 
			48eb: R_X86_64_64	apply_n
    48f3:	48 89 3c 24          	mov    QWORD PTR [rsp],rdi
    48f7:	ff d0                	call   rax
    48f9:	48 89 84 24 b0 01 00 	mov    QWORD PTR [rsp+0x1b0],rax
    4900:	00 
    4901:	48 8b b4 24 20 03 00 	mov    rsi,QWORD PTR [rsp+0x320]
    4908:	00 
    4909:	48 8b 7e 08          	mov    rdi,QWORD PTR [rsi+0x8]
    490d:	48 8b b4 24 30 03 00 	mov    rsi,QWORD PTR [rsp+0x330]
    4914:	00 
    4915:	48 b8 00 00 00 00 00 	movabs rax,0x0
    491c:	00 00 00 
			4917: R_X86_64_64	apply1
    491f:	48 89 34 24          	mov    QWORD PTR [rsp],rsi
    4923:	48 89 7c 24 08       	mov    QWORD PTR [rsp+0x8],rdi
    4928:	ff d0                	call   rax
    492a:	48 89 c3             	mov    rbx,rax
    492d:	49 89 d6             	mov    r14,rdx
    4930:	4d 85 f6             	test   r14,r14
    4933:	0f 85 0a 00 00 00    	jne    4943 <trigger_gc_please+0x4943>
    4939:	48 89 5c 24 28       	mov    QWORD PTR [rsp+0x28],rbx
    493e:	e9 8e 00 00 00       	jmp    49d1 <trigger_gc_please+0x49d1>
    4943:	48 8b b4 24 38 03 00 	mov    rsi,QWORD PTR [rsp+0x338]
    494a:	00 
    494b:	4c 8b be 98 00 00 00 	mov    r15,QWORD PTR [rsi+0x98]
    4952:	4d 89 f5             	mov    r13,r14
    4955:	49 83 c5 ff          	add    r13,0xffffffffffffffff
    4959:	4c 89 f2             	mov    rdx,r14
    495c:	48 c1 e2 03          	shl    rdx,0x3
    4960:	4d 89 fc             	mov    r12,r15
    4963:	49 01 d4             	add    r12,rdx
    4966:	4c 89 ff             	mov    rdi,r15
    4969:	48 83 c7 e8          	add    rdi,0xffffffffffffffe8
    496d:	4c 89 fe             	mov    rsi,r15
    4970:	48 b8 00 00 00 00 00 	movabs rax,0x0
    4977:	00 00 00 
			4972: R_X86_64_64	memmove
    497a:	48 89 1c 24          	mov    QWORD PTR [rsp],rbx
    497e:	ff d0                	call   rax
    4980:	48 8b 1c 24          	mov    rbx,QWORD PTR [rsp]
    4984:	48 be 00 00 00 00 00 	movabs rsi,0x0
    498b:	00 00 00 
			4986: R_X86_64_64	callback_return_addr
    498e:	bf 01 00 00 00       	mov    edi,0x1
    4993:	4b 89 7c f7 f8       	mov    QWORD PTR [r15+r14*8-0x8],rdi
    4998:	bf 01 00 00 00       	mov    edi,0x1
    499d:	4b 89 7c f7 f0       	mov    QWORD PTR [r15+r14*8-0x10],rdi
    49a2:	4b 89 74 f7 e8       	mov    QWORD PTR [r15+r14*8-0x18],rsi
    49a7:	48 8b b4 24 38 03 00 	mov    rsi,QWORD PTR [rsp+0x338]
    49ae:	00 
    49af:	4c 89 a6 98 00 00 00 	mov    QWORD PTR [rsi+0x98],r12
    49b6:	48 89 df             	mov    rdi,rbx
    49b9:	4c 89 ee             	mov    rsi,r13
    49bc:	48 b8 00 00 00 00 00 	movabs rax,0x0
    49c3:	00 00 00 
			49be: R_X86_64_64	apply_n
    49c6:	48 89 3c 24          	mov    QWORD PTR [rsp],rdi
    49ca:	ff d0                	call   rax
    49cc:	48 89 44 24 28       	mov    QWORD PTR [rsp+0x28],rax
    49d1:	48 8b b4 24 20 03 00 	mov    rsi,QWORD PTR [rsp+0x320]
    49d8:	00 
    49d9:	48 8b 7e 08          	mov    rdi,QWORD PTR [rsi+0x8]
    49dd:	48 8b b4 24 30 03 00 	mov    rsi,QWORD PTR [rsp+0x330]
    49e4:	00 
    49e5:	48 b8 00 00 00 00 00 	movabs rax,0x0
    49ec:	00 00 00 
			49e7: R_X86_64_64	apply1
    49ef:	48 89 34 24          	mov    QWORD PTR [rsp],rsi
    49f3:	48 89 7c 24 08       	mov    QWORD PTR [rsp+0x8],rdi
    49f8:	ff d0                	call   rax
    49fa:	49 89 c6             	mov    r14,rax
    49fd:	48 89 d3             	mov    rbx,rdx
    4a00:	48 85 db             	test   rbx,rbx
    4a03:	0f 85 0d 00 00 00    	jne    4a16 <trigger_gc_please+0x4a16>
    4a09:	4c 89 b4 24 a8 01 00 	mov    QWORD PTR [rsp+0x1a8],r14
    4a10:	00 
    4a11:	e9 91 00 00 00       	jmp    4aa7 <trigger_gc_please+0x4aa7>
    4a16:	48 8b b4 24 38 03 00 	mov    rsi,QWORD PTR [rsp+0x338]
    4a1d:	00 
    4a1e:	4c 8b be 98 00 00 00 	mov    r15,QWORD PTR [rsi+0x98]
    4a25:	49 89 dd             	mov    r13,rbx
    4a28:	49 83 c5 ff          	add    r13,0xffffffffffffffff
    4a2c:	48 89 da             	mov    rdx,rbx
    4a2f:	48 c1 e2 03          	shl    rdx,0x3
    4a33:	4d 89 fc             	mov    r12,r15
    4a36:	49 01 d4             	add    r12,rdx
    4a39:	4c 89 ff             	mov    rdi,r15
    4a3c:	48 83 c7 e8          	add    rdi,0xffffffffffffffe8
    4a40:	4c 89 fe             	mov    rsi,r15
    4a43:	48 b8 00 00 00 00 00 	movabs rax,0x0
    4a4a:	00 00 00 
			4a45: R_X86_64_64	memmove
    4a4d:	4c 89 34 24          	mov    QWORD PTR [rsp],r14
    4a51:	ff d0                	call   rax
    4a53:	4c 8b 34 24          	mov    r14,QWORD PTR [rsp]
    4a57:	48 be 00 00 00 00 00 	movabs rsi,0x0
    4a5e:	00 00 00 
			4a59: R_X86_64_64	callback_return_addr
    4a61:	bf 01 00 00 00       	mov    edi,0x1
    4a66:	49 89 7c df f8       	mov    QWORD PTR [r15+rbx*8-0x8],rdi
    4a6b:	bf 01 00 00 00       	mov    edi,0x1
    4a70:	49 89 7c df f0       	mov    QWORD PTR [r15+rbx*8-0x10],rdi
    4a75:	49 89 74 df e8       	mov    QWORD PTR [r15+rbx*8-0x18],rsi
    4a7a:	48 8b b4 24 38 03 00 	mov    rsi,QWORD PTR [rsp+0x338]
    4a81:	00 
    4a82:	4c 89 a6 98 00 00 00 	mov    QWORD PTR [rsi+0x98],r12
    4a89:	4c 89 f7             	mov    rdi,r14
    4a8c:	4c 89 ee             	mov    rsi,r13
    4a8f:	48 b8 00 00 00 00 00 	movabs rax,0x0
    4a96:	00 00 00 
			4a91: R_X86_64_64	apply_n
    4a99:	48 89 3c 24          	mov    QWORD PTR [rsp],rdi
    4a9d:	ff d0                	call   rax
    4a9f:	48 89 84 24 a8 01 00 	mov    QWORD PTR [rsp+0x1a8],rax
    4aa6:	00 
    4aa7:	48 8b b4 24 20 03 00 	mov    rsi,QWORD PTR [rsp+0x320]
    4aae:	00 
    4aaf:	48 8b 7e 08          	mov    rdi,QWORD PTR [rsi+0x8]
    4ab3:	48 8b b4 24 30 03 00 	mov    rsi,QWORD PTR [rsp+0x330]
    4aba:	00 
    4abb:	48 b8 00 00 00 00 00 	movabs rax,0x0
    4ac2:	00 00 00 
			4abd: R_X86_64_64	apply1
    4ac5:	48 89 34 24          	mov    QWORD PTR [rsp],rsi
    4ac9:	48 89 7c 24 08       	mov    QWORD PTR [rsp+0x8],rdi
    4ace:	ff d0                	call   rax
    4ad0:	49 89 c6             	mov    r14,rax
    4ad3:	48 89 d3             	mov    rbx,rdx
    4ad6:	48 85 db             	test   rbx,rbx
    4ad9:	0f 85 0a 00 00 00    	jne    4ae9 <trigger_gc_please+0x4ae9>
    4adf:	4c 89 74 24 20       	mov    QWORD PTR [rsp+0x20],r14
    4ae4:	e9 8e 00 00 00       	jmp    4b77 <trigger_gc_please+0x4b77>
    4ae9:	48 8b b4 24 38 03 00 	mov    rsi,QWORD PTR [rsp+0x338]
    4af0:	00 
    4af1:	4c 8b be 98 00 00 00 	mov    r15,QWORD PTR [rsi+0x98]
    4af8:	49 89 dd             	mov    r13,rbx
    4afb:	49 83 c5 ff          	add    r13,0xffffffffffffffff
    4aff:	48 89 da             	mov    rdx,rbx
    4b02:	48 c1 e2 03          	shl    rdx,0x3
    4b06:	4d 89 fc             	mov    r12,r15
    4b09:	49 01 d4             	add    r12,rdx
    4b0c:	4c 89 ff             	mov    rdi,r15
    4b0f:	48 83 c7 e8          	add    rdi,0xffffffffffffffe8
    4b13:	4c 89 fe             	mov    rsi,r15
    4b16:	48 b8 00 00 00 00 00 	movabs rax,0x0
    4b1d:	00 00 00 
			4b18: R_X86_64_64	memmove
    4b20:	4c 89 34 24          	mov    QWORD PTR [rsp],r14
    4b24:	ff d0                	call   rax
    4b26:	4c 8b 34 24          	mov    r14,QWORD PTR [rsp]
    4b2a:	48 be 00 00 00 00 00 	movabs rsi,0x0
    4b31:	00 00 00 
			4b2c: R_X86_64_64	callback_return_addr
    4b34:	bf 01 00 00 00       	mov    edi,0x1
    4b39:	49 89 7c df f8       	mov    QWORD PTR [r15+rbx*8-0x8],rdi
    4b3e:	bf 01 00 00 00       	mov    edi,0x1
    4b43:	49 89 7c df f0       	mov    QWORD PTR [r15+rbx*8-0x10],rdi
    4b48:	49 89 74 df e8       	mov    QWORD PTR [r15+rbx*8-0x18],rsi
    4b4d:	48 8b b4 24 38 03 00 	mov    rsi,QWORD PTR [rsp+0x338]
    4b54:	00 
    4b55:	4c 89 a6 98 00 00 00 	mov    QWORD PTR [rsi+0x98],r12
    4b5c:	4c 89 f7             	mov    rdi,r14
    4b5f:	4c 89 ee             	mov    rsi,r13
    4b62:	48 b8 00 00 00 00 00 	movabs rax,0x0
    4b69:	00 00 00 
			4b64: R_X86_64_64	apply_n
    4b6c:	48 89 3c 24          	mov    QWORD PTR [rsp],rdi
    4b70:	ff d0                	call   rax
    4b72:	48 89 44 24 20       	mov    QWORD PTR [rsp+0x20],rax
    4b77:	48 8b b4 24 20 03 00 	mov    rsi,QWORD PTR [rsp+0x320]
    4b7e:	00 
    4b7f:	48 8b 7e 08          	mov    rdi,QWORD PTR [rsi+0x8]
    4b83:	48 8b b4 24 30 03 00 	mov    rsi,QWORD PTR [rsp+0x330]
    4b8a:	00 
    4b8b:	48 b8 00 00 00 00 00 	movabs rax,0x0
    4b92:	00 00 00 
			4b8d: R_X86_64_64	apply1
    4b95:	48 89 34 24          	mov    QWORD PTR [rsp],rsi
    4b99:	48 89 7c 24 08       	mov    QWORD PTR [rsp+0x8],rdi
    4b9e:	ff d0                	call   rax
    4ba0:	48 89 c3             	mov    rbx,rax
    4ba3:	49 89 d6             	mov    r14,rdx
    4ba6:	4d 85 f6             	test   r14,r14
    4ba9:	0f 85 0d 00 00 00    	jne    4bbc <trigger_gc_please+0x4bbc>
    4baf:	48 89 9c 24 a0 01 00 	mov    QWORD PTR [rsp+0x1a0],rbx
    4bb6:	00 
    4bb7:	e9 91 00 00 00       	jmp    4c4d <trigger_gc_please+0x4c4d>
    4bbc:	48 8b b4 24 38 03 00 	mov    rsi,QWORD PTR [rsp+0x338]
    4bc3:	00 
    4bc4:	4c 8b be 98 00 00 00 	mov    r15,QWORD PTR [rsi+0x98]
    4bcb:	4d 89 f5             	mov    r13,r14
    4bce:	49 83 c5 ff          	add    r13,0xffffffffffffffff
    4bd2:	4c 89 f2             	mov    rdx,r14
    4bd5:	48 c1 e2 03          	shl    rdx,0x3
    4bd9:	4d 89 fc             	mov    r12,r15
    4bdc:	49 01 d4             	add    r12,rdx
    4bdf:	4c 89 ff             	mov    rdi,r15
    4be2:	48 83 c7 e8          	add    rdi,0xffffffffffffffe8
    4be6:	4c 89 fe             	mov    rsi,r15
    4be9:	48 b8 00 00 00 00 00 	movabs rax,0x0
    4bf0:	00 00 00 
			4beb: R_X86_64_64	memmove
    4bf3:	48 89 1c 24          	mov    QWORD PTR [rsp],rbx
    4bf7:	ff d0                	call   rax
    4bf9:	48 8b 1c 24          	mov    rbx,QWORD PTR [rsp]
    4bfd:	48 be 00 00 00 00 00 	movabs rsi,0x0
    4c04:	00 00 00 
			4bff: R_X86_64_64	callback_return_addr
    4c07:	bf 01 00 00 00       	mov    edi,0x1
    4c0c:	4b 89 7c f7 f8       	mov    QWORD PTR [r15+r14*8-0x8],rdi
    4c11:	bf 01 00 00 00       	mov    edi,0x1
    4c16:	4b 89 7c f7 f0       	mov    QWORD PTR [r15+r14*8-0x10],rdi
    4c1b:	4b 89 74 f7 e8       	mov    QWORD PTR [r15+r14*8-0x18],rsi
    4c20:	48 8b b4 24 38 03 00 	mov    rsi,QWORD PTR [rsp+0x338]
    4c27:	00 
    4c28:	4c 89 a6 98 00 00 00 	mov    QWORD PTR [rsi+0x98],r12
    4c2f:	48 89 df             	mov    rdi,rbx
    4c32:	4c 89 ee             	mov    rsi,r13
    4c35:	48 b8 00 00 00 00 00 	movabs rax,0x0
    4c3c:	00 00 00 
			4c37: R_X86_64_64	apply_n
    4c3f:	48 89 3c 24          	mov    QWORD PTR [rsp],rdi
    4c43:	ff d0                	call   rax
    4c45:	48 89 84 24 a0 01 00 	mov    QWORD PTR [rsp+0x1a0],rax
    4c4c:	00 
    4c4d:	48 8b b4 24 20 03 00 	mov    rsi,QWORD PTR [rsp+0x320]
    4c54:	00 
    4c55:	48 8b 7e 08          	mov    rdi,QWORD PTR [rsi+0x8]
    4c59:	48 8b b4 24 30 03 00 	mov    rsi,QWORD PTR [rsp+0x330]
    4c60:	00 
    4c61:	48 b8 00 00 00 00 00 	movabs rax,0x0
    4c68:	00 00 00 
			4c63: R_X86_64_64	apply1
    4c6b:	48 89 34 24          	mov    QWORD PTR [rsp],rsi
    4c6f:	48 89 7c 24 08       	mov    QWORD PTR [rsp+0x8],rdi
    4c74:	ff d0                	call   rax
    4c76:	49 89 c6             	mov    r14,rax
    4c79:	48 89 d3             	mov    rbx,rdx
    4c7c:	48 85 db             	test   rbx,rbx
    4c7f:	0f 85 0a 00 00 00    	jne    4c8f <trigger_gc_please+0x4c8f>
    4c85:	4c 89 74 24 18       	mov    QWORD PTR [rsp+0x18],r14
    4c8a:	e9 8e 00 00 00       	jmp    4d1d <trigger_gc_please+0x4d1d>
    4c8f:	48 8b b4 24 38 03 00 	mov    rsi,QWORD PTR [rsp+0x338]
    4c96:	00 
    4c97:	4c 8b be 98 00 00 00 	mov    r15,QWORD PTR [rsi+0x98]
    4c9e:	49 89 dd             	mov    r13,rbx
    4ca1:	49 83 c5 ff          	add    r13,0xffffffffffffffff
    4ca5:	48 89 da             	mov    rdx,rbx
    4ca8:	48 c1 e2 03          	shl    rdx,0x3
    4cac:	4d 89 fc             	mov    r12,r15
    4caf:	49 01 d4             	add    r12,rdx
    4cb2:	4c 89 ff             	mov    rdi,r15
    4cb5:	48 83 c7 e8          	add    rdi,0xffffffffffffffe8
    4cb9:	4c 89 fe             	mov    rsi,r15
    4cbc:	48 b8 00 00 00 00 00 	movabs rax,0x0
    4cc3:	00 00 00 
			4cbe: R_X86_64_64	memmove
    4cc6:	4c 89 34 24          	mov    QWORD PTR [rsp],r14
    4cca:	ff d0                	call   rax
    4ccc:	4c 8b 34 24          	mov    r14,QWORD PTR [rsp]
    4cd0:	48 be 00 00 00 00 00 	movabs rsi,0x0
    4cd7:	00 00 00 
			4cd2: R_X86_64_64	callback_return_addr
    4cda:	bf 01 00 00 00       	mov    edi,0x1
    4cdf:	49 89 7c df f8       	mov    QWORD PTR [r15+rbx*8-0x8],rdi
    4ce4:	bf 01 00 00 00       	mov    edi,0x1
    4ce9:	49 89 7c df f0       	mov    QWORD PTR [r15+rbx*8-0x10],rdi
    4cee:	49 89 74 df e8       	mov    QWORD PTR [r15+rbx*8-0x18],rsi
    4cf3:	48 8b b4 24 38 03 00 	mov    rsi,QWORD PTR [rsp+0x338]
    4cfa:	00 
    4cfb:	4c 89 a6 98 00 00 00 	mov    QWORD PTR [rsi+0x98],r12
    4d02:	4c 89 f7             	mov    rdi,r14
    4d05:	4c 89 ee             	mov    rsi,r13
    4d08:	48 b8 00 00 00 00 00 	movabs rax,0x0
    4d0f:	00 00 00 
			4d0a: R_X86_64_64	apply_n
    4d12:	48 89 3c 24          	mov    QWORD PTR [rsp],rdi
    4d16:	ff d0                	call   rax
    4d18:	48 89 44 24 18       	mov    QWORD PTR [rsp+0x18],rax
    4d1d:	48 8b b4 24 20 03 00 	mov    rsi,QWORD PTR [rsp+0x320]
    4d24:	00 
    4d25:	48 8b 7e 08          	mov    rdi,QWORD PTR [rsi+0x8]
    4d29:	48 8b b4 24 30 03 00 	mov    rsi,QWORD PTR [rsp+0x330]
    4d30:	00 
    4d31:	48 b8 00 00 00 00 00 	movabs rax,0x0
    4d38:	00 00 00 
			4d33: R_X86_64_64	apply1
    4d3b:	48 89 34 24          	mov    QWORD PTR [rsp],rsi
    4d3f:	48 89 7c 24 08       	mov    QWORD PTR [rsp+0x8],rdi
    4d44:	ff d0                	call   rax
    4d46:	49 89 c6             	mov    r14,rax
    4d49:	48 89 d3             	mov    rbx,rdx
    4d4c:	48 85 db             	test   rbx,rbx
    4d4f:	0f 85 0d 00 00 00    	jne    4d62 <trigger_gc_please+0x4d62>
    4d55:	4c 89 b4 24 98 01 00 	mov    QWORD PTR [rsp+0x198],r14
    4d5c:	00 
    4d5d:	e9 91 00 00 00       	jmp    4df3 <trigger_gc_please+0x4df3>
    4d62:	48 8b b4 24 38 03 00 	mov    rsi,QWORD PTR [rsp+0x338]
    4d69:	00 
    4d6a:	4c 8b be 98 00 00 00 	mov    r15,QWORD PTR [rsi+0x98]
    4d71:	49 89 dd             	mov    r13,rbx
    4d74:	49 83 c5 ff          	add    r13,0xffffffffffffffff
    4d78:	48 89 da             	mov    rdx,rbx
    4d7b:	48 c1 e2 03          	shl    rdx,0x3
    4d7f:	4d 89 fc             	mov    r12,r15
    4d82:	49 01 d4             	add    r12,rdx
    4d85:	4c 89 ff             	mov    rdi,r15
    4d88:	48 83 c7 e8          	add    rdi,0xffffffffffffffe8
    4d8c:	4c 89 fe             	mov    rsi,r15
    4d8f:	48 b8 00 00 00 00 00 	movabs rax,0x0
    4d96:	00 00 00 
			4d91: R_X86_64_64	memmove
    4d99:	4c 89 34 24          	mov    QWORD PTR [rsp],r14
    4d9d:	ff d0                	call   rax
    4d9f:	4c 8b 34 24          	mov    r14,QWORD PTR [rsp]
    4da3:	48 be 00 00 00 00 00 	movabs rsi,0x0
    4daa:	00 00 00 
			4da5: R_X86_64_64	callback_return_addr
    4dad:	bf 01 00 00 00       	mov    edi,0x1
    4db2:	49 89 7c df f8       	mov    QWORD PTR [r15+rbx*8-0x8],rdi
    4db7:	bf 01 00 00 00       	mov    edi,0x1
    4dbc:	49 89 7c df f0       	mov    QWORD PTR [r15+rbx*8-0x10],rdi
    4dc1:	49 89 74 df e8       	mov    QWORD PTR [r15+rbx*8-0x18],rsi
    4dc6:	48 8b b4 24 38 03 00 	mov    rsi,QWORD PTR [rsp+0x338]
    4dcd:	00 
    4dce:	4c 89 a6 98 00 00 00 	mov    QWORD PTR [rsi+0x98],r12
    4dd5:	4c 89 f7             	mov    rdi,r14
    4dd8:	4c 89 ee             	mov    rsi,r13
    4ddb:	48 b8 00 00 00 00 00 	movabs rax,0x0
    4de2:	00 00 00 
			4ddd: R_X86_64_64	apply_n
    4de5:	48 89 3c 24          	mov    QWORD PTR [rsp],rdi
    4de9:	ff d0                	call   rax
    4deb:	48 89 84 24 98 01 00 	mov    QWORD PTR [rsp+0x198],rax
    4df2:	00 
    4df3:	48 8b b4 24 20 03 00 	mov    rsi,QWORD PTR [rsp+0x320]
    4dfa:	00 
    4dfb:	48 8b 7e 08          	mov    rdi,QWORD PTR [rsi+0x8]
    4dff:	48 8b b4 24 30 03 00 	mov    rsi,QWORD PTR [rsp+0x330]
    4e06:	00 
    4e07:	48 b8 00 00 00 00 00 	movabs rax,0x0
    4e0e:	00 00 00 
			4e09: R_X86_64_64	apply1
    4e11:	48 89 34 24          	mov    QWORD PTR [rsp],rsi
    4e15:	48 89 7c 24 08       	mov    QWORD PTR [rsp+0x8],rdi
    4e1a:	ff d0                	call   rax
    4e1c:	49 89 c6             	mov    r14,rax
    4e1f:	48 89 d3             	mov    rbx,rdx
    4e22:	48 85 db             	test   rbx,rbx
    4e25:	0f 85 0a 00 00 00    	jne    4e35 <trigger_gc_please+0x4e35>
    4e2b:	4c 89 74 24 10       	mov    QWORD PTR [rsp+0x10],r14
    4e30:	e9 8e 00 00 00       	jmp    4ec3 <trigger_gc_please+0x4ec3>
    4e35:	48 8b b4 24 38 03 00 	mov    rsi,QWORD PTR [rsp+0x338]
    4e3c:	00 
    4e3d:	4c 8b be 98 00 00 00 	mov    r15,QWORD PTR [rsi+0x98]
    4e44:	49 89 dd             	mov    r13,rbx
    4e47:	49 83 c5 ff          	add    r13,0xffffffffffffffff
    4e4b:	48 89 da             	mov    rdx,rbx
    4e4e:	48 c1 e2 03          	shl    rdx,0x3
    4e52:	4d 89 fc             	mov    r12,r15
    4e55:	49 01 d4             	add    r12,rdx
    4e58:	4c 89 ff             	mov    rdi,r15
    4e5b:	48 83 c7 e8          	add    rdi,0xffffffffffffffe8
    4e5f:	4c 89 fe             	mov    rsi,r15
    4e62:	48 b8 00 00 00 00 00 	movabs rax,0x0
    4e69:	00 00 00 
			4e64: R_X86_64_64	memmove
    4e6c:	4c 89 34 24          	mov    QWORD PTR [rsp],r14
    4e70:	ff d0                	call   rax
    4e72:	4c 8b 34 24          	mov    r14,QWORD PTR [rsp]
    4e76:	48 be 00 00 00 00 00 	movabs rsi,0x0
    4e7d:	00 00 00 
			4e78: R_X86_64_64	callback_return_addr
    4e80:	bf 01 00 00 00       	mov    edi,0x1
    4e85:	49 89 7c df f8       	mov    QWORD PTR [r15+rbx*8-0x8],rdi
    4e8a:	bf 01 00 00 00       	mov    edi,0x1
    4e8f:	49 89 7c df f0       	mov    QWORD PTR [r15+rbx*8-0x10],rdi
    4e94:	49 89 74 df e8       	mov    QWORD PTR [r15+rbx*8-0x18],rsi
    4e99:	48 8b b4 24 38 03 00 	mov    rsi,QWORD PTR [rsp+0x338]
    4ea0:	00 
    4ea1:	4c 89 a6 98 00 00 00 	mov    QWORD PTR [rsi+0x98],r12
    4ea8:	4c 89 f7             	mov    rdi,r14
    4eab:	4c 89 ee             	mov    rsi,r13
    4eae:	48 b8 00 00 00 00 00 	movabs rax,0x0
    4eb5:	00 00 00 
			4eb0: R_X86_64_64	apply_n
    4eb8:	48 89 3c 24          	mov    QWORD PTR [rsp],rdi
    4ebc:	ff d0                	call   rax
    4ebe:	48 89 44 24 10       	mov    QWORD PTR [rsp+0x10],rax
    4ec3:	48 8b b4 24 20 03 00 	mov    rsi,QWORD PTR [rsp+0x320]
    4eca:	00 
    4ecb:	48 8b 7e 08          	mov    rdi,QWORD PTR [rsi+0x8]
    4ecf:	48 8b b4 24 30 03 00 	mov    rsi,QWORD PTR [rsp+0x330]
    4ed6:	00 
    4ed7:	48 b8 00 00 00 00 00 	movabs rax,0x0
    4ede:	00 00 00 
			4ed9: R_X86_64_64	apply1
    4ee1:	48 89 34 24          	mov    QWORD PTR [rsp],rsi
    4ee5:	48 89 7c 24 08       	mov    QWORD PTR [rsp+0x8],rdi
    4eea:	ff d0                	call   rax
    4eec:	49 89 c6             	mov    r14,rax
    4eef:	48 89 d3             	mov    rbx,rdx
    4ef2:	48 85 db             	test   rbx,rbx
    4ef5:	0f 85 0d 00 00 00    	jne    4f08 <trigger_gc_please+0x4f08>
    4efb:	4c 89 b4 24 90 01 00 	mov    QWORD PTR [rsp+0x190],r14
    4f02:	00 
    4f03:	e9 91 00 00 00       	jmp    4f99 <trigger_gc_please+0x4f99>
    4f08:	48 8b b4 24 38 03 00 	mov    rsi,QWORD PTR [rsp+0x338]
    4f0f:	00 
    4f10:	4c 8b be 98 00 00 00 	mov    r15,QWORD PTR [rsi+0x98]
    4f17:	49 89 dd             	mov    r13,rbx
    4f1a:	49 83 c5 ff          	add    r13,0xffffffffffffffff
    4f1e:	48 89 da             	mov    rdx,rbx
    4f21:	48 c1 e2 03          	shl    rdx,0x3
    4f25:	4d 89 fc             	mov    r12,r15
    4f28:	49 01 d4             	add    r12,rdx
    4f2b:	4c 89 ff             	mov    rdi,r15
    4f2e:	48 83 c7 e8          	add    rdi,0xffffffffffffffe8
    4f32:	4c 89 fe             	mov    rsi,r15
    4f35:	48 b8 00 00 00 00 00 	movabs rax,0x0
    4f3c:	00 00 00 
			4f37: R_X86_64_64	memmove
    4f3f:	4c 89 34 24          	mov    QWORD PTR [rsp],r14
    4f43:	ff d0                	call   rax
    4f45:	4c 8b 34 24          	mov    r14,QWORD PTR [rsp]
    4f49:	48 be 00 00 00 00 00 	movabs rsi,0x0
    4f50:	00 00 00 
			4f4b: R_X86_64_64	callback_return_addr
    4f53:	bf 01 00 00 00       	mov    edi,0x1
    4f58:	49 89 7c df f8       	mov    QWORD PTR [r15+rbx*8-0x8],rdi
    4f5d:	bf 01 00 00 00       	mov    edi,0x1
    4f62:	49 89 7c df f0       	mov    QWORD PTR [r15+rbx*8-0x10],rdi
    4f67:	49 89 74 df e8       	mov    QWORD PTR [r15+rbx*8-0x18],rsi
    4f6c:	48 8b b4 24 38 03 00 	mov    rsi,QWORD PTR [rsp+0x338]
    4f73:	00 
    4f74:	4c 89 a6 98 00 00 00 	mov    QWORD PTR [rsi+0x98],r12
    4f7b:	4c 89 f7             	mov    rdi,r14
    4f7e:	4c 89 ee             	mov    rsi,r13
    4f81:	48 b8 00 00 00 00 00 	movabs rax,0x0
    4f88:	00 00 00 
			4f83: R_X86_64_64	apply_n
    4f8b:	48 89 3c 24          	mov    QWORD PTR [rsp],rdi
    4f8f:	ff d0                	call   rax
    4f91:	48 89 84 24 90 01 00 	mov    QWORD PTR [rsp+0x190],rax
    4f98:	00 
