
<input>:     file format elf64-x86-64


Disassembly of section .text:

0000000000000000 <trigger_gc_please>:
       0:	55                   	push   rbp
       1:	48 89 e5             	mov    rbp,rsp
       4:	48 81 ec 80 03 00 00 	sub    rsp,0x380
       b:	4c 89 a4 24 50 03 00 	mov    QWORD PTR [rsp+0x350],r12
      12:	00 
      13:	4c 89 ac 24 58 03 00 	mov    QWORD PTR [rsp+0x358],r13
      1a:	00 
      1b:	4c 89 b4 24 60 03 00 	mov    QWORD PTR [rsp+0x360],r14
      22:	00 
      23:	48 89 9c 24 68 03 00 	mov    QWORD PTR [rsp+0x368],rbx
      2a:	00 
      2b:	4c 89 bc 24 70 03 00 	mov    QWORD PTR [rsp+0x370],r15
      32:	00 
      33:	49 89 fd             	mov    r13,rdi
      36:	49 bc 00 00 00 00 00 	movabs r12,0x0
      3d:	00 00 00 
			38: R_X86_64_64	caml_state_addr
      40:	48 8b 3e             	mov    rdi,QWORD PTR [rsi]
      43:	48 89 7c 24 10       	mov    QWORD PTR [rsp+0x10],rdi
      48:	48 8b 7e 08          	mov    rdi,QWORD PTR [rsi+0x8]
      4c:	48 89 3c 24          	mov    QWORD PTR [rsp],rdi
      50:	48 89 f7             	mov    rdi,rsi
      53:	48 83 c7 10          	add    rdi,0x10
      57:	48 8b 44 24 10       	mov    rax,QWORD PTR [rsp+0x10]
      5c:	b9 01 00 00 00       	mov    ecx,0x1
      61:	48 39 c1             	cmp    rcx,rax
      64:	0f 84 7e 31 00 00    	je     31e8 <trigger_gc_please+0x31e8>
      6a:	bb 01 00 00 00       	mov    ebx,0x1
      6f:	49 8b 45 08          	mov    rax,QWORD PTR [r13+0x8]
      73:	49 bf 00 00 00 00 00 	movabs r15,0x0
      7a:	00 00 00 
			75: R_X86_64_64	callback_return_addr
      7d:	49 89 bc 24 98 00 00 	mov    QWORD PTR [r12+0x98],rdi
      84:	00 
      85:	48 89 5e f0          	mov    QWORD PTR [rsi-0x10],rbx
      89:	4c 89 7e f8          	mov    QWORD PTR [rsi-0x8],r15
      8d:	bf 01 00 00 00       	mov    edi,0x1
      92:	48 89 3e             	mov    QWORD PTR [rsi],rdi
      95:	bf 01 00 00 00       	mov    edi,0x1
      9a:	48 89 7e 08          	mov    QWORD PTR [rsi+0x8],rdi
      9e:	48 89 c7             	mov    rdi,rax
      a1:	48 31 f6             	xor    rsi,rsi
      a4:	48 b8 00 00 00 00 00 	movabs rax,0x0
      ab:	00 00 00 
			a6: R_X86_64_64	do_callback
      ae:	48 89 5c 24 18       	mov    QWORD PTR [rsp+0x18],rbx
      b3:	48 89 7c 24 20       	mov    QWORD PTR [rsp+0x20],rdi
      b8:	4c 89 6c 24 28       	mov    QWORD PTR [rsp+0x28],r13
      bd:	ff d0                	call   rax
      bf:	48 8b 5c 24 18       	mov    rbx,QWORD PTR [rsp+0x18]
      c4:	4c 8b 6c 24 28       	mov    r13,QWORD PTR [rsp+0x28]
      c9:	48 89 c6             	mov    rsi,rax
      cc:	48 89 74 24 18       	mov    QWORD PTR [rsp+0x18],rsi
      d1:	49 8b b4 24 98 00 00 	mov    rsi,QWORD PTR [r12+0x98]
      d8:	00 
      d9:	49 8b 7d 08          	mov    rdi,QWORD PTR [r13+0x8]
      dd:	49 89 b4 24 98 00 00 	mov    QWORD PTR [r12+0x98],rsi
      e4:	00 
      e5:	48 89 5e e0          	mov    QWORD PTR [rsi-0x20],rbx
      e9:	4c 89 7e e8          	mov    QWORD PTR [rsi-0x18],r15
      ed:	b8 01 00 00 00       	mov    eax,0x1
      f2:	48 89 46 f0          	mov    QWORD PTR [rsi-0x10],rax
      f6:	b8 01 00 00 00       	mov    eax,0x1
      fb:	48 89 46 f8          	mov    QWORD PTR [rsi-0x8],rax
      ff:	48 31 f6             	xor    rsi,rsi
     102:	48 b8 00 00 00 00 00 	movabs rax,0x0
     109:	00 00 00 
			104: R_X86_64_64	do_callback
     10c:	48 89 5c 24 20       	mov    QWORD PTR [rsp+0x20],rbx
     111:	48 89 7c 24 28       	mov    QWORD PTR [rsp+0x28],rdi
     116:	4c 89 6c 24 30       	mov    QWORD PTR [rsp+0x30],r13
     11b:	ff d0                	call   rax
     11d:	48 8b 5c 24 20       	mov    rbx,QWORD PTR [rsp+0x20]
     122:	4c 8b 6c 24 30       	mov    r13,QWORD PTR [rsp+0x30]
     127:	48 89 c6             	mov    rsi,rax
     12a:	48 89 74 24 20       	mov    QWORD PTR [rsp+0x20],rsi
     12f:	49 8b b4 24 98 00 00 	mov    rsi,QWORD PTR [r12+0x98]
     136:	00 
     137:	49 8b 7d 08          	mov    rdi,QWORD PTR [r13+0x8]
     13b:	49 89 b4 24 98 00 00 	mov    QWORD PTR [r12+0x98],rsi
     142:	00 
     143:	48 89 5e e0          	mov    QWORD PTR [rsi-0x20],rbx
     147:	4c 89 7e e8          	mov    QWORD PTR [rsi-0x18],r15
     14b:	b8 01 00 00 00       	mov    eax,0x1
     150:	48 89 46 f0          	mov    QWORD PTR [rsi-0x10],rax
     154:	b8 01 00 00 00       	mov    eax,0x1
     159:	48 89 46 f8          	mov    QWORD PTR [rsi-0x8],rax
     15d:	48 31 f6             	xor    rsi,rsi
     160:	48 b8 00 00 00 00 00 	movabs rax,0x0
     167:	00 00 00 
			162: R_X86_64_64	do_callback
     16a:	48 89 5c 24 28       	mov    QWORD PTR [rsp+0x28],rbx
     16f:	48 89 7c 24 30       	mov    QWORD PTR [rsp+0x30],rdi
     174:	4c 89 6c 24 38       	mov    QWORD PTR [rsp+0x38],r13
     179:	ff d0                	call   rax
     17b:	48 8b 5c 24 28       	mov    rbx,QWORD PTR [rsp+0x28]
     180:	4c 8b 6c 24 38       	mov    r13,QWORD PTR [rsp+0x38]
     185:	48 89 c6             	mov    rsi,rax
     188:	48 89 74 24 28       	mov    QWORD PTR [rsp+0x28],rsi
     18d:	49 8b b4 24 98 00 00 	mov    rsi,QWORD PTR [r12+0x98]
     194:	00 
     195:	49 8b 7d 08          	mov    rdi,QWORD PTR [r13+0x8]
     199:	49 89 b4 24 98 00 00 	mov    QWORD PTR [r12+0x98],rsi
     1a0:	00 
     1a1:	48 89 5e e0          	mov    QWORD PTR [rsi-0x20],rbx
     1a5:	4c 89 7e e8          	mov    QWORD PTR [rsi-0x18],r15
     1a9:	b8 01 00 00 00       	mov    eax,0x1
     1ae:	48 89 46 f0          	mov    QWORD PTR [rsi-0x10],rax
     1b2:	b8 01 00 00 00       	mov    eax,0x1
     1b7:	48 89 46 f8          	mov    QWORD PTR [rsi-0x8],rax
     1bb:	48 31 f6             	xor    rsi,rsi
     1be:	48 b8 00 00 00 00 00 	movabs rax,0x0
     1c5:	00 00 00 
			1c0: R_X86_64_64	do_callback
     1c8:	48 89 5c 24 30       	mov    QWORD PTR [rsp+0x30],rbx
     1cd:	48 89 7c 24 38       	mov    QWORD PTR [rsp+0x38],rdi
     1d2:	4c 89 6c 24 40       	mov    QWORD PTR [rsp+0x40],r13
     1d7:	ff d0                	call   rax
     1d9:	48 8b 5c 24 30       	mov    rbx,QWORD PTR [rsp+0x30]
     1de:	4c 8b 6c 24 40       	mov    r13,QWORD PTR [rsp+0x40]
     1e3:	48 89 c6             	mov    rsi,rax
     1e6:	48 89 74 24 30       	mov    QWORD PTR [rsp+0x30],rsi
     1eb:	49 8b b4 24 98 00 00 	mov    rsi,QWORD PTR [r12+0x98]
     1f2:	00 
     1f3:	49 8b 7d 08          	mov    rdi,QWORD PTR [r13+0x8]
     1f7:	49 89 b4 24 98 00 00 	mov    QWORD PTR [r12+0x98],rsi
     1fe:	00 
     1ff:	48 89 5e e0          	mov    QWORD PTR [rsi-0x20],rbx
     203:	4c 89 7e e8          	mov    QWORD PTR [rsi-0x18],r15
     207:	b8 01 00 00 00       	mov    eax,0x1
     20c:	48 89 46 f0          	mov    QWORD PTR [rsi-0x10],rax
     210:	b8 01 00 00 00       	mov    eax,0x1
     215:	48 89 46 f8          	mov    QWORD PTR [rsi-0x8],rax
     219:	48 31 f6             	xor    rsi,rsi
     21c:	48 b8 00 00 00 00 00 	movabs rax,0x0
     223:	00 00 00 
			21e: R_X86_64_64	do_callback
     226:	48 89 5c 24 38       	mov    QWORD PTR [rsp+0x38],rbx
     22b:	48 89 7c 24 40       	mov    QWORD PTR [rsp+0x40],rdi
     230:	4c 89 6c 24 48       	mov    QWORD PTR [rsp+0x48],r13
     235:	ff d0                	call   rax
     237:	48 8b 5c 24 38       	mov    rbx,QWORD PTR [rsp+0x38]
     23c:	4c 8b 6c 24 48       	mov    r13,QWORD PTR [rsp+0x48]
     241:	48 89 c6             	mov    rsi,rax
     244:	48 89 74 24 38       	mov    QWORD PTR [rsp+0x38],rsi
     249:	49 8b b4 24 98 00 00 	mov    rsi,QWORD PTR [r12+0x98]
     250:	00 
     251:	49 8b 7d 08          	mov    rdi,QWORD PTR [r13+0x8]
     255:	49 89 b4 24 98 00 00 	mov    QWORD PTR [r12+0x98],rsi
     25c:	00 
     25d:	48 89 5e e0          	mov    QWORD PTR [rsi-0x20],rbx
     261:	4c 89 7e e8          	mov    QWORD PTR [rsi-0x18],r15
     265:	b8 01 00 00 00       	mov    eax,0x1
     26a:	48 89 46 f0          	mov    QWORD PTR [rsi-0x10],rax
     26e:	b8 01 00 00 00       	mov    eax,0x1
     273:	48 89 46 f8          	mov    QWORD PTR [rsi-0x8],rax
     277:	48 31 f6             	xor    rsi,rsi
     27a:	48 b8 00 00 00 00 00 	movabs rax,0x0
     281:	00 00 00 
			27c: R_X86_64_64	do_callback
     284:	48 89 5c 24 40       	mov    QWORD PTR [rsp+0x40],rbx
     289:	48 89 7c 24 48       	mov    QWORD PTR [rsp+0x48],rdi
     28e:	4c 89 6c 24 50       	mov    QWORD PTR [rsp+0x50],r13
     293:	ff d0                	call   rax
     295:	48 8b 5c 24 40       	mov    rbx,QWORD PTR [rsp+0x40]
     29a:	4c 8b 6c 24 50       	mov    r13,QWORD PTR [rsp+0x50]
     29f:	48 89 c6             	mov    rsi,rax
     2a2:	48 89 74 24 40       	mov    QWORD PTR [rsp+0x40],rsi
     2a7:	49 8b b4 24 98 00 00 	mov    rsi,QWORD PTR [r12+0x98]
     2ae:	00 
     2af:	49 8b 7d 08          	mov    rdi,QWORD PTR [r13+0x8]
     2b3:	49 89 b4 24 98 00 00 	mov    QWORD PTR [r12+0x98],rsi
     2ba:	00 
     2bb:	48 89 5e e0          	mov    QWORD PTR [rsi-0x20],rbx
     2bf:	4c 89 7e e8          	mov    QWORD PTR [rsi-0x18],r15
     2c3:	b8 01 00 00 00       	mov    eax,0x1
     2c8:	48 89 46 f0          	mov    QWORD PTR [rsi-0x10],rax
     2cc:	b8 01 00 00 00       	mov    eax,0x1
     2d1:	48 89 46 f8          	mov    QWORD PTR [rsi-0x8],rax
     2d5:	48 31 f6             	xor    rsi,rsi
     2d8:	48 b8 00 00 00 00 00 	movabs rax,0x0
     2df:	00 00 00 
			2da: R_X86_64_64	do_callback
     2e2:	48 89 5c 24 48       	mov    QWORD PTR [rsp+0x48],rbx
     2e7:	48 89 7c 24 50       	mov    QWORD PTR [rsp+0x50],rdi
     2ec:	4c 89 6c 24 58       	mov    QWORD PTR [rsp+0x58],r13
     2f1:	ff d0                	call   rax
     2f3:	48 8b 5c 24 48       	mov    rbx,QWORD PTR [rsp+0x48]
     2f8:	4c 8b 6c 24 58       	mov    r13,QWORD PTR [rsp+0x58]
     2fd:	48 89 c6             	mov    rsi,rax
     300:	48 89 74 24 48       	mov    QWORD PTR [rsp+0x48],rsi
     305:	49 8b b4 24 98 00 00 	mov    rsi,QWORD PTR [r12+0x98]
     30c:	00 
     30d:	49 8b 7d 08          	mov    rdi,QWORD PTR [r13+0x8]
     311:	49 89 b4 24 98 00 00 	mov    QWORD PTR [r12+0x98],rsi
     318:	00 
     319:	48 89 5e e0          	mov    QWORD PTR [rsi-0x20],rbx
     31d:	4c 89 7e e8          	mov    QWORD PTR [rsi-0x18],r15
     321:	b8 01 00 00 00       	mov    eax,0x1
     326:	48 89 46 f0          	mov    QWORD PTR [rsi-0x10],rax
     32a:	b8 01 00 00 00       	mov    eax,0x1
     32f:	48 89 46 f8          	mov    QWORD PTR [rsi-0x8],rax
     333:	48 31 f6             	xor    rsi,rsi
     336:	48 b8 00 00 00 00 00 	movabs rax,0x0
     33d:	00 00 00 
			338: R_X86_64_64	do_callback
     340:	48 89 5c 24 50       	mov    QWORD PTR [rsp+0x50],rbx
     345:	48 89 7c 24 58       	mov    QWORD PTR [rsp+0x58],rdi
     34a:	4c 89 6c 24 60       	mov    QWORD PTR [rsp+0x60],r13
     34f:	ff d0                	call   rax
     351:	48 8b 5c 24 50       	mov    rbx,QWORD PTR [rsp+0x50]
     356:	4c 8b 6c 24 60       	mov    r13,QWORD PTR [rsp+0x60]
     35b:	48 89 c6             	mov    rsi,rax
     35e:	48 89 74 24 50       	mov    QWORD PTR [rsp+0x50],rsi
     363:	49 8b b4 24 98 00 00 	mov    rsi,QWORD PTR [r12+0x98]
     36a:	00 
     36b:	49 8b 7d 08          	mov    rdi,QWORD PTR [r13+0x8]
     36f:	49 89 b4 24 98 00 00 	mov    QWORD PTR [r12+0x98],rsi
     376:	00 
     377:	48 89 5e e0          	mov    QWORD PTR [rsi-0x20],rbx
     37b:	4c 89 7e e8          	mov    QWORD PTR [rsi-0x18],r15
     37f:	b8 01 00 00 00       	mov    eax,0x1
     384:	48 89 46 f0          	mov    QWORD PTR [rsi-0x10],rax
     388:	b8 01 00 00 00       	mov    eax,0x1
     38d:	48 89 46 f8          	mov    QWORD PTR [rsi-0x8],rax
     391:	48 31 f6             	xor    rsi,rsi
     394:	48 b8 00 00 00 00 00 	movabs rax,0x0
     39b:	00 00 00 
			396: R_X86_64_64	do_callback
     39e:	48 89 5c 24 58       	mov    QWORD PTR [rsp+0x58],rbx
     3a3:	48 89 7c 24 60       	mov    QWORD PTR [rsp+0x60],rdi
     3a8:	4c 89 6c 24 68       	mov    QWORD PTR [rsp+0x68],r13
     3ad:	ff d0                	call   rax
     3af:	48 8b 5c 24 58       	mov    rbx,QWORD PTR [rsp+0x58]
     3b4:	4c 8b 6c 24 68       	mov    r13,QWORD PTR [rsp+0x68]
     3b9:	48 89 c6             	mov    rsi,rax
     3bc:	48 89 74 24 58       	mov    QWORD PTR [rsp+0x58],rsi
     3c1:	49 8b b4 24 98 00 00 	mov    rsi,QWORD PTR [r12+0x98]
     3c8:	00 
     3c9:	49 8b 7d 08          	mov    rdi,QWORD PTR [r13+0x8]
     3cd:	49 89 b4 24 98 00 00 	mov    QWORD PTR [r12+0x98],rsi
     3d4:	00 
     3d5:	48 89 5e e0          	mov    QWORD PTR [rsi-0x20],rbx
     3d9:	4c 89 7e e8          	mov    QWORD PTR [rsi-0x18],r15
     3dd:	b8 01 00 00 00       	mov    eax,0x1
     3e2:	48 89 46 f0          	mov    QWORD PTR [rsi-0x10],rax
     3e6:	b8 01 00 00 00       	mov    eax,0x1
     3eb:	48 89 46 f8          	mov    QWORD PTR [rsi-0x8],rax
     3ef:	48 31 f6             	xor    rsi,rsi
     3f2:	48 b8 00 00 00 00 00 	movabs rax,0x0
     3f9:	00 00 00 
			3f4: R_X86_64_64	do_callback
     3fc:	48 89 5c 24 60       	mov    QWORD PTR [rsp+0x60],rbx
     401:	48 89 7c 24 68       	mov    QWORD PTR [rsp+0x68],rdi
     406:	4c 89 6c 24 70       	mov    QWORD PTR [rsp+0x70],r13
     40b:	ff d0                	call   rax
     40d:	48 8b 5c 24 60       	mov    rbx,QWORD PTR [rsp+0x60]
     412:	4c 8b 6c 24 70       	mov    r13,QWORD PTR [rsp+0x70]
     417:	48 89 c6             	mov    rsi,rax
     41a:	48 89 74 24 60       	mov    QWORD PTR [rsp+0x60],rsi
     41f:	49 8b b4 24 98 00 00 	mov    rsi,QWORD PTR [r12+0x98]
     426:	00 
     427:	49 8b 7d 08          	mov    rdi,QWORD PTR [r13+0x8]
     42b:	49 89 b4 24 98 00 00 	mov    QWORD PTR [r12+0x98],rsi
     432:	00 
     433:	48 89 5e e0          	mov    QWORD PTR [rsi-0x20],rbx
     437:	4c 89 7e e8          	mov    QWORD PTR [rsi-0x18],r15
     43b:	b8 01 00 00 00       	mov    eax,0x1
     440:	48 89 46 f0          	mov    QWORD PTR [rsi-0x10],rax
     444:	b8 01 00 00 00       	mov    eax,0x1
     449:	48 89 46 f8          	mov    QWORD PTR [rsi-0x8],rax
     44d:	48 31 f6             	xor    rsi,rsi
     450:	48 b8 00 00 00 00 00 	movabs rax,0x0
     457:	00 00 00 
			452: R_X86_64_64	do_callback
     45a:	48 89 5c 24 68       	mov    QWORD PTR [rsp+0x68],rbx
     45f:	48 89 7c 24 70       	mov    QWORD PTR [rsp+0x70],rdi
     464:	4c 89 6c 24 78       	mov    QWORD PTR [rsp+0x78],r13
     469:	ff d0                	call   rax
     46b:	48 8b 5c 24 68       	mov    rbx,QWORD PTR [rsp+0x68]
     470:	4c 8b 6c 24 78       	mov    r13,QWORD PTR [rsp+0x78]
     475:	48 89 c6             	mov    rsi,rax
     478:	48 89 74 24 68       	mov    QWORD PTR [rsp+0x68],rsi
     47d:	49 8b b4 24 98 00 00 	mov    rsi,QWORD PTR [r12+0x98]
     484:	00 
     485:	49 8b 7d 08          	mov    rdi,QWORD PTR [r13+0x8]
     489:	49 89 b4 24 98 00 00 	mov    QWORD PTR [r12+0x98],rsi
     490:	00 
     491:	48 89 5e e0          	mov    QWORD PTR [rsi-0x20],rbx
     495:	4c 89 7e e8          	mov    QWORD PTR [rsi-0x18],r15
     499:	b8 01 00 00 00       	mov    eax,0x1
     49e:	48 89 46 f0          	mov    QWORD PTR [rsi-0x10],rax
     4a2:	b8 01 00 00 00       	mov    eax,0x1
     4a7:	48 89 46 f8          	mov    QWORD PTR [rsi-0x8],rax
     4ab:	48 31 f6             	xor    rsi,rsi
     4ae:	48 b8 00 00 00 00 00 	movabs rax,0x0
     4b5:	00 00 00 
			4b0: R_X86_64_64	do_callback
     4b8:	48 89 5c 24 70       	mov    QWORD PTR [rsp+0x70],rbx
     4bd:	48 89 7c 24 78       	mov    QWORD PTR [rsp+0x78],rdi
     4c2:	4c 89 ac 24 80 00 00 	mov    QWORD PTR [rsp+0x80],r13
     4c9:	00 
     4ca:	ff d0                	call   rax
     4cc:	48 8b 5c 24 70       	mov    rbx,QWORD PTR [rsp+0x70]
     4d1:	4c 8b ac 24 80 00 00 	mov    r13,QWORD PTR [rsp+0x80]
     4d8:	00 
     4d9:	48 89 c6             	mov    rsi,rax
     4dc:	48 89 74 24 70       	mov    QWORD PTR [rsp+0x70],rsi
     4e1:	49 8b b4 24 98 00 00 	mov    rsi,QWORD PTR [r12+0x98]
     4e8:	00 
     4e9:	49 8b 7d 08          	mov    rdi,QWORD PTR [r13+0x8]
     4ed:	49 89 b4 24 98 00 00 	mov    QWORD PTR [r12+0x98],rsi
     4f4:	00 
     4f5:	48 89 5e e0          	mov    QWORD PTR [rsi-0x20],rbx
     4f9:	4c 89 7e e8          	mov    QWORD PTR [rsi-0x18],r15
     4fd:	b8 01 00 00 00       	mov    eax,0x1
     502:	48 89 46 f0          	mov    QWORD PTR [rsi-0x10],rax
     506:	b8 01 00 00 00       	mov    eax,0x1
     50b:	48 89 46 f8          	mov    QWORD PTR [rsi-0x8],rax
     50f:	48 31 f6             	xor    rsi,rsi
     512:	48 b8 00 00 00 00 00 	movabs rax,0x0
     519:	00 00 00 
			514: R_X86_64_64	do_callback
     51c:	48 89 5c 24 78       	mov    QWORD PTR [rsp+0x78],rbx
     521:	48 89 bc 24 80 00 00 	mov    QWORD PTR [rsp+0x80],rdi
     528:	00 
     529:	4c 89 ac 24 88 00 00 	mov    QWORD PTR [rsp+0x88],r13
     530:	00 
     531:	ff d0                	call   rax
     533:	48 8b 5c 24 78       	mov    rbx,QWORD PTR [rsp+0x78]
     538:	4c 8b ac 24 88 00 00 	mov    r13,QWORD PTR [rsp+0x88]
     53f:	00 
     540:	48 89 c6             	mov    rsi,rax
     543:	48 89 74 24 78       	mov    QWORD PTR [rsp+0x78],rsi
     548:	49 8b b4 24 98 00 00 	mov    rsi,QWORD PTR [r12+0x98]
     54f:	00 
     550:	49 8b 7d 08          	mov    rdi,QWORD PTR [r13+0x8]
     554:	49 89 b4 24 98 00 00 	mov    QWORD PTR [r12+0x98],rsi
     55b:	00 
     55c:	48 89 5e e0          	mov    QWORD PTR [rsi-0x20],rbx
     560:	4c 89 7e e8          	mov    QWORD PTR [rsi-0x18],r15
     564:	b8 01 00 00 00       	mov    eax,0x1
     569:	48 89 46 f0          	mov    QWORD PTR [rsi-0x10],rax
     56d:	b8 01 00 00 00       	mov    eax,0x1
     572:	48 89 46 f8          	mov    QWORD PTR [rsi-0x8],rax
     576:	48 31 f6             	xor    rsi,rsi
     579:	48 b8 00 00 00 00 00 	movabs rax,0x0
     580:	00 00 00 
			57b: R_X86_64_64	do_callback
     583:	48 89 9c 24 80 00 00 	mov    QWORD PTR [rsp+0x80],rbx
     58a:	00 
     58b:	48 89 bc 24 88 00 00 	mov    QWORD PTR [rsp+0x88],rdi
     592:	00 
     593:	4c 89 ac 24 90 00 00 	mov    QWORD PTR [rsp+0x90],r13
     59a:	00 
     59b:	ff d0                	call   rax
     59d:	48 8b 9c 24 80 00 00 	mov    rbx,QWORD PTR [rsp+0x80]
     5a4:	00 
     5a5:	4c 8b ac 24 90 00 00 	mov    r13,QWORD PTR [rsp+0x90]
     5ac:	00 
     5ad:	48 89 c6             	mov    rsi,rax
     5b0:	48 89 b4 24 80 00 00 	mov    QWORD PTR [rsp+0x80],rsi
     5b7:	00 
     5b8:	49 8b b4 24 98 00 00 	mov    rsi,QWORD PTR [r12+0x98]
     5bf:	00 
     5c0:	49 8b 7d 08          	mov    rdi,QWORD PTR [r13+0x8]
     5c4:	49 89 b4 24 98 00 00 	mov    QWORD PTR [r12+0x98],rsi
     5cb:	00 
     5cc:	48 89 5e e0          	mov    QWORD PTR [rsi-0x20],rbx
     5d0:	4c 89 7e e8          	mov    QWORD PTR [rsi-0x18],r15
     5d4:	b8 01 00 00 00       	mov    eax,0x1
     5d9:	48 89 46 f0          	mov    QWORD PTR [rsi-0x10],rax
     5dd:	b8 01 00 00 00       	mov    eax,0x1
     5e2:	48 89 46 f8          	mov    QWORD PTR [rsi-0x8],rax
     5e6:	48 31 f6             	xor    rsi,rsi
     5e9:	48 b8 00 00 00 00 00 	movabs rax,0x0
     5f0:	00 00 00 
			5eb: R_X86_64_64	do_callback
     5f3:	48 89 9c 24 88 00 00 	mov    QWORD PTR [rsp+0x88],rbx
     5fa:	00 
     5fb:	48 89 bc 24 90 00 00 	mov    QWORD PTR [rsp+0x90],rdi
     602:	00 
     603:	4c 89 ac 24 98 00 00 	mov    QWORD PTR [rsp+0x98],r13
     60a:	00 
     60b:	ff d0                	call   rax
     60d:	48 8b 9c 24 88 00 00 	mov    rbx,QWORD PTR [rsp+0x88]
     614:	00 
     615:	4c 8b ac 24 98 00 00 	mov    r13,QWORD PTR [rsp+0x98]
     61c:	00 
     61d:	48 89 c6             	mov    rsi,rax
     620:	48 89 b4 24 88 00 00 	mov    QWORD PTR [rsp+0x88],rsi
     627:	00 
     628:	49 8b b4 24 98 00 00 	mov    rsi,QWORD PTR [r12+0x98]
     62f:	00 
     630:	49 8b 7d 08          	mov    rdi,QWORD PTR [r13+0x8]
     634:	49 89 b4 24 98 00 00 	mov    QWORD PTR [r12+0x98],rsi
     63b:	00 
     63c:	48 89 5e e0          	mov    QWORD PTR [rsi-0x20],rbx
     640:	4c 89 7e e8          	mov    QWORD PTR [rsi-0x18],r15
     644:	b8 01 00 00 00       	mov    eax,0x1
     649:	48 89 46 f0          	mov    QWORD PTR [rsi-0x10],rax
     64d:	b8 01 00 00 00       	mov    eax,0x1
     652:	48 89 46 f8          	mov    QWORD PTR [rsi-0x8],rax
     656:	48 31 f6             	xor    rsi,rsi
     659:	48 b8 00 00 00 00 00 	movabs rax,0x0
     660:	00 00 00 
			65b: R_X86_64_64	do_callback
     663:	48 89 9c 24 90 00 00 	mov    QWORD PTR [rsp+0x90],rbx
     66a:	00 
     66b:	48 89 bc 24 98 00 00 	mov    QWORD PTR [rsp+0x98],rdi
     672:	00 
     673:	4c 89 ac 24 a0 00 00 	mov    QWORD PTR [rsp+0xa0],r13
     67a:	00 
     67b:	ff d0                	call   rax
     67d:	48 8b 9c 24 90 00 00 	mov    rbx,QWORD PTR [rsp+0x90]
     684:	00 
     685:	4c 8b ac 24 a0 00 00 	mov    r13,QWORD PTR [rsp+0xa0]
     68c:	00 
     68d:	48 89 c6             	mov    rsi,rax
     690:	48 89 b4 24 90 00 00 	mov    QWORD PTR [rsp+0x90],rsi
     697:	00 
     698:	49 8b b4 24 98 00 00 	mov    rsi,QWORD PTR [r12+0x98]
     69f:	00 
     6a0:	49 8b 7d 08          	mov    rdi,QWORD PTR [r13+0x8]
     6a4:	49 89 b4 24 98 00 00 	mov    QWORD PTR [r12+0x98],rsi
     6ab:	00 
     6ac:	48 89 5e e0          	mov    QWORD PTR [rsi-0x20],rbx
     6b0:	4c 89 7e e8          	mov    QWORD PTR [rsi-0x18],r15
     6b4:	b8 01 00 00 00       	mov    eax,0x1
     6b9:	48 89 46 f0          	mov    QWORD PTR [rsi-0x10],rax
     6bd:	b8 01 00 00 00       	mov    eax,0x1
     6c2:	48 89 46 f8          	mov    QWORD PTR [rsi-0x8],rax
     6c6:	48 31 f6             	xor    rsi,rsi
     6c9:	48 b8 00 00 00 00 00 	movabs rax,0x0
     6d0:	00 00 00 
			6cb: R_X86_64_64	do_callback
     6d3:	48 89 9c 24 98 00 00 	mov    QWORD PTR [rsp+0x98],rbx
     6da:	00 
     6db:	48 89 bc 24 a0 00 00 	mov    QWORD PTR [rsp+0xa0],rdi
     6e2:	00 
     6e3:	4c 89 ac 24 a8 00 00 	mov    QWORD PTR [rsp+0xa8],r13
     6ea:	00 
     6eb:	ff d0                	call   rax
     6ed:	48 8b 9c 24 98 00 00 	mov    rbx,QWORD PTR [rsp+0x98]
     6f4:	00 
     6f5:	4c 8b ac 24 a8 00 00 	mov    r13,QWORD PTR [rsp+0xa8]
     6fc:	00 
     6fd:	48 89 c6             	mov    rsi,rax
     700:	48 89 b4 24 98 00 00 	mov    QWORD PTR [rsp+0x98],rsi
     707:	00 
     708:	49 8b b4 24 98 00 00 	mov    rsi,QWORD PTR [r12+0x98]
     70f:	00 
     710:	49 8b 7d 08          	mov    rdi,QWORD PTR [r13+0x8]
     714:	49 89 b4 24 98 00 00 	mov    QWORD PTR [r12+0x98],rsi
     71b:	00 
     71c:	48 89 5e e0          	mov    QWORD PTR [rsi-0x20],rbx
     720:	4c 89 7e e8          	mov    QWORD PTR [rsi-0x18],r15
     724:	b8 01 00 00 00       	mov    eax,0x1
     729:	48 89 46 f0          	mov    QWORD PTR [rsi-0x10],rax
     72d:	b8 01 00 00 00       	mov    eax,0x1
     732:	48 89 46 f8          	mov    QWORD PTR [rsi-0x8],rax
     736:	48 31 f6             	xor    rsi,rsi
     739:	48 b8 00 00 00 00 00 	movabs rax,0x0
     740:	00 00 00 
			73b: R_X86_64_64	do_callback
     743:	48 89 9c 24 a0 00 00 	mov    QWORD PTR [rsp+0xa0],rbx
     74a:	00 
     74b:	48 89 bc 24 a8 00 00 	mov    QWORD PTR [rsp+0xa8],rdi
     752:	00 
     753:	4c 89 ac 24 b0 00 00 	mov    QWORD PTR [rsp+0xb0],r13
     75a:	00 
     75b:	ff d0                	call   rax
     75d:	48 8b 9c 24 a0 00 00 	mov    rbx,QWORD PTR [rsp+0xa0]
     764:	00 
     765:	4c 8b ac 24 b0 00 00 	mov    r13,QWORD PTR [rsp+0xb0]
     76c:	00 
     76d:	48 89 c6             	mov    rsi,rax
     770:	48 89 b4 24 a0 00 00 	mov    QWORD PTR [rsp+0xa0],rsi
     777:	00 
     778:	49 8b b4 24 98 00 00 	mov    rsi,QWORD PTR [r12+0x98]
     77f:	00 
     780:	49 8b 7d 08          	mov    rdi,QWORD PTR [r13+0x8]
     784:	49 89 b4 24 98 00 00 	mov    QWORD PTR [r12+0x98],rsi
     78b:	00 
     78c:	48 89 5e e0          	mov    QWORD PTR [rsi-0x20],rbx
     790:	4c 89 7e e8          	mov    QWORD PTR [rsi-0x18],r15
     794:	b8 01 00 00 00       	mov    eax,0x1
     799:	48 89 46 f0          	mov    QWORD PTR [rsi-0x10],rax
     79d:	b8 01 00 00 00       	mov    eax,0x1
     7a2:	48 89 46 f8          	mov    QWORD PTR [rsi-0x8],rax
     7a6:	48 31 f6             	xor    rsi,rsi
     7a9:	48 b8 00 00 00 00 00 	movabs rax,0x0
     7b0:	00 00 00 
			7ab: R_X86_64_64	do_callback
     7b3:	48 89 9c 24 a8 00 00 	mov    QWORD PTR [rsp+0xa8],rbx
     7ba:	00 
     7bb:	48 89 bc 24 b0 00 00 	mov    QWORD PTR [rsp+0xb0],rdi
     7c2:	00 
     7c3:	4c 89 ac 24 b8 00 00 	mov    QWORD PTR [rsp+0xb8],r13
     7ca:	00 
     7cb:	ff d0                	call   rax
     7cd:	48 8b 9c 24 a8 00 00 	mov    rbx,QWORD PTR [rsp+0xa8]
     7d4:	00 
     7d5:	4c 8b ac 24 b8 00 00 	mov    r13,QWORD PTR [rsp+0xb8]
     7dc:	00 
     7dd:	48 89 c6             	mov    rsi,rax
     7e0:	48 89 b4 24 a8 00 00 	mov    QWORD PTR [rsp+0xa8],rsi
     7e7:	00 
     7e8:	49 8b b4 24 98 00 00 	mov    rsi,QWORD PTR [r12+0x98]
     7ef:	00 
     7f0:	49 8b 7d 08          	mov    rdi,QWORD PTR [r13+0x8]
     7f4:	49 89 b4 24 98 00 00 	mov    QWORD PTR [r12+0x98],rsi
     7fb:	00 
     7fc:	48 89 5e e0          	mov    QWORD PTR [rsi-0x20],rbx
     800:	4c 89 7e e8          	mov    QWORD PTR [rsi-0x18],r15
     804:	b8 01 00 00 00       	mov    eax,0x1
     809:	48 89 46 f0          	mov    QWORD PTR [rsi-0x10],rax
     80d:	b8 01 00 00 00       	mov    eax,0x1
     812:	48 89 46 f8          	mov    QWORD PTR [rsi-0x8],rax
     816:	48 31 f6             	xor    rsi,rsi
     819:	48 b8 00 00 00 00 00 	movabs rax,0x0
     820:	00 00 00 
			81b: R_X86_64_64	do_callback
     823:	48 89 9c 24 b0 00 00 	mov    QWORD PTR [rsp+0xb0],rbx
     82a:	00 
     82b:	48 89 bc 24 b8 00 00 	mov    QWORD PTR [rsp+0xb8],rdi
     832:	00 
     833:	4c 89 ac 24 c0 00 00 	mov    QWORD PTR [rsp+0xc0],r13
     83a:	00 
     83b:	ff d0                	call   rax
     83d:	48 8b 9c 24 b0 00 00 	mov    rbx,QWORD PTR [rsp+0xb0]
     844:	00 
     845:	4c 8b ac 24 c0 00 00 	mov    r13,QWORD PTR [rsp+0xc0]
     84c:	00 
     84d:	48 89 c6             	mov    rsi,rax
     850:	48 89 b4 24 b0 00 00 	mov    QWORD PTR [rsp+0xb0],rsi
     857:	00 
     858:	49 8b b4 24 98 00 00 	mov    rsi,QWORD PTR [r12+0x98]
     85f:	00 
     860:	49 8b 7d 08          	mov    rdi,QWORD PTR [r13+0x8]
     864:	49 89 b4 24 98 00 00 	mov    QWORD PTR [r12+0x98],rsi
     86b:	00 
     86c:	48 89 5e e0          	mov    QWORD PTR [rsi-0x20],rbx
     870:	4c 89 7e e8          	mov    QWORD PTR [rsi-0x18],r15
     874:	b8 01 00 00 00       	mov    eax,0x1
     879:	48 89 46 f0          	mov    QWORD PTR [rsi-0x10],rax
     87d:	b8 01 00 00 00       	mov    eax,0x1
     882:	48 89 46 f8          	mov    QWORD PTR [rsi-0x8],rax
     886:	48 31 f6             	xor    rsi,rsi
     889:	48 b8 00 00 00 00 00 	movabs rax,0x0
     890:	00 00 00 
			88b: R_X86_64_64	do_callback
     893:	48 89 9c 24 b8 00 00 	mov    QWORD PTR [rsp+0xb8],rbx
     89a:	00 
     89b:	48 89 bc 24 c0 00 00 	mov    QWORD PTR [rsp+0xc0],rdi
     8a2:	00 
     8a3:	4c 89 ac 24 c8 00 00 	mov    QWORD PTR [rsp+0xc8],r13
     8aa:	00 
     8ab:	ff d0                	call   rax
     8ad:	48 8b 9c 24 b8 00 00 	mov    rbx,QWORD PTR [rsp+0xb8]
     8b4:	00 
     8b5:	4c 8b ac 24 c8 00 00 	mov    r13,QWORD PTR [rsp+0xc8]
     8bc:	00 
     8bd:	48 89 c6             	mov    rsi,rax
     8c0:	48 89 b4 24 b8 00 00 	mov    QWORD PTR [rsp+0xb8],rsi
     8c7:	00 
     8c8:	49 8b b4 24 98 00 00 	mov    rsi,QWORD PTR [r12+0x98]
     8cf:	00 
     8d0:	49 8b 7d 08          	mov    rdi,QWORD PTR [r13+0x8]
     8d4:	49 89 b4 24 98 00 00 	mov    QWORD PTR [r12+0x98],rsi
     8db:	00 
     8dc:	48 89 5e e0          	mov    QWORD PTR [rsi-0x20],rbx
     8e0:	4c 89 7e e8          	mov    QWORD PTR [rsi-0x18],r15
     8e4:	b8 01 00 00 00       	mov    eax,0x1
     8e9:	48 89 46 f0          	mov    QWORD PTR [rsi-0x10],rax
     8ed:	b8 01 00 00 00       	mov    eax,0x1
     8f2:	48 89 46 f8          	mov    QWORD PTR [rsi-0x8],rax
     8f6:	48 31 f6             	xor    rsi,rsi
     8f9:	48 b8 00 00 00 00 00 	movabs rax,0x0
     900:	00 00 00 
			8fb: R_X86_64_64	do_callback
     903:	48 89 9c 24 c0 00 00 	mov    QWORD PTR [rsp+0xc0],rbx
     90a:	00 
     90b:	48 89 bc 24 c8 00 00 	mov    QWORD PTR [rsp+0xc8],rdi
     912:	00 
     913:	4c 89 ac 24 d0 00 00 	mov    QWORD PTR [rsp+0xd0],r13
     91a:	00 
     91b:	ff d0                	call   rax
     91d:	48 8b 9c 24 c0 00 00 	mov    rbx,QWORD PTR [rsp+0xc0]
     924:	00 
     925:	4c 8b ac 24 d0 00 00 	mov    r13,QWORD PTR [rsp+0xd0]
     92c:	00 
     92d:	48 89 c6             	mov    rsi,rax
     930:	48 89 b4 24 c0 00 00 	mov    QWORD PTR [rsp+0xc0],rsi
     937:	00 
     938:	49 8b b4 24 98 00 00 	mov    rsi,QWORD PTR [r12+0x98]
     93f:	00 
     940:	49 8b 7d 08          	mov    rdi,QWORD PTR [r13+0x8]
     944:	49 89 b4 24 98 00 00 	mov    QWORD PTR [r12+0x98],rsi
     94b:	00 
     94c:	48 89 5e e0          	mov    QWORD PTR [rsi-0x20],rbx
     950:	4c 89 7e e8          	mov    QWORD PTR [rsi-0x18],r15
     954:	b8 01 00 00 00       	mov    eax,0x1
     959:	48 89 46 f0          	mov    QWORD PTR [rsi-0x10],rax
     95d:	b8 01 00 00 00       	mov    eax,0x1
     962:	48 89 46 f8          	mov    QWORD PTR [rsi-0x8],rax
     966:	48 31 f6             	xor    rsi,rsi
     969:	48 b8 00 00 00 00 00 	movabs rax,0x0
     970:	00 00 00 
			96b: R_X86_64_64	do_callback
     973:	48 89 9c 24 c8 00 00 	mov    QWORD PTR [rsp+0xc8],rbx
     97a:	00 
     97b:	48 89 bc 24 d0 00 00 	mov    QWORD PTR [rsp+0xd0],rdi
     982:	00 
     983:	4c 89 ac 24 d8 00 00 	mov    QWORD PTR [rsp+0xd8],r13
     98a:	00 
     98b:	ff d0                	call   rax
     98d:	48 8b 9c 24 c8 00 00 	mov    rbx,QWORD PTR [rsp+0xc8]
     994:	00 
     995:	4c 8b ac 24 d8 00 00 	mov    r13,QWORD PTR [rsp+0xd8]
     99c:	00 
     99d:	48 89 c6             	mov    rsi,rax
     9a0:	48 89 b4 24 c8 00 00 	mov    QWORD PTR [rsp+0xc8],rsi
     9a7:	00 
     9a8:	49 8b b4 24 98 00 00 	mov    rsi,QWORD PTR [r12+0x98]
     9af:	00 
     9b0:	49 8b 7d 08          	mov    rdi,QWORD PTR [r13+0x8]
     9b4:	49 89 b4 24 98 00 00 	mov    QWORD PTR [r12+0x98],rsi
     9bb:	00 
     9bc:	48 89 5e e0          	mov    QWORD PTR [rsi-0x20],rbx
     9c0:	4c 89 7e e8          	mov    QWORD PTR [rsi-0x18],r15
     9c4:	b8 01 00 00 00       	mov    eax,0x1
     9c9:	48 89 46 f0          	mov    QWORD PTR [rsi-0x10],rax
     9cd:	b8 01 00 00 00       	mov    eax,0x1
     9d2:	48 89 46 f8          	mov    QWORD PTR [rsi-0x8],rax
     9d6:	48 31 f6             	xor    rsi,rsi
     9d9:	48 b8 00 00 00 00 00 	movabs rax,0x0
     9e0:	00 00 00 
			9db: R_X86_64_64	do_callback
     9e3:	48 89 9c 24 d0 00 00 	mov    QWORD PTR [rsp+0xd0],rbx
     9ea:	00 
     9eb:	48 89 bc 24 d8 00 00 	mov    QWORD PTR [rsp+0xd8],rdi
     9f2:	00 
     9f3:	4c 89 ac 24 e0 00 00 	mov    QWORD PTR [rsp+0xe0],r13
     9fa:	00 
     9fb:	ff d0                	call   rax
     9fd:	48 8b 9c 24 d0 00 00 	mov    rbx,QWORD PTR [rsp+0xd0]
     a04:	00 
     a05:	4c 8b ac 24 e0 00 00 	mov    r13,QWORD PTR [rsp+0xe0]
     a0c:	00 
     a0d:	48 89 c6             	mov    rsi,rax
     a10:	48 89 b4 24 d0 00 00 	mov    QWORD PTR [rsp+0xd0],rsi
     a17:	00 
     a18:	49 8b b4 24 98 00 00 	mov    rsi,QWORD PTR [r12+0x98]
     a1f:	00 
     a20:	49 8b 7d 08          	mov    rdi,QWORD PTR [r13+0x8]
     a24:	49 89 b4 24 98 00 00 	mov    QWORD PTR [r12+0x98],rsi
     a2b:	00 
     a2c:	48 89 5e e0          	mov    QWORD PTR [rsi-0x20],rbx
     a30:	4c 89 7e e8          	mov    QWORD PTR [rsi-0x18],r15
     a34:	b8 01 00 00 00       	mov    eax,0x1
     a39:	48 89 46 f0          	mov    QWORD PTR [rsi-0x10],rax
     a3d:	b8 01 00 00 00       	mov    eax,0x1
     a42:	48 89 46 f8          	mov    QWORD PTR [rsi-0x8],rax
     a46:	48 31 f6             	xor    rsi,rsi
     a49:	48 b8 00 00 00 00 00 	movabs rax,0x0
     a50:	00 00 00 
			a4b: R_X86_64_64	do_callback
     a53:	48 89 9c 24 d8 00 00 	mov    QWORD PTR [rsp+0xd8],rbx
     a5a:	00 
     a5b:	48 89 bc 24 e0 00 00 	mov    QWORD PTR [rsp+0xe0],rdi
     a62:	00 
     a63:	4c 89 ac 24 e8 00 00 	mov    QWORD PTR [rsp+0xe8],r13
     a6a:	00 
     a6b:	ff d0                	call   rax
     a6d:	48 8b 9c 24 d8 00 00 	mov    rbx,QWORD PTR [rsp+0xd8]
     a74:	00 
     a75:	4c 8b ac 24 e8 00 00 	mov    r13,QWORD PTR [rsp+0xe8]
     a7c:	00 
     a7d:	48 89 c6             	mov    rsi,rax
     a80:	48 89 b4 24 d8 00 00 	mov    QWORD PTR [rsp+0xd8],rsi
     a87:	00 
     a88:	49 8b b4 24 98 00 00 	mov    rsi,QWORD PTR [r12+0x98]
     a8f:	00 
     a90:	49 8b 7d 08          	mov    rdi,QWORD PTR [r13+0x8]
     a94:	49 89 b4 24 98 00 00 	mov    QWORD PTR [r12+0x98],rsi
     a9b:	00 
     a9c:	48 89 5e e0          	mov    QWORD PTR [rsi-0x20],rbx
     aa0:	4c 89 7e e8          	mov    QWORD PTR [rsi-0x18],r15
     aa4:	b8 01 00 00 00       	mov    eax,0x1
     aa9:	48 89 46 f0          	mov    QWORD PTR [rsi-0x10],rax
     aad:	b8 01 00 00 00       	mov    eax,0x1
     ab2:	48 89 46 f8          	mov    QWORD PTR [rsi-0x8],rax
     ab6:	48 31 f6             	xor    rsi,rsi
     ab9:	48 b8 00 00 00 00 00 	movabs rax,0x0
     ac0:	00 00 00 
			abb: R_X86_64_64	do_callback
     ac3:	48 89 9c 24 e0 00 00 	mov    QWORD PTR [rsp+0xe0],rbx
     aca:	00 
     acb:	48 89 bc 24 e8 00 00 	mov    QWORD PTR [rsp+0xe8],rdi
     ad2:	00 
     ad3:	4c 89 ac 24 f0 00 00 	mov    QWORD PTR [rsp+0xf0],r13
     ada:	00 
     adb:	ff d0                	call   rax
     add:	48 8b 9c 24 e0 00 00 	mov    rbx,QWORD PTR [rsp+0xe0]
     ae4:	00 
     ae5:	4c 8b ac 24 f0 00 00 	mov    r13,QWORD PTR [rsp+0xf0]
     aec:	00 
     aed:	48 89 c6             	mov    rsi,rax
     af0:	48 89 b4 24 e0 00 00 	mov    QWORD PTR [rsp+0xe0],rsi
     af7:	00 
     af8:	49 8b b4 24 98 00 00 	mov    rsi,QWORD PTR [r12+0x98]
     aff:	00 
     b00:	49 8b 7d 08          	mov    rdi,QWORD PTR [r13+0x8]
     b04:	49 89 b4 24 98 00 00 	mov    QWORD PTR [r12+0x98],rsi
     b0b:	00 
     b0c:	48 89 5e e0          	mov    QWORD PTR [rsi-0x20],rbx
     b10:	4c 89 7e e8          	mov    QWORD PTR [rsi-0x18],r15
     b14:	b8 01 00 00 00       	mov    eax,0x1
     b19:	48 89 46 f0          	mov    QWORD PTR [rsi-0x10],rax
     b1d:	b8 01 00 00 00       	mov    eax,0x1
     b22:	48 89 46 f8          	mov    QWORD PTR [rsi-0x8],rax
     b26:	48 31 f6             	xor    rsi,rsi
     b29:	48 b8 00 00 00 00 00 	movabs rax,0x0
     b30:	00 00 00 
			b2b: R_X86_64_64	do_callback
     b33:	48 89 9c 24 e8 00 00 	mov    QWORD PTR [rsp+0xe8],rbx
     b3a:	00 
     b3b:	48 89 bc 24 f0 00 00 	mov    QWORD PTR [rsp+0xf0],rdi
     b42:	00 
     b43:	4c 89 ac 24 f8 00 00 	mov    QWORD PTR [rsp+0xf8],r13
     b4a:	00 
     b4b:	ff d0                	call   rax
     b4d:	48 8b 9c 24 e8 00 00 	mov    rbx,QWORD PTR [rsp+0xe8]
     b54:	00 
     b55:	4c 8b ac 24 f8 00 00 	mov    r13,QWORD PTR [rsp+0xf8]
     b5c:	00 
     b5d:	48 89 c6             	mov    rsi,rax
     b60:	48 89 b4 24 e8 00 00 	mov    QWORD PTR [rsp+0xe8],rsi
     b67:	00 
     b68:	49 8b b4 24 98 00 00 	mov    rsi,QWORD PTR [r12+0x98]
     b6f:	00 
     b70:	49 8b 7d 08          	mov    rdi,QWORD PTR [r13+0x8]
     b74:	49 89 b4 24 98 00 00 	mov    QWORD PTR [r12+0x98],rsi
     b7b:	00 
     b7c:	48 89 5e e0          	mov    QWORD PTR [rsi-0x20],rbx
     b80:	4c 89 7e e8          	mov    QWORD PTR [rsi-0x18],r15
     b84:	b8 01 00 00 00       	mov    eax,0x1
     b89:	48 89 46 f0          	mov    QWORD PTR [rsi-0x10],rax
     b8d:	b8 01 00 00 00       	mov    eax,0x1
     b92:	48 89 46 f8          	mov    QWORD PTR [rsi-0x8],rax
     b96:	48 31 f6             	xor    rsi,rsi
     b99:	48 b8 00 00 00 00 00 	movabs rax,0x0
     ba0:	00 00 00 
			b9b: R_X86_64_64	do_callback
     ba3:	48 89 9c 24 f0 00 00 	mov    QWORD PTR [rsp+0xf0],rbx
     baa:	00 
     bab:	48 89 bc 24 f8 00 00 	mov    QWORD PTR [rsp+0xf8],rdi
     bb2:	00 
     bb3:	4c 89 ac 24 00 01 00 	mov    QWORD PTR [rsp+0x100],r13
     bba:	00 
     bbb:	ff d0                	call   rax
     bbd:	48 8b 9c 24 f0 00 00 	mov    rbx,QWORD PTR [rsp+0xf0]
     bc4:	00 
     bc5:	4c 8b ac 24 00 01 00 	mov    r13,QWORD PTR [rsp+0x100]
     bcc:	00 
     bcd:	48 89 c6             	mov    rsi,rax
     bd0:	48 89 b4 24 f0 00 00 	mov    QWORD PTR [rsp+0xf0],rsi
     bd7:	00 
     bd8:	49 8b b4 24 98 00 00 	mov    rsi,QWORD PTR [r12+0x98]
     bdf:	00 
     be0:	49 8b 7d 08          	mov    rdi,QWORD PTR [r13+0x8]
     be4:	49 89 b4 24 98 00 00 	mov    QWORD PTR [r12+0x98],rsi
     beb:	00 
     bec:	48 89 5e e0          	mov    QWORD PTR [rsi-0x20],rbx
     bf0:	4c 89 7e e8          	mov    QWORD PTR [rsi-0x18],r15
     bf4:	b8 01 00 00 00       	mov    eax,0x1
     bf9:	48 89 46 f0          	mov    QWORD PTR [rsi-0x10],rax
     bfd:	b8 01 00 00 00       	mov    eax,0x1
     c02:	48 89 46 f8          	mov    QWORD PTR [rsi-0x8],rax
     c06:	48 31 f6             	xor    rsi,rsi
     c09:	48 b8 00 00 00 00 00 	movabs rax,0x0
     c10:	00 00 00 
			c0b: R_X86_64_64	do_callback
     c13:	48 89 9c 24 f8 00 00 	mov    QWORD PTR [rsp+0xf8],rbx
     c1a:	00 
     c1b:	48 89 bc 24 00 01 00 	mov    QWORD PTR [rsp+0x100],rdi
     c22:	00 
     c23:	4c 89 ac 24 08 01 00 	mov    QWORD PTR [rsp+0x108],r13
     c2a:	00 
     c2b:	ff d0                	call   rax
     c2d:	48 8b 9c 24 f8 00 00 	mov    rbx,QWORD PTR [rsp+0xf8]
     c34:	00 
     c35:	4c 8b ac 24 08 01 00 	mov    r13,QWORD PTR [rsp+0x108]
     c3c:	00 
     c3d:	48 89 c6             	mov    rsi,rax
     c40:	48 89 b4 24 f8 00 00 	mov    QWORD PTR [rsp+0xf8],rsi
     c47:	00 
     c48:	49 8b b4 24 98 00 00 	mov    rsi,QWORD PTR [r12+0x98]
     c4f:	00 
     c50:	49 8b 7d 08          	mov    rdi,QWORD PTR [r13+0x8]
     c54:	49 89 b4 24 98 00 00 	mov    QWORD PTR [r12+0x98],rsi
     c5b:	00 
     c5c:	48 89 5e e0          	mov    QWORD PTR [rsi-0x20],rbx
     c60:	4c 89 7e e8          	mov    QWORD PTR [rsi-0x18],r15
     c64:	b8 01 00 00 00       	mov    eax,0x1
     c69:	48 89 46 f0          	mov    QWORD PTR [rsi-0x10],rax
     c6d:	b8 01 00 00 00       	mov    eax,0x1
     c72:	48 89 46 f8          	mov    QWORD PTR [rsi-0x8],rax
     c76:	48 31 f6             	xor    rsi,rsi
     c79:	48 b8 00 00 00 00 00 	movabs rax,0x0
     c80:	00 00 00 
			c7b: R_X86_64_64	do_callback
     c83:	48 89 9c 24 00 01 00 	mov    QWORD PTR [rsp+0x100],rbx
     c8a:	00 
     c8b:	48 89 bc 24 08 01 00 	mov    QWORD PTR [rsp+0x108],rdi
     c92:	00 
     c93:	4c 89 ac 24 10 01 00 	mov    QWORD PTR [rsp+0x110],r13
     c9a:	00 
     c9b:	ff d0                	call   rax
     c9d:	48 8b 9c 24 00 01 00 	mov    rbx,QWORD PTR [rsp+0x100]
     ca4:	00 
     ca5:	4c 8b ac 24 10 01 00 	mov    r13,QWORD PTR [rsp+0x110]
     cac:	00 
     cad:	48 89 c6             	mov    rsi,rax
     cb0:	48 89 b4 24 00 01 00 	mov    QWORD PTR [rsp+0x100],rsi
     cb7:	00 
     cb8:	49 8b b4 24 98 00 00 	mov    rsi,QWORD PTR [r12+0x98]
     cbf:	00 
     cc0:	49 8b 7d 08          	mov    rdi,QWORD PTR [r13+0x8]
     cc4:	49 89 b4 24 98 00 00 	mov    QWORD PTR [r12+0x98],rsi
     ccb:	00 
     ccc:	48 89 5e e0          	mov    QWORD PTR [rsi-0x20],rbx
     cd0:	4c 89 7e e8          	mov    QWORD PTR [rsi-0x18],r15
     cd4:	b8 01 00 00 00       	mov    eax,0x1
     cd9:	48 89 46 f0          	mov    QWORD PTR [rsi-0x10],rax
     cdd:	b8 01 00 00 00       	mov    eax,0x1
     ce2:	48 89 46 f8          	mov    QWORD PTR [rsi-0x8],rax
     ce6:	48 31 f6             	xor    rsi,rsi
     ce9:	48 b8 00 00 00 00 00 	movabs rax,0x0
     cf0:	00 00 00 
			ceb: R_X86_64_64	do_callback
     cf3:	48 89 9c 24 08 01 00 	mov    QWORD PTR [rsp+0x108],rbx
     cfa:	00 
     cfb:	48 89 bc 24 10 01 00 	mov    QWORD PTR [rsp+0x110],rdi
     d02:	00 
     d03:	4c 89 ac 24 18 01 00 	mov    QWORD PTR [rsp+0x118],r13
     d0a:	00 
     d0b:	ff d0                	call   rax
     d0d:	48 8b 9c 24 08 01 00 	mov    rbx,QWORD PTR [rsp+0x108]
     d14:	00 
     d15:	4c 8b ac 24 18 01 00 	mov    r13,QWORD PTR [rsp+0x118]
     d1c:	00 
     d1d:	48 89 c6             	mov    rsi,rax
     d20:	48 89 b4 24 08 01 00 	mov    QWORD PTR [rsp+0x108],rsi
     d27:	00 
     d28:	49 8b b4 24 98 00 00 	mov    rsi,QWORD PTR [r12+0x98]
     d2f:	00 
     d30:	49 8b 7d 08          	mov    rdi,QWORD PTR [r13+0x8]
     d34:	49 89 b4 24 98 00 00 	mov    QWORD PTR [r12+0x98],rsi
     d3b:	00 
     d3c:	48 89 5e e0          	mov    QWORD PTR [rsi-0x20],rbx
     d40:	4c 89 7e e8          	mov    QWORD PTR [rsi-0x18],r15
     d44:	b8 01 00 00 00       	mov    eax,0x1
     d49:	48 89 46 f0          	mov    QWORD PTR [rsi-0x10],rax
     d4d:	b8 01 00 00 00       	mov    eax,0x1
     d52:	48 89 46 f8          	mov    QWORD PTR [rsi-0x8],rax
     d56:	48 31 f6             	xor    rsi,rsi
     d59:	48 b8 00 00 00 00 00 	movabs rax,0x0
     d60:	00 00 00 
			d5b: R_X86_64_64	do_callback
     d63:	48 89 9c 24 10 01 00 	mov    QWORD PTR [rsp+0x110],rbx
     d6a:	00 
     d6b:	48 89 bc 24 18 01 00 	mov    QWORD PTR [rsp+0x118],rdi
     d72:	00 
     d73:	4c 89 ac 24 20 01 00 	mov    QWORD PTR [rsp+0x120],r13
     d7a:	00 
     d7b:	ff d0                	call   rax
     d7d:	48 8b 9c 24 10 01 00 	mov    rbx,QWORD PTR [rsp+0x110]
     d84:	00 
     d85:	4c 8b ac 24 20 01 00 	mov    r13,QWORD PTR [rsp+0x120]
     d8c:	00 
     d8d:	48 89 c6             	mov    rsi,rax
     d90:	48 89 b4 24 10 01 00 	mov    QWORD PTR [rsp+0x110],rsi
     d97:	00 
     d98:	49 8b b4 24 98 00 00 	mov    rsi,QWORD PTR [r12+0x98]
     d9f:	00 
     da0:	49 8b 7d 08          	mov    rdi,QWORD PTR [r13+0x8]
     da4:	49 89 b4 24 98 00 00 	mov    QWORD PTR [r12+0x98],rsi
     dab:	00 
     dac:	48 89 5e e0          	mov    QWORD PTR [rsi-0x20],rbx
     db0:	4c 89 7e e8          	mov    QWORD PTR [rsi-0x18],r15
     db4:	b8 01 00 00 00       	mov    eax,0x1
     db9:	48 89 46 f0          	mov    QWORD PTR [rsi-0x10],rax
     dbd:	b8 01 00 00 00       	mov    eax,0x1
     dc2:	48 89 46 f8          	mov    QWORD PTR [rsi-0x8],rax
     dc6:	48 31 f6             	xor    rsi,rsi
     dc9:	48 b8 00 00 00 00 00 	movabs rax,0x0
     dd0:	00 00 00 
			dcb: R_X86_64_64	do_callback
     dd3:	48 89 9c 24 18 01 00 	mov    QWORD PTR [rsp+0x118],rbx
     dda:	00 
     ddb:	48 89 bc 24 20 01 00 	mov    QWORD PTR [rsp+0x120],rdi
     de2:	00 
     de3:	4c 89 ac 24 28 01 00 	mov    QWORD PTR [rsp+0x128],r13
     dea:	00 
     deb:	ff d0                	call   rax
     ded:	48 8b 9c 24 18 01 00 	mov    rbx,QWORD PTR [rsp+0x118]
     df4:	00 
     df5:	4c 8b ac 24 28 01 00 	mov    r13,QWORD PTR [rsp+0x128]
     dfc:	00 
     dfd:	48 89 c6             	mov    rsi,rax
     e00:	48 89 b4 24 18 01 00 	mov    QWORD PTR [rsp+0x118],rsi
     e07:	00 
     e08:	49 8b b4 24 98 00 00 	mov    rsi,QWORD PTR [r12+0x98]
     e0f:	00 
     e10:	49 8b 7d 08          	mov    rdi,QWORD PTR [r13+0x8]
     e14:	49 89 b4 24 98 00 00 	mov    QWORD PTR [r12+0x98],rsi
     e1b:	00 
     e1c:	48 89 5e e0          	mov    QWORD PTR [rsi-0x20],rbx
     e20:	4c 89 7e e8          	mov    QWORD PTR [rsi-0x18],r15
     e24:	b8 01 00 00 00       	mov    eax,0x1
     e29:	48 89 46 f0          	mov    QWORD PTR [rsi-0x10],rax
     e2d:	b8 01 00 00 00       	mov    eax,0x1
     e32:	48 89 46 f8          	mov    QWORD PTR [rsi-0x8],rax
     e36:	48 31 f6             	xor    rsi,rsi
     e39:	48 b8 00 00 00 00 00 	movabs rax,0x0
     e40:	00 00 00 
			e3b: R_X86_64_64	do_callback
     e43:	48 89 9c 24 20 01 00 	mov    QWORD PTR [rsp+0x120],rbx
     e4a:	00 
     e4b:	48 89 bc 24 28 01 00 	mov    QWORD PTR [rsp+0x128],rdi
     e52:	00 
     e53:	4c 89 ac 24 30 01 00 	mov    QWORD PTR [rsp+0x130],r13
     e5a:	00 
     e5b:	ff d0                	call   rax
     e5d:	48 8b 9c 24 20 01 00 	mov    rbx,QWORD PTR [rsp+0x120]
     e64:	00 
     e65:	4c 8b ac 24 30 01 00 	mov    r13,QWORD PTR [rsp+0x130]
     e6c:	00 
     e6d:	48 89 c6             	mov    rsi,rax
     e70:	48 89 b4 24 20 01 00 	mov    QWORD PTR [rsp+0x120],rsi
     e77:	00 
     e78:	49 8b b4 24 98 00 00 	mov    rsi,QWORD PTR [r12+0x98]
     e7f:	00 
     e80:	49 8b 7d 08          	mov    rdi,QWORD PTR [r13+0x8]
     e84:	49 89 b4 24 98 00 00 	mov    QWORD PTR [r12+0x98],rsi
     e8b:	00 
     e8c:	48 89 5e e0          	mov    QWORD PTR [rsi-0x20],rbx
     e90:	4c 89 7e e8          	mov    QWORD PTR [rsi-0x18],r15
     e94:	b8 01 00 00 00       	mov    eax,0x1
     e99:	48 89 46 f0          	mov    QWORD PTR [rsi-0x10],rax
     e9d:	b8 01 00 00 00       	mov    eax,0x1
     ea2:	48 89 46 f8          	mov    QWORD PTR [rsi-0x8],rax
     ea6:	48 31 f6             	xor    rsi,rsi
     ea9:	48 b8 00 00 00 00 00 	movabs rax,0x0
     eb0:	00 00 00 
			eab: R_X86_64_64	do_callback
     eb3:	48 89 9c 24 28 01 00 	mov    QWORD PTR [rsp+0x128],rbx
     eba:	00 
     ebb:	48 89 bc 24 30 01 00 	mov    QWORD PTR [rsp+0x130],rdi
     ec2:	00 
     ec3:	4c 89 ac 24 38 01 00 	mov    QWORD PTR [rsp+0x138],r13
     eca:	00 
     ecb:	ff d0                	call   rax
     ecd:	48 8b 9c 24 28 01 00 	mov    rbx,QWORD PTR [rsp+0x128]
     ed4:	00 
     ed5:	4c 8b ac 24 38 01 00 	mov    r13,QWORD PTR [rsp+0x138]
     edc:	00 
     edd:	48 89 c6             	mov    rsi,rax
     ee0:	48 89 b4 24 28 01 00 	mov    QWORD PTR [rsp+0x128],rsi
     ee7:	00 
     ee8:	49 8b b4 24 98 00 00 	mov    rsi,QWORD PTR [r12+0x98]
     eef:	00 
     ef0:	49 8b 7d 08          	mov    rdi,QWORD PTR [r13+0x8]
     ef4:	49 89 b4 24 98 00 00 	mov    QWORD PTR [r12+0x98],rsi
     efb:	00 
     efc:	48 89 5e e0          	mov    QWORD PTR [rsi-0x20],rbx
     f00:	4c 89 7e e8          	mov    QWORD PTR [rsi-0x18],r15
     f04:	b8 01 00 00 00       	mov    eax,0x1
     f09:	48 89 46 f0          	mov    QWORD PTR [rsi-0x10],rax
     f0d:	b8 01 00 00 00       	mov    eax,0x1
     f12:	48 89 46 f8          	mov    QWORD PTR [rsi-0x8],rax
     f16:	48 31 f6             	xor    rsi,rsi
     f19:	48 b8 00 00 00 00 00 	movabs rax,0x0
     f20:	00 00 00 
			f1b: R_X86_64_64	do_callback
     f23:	48 89 9c 24 30 01 00 	mov    QWORD PTR [rsp+0x130],rbx
     f2a:	00 
     f2b:	48 89 bc 24 38 01 00 	mov    QWORD PTR [rsp+0x138],rdi
     f32:	00 
     f33:	4c 89 ac 24 40 01 00 	mov    QWORD PTR [rsp+0x140],r13
     f3a:	00 
     f3b:	ff d0                	call   rax
     f3d:	48 8b 9c 24 30 01 00 	mov    rbx,QWORD PTR [rsp+0x130]
     f44:	00 
     f45:	4c 8b ac 24 40 01 00 	mov    r13,QWORD PTR [rsp+0x140]
     f4c:	00 
     f4d:	48 89 c6             	mov    rsi,rax
     f50:	48 89 b4 24 30 01 00 	mov    QWORD PTR [rsp+0x130],rsi
     f57:	00 
     f58:	49 8b b4 24 98 00 00 	mov    rsi,QWORD PTR [r12+0x98]
     f5f:	00 
     f60:	49 8b 7d 08          	mov    rdi,QWORD PTR [r13+0x8]
     f64:	49 89 b4 24 98 00 00 	mov    QWORD PTR [r12+0x98],rsi
     f6b:	00 
     f6c:	48 89 5e e0          	mov    QWORD PTR [rsi-0x20],rbx
     f70:	4c 89 7e e8          	mov    QWORD PTR [rsi-0x18],r15
     f74:	b8 01 00 00 00       	mov    eax,0x1
     f79:	48 89 46 f0          	mov    QWORD PTR [rsi-0x10],rax
     f7d:	b8 01 00 00 00       	mov    eax,0x1
     f82:	48 89 46 f8          	mov    QWORD PTR [rsi-0x8],rax
     f86:	48 31 f6             	xor    rsi,rsi
     f89:	48 b8 00 00 00 00 00 	movabs rax,0x0
     f90:	00 00 00 
			f8b: R_X86_64_64	do_callback
     f93:	48 89 9c 24 38 01 00 	mov    QWORD PTR [rsp+0x138],rbx
     f9a:	00 
     f9b:	48 89 bc 24 40 01 00 	mov    QWORD PTR [rsp+0x140],rdi
     fa2:	00 
     fa3:	4c 89 ac 24 48 01 00 	mov    QWORD PTR [rsp+0x148],r13
     faa:	00 
     fab:	ff d0                	call   rax
     fad:	48 8b 9c 24 38 01 00 	mov    rbx,QWORD PTR [rsp+0x138]
     fb4:	00 
     fb5:	4c 8b ac 24 48 01 00 	mov    r13,QWORD PTR [rsp+0x148]
     fbc:	00 
     fbd:	48 89 c6             	mov    rsi,rax
     fc0:	48 89 b4 24 38 01 00 	mov    QWORD PTR [rsp+0x138],rsi
     fc7:	00 
     fc8:	49 8b b4 24 98 00 00 	mov    rsi,QWORD PTR [r12+0x98]
     fcf:	00 
     fd0:	49 8b 7d 08          	mov    rdi,QWORD PTR [r13+0x8]
     fd4:	49 89 b4 24 98 00 00 	mov    QWORD PTR [r12+0x98],rsi
     fdb:	00 
     fdc:	48 89 5e e0          	mov    QWORD PTR [rsi-0x20],rbx
     fe0:	4c 89 7e e8          	mov    QWORD PTR [rsi-0x18],r15
     fe4:	b8 01 00 00 00       	mov    eax,0x1
     fe9:	48 89 46 f0          	mov    QWORD PTR [rsi-0x10],rax
     fed:	b8 01 00 00 00       	mov    eax,0x1
     ff2:	48 89 46 f8          	mov    QWORD PTR [rsi-0x8],rax
     ff6:	48 31 f6             	xor    rsi,rsi
     ff9:	48 b8 00 00 00 00 00 	movabs rax,0x0
    1000:	00 00 00 
			ffb: R_X86_64_64	do_callback
    1003:	48 89 9c 24 40 01 00 	mov    QWORD PTR [rsp+0x140],rbx
    100a:	00 
    100b:	48 89 bc 24 48 01 00 	mov    QWORD PTR [rsp+0x148],rdi
    1012:	00 
    1013:	4c 89 ac 24 50 01 00 	mov    QWORD PTR [rsp+0x150],r13
    101a:	00 
    101b:	ff d0                	call   rax
    101d:	48 8b 9c 24 40 01 00 	mov    rbx,QWORD PTR [rsp+0x140]
    1024:	00 
    1025:	4c 8b ac 24 50 01 00 	mov    r13,QWORD PTR [rsp+0x150]
    102c:	00 
    102d:	48 89 c6             	mov    rsi,rax
    1030:	48 89 b4 24 40 01 00 	mov    QWORD PTR [rsp+0x140],rsi
    1037:	00 
    1038:	49 8b b4 24 98 00 00 	mov    rsi,QWORD PTR [r12+0x98]
    103f:	00 
    1040:	49 8b 7d 08          	mov    rdi,QWORD PTR [r13+0x8]
    1044:	49 89 b4 24 98 00 00 	mov    QWORD PTR [r12+0x98],rsi
    104b:	00 
    104c:	48 89 5e e0          	mov    QWORD PTR [rsi-0x20],rbx
    1050:	4c 89 7e e8          	mov    QWORD PTR [rsi-0x18],r15
    1054:	b8 01 00 00 00       	mov    eax,0x1
    1059:	48 89 46 f0          	mov    QWORD PTR [rsi-0x10],rax
    105d:	b8 01 00 00 00       	mov    eax,0x1
    1062:	48 89 46 f8          	mov    QWORD PTR [rsi-0x8],rax
    1066:	48 31 f6             	xor    rsi,rsi
    1069:	48 b8 00 00 00 00 00 	movabs rax,0x0
    1070:	00 00 00 
			106b: R_X86_64_64	do_callback
    1073:	48 89 9c 24 48 01 00 	mov    QWORD PTR [rsp+0x148],rbx
    107a:	00 
    107b:	48 89 bc 24 50 01 00 	mov    QWORD PTR [rsp+0x150],rdi
    1082:	00 
    1083:	4c 89 ac 24 58 01 00 	mov    QWORD PTR [rsp+0x158],r13
    108a:	00 
    108b:	ff d0                	call   rax
    108d:	48 8b 9c 24 48 01 00 	mov    rbx,QWORD PTR [rsp+0x148]
    1094:	00 
    1095:	4c 8b ac 24 58 01 00 	mov    r13,QWORD PTR [rsp+0x158]
    109c:	00 
    109d:	48 89 c6             	mov    rsi,rax
    10a0:	48 89 b4 24 48 01 00 	mov    QWORD PTR [rsp+0x148],rsi
    10a7:	00 
    10a8:	49 8b b4 24 98 00 00 	mov    rsi,QWORD PTR [r12+0x98]
    10af:	00 
    10b0:	49 8b 7d 08          	mov    rdi,QWORD PTR [r13+0x8]
    10b4:	49 89 b4 24 98 00 00 	mov    QWORD PTR [r12+0x98],rsi
    10bb:	00 
    10bc:	48 89 5e e0          	mov    QWORD PTR [rsi-0x20],rbx
    10c0:	4c 89 7e e8          	mov    QWORD PTR [rsi-0x18],r15
    10c4:	b8 01 00 00 00       	mov    eax,0x1
    10c9:	48 89 46 f0          	mov    QWORD PTR [rsi-0x10],rax
    10cd:	b8 01 00 00 00       	mov    eax,0x1
    10d2:	48 89 46 f8          	mov    QWORD PTR [rsi-0x8],rax
    10d6:	48 31 f6             	xor    rsi,rsi
    10d9:	48 b8 00 00 00 00 00 	movabs rax,0x0
    10e0:	00 00 00 
			10db: R_X86_64_64	do_callback
    10e3:	48 89 9c 24 50 01 00 	mov    QWORD PTR [rsp+0x150],rbx
    10ea:	00 
    10eb:	48 89 bc 24 58 01 00 	mov    QWORD PTR [rsp+0x158],rdi
    10f2:	00 
    10f3:	4c 89 ac 24 60 01 00 	mov    QWORD PTR [rsp+0x160],r13
    10fa:	00 
    10fb:	ff d0                	call   rax
    10fd:	48 8b 9c 24 50 01 00 	mov    rbx,QWORD PTR [rsp+0x150]
    1104:	00 
    1105:	4c 8b ac 24 60 01 00 	mov    r13,QWORD PTR [rsp+0x160]
    110c:	00 
    110d:	48 89 c6             	mov    rsi,rax
    1110:	48 89 b4 24 50 01 00 	mov    QWORD PTR [rsp+0x150],rsi
    1117:	00 
    1118:	49 8b b4 24 98 00 00 	mov    rsi,QWORD PTR [r12+0x98]
    111f:	00 
    1120:	49 8b 7d 08          	mov    rdi,QWORD PTR [r13+0x8]
    1124:	49 89 b4 24 98 00 00 	mov    QWORD PTR [r12+0x98],rsi
    112b:	00 
    112c:	48 89 5e e0          	mov    QWORD PTR [rsi-0x20],rbx
    1130:	4c 89 7e e8          	mov    QWORD PTR [rsi-0x18],r15
    1134:	b8 01 00 00 00       	mov    eax,0x1
    1139:	48 89 46 f0          	mov    QWORD PTR [rsi-0x10],rax
    113d:	b8 01 00 00 00       	mov    eax,0x1
    1142:	48 89 46 f8          	mov    QWORD PTR [rsi-0x8],rax
    1146:	48 31 f6             	xor    rsi,rsi
    1149:	48 b8 00 00 00 00 00 	movabs rax,0x0
    1150:	00 00 00 
			114b: R_X86_64_64	do_callback
    1153:	48 89 9c 24 58 01 00 	mov    QWORD PTR [rsp+0x158],rbx
    115a:	00 
    115b:	48 89 bc 24 60 01 00 	mov    QWORD PTR [rsp+0x160],rdi
    1162:	00 
    1163:	4c 89 ac 24 68 01 00 	mov    QWORD PTR [rsp+0x168],r13
    116a:	00 
    116b:	ff d0                	call   rax
    116d:	48 8b 9c 24 58 01 00 	mov    rbx,QWORD PTR [rsp+0x158]
    1174:	00 
    1175:	4c 8b ac 24 68 01 00 	mov    r13,QWORD PTR [rsp+0x168]
    117c:	00 
    117d:	48 89 c6             	mov    rsi,rax
    1180:	48 89 b4 24 58 01 00 	mov    QWORD PTR [rsp+0x158],rsi
    1187:	00 
    1188:	49 8b b4 24 98 00 00 	mov    rsi,QWORD PTR [r12+0x98]
    118f:	00 
    1190:	49 8b 7d 08          	mov    rdi,QWORD PTR [r13+0x8]
    1194:	49 89 b4 24 98 00 00 	mov    QWORD PTR [r12+0x98],rsi
    119b:	00 
    119c:	48 89 5e e0          	mov    QWORD PTR [rsi-0x20],rbx
    11a0:	4c 89 7e e8          	mov    QWORD PTR [rsi-0x18],r15
    11a4:	b8 01 00 00 00       	mov    eax,0x1
    11a9:	48 89 46 f0          	mov    QWORD PTR [rsi-0x10],rax
    11ad:	b8 01 00 00 00       	mov    eax,0x1
    11b2:	48 89 46 f8          	mov    QWORD PTR [rsi-0x8],rax
    11b6:	48 31 f6             	xor    rsi,rsi
    11b9:	48 b8 00 00 00 00 00 	movabs rax,0x0
    11c0:	00 00 00 
			11bb: R_X86_64_64	do_callback
    11c3:	48 89 9c 24 60 01 00 	mov    QWORD PTR [rsp+0x160],rbx
    11ca:	00 
    11cb:	48 89 bc 24 68 01 00 	mov    QWORD PTR [rsp+0x168],rdi
    11d2:	00 
    11d3:	4c 89 ac 24 70 01 00 	mov    QWORD PTR [rsp+0x170],r13
    11da:	00 
    11db:	ff d0                	call   rax
    11dd:	48 8b 9c 24 60 01 00 	mov    rbx,QWORD PTR [rsp+0x160]
    11e4:	00 
    11e5:	4c 8b ac 24 70 01 00 	mov    r13,QWORD PTR [rsp+0x170]
    11ec:	00 
    11ed:	48 89 c6             	mov    rsi,rax
    11f0:	48 89 b4 24 60 01 00 	mov    QWORD PTR [rsp+0x160],rsi
    11f7:	00 
    11f8:	49 8b b4 24 98 00 00 	mov    rsi,QWORD PTR [r12+0x98]
    11ff:	00 
    1200:	49 8b 7d 08          	mov    rdi,QWORD PTR [r13+0x8]
    1204:	49 89 b4 24 98 00 00 	mov    QWORD PTR [r12+0x98],rsi
    120b:	00 
    120c:	48 89 5e e0          	mov    QWORD PTR [rsi-0x20],rbx
    1210:	4c 89 7e e8          	mov    QWORD PTR [rsi-0x18],r15
    1214:	b8 01 00 00 00       	mov    eax,0x1
    1219:	48 89 46 f0          	mov    QWORD PTR [rsi-0x10],rax
    121d:	b8 01 00 00 00       	mov    eax,0x1
    1222:	48 89 46 f8          	mov    QWORD PTR [rsi-0x8],rax
    1226:	48 31 f6             	xor    rsi,rsi
    1229:	48 b8 00 00 00 00 00 	movabs rax,0x0
    1230:	00 00 00 
			122b: R_X86_64_64	do_callback
    1233:	48 89 9c 24 68 01 00 	mov    QWORD PTR [rsp+0x168],rbx
    123a:	00 
    123b:	48 89 bc 24 70 01 00 	mov    QWORD PTR [rsp+0x170],rdi
    1242:	00 
    1243:	4c 89 ac 24 78 01 00 	mov    QWORD PTR [rsp+0x178],r13
    124a:	00 
    124b:	ff d0                	call   rax
    124d:	48 8b 9c 24 68 01 00 	mov    rbx,QWORD PTR [rsp+0x168]
    1254:	00 
    1255:	4c 8b ac 24 78 01 00 	mov    r13,QWORD PTR [rsp+0x178]
    125c:	00 
    125d:	48 89 c6             	mov    rsi,rax
    1260:	48 89 b4 24 68 01 00 	mov    QWORD PTR [rsp+0x168],rsi
    1267:	00 
    1268:	49 8b b4 24 98 00 00 	mov    rsi,QWORD PTR [r12+0x98]
    126f:	00 
    1270:	49 8b 7d 08          	mov    rdi,QWORD PTR [r13+0x8]
    1274:	49 89 b4 24 98 00 00 	mov    QWORD PTR [r12+0x98],rsi
    127b:	00 
    127c:	48 89 5e e0          	mov    QWORD PTR [rsi-0x20],rbx
    1280:	4c 89 7e e8          	mov    QWORD PTR [rsi-0x18],r15
    1284:	b8 01 00 00 00       	mov    eax,0x1
    1289:	48 89 46 f0          	mov    QWORD PTR [rsi-0x10],rax
    128d:	b8 01 00 00 00       	mov    eax,0x1
    1292:	48 89 46 f8          	mov    QWORD PTR [rsi-0x8],rax
    1296:	48 31 f6             	xor    rsi,rsi
    1299:	48 b8 00 00 00 00 00 	movabs rax,0x0
    12a0:	00 00 00 
			129b: R_X86_64_64	do_callback
    12a3:	48 89 9c 24 70 01 00 	mov    QWORD PTR [rsp+0x170],rbx
    12aa:	00 
    12ab:	48 89 bc 24 78 01 00 	mov    QWORD PTR [rsp+0x178],rdi
    12b2:	00 
    12b3:	4c 89 ac 24 80 01 00 	mov    QWORD PTR [rsp+0x180],r13
    12ba:	00 
    12bb:	ff d0                	call   rax
    12bd:	48 8b 9c 24 70 01 00 	mov    rbx,QWORD PTR [rsp+0x170]
    12c4:	00 
    12c5:	4c 8b ac 24 80 01 00 	mov    r13,QWORD PTR [rsp+0x180]
    12cc:	00 
    12cd:	48 89 c6             	mov    rsi,rax
    12d0:	48 89 b4 24 70 01 00 	mov    QWORD PTR [rsp+0x170],rsi
    12d7:	00 
    12d8:	49 8b b4 24 98 00 00 	mov    rsi,QWORD PTR [r12+0x98]
    12df:	00 
    12e0:	49 8b 7d 08          	mov    rdi,QWORD PTR [r13+0x8]
    12e4:	49 89 b4 24 98 00 00 	mov    QWORD PTR [r12+0x98],rsi
    12eb:	00 
    12ec:	48 89 5e e0          	mov    QWORD PTR [rsi-0x20],rbx
    12f0:	4c 89 7e e8          	mov    QWORD PTR [rsi-0x18],r15
    12f4:	b8 01 00 00 00       	mov    eax,0x1
    12f9:	48 89 46 f0          	mov    QWORD PTR [rsi-0x10],rax
    12fd:	b8 01 00 00 00       	mov    eax,0x1
    1302:	48 89 46 f8          	mov    QWORD PTR [rsi-0x8],rax
    1306:	48 31 f6             	xor    rsi,rsi
    1309:	48 b8 00 00 00 00 00 	movabs rax,0x0
    1310:	00 00 00 
			130b: R_X86_64_64	do_callback
    1313:	48 89 9c 24 78 01 00 	mov    QWORD PTR [rsp+0x178],rbx
    131a:	00 
    131b:	48 89 bc 24 80 01 00 	mov    QWORD PTR [rsp+0x180],rdi
    1322:	00 
    1323:	4c 89 ac 24 88 01 00 	mov    QWORD PTR [rsp+0x188],r13
    132a:	00 
    132b:	ff d0                	call   rax
    132d:	48 8b 9c 24 78 01 00 	mov    rbx,QWORD PTR [rsp+0x178]
    1334:	00 
    1335:	4c 8b ac 24 88 01 00 	mov    r13,QWORD PTR [rsp+0x188]
    133c:	00 
    133d:	48 89 c6             	mov    rsi,rax
    1340:	48 89 b4 24 78 01 00 	mov    QWORD PTR [rsp+0x178],rsi
    1347:	00 
    1348:	49 8b b4 24 98 00 00 	mov    rsi,QWORD PTR [r12+0x98]
    134f:	00 
    1350:	49 8b 7d 08          	mov    rdi,QWORD PTR [r13+0x8]
    1354:	49 89 b4 24 98 00 00 	mov    QWORD PTR [r12+0x98],rsi
    135b:	00 
    135c:	48 89 5e e0          	mov    QWORD PTR [rsi-0x20],rbx
    1360:	4c 89 7e e8          	mov    QWORD PTR [rsi-0x18],r15
    1364:	b8 01 00 00 00       	mov    eax,0x1
    1369:	48 89 46 f0          	mov    QWORD PTR [rsi-0x10],rax
    136d:	b8 01 00 00 00       	mov    eax,0x1
    1372:	48 89 46 f8          	mov    QWORD PTR [rsi-0x8],rax
    1376:	48 31 f6             	xor    rsi,rsi
    1379:	48 b8 00 00 00 00 00 	movabs rax,0x0
    1380:	00 00 00 
			137b: R_X86_64_64	do_callback
    1383:	48 89 9c 24 80 01 00 	mov    QWORD PTR [rsp+0x180],rbx
    138a:	00 
    138b:	48 89 bc 24 88 01 00 	mov    QWORD PTR [rsp+0x188],rdi
    1392:	00 
    1393:	4c 89 ac 24 90 01 00 	mov    QWORD PTR [rsp+0x190],r13
    139a:	00 
    139b:	ff d0                	call   rax
    139d:	48 8b 9c 24 80 01 00 	mov    rbx,QWORD PTR [rsp+0x180]
    13a4:	00 
    13a5:	4c 8b ac 24 90 01 00 	mov    r13,QWORD PTR [rsp+0x190]
    13ac:	00 
    13ad:	48 89 c6             	mov    rsi,rax
    13b0:	48 89 b4 24 80 01 00 	mov    QWORD PTR [rsp+0x180],rsi
    13b7:	00 
    13b8:	49 8b b4 24 98 00 00 	mov    rsi,QWORD PTR [r12+0x98]
    13bf:	00 
    13c0:	49 8b 7d 08          	mov    rdi,QWORD PTR [r13+0x8]
    13c4:	49 89 b4 24 98 00 00 	mov    QWORD PTR [r12+0x98],rsi
    13cb:	00 
    13cc:	48 89 5e e0          	mov    QWORD PTR [rsi-0x20],rbx
    13d0:	4c 89 7e e8          	mov    QWORD PTR [rsi-0x18],r15
    13d4:	b8 01 00 00 00       	mov    eax,0x1
    13d9:	48 89 46 f0          	mov    QWORD PTR [rsi-0x10],rax
    13dd:	b8 01 00 00 00       	mov    eax,0x1
    13e2:	48 89 46 f8          	mov    QWORD PTR [rsi-0x8],rax
    13e6:	48 31 f6             	xor    rsi,rsi
    13e9:	48 b8 00 00 00 00 00 	movabs rax,0x0
    13f0:	00 00 00 
			13eb: R_X86_64_64	do_callback
    13f3:	48 89 9c 24 88 01 00 	mov    QWORD PTR [rsp+0x188],rbx
    13fa:	00 
    13fb:	48 89 bc 24 90 01 00 	mov    QWORD PTR [rsp+0x190],rdi
    1402:	00 
    1403:	4c 89 ac 24 98 01 00 	mov    QWORD PTR [rsp+0x198],r13
    140a:	00 
    140b:	ff d0                	call   rax
    140d:	48 8b 9c 24 88 01 00 	mov    rbx,QWORD PTR [rsp+0x188]
    1414:	00 
    1415:	4c 8b ac 24 98 01 00 	mov    r13,QWORD PTR [rsp+0x198]
    141c:	00 
    141d:	48 89 c6             	mov    rsi,rax
    1420:	48 89 b4 24 88 01 00 	mov    QWORD PTR [rsp+0x188],rsi
    1427:	00 
    1428:	49 8b b4 24 98 00 00 	mov    rsi,QWORD PTR [r12+0x98]
    142f:	00 
    1430:	49 8b 7d 08          	mov    rdi,QWORD PTR [r13+0x8]
    1434:	49 89 b4 24 98 00 00 	mov    QWORD PTR [r12+0x98],rsi
    143b:	00 
    143c:	48 89 5e e0          	mov    QWORD PTR [rsi-0x20],rbx
    1440:	4c 89 7e e8          	mov    QWORD PTR [rsi-0x18],r15
    1444:	b8 01 00 00 00       	mov    eax,0x1
    1449:	48 89 46 f0          	mov    QWORD PTR [rsi-0x10],rax
    144d:	b8 01 00 00 00       	mov    eax,0x1
    1452:	48 89 46 f8          	mov    QWORD PTR [rsi-0x8],rax
    1456:	48 31 f6             	xor    rsi,rsi
    1459:	48 b8 00 00 00 00 00 	movabs rax,0x0
    1460:	00 00 00 
			145b: R_X86_64_64	do_callback
    1463:	48 89 9c 24 90 01 00 	mov    QWORD PTR [rsp+0x190],rbx
    146a:	00 
    146b:	48 89 bc 24 98 01 00 	mov    QWORD PTR [rsp+0x198],rdi
    1472:	00 
    1473:	4c 89 ac 24 a0 01 00 	mov    QWORD PTR [rsp+0x1a0],r13
    147a:	00 
    147b:	ff d0                	call   rax
    147d:	48 8b 9c 24 90 01 00 	mov    rbx,QWORD PTR [rsp+0x190]
    1484:	00 
    1485:	4c 8b ac 24 a0 01 00 	mov    r13,QWORD PTR [rsp+0x1a0]
    148c:	00 
    148d:	48 89 c6             	mov    rsi,rax
    1490:	48 89 b4 24 90 01 00 	mov    QWORD PTR [rsp+0x190],rsi
    1497:	00 
    1498:	49 8b b4 24 98 00 00 	mov    rsi,QWORD PTR [r12+0x98]
    149f:	00 
    14a0:	49 8b 7d 08          	mov    rdi,QWORD PTR [r13+0x8]
    14a4:	49 89 b4 24 98 00 00 	mov    QWORD PTR [r12+0x98],rsi
    14ab:	00 
    14ac:	48 89 5e e0          	mov    QWORD PTR [rsi-0x20],rbx
    14b0:	4c 89 7e e8          	mov    QWORD PTR [rsi-0x18],r15
    14b4:	b8 01 00 00 00       	mov    eax,0x1
    14b9:	48 89 46 f0          	mov    QWORD PTR [rsi-0x10],rax
    14bd:	b8 01 00 00 00       	mov    eax,0x1
    14c2:	48 89 46 f8          	mov    QWORD PTR [rsi-0x8],rax
    14c6:	48 31 f6             	xor    rsi,rsi
    14c9:	48 b8 00 00 00 00 00 	movabs rax,0x0
    14d0:	00 00 00 
			14cb: R_X86_64_64	do_callback
    14d3:	48 89 9c 24 98 01 00 	mov    QWORD PTR [rsp+0x198],rbx
    14da:	00 
    14db:	48 89 bc 24 a0 01 00 	mov    QWORD PTR [rsp+0x1a0],rdi
    14e2:	00 
    14e3:	4c 89 ac 24 a8 01 00 	mov    QWORD PTR [rsp+0x1a8],r13
    14ea:	00 
    14eb:	ff d0                	call   rax
    14ed:	48 8b 9c 24 98 01 00 	mov    rbx,QWORD PTR [rsp+0x198]
    14f4:	00 
    14f5:	4c 8b ac 24 a8 01 00 	mov    r13,QWORD PTR [rsp+0x1a8]
    14fc:	00 
    14fd:	48 89 c6             	mov    rsi,rax
    1500:	48 89 b4 24 98 01 00 	mov    QWORD PTR [rsp+0x198],rsi
    1507:	00 
    1508:	49 8b b4 24 98 00 00 	mov    rsi,QWORD PTR [r12+0x98]
    150f:	00 
    1510:	49 8b 7d 08          	mov    rdi,QWORD PTR [r13+0x8]
    1514:	49 89 b4 24 98 00 00 	mov    QWORD PTR [r12+0x98],rsi
    151b:	00 
    151c:	48 89 5e e0          	mov    QWORD PTR [rsi-0x20],rbx
    1520:	4c 89 7e e8          	mov    QWORD PTR [rsi-0x18],r15
    1524:	b8 01 00 00 00       	mov    eax,0x1
    1529:	48 89 46 f0          	mov    QWORD PTR [rsi-0x10],rax
    152d:	b8 01 00 00 00       	mov    eax,0x1
    1532:	48 89 46 f8          	mov    QWORD PTR [rsi-0x8],rax
    1536:	48 31 f6             	xor    rsi,rsi
    1539:	48 b8 00 00 00 00 00 	movabs rax,0x0
    1540:	00 00 00 
			153b: R_X86_64_64	do_callback
    1543:	48 89 9c 24 a0 01 00 	mov    QWORD PTR [rsp+0x1a0],rbx
    154a:	00 
    154b:	48 89 bc 24 a8 01 00 	mov    QWORD PTR [rsp+0x1a8],rdi
    1552:	00 
    1553:	4c 89 ac 24 b0 01 00 	mov    QWORD PTR [rsp+0x1b0],r13
    155a:	00 
    155b:	ff d0                	call   rax
    155d:	48 8b 9c 24 a0 01 00 	mov    rbx,QWORD PTR [rsp+0x1a0]
    1564:	00 
    1565:	4c 8b ac 24 b0 01 00 	mov    r13,QWORD PTR [rsp+0x1b0]
    156c:	00 
    156d:	48 89 c6             	mov    rsi,rax
    1570:	48 89 b4 24 a0 01 00 	mov    QWORD PTR [rsp+0x1a0],rsi
    1577:	00 
    1578:	49 8b b4 24 98 00 00 	mov    rsi,QWORD PTR [r12+0x98]
    157f:	00 
    1580:	49 8b 7d 08          	mov    rdi,QWORD PTR [r13+0x8]
    1584:	49 89 b4 24 98 00 00 	mov    QWORD PTR [r12+0x98],rsi
    158b:	00 
    158c:	48 89 5e e0          	mov    QWORD PTR [rsi-0x20],rbx
    1590:	4c 89 7e e8          	mov    QWORD PTR [rsi-0x18],r15
    1594:	b8 01 00 00 00       	mov    eax,0x1
    1599:	48 89 46 f0          	mov    QWORD PTR [rsi-0x10],rax
    159d:	b8 01 00 00 00       	mov    eax,0x1
    15a2:	48 89 46 f8          	mov    QWORD PTR [rsi-0x8],rax
    15a6:	48 31 f6             	xor    rsi,rsi
    15a9:	48 b8 00 00 00 00 00 	movabs rax,0x0
    15b0:	00 00 00 
			15ab: R_X86_64_64	do_callback
    15b3:	48 89 9c 24 a8 01 00 	mov    QWORD PTR [rsp+0x1a8],rbx
    15ba:	00 
    15bb:	48 89 bc 24 b0 01 00 	mov    QWORD PTR [rsp+0x1b0],rdi
    15c2:	00 
    15c3:	4c 89 ac 24 b8 01 00 	mov    QWORD PTR [rsp+0x1b8],r13
    15ca:	00 
    15cb:	ff d0                	call   rax
    15cd:	48 8b 9c 24 a8 01 00 	mov    rbx,QWORD PTR [rsp+0x1a8]
    15d4:	00 
    15d5:	4c 8b ac 24 b8 01 00 	mov    r13,QWORD PTR [rsp+0x1b8]
    15dc:	00 
    15dd:	48 89 c6             	mov    rsi,rax
    15e0:	48 89 b4 24 a8 01 00 	mov    QWORD PTR [rsp+0x1a8],rsi
    15e7:	00 
    15e8:	49 8b b4 24 98 00 00 	mov    rsi,QWORD PTR [r12+0x98]
    15ef:	00 
    15f0:	49 8b 7d 08          	mov    rdi,QWORD PTR [r13+0x8]
    15f4:	49 89 b4 24 98 00 00 	mov    QWORD PTR [r12+0x98],rsi
    15fb:	00 
    15fc:	48 89 5e e0          	mov    QWORD PTR [rsi-0x20],rbx
    1600:	4c 89 7e e8          	mov    QWORD PTR [rsi-0x18],r15
    1604:	b8 01 00 00 00       	mov    eax,0x1
    1609:	48 89 46 f0          	mov    QWORD PTR [rsi-0x10],rax
    160d:	b8 01 00 00 00       	mov    eax,0x1
    1612:	48 89 46 f8          	mov    QWORD PTR [rsi-0x8],rax
    1616:	48 31 f6             	xor    rsi,rsi
    1619:	48 b8 00 00 00 00 00 	movabs rax,0x0
    1620:	00 00 00 
			161b: R_X86_64_64	do_callback
    1623:	48 89 9c 24 b0 01 00 	mov    QWORD PTR [rsp+0x1b0],rbx
    162a:	00 
    162b:	48 89 bc 24 b8 01 00 	mov    QWORD PTR [rsp+0x1b8],rdi
    1632:	00 
    1633:	4c 89 ac 24 c0 01 00 	mov    QWORD PTR [rsp+0x1c0],r13
    163a:	00 
    163b:	ff d0                	call   rax
    163d:	48 8b 9c 24 b0 01 00 	mov    rbx,QWORD PTR [rsp+0x1b0]
    1644:	00 
    1645:	4c 8b ac 24 c0 01 00 	mov    r13,QWORD PTR [rsp+0x1c0]
    164c:	00 
    164d:	48 89 c6             	mov    rsi,rax
    1650:	48 89 b4 24 b0 01 00 	mov    QWORD PTR [rsp+0x1b0],rsi
    1657:	00 
    1658:	49 8b b4 24 98 00 00 	mov    rsi,QWORD PTR [r12+0x98]
    165f:	00 
    1660:	49 8b 7d 08          	mov    rdi,QWORD PTR [r13+0x8]
    1664:	49 89 b4 24 98 00 00 	mov    QWORD PTR [r12+0x98],rsi
    166b:	00 
    166c:	48 89 5e e0          	mov    QWORD PTR [rsi-0x20],rbx
    1670:	4c 89 7e e8          	mov    QWORD PTR [rsi-0x18],r15
    1674:	b8 01 00 00 00       	mov    eax,0x1
    1679:	48 89 46 f0          	mov    QWORD PTR [rsi-0x10],rax
    167d:	b8 01 00 00 00       	mov    eax,0x1
    1682:	48 89 46 f8          	mov    QWORD PTR [rsi-0x8],rax
    1686:	48 31 f6             	xor    rsi,rsi
    1689:	48 b8 00 00 00 00 00 	movabs rax,0x0
    1690:	00 00 00 
			168b: R_X86_64_64	do_callback
    1693:	48 89 9c 24 b8 01 00 	mov    QWORD PTR [rsp+0x1b8],rbx
    169a:	00 
    169b:	48 89 bc 24 c0 01 00 	mov    QWORD PTR [rsp+0x1c0],rdi
    16a2:	00 
    16a3:	4c 89 ac 24 c8 01 00 	mov    QWORD PTR [rsp+0x1c8],r13
    16aa:	00 
    16ab:	ff d0                	call   rax
    16ad:	48 8b 9c 24 b8 01 00 	mov    rbx,QWORD PTR [rsp+0x1b8]
    16b4:	00 
    16b5:	4c 8b ac 24 c8 01 00 	mov    r13,QWORD PTR [rsp+0x1c8]
    16bc:	00 
    16bd:	48 89 c6             	mov    rsi,rax
    16c0:	48 89 b4 24 b8 01 00 	mov    QWORD PTR [rsp+0x1b8],rsi
    16c7:	00 
    16c8:	49 8b b4 24 98 00 00 	mov    rsi,QWORD PTR [r12+0x98]
    16cf:	00 
    16d0:	49 8b 7d 08          	mov    rdi,QWORD PTR [r13+0x8]
    16d4:	49 89 b4 24 98 00 00 	mov    QWORD PTR [r12+0x98],rsi
    16db:	00 
    16dc:	48 89 5e e0          	mov    QWORD PTR [rsi-0x20],rbx
    16e0:	4c 89 7e e8          	mov    QWORD PTR [rsi-0x18],r15
    16e4:	b8 01 00 00 00       	mov    eax,0x1
    16e9:	48 89 46 f0          	mov    QWORD PTR [rsi-0x10],rax
    16ed:	b8 01 00 00 00       	mov    eax,0x1
    16f2:	48 89 46 f8          	mov    QWORD PTR [rsi-0x8],rax
    16f6:	48 31 f6             	xor    rsi,rsi
    16f9:	48 b8 00 00 00 00 00 	movabs rax,0x0
    1700:	00 00 00 
			16fb: R_X86_64_64	do_callback
    1703:	48 89 9c 24 c0 01 00 	mov    QWORD PTR [rsp+0x1c0],rbx
    170a:	00 
    170b:	48 89 bc 24 c8 01 00 	mov    QWORD PTR [rsp+0x1c8],rdi
    1712:	00 
    1713:	4c 89 ac 24 d0 01 00 	mov    QWORD PTR [rsp+0x1d0],r13
    171a:	00 
    171b:	ff d0                	call   rax
    171d:	48 8b 9c 24 c0 01 00 	mov    rbx,QWORD PTR [rsp+0x1c0]
    1724:	00 
    1725:	4c 8b ac 24 d0 01 00 	mov    r13,QWORD PTR [rsp+0x1d0]
    172c:	00 
    172d:	48 89 c6             	mov    rsi,rax
    1730:	48 89 b4 24 c0 01 00 	mov    QWORD PTR [rsp+0x1c0],rsi
    1737:	00 
    1738:	49 8b b4 24 98 00 00 	mov    rsi,QWORD PTR [r12+0x98]
    173f:	00 
    1740:	49 8b 7d 08          	mov    rdi,QWORD PTR [r13+0x8]
    1744:	49 89 b4 24 98 00 00 	mov    QWORD PTR [r12+0x98],rsi
    174b:	00 
    174c:	48 89 5e e0          	mov    QWORD PTR [rsi-0x20],rbx
    1750:	4c 89 7e e8          	mov    QWORD PTR [rsi-0x18],r15
    1754:	b8 01 00 00 00       	mov    eax,0x1
    1759:	48 89 46 f0          	mov    QWORD PTR [rsi-0x10],rax
    175d:	b8 01 00 00 00       	mov    eax,0x1
    1762:	48 89 46 f8          	mov    QWORD PTR [rsi-0x8],rax
    1766:	48 31 f6             	xor    rsi,rsi
    1769:	48 b8 00 00 00 00 00 	movabs rax,0x0
    1770:	00 00 00 
			176b: R_X86_64_64	do_callback
    1773:	48 89 9c 24 c8 01 00 	mov    QWORD PTR [rsp+0x1c8],rbx
    177a:	00 
    177b:	48 89 bc 24 d0 01 00 	mov    QWORD PTR [rsp+0x1d0],rdi
    1782:	00 
    1783:	4c 89 ac 24 d8 01 00 	mov    QWORD PTR [rsp+0x1d8],r13
    178a:	00 
    178b:	ff d0                	call   rax
    178d:	48 8b 9c 24 c8 01 00 	mov    rbx,QWORD PTR [rsp+0x1c8]
    1794:	00 
    1795:	4c 8b ac 24 d8 01 00 	mov    r13,QWORD PTR [rsp+0x1d8]
    179c:	00 
    179d:	48 89 c6             	mov    rsi,rax
    17a0:	48 89 b4 24 c8 01 00 	mov    QWORD PTR [rsp+0x1c8],rsi
    17a7:	00 
    17a8:	49 8b b4 24 98 00 00 	mov    rsi,QWORD PTR [r12+0x98]
    17af:	00 
    17b0:	49 8b 7d 08          	mov    rdi,QWORD PTR [r13+0x8]
    17b4:	49 89 b4 24 98 00 00 	mov    QWORD PTR [r12+0x98],rsi
    17bb:	00 
    17bc:	48 89 5e e0          	mov    QWORD PTR [rsi-0x20],rbx
    17c0:	4c 89 7e e8          	mov    QWORD PTR [rsi-0x18],r15
    17c4:	b8 01 00 00 00       	mov    eax,0x1
    17c9:	48 89 46 f0          	mov    QWORD PTR [rsi-0x10],rax
    17cd:	b8 01 00 00 00       	mov    eax,0x1
    17d2:	48 89 46 f8          	mov    QWORD PTR [rsi-0x8],rax
    17d6:	48 31 f6             	xor    rsi,rsi
    17d9:	48 b8 00 00 00 00 00 	movabs rax,0x0
    17e0:	00 00 00 
			17db: R_X86_64_64	do_callback
    17e3:	48 89 9c 24 d0 01 00 	mov    QWORD PTR [rsp+0x1d0],rbx
    17ea:	00 
    17eb:	48 89 bc 24 d8 01 00 	mov    QWORD PTR [rsp+0x1d8],rdi
    17f2:	00 
    17f3:	4c 89 ac 24 e0 01 00 	mov    QWORD PTR [rsp+0x1e0],r13
    17fa:	00 
    17fb:	ff d0                	call   rax
    17fd:	48 8b 9c 24 d0 01 00 	mov    rbx,QWORD PTR [rsp+0x1d0]
    1804:	00 
    1805:	4c 8b ac 24 e0 01 00 	mov    r13,QWORD PTR [rsp+0x1e0]
    180c:	00 
    180d:	48 89 c6             	mov    rsi,rax
    1810:	48 89 b4 24 d0 01 00 	mov    QWORD PTR [rsp+0x1d0],rsi
    1817:	00 
    1818:	49 8b b4 24 98 00 00 	mov    rsi,QWORD PTR [r12+0x98]
    181f:	00 
    1820:	49 8b 7d 08          	mov    rdi,QWORD PTR [r13+0x8]
    1824:	49 89 b4 24 98 00 00 	mov    QWORD PTR [r12+0x98],rsi
    182b:	00 
    182c:	48 89 5e e0          	mov    QWORD PTR [rsi-0x20],rbx
    1830:	4c 89 7e e8          	mov    QWORD PTR [rsi-0x18],r15
    1834:	b8 01 00 00 00       	mov    eax,0x1
    1839:	48 89 46 f0          	mov    QWORD PTR [rsi-0x10],rax
    183d:	b8 01 00 00 00       	mov    eax,0x1
    1842:	48 89 46 f8          	mov    QWORD PTR [rsi-0x8],rax
    1846:	48 31 f6             	xor    rsi,rsi
    1849:	48 b8 00 00 00 00 00 	movabs rax,0x0
    1850:	00 00 00 
			184b: R_X86_64_64	do_callback
    1853:	48 89 9c 24 d8 01 00 	mov    QWORD PTR [rsp+0x1d8],rbx
    185a:	00 
    185b:	48 89 bc 24 e0 01 00 	mov    QWORD PTR [rsp+0x1e0],rdi
    1862:	00 
    1863:	4c 89 ac 24 e8 01 00 	mov    QWORD PTR [rsp+0x1e8],r13
    186a:	00 
    186b:	ff d0                	call   rax
    186d:	48 8b 9c 24 d8 01 00 	mov    rbx,QWORD PTR [rsp+0x1d8]
    1874:	00 
    1875:	4c 8b ac 24 e8 01 00 	mov    r13,QWORD PTR [rsp+0x1e8]
    187c:	00 
    187d:	48 89 c6             	mov    rsi,rax
    1880:	48 89 b4 24 d8 01 00 	mov    QWORD PTR [rsp+0x1d8],rsi
    1887:	00 
    1888:	49 8b b4 24 98 00 00 	mov    rsi,QWORD PTR [r12+0x98]
    188f:	00 
    1890:	49 8b 7d 08          	mov    rdi,QWORD PTR [r13+0x8]
    1894:	49 89 b4 24 98 00 00 	mov    QWORD PTR [r12+0x98],rsi
    189b:	00 
    189c:	48 89 5e e0          	mov    QWORD PTR [rsi-0x20],rbx
    18a0:	4c 89 7e e8          	mov    QWORD PTR [rsi-0x18],r15
    18a4:	b8 01 00 00 00       	mov    eax,0x1
    18a9:	48 89 46 f0          	mov    QWORD PTR [rsi-0x10],rax
    18ad:	b8 01 00 00 00       	mov    eax,0x1
    18b2:	48 89 46 f8          	mov    QWORD PTR [rsi-0x8],rax
    18b6:	48 31 f6             	xor    rsi,rsi
    18b9:	48 b8 00 00 00 00 00 	movabs rax,0x0
    18c0:	00 00 00 
			18bb: R_X86_64_64	do_callback
    18c3:	48 89 9c 24 e0 01 00 	mov    QWORD PTR [rsp+0x1e0],rbx
    18ca:	00 
    18cb:	48 89 bc 24 e8 01 00 	mov    QWORD PTR [rsp+0x1e8],rdi
    18d2:	00 
    18d3:	4c 89 ac 24 f0 01 00 	mov    QWORD PTR [rsp+0x1f0],r13
    18da:	00 
    18db:	ff d0                	call   rax
    18dd:	48 8b 9c 24 e0 01 00 	mov    rbx,QWORD PTR [rsp+0x1e0]
    18e4:	00 
    18e5:	4c 8b ac 24 f0 01 00 	mov    r13,QWORD PTR [rsp+0x1f0]
    18ec:	00 
    18ed:	48 89 c6             	mov    rsi,rax
    18f0:	48 89 b4 24 e0 01 00 	mov    QWORD PTR [rsp+0x1e0],rsi
    18f7:	00 
    18f8:	49 8b b4 24 98 00 00 	mov    rsi,QWORD PTR [r12+0x98]
    18ff:	00 
    1900:	49 8b 7d 08          	mov    rdi,QWORD PTR [r13+0x8]
    1904:	49 89 b4 24 98 00 00 	mov    QWORD PTR [r12+0x98],rsi
    190b:	00 
    190c:	48 89 5e e0          	mov    QWORD PTR [rsi-0x20],rbx
    1910:	4c 89 7e e8          	mov    QWORD PTR [rsi-0x18],r15
    1914:	b8 01 00 00 00       	mov    eax,0x1
    1919:	48 89 46 f0          	mov    QWORD PTR [rsi-0x10],rax
    191d:	b8 01 00 00 00       	mov    eax,0x1
    1922:	48 89 46 f8          	mov    QWORD PTR [rsi-0x8],rax
    1926:	48 31 f6             	xor    rsi,rsi
    1929:	48 b8 00 00 00 00 00 	movabs rax,0x0
    1930:	00 00 00 
			192b: R_X86_64_64	do_callback
    1933:	48 89 9c 24 e8 01 00 	mov    QWORD PTR [rsp+0x1e8],rbx
    193a:	00 
    193b:	48 89 bc 24 f0 01 00 	mov    QWORD PTR [rsp+0x1f0],rdi
    1942:	00 
    1943:	4c 89 ac 24 f8 01 00 	mov    QWORD PTR [rsp+0x1f8],r13
    194a:	00 
    194b:	ff d0                	call   rax
    194d:	48 8b 9c 24 e8 01 00 	mov    rbx,QWORD PTR [rsp+0x1e8]
    1954:	00 
    1955:	4c 8b ac 24 f8 01 00 	mov    r13,QWORD PTR [rsp+0x1f8]
    195c:	00 
    195d:	48 89 c6             	mov    rsi,rax
    1960:	48 89 b4 24 e8 01 00 	mov    QWORD PTR [rsp+0x1e8],rsi
    1967:	00 
    1968:	49 8b b4 24 98 00 00 	mov    rsi,QWORD PTR [r12+0x98]
    196f:	00 
    1970:	49 8b 7d 08          	mov    rdi,QWORD PTR [r13+0x8]
    1974:	49 89 b4 24 98 00 00 	mov    QWORD PTR [r12+0x98],rsi
    197b:	00 
    197c:	48 89 5e e0          	mov    QWORD PTR [rsi-0x20],rbx
    1980:	4c 89 7e e8          	mov    QWORD PTR [rsi-0x18],r15
    1984:	b8 01 00 00 00       	mov    eax,0x1
    1989:	48 89 46 f0          	mov    QWORD PTR [rsi-0x10],rax
    198d:	b8 01 00 00 00       	mov    eax,0x1
    1992:	48 89 46 f8          	mov    QWORD PTR [rsi-0x8],rax
    1996:	48 31 f6             	xor    rsi,rsi
    1999:	48 b8 00 00 00 00 00 	movabs rax,0x0
    19a0:	00 00 00 
			199b: R_X86_64_64	do_callback
    19a3:	48 89 9c 24 f0 01 00 	mov    QWORD PTR [rsp+0x1f0],rbx
    19aa:	00 
    19ab:	48 89 bc 24 f8 01 00 	mov    QWORD PTR [rsp+0x1f8],rdi
    19b2:	00 
    19b3:	4c 89 ac 24 00 02 00 	mov    QWORD PTR [rsp+0x200],r13
    19ba:	00 
    19bb:	ff d0                	call   rax
    19bd:	48 8b 9c 24 f0 01 00 	mov    rbx,QWORD PTR [rsp+0x1f0]
    19c4:	00 
    19c5:	4c 8b ac 24 00 02 00 	mov    r13,QWORD PTR [rsp+0x200]
    19cc:	00 
    19cd:	48 89 c6             	mov    rsi,rax
    19d0:	48 89 b4 24 f0 01 00 	mov    QWORD PTR [rsp+0x1f0],rsi
    19d7:	00 
    19d8:	49 8b b4 24 98 00 00 	mov    rsi,QWORD PTR [r12+0x98]
    19df:	00 
    19e0:	49 8b 7d 08          	mov    rdi,QWORD PTR [r13+0x8]
    19e4:	49 89 b4 24 98 00 00 	mov    QWORD PTR [r12+0x98],rsi
    19eb:	00 
    19ec:	48 89 5e e0          	mov    QWORD PTR [rsi-0x20],rbx
    19f0:	4c 89 7e e8          	mov    QWORD PTR [rsi-0x18],r15
    19f4:	b8 01 00 00 00       	mov    eax,0x1
    19f9:	48 89 46 f0          	mov    QWORD PTR [rsi-0x10],rax
    19fd:	b8 01 00 00 00       	mov    eax,0x1
    1a02:	48 89 46 f8          	mov    QWORD PTR [rsi-0x8],rax
    1a06:	48 31 f6             	xor    rsi,rsi
    1a09:	48 b8 00 00 00 00 00 	movabs rax,0x0
    1a10:	00 00 00 
			1a0b: R_X86_64_64	do_callback
    1a13:	48 89 9c 24 f8 01 00 	mov    QWORD PTR [rsp+0x1f8],rbx
    1a1a:	00 
    1a1b:	48 89 bc 24 00 02 00 	mov    QWORD PTR [rsp+0x200],rdi
    1a22:	00 
    1a23:	4c 89 ac 24 08 02 00 	mov    QWORD PTR [rsp+0x208],r13
    1a2a:	00 
    1a2b:	ff d0                	call   rax
    1a2d:	48 8b 9c 24 f8 01 00 	mov    rbx,QWORD PTR [rsp+0x1f8]
    1a34:	00 
    1a35:	4c 8b ac 24 08 02 00 	mov    r13,QWORD PTR [rsp+0x208]
    1a3c:	00 
    1a3d:	48 89 c6             	mov    rsi,rax
    1a40:	48 89 b4 24 f8 01 00 	mov    QWORD PTR [rsp+0x1f8],rsi
    1a47:	00 
    1a48:	49 8b b4 24 98 00 00 	mov    rsi,QWORD PTR [r12+0x98]
    1a4f:	00 
    1a50:	49 8b 7d 08          	mov    rdi,QWORD PTR [r13+0x8]
    1a54:	49 89 b4 24 98 00 00 	mov    QWORD PTR [r12+0x98],rsi
    1a5b:	00 
    1a5c:	48 89 5e e0          	mov    QWORD PTR [rsi-0x20],rbx
    1a60:	4c 89 7e e8          	mov    QWORD PTR [rsi-0x18],r15
    1a64:	b8 01 00 00 00       	mov    eax,0x1
    1a69:	48 89 46 f0          	mov    QWORD PTR [rsi-0x10],rax
    1a6d:	b8 01 00 00 00       	mov    eax,0x1
    1a72:	48 89 46 f8          	mov    QWORD PTR [rsi-0x8],rax
    1a76:	48 31 f6             	xor    rsi,rsi
    1a79:	48 b8 00 00 00 00 00 	movabs rax,0x0
    1a80:	00 00 00 
			1a7b: R_X86_64_64	do_callback
    1a83:	48 89 9c 24 00 02 00 	mov    QWORD PTR [rsp+0x200],rbx
    1a8a:	00 
    1a8b:	48 89 bc 24 08 02 00 	mov    QWORD PTR [rsp+0x208],rdi
    1a92:	00 
    1a93:	4c 89 ac 24 10 02 00 	mov    QWORD PTR [rsp+0x210],r13
    1a9a:	00 
    1a9b:	ff d0                	call   rax
    1a9d:	48 8b 9c 24 00 02 00 	mov    rbx,QWORD PTR [rsp+0x200]
    1aa4:	00 
    1aa5:	4c 8b ac 24 10 02 00 	mov    r13,QWORD PTR [rsp+0x210]
    1aac:	00 
    1aad:	48 89 c6             	mov    rsi,rax
    1ab0:	48 89 b4 24 00 02 00 	mov    QWORD PTR [rsp+0x200],rsi
    1ab7:	00 
    1ab8:	49 8b b4 24 98 00 00 	mov    rsi,QWORD PTR [r12+0x98]
    1abf:	00 
    1ac0:	49 8b 7d 08          	mov    rdi,QWORD PTR [r13+0x8]
    1ac4:	49 89 b4 24 98 00 00 	mov    QWORD PTR [r12+0x98],rsi
    1acb:	00 
    1acc:	48 89 5e e0          	mov    QWORD PTR [rsi-0x20],rbx
    1ad0:	4c 89 7e e8          	mov    QWORD PTR [rsi-0x18],r15
    1ad4:	b8 01 00 00 00       	mov    eax,0x1
    1ad9:	48 89 46 f0          	mov    QWORD PTR [rsi-0x10],rax
    1add:	b8 01 00 00 00       	mov    eax,0x1
    1ae2:	48 89 46 f8          	mov    QWORD PTR [rsi-0x8],rax
    1ae6:	48 31 f6             	xor    rsi,rsi
    1ae9:	48 b8 00 00 00 00 00 	movabs rax,0x0
    1af0:	00 00 00 
			1aeb: R_X86_64_64	do_callback
    1af3:	48 89 9c 24 08 02 00 	mov    QWORD PTR [rsp+0x208],rbx
    1afa:	00 
    1afb:	48 89 bc 24 10 02 00 	mov    QWORD PTR [rsp+0x210],rdi
    1b02:	00 
    1b03:	4c 89 ac 24 18 02 00 	mov    QWORD PTR [rsp+0x218],r13
    1b0a:	00 
    1b0b:	ff d0                	call   rax
    1b0d:	48 8b 9c 24 08 02 00 	mov    rbx,QWORD PTR [rsp+0x208]
    1b14:	00 
    1b15:	4c 8b ac 24 18 02 00 	mov    r13,QWORD PTR [rsp+0x218]
    1b1c:	00 
    1b1d:	48 89 c6             	mov    rsi,rax
    1b20:	48 89 b4 24 08 02 00 	mov    QWORD PTR [rsp+0x208],rsi
    1b27:	00 
    1b28:	49 8b b4 24 98 00 00 	mov    rsi,QWORD PTR [r12+0x98]
    1b2f:	00 
    1b30:	49 8b 7d 08          	mov    rdi,QWORD PTR [r13+0x8]
    1b34:	49 89 b4 24 98 00 00 	mov    QWORD PTR [r12+0x98],rsi
    1b3b:	00 
    1b3c:	48 89 5e e0          	mov    QWORD PTR [rsi-0x20],rbx
    1b40:	4c 89 7e e8          	mov    QWORD PTR [rsi-0x18],r15
    1b44:	b8 01 00 00 00       	mov    eax,0x1
    1b49:	48 89 46 f0          	mov    QWORD PTR [rsi-0x10],rax
    1b4d:	b8 01 00 00 00       	mov    eax,0x1
    1b52:	48 89 46 f8          	mov    QWORD PTR [rsi-0x8],rax
    1b56:	48 31 f6             	xor    rsi,rsi
    1b59:	48 b8 00 00 00 00 00 	movabs rax,0x0
    1b60:	00 00 00 
			1b5b: R_X86_64_64	do_callback
    1b63:	48 89 9c 24 10 02 00 	mov    QWORD PTR [rsp+0x210],rbx
    1b6a:	00 
    1b6b:	48 89 bc 24 18 02 00 	mov    QWORD PTR [rsp+0x218],rdi
    1b72:	00 
    1b73:	4c 89 ac 24 20 02 00 	mov    QWORD PTR [rsp+0x220],r13
    1b7a:	00 
    1b7b:	ff d0                	call   rax
    1b7d:	48 8b 9c 24 10 02 00 	mov    rbx,QWORD PTR [rsp+0x210]
    1b84:	00 
    1b85:	4c 8b ac 24 20 02 00 	mov    r13,QWORD PTR [rsp+0x220]
    1b8c:	00 
    1b8d:	48 89 c6             	mov    rsi,rax
    1b90:	48 89 b4 24 10 02 00 	mov    QWORD PTR [rsp+0x210],rsi
    1b97:	00 
    1b98:	49 8b b4 24 98 00 00 	mov    rsi,QWORD PTR [r12+0x98]
    1b9f:	00 
    1ba0:	49 8b 7d 08          	mov    rdi,QWORD PTR [r13+0x8]
    1ba4:	49 89 b4 24 98 00 00 	mov    QWORD PTR [r12+0x98],rsi
    1bab:	00 
    1bac:	48 89 5e e0          	mov    QWORD PTR [rsi-0x20],rbx
    1bb0:	4c 89 7e e8          	mov    QWORD PTR [rsi-0x18],r15
    1bb4:	b8 01 00 00 00       	mov    eax,0x1
    1bb9:	48 89 46 f0          	mov    QWORD PTR [rsi-0x10],rax
    1bbd:	b8 01 00 00 00       	mov    eax,0x1
    1bc2:	48 89 46 f8          	mov    QWORD PTR [rsi-0x8],rax
    1bc6:	48 31 f6             	xor    rsi,rsi
    1bc9:	48 b8 00 00 00 00 00 	movabs rax,0x0
    1bd0:	00 00 00 
			1bcb: R_X86_64_64	do_callback
    1bd3:	48 89 9c 24 18 02 00 	mov    QWORD PTR [rsp+0x218],rbx
    1bda:	00 
    1bdb:	48 89 bc 24 20 02 00 	mov    QWORD PTR [rsp+0x220],rdi
    1be2:	00 
    1be3:	4c 89 ac 24 28 02 00 	mov    QWORD PTR [rsp+0x228],r13
    1bea:	00 
    1beb:	ff d0                	call   rax
    1bed:	48 8b 9c 24 18 02 00 	mov    rbx,QWORD PTR [rsp+0x218]
    1bf4:	00 
    1bf5:	4c 8b ac 24 28 02 00 	mov    r13,QWORD PTR [rsp+0x228]
    1bfc:	00 
    1bfd:	48 89 c6             	mov    rsi,rax
    1c00:	48 89 b4 24 18 02 00 	mov    QWORD PTR [rsp+0x218],rsi
    1c07:	00 
    1c08:	49 8b b4 24 98 00 00 	mov    rsi,QWORD PTR [r12+0x98]
    1c0f:	00 
    1c10:	49 8b 7d 08          	mov    rdi,QWORD PTR [r13+0x8]
    1c14:	49 89 b4 24 98 00 00 	mov    QWORD PTR [r12+0x98],rsi
    1c1b:	00 
    1c1c:	48 89 5e e0          	mov    QWORD PTR [rsi-0x20],rbx
    1c20:	4c 89 7e e8          	mov    QWORD PTR [rsi-0x18],r15
    1c24:	b8 01 00 00 00       	mov    eax,0x1
    1c29:	48 89 46 f0          	mov    QWORD PTR [rsi-0x10],rax
    1c2d:	b8 01 00 00 00       	mov    eax,0x1
    1c32:	48 89 46 f8          	mov    QWORD PTR [rsi-0x8],rax
    1c36:	48 31 f6             	xor    rsi,rsi
    1c39:	48 b8 00 00 00 00 00 	movabs rax,0x0
    1c40:	00 00 00 
			1c3b: R_X86_64_64	do_callback
    1c43:	48 89 9c 24 20 02 00 	mov    QWORD PTR [rsp+0x220],rbx
    1c4a:	00 
    1c4b:	48 89 bc 24 28 02 00 	mov    QWORD PTR [rsp+0x228],rdi
    1c52:	00 
    1c53:	4c 89 ac 24 30 02 00 	mov    QWORD PTR [rsp+0x230],r13
    1c5a:	00 
    1c5b:	ff d0                	call   rax
    1c5d:	48 8b 9c 24 20 02 00 	mov    rbx,QWORD PTR [rsp+0x220]
    1c64:	00 
    1c65:	4c 8b ac 24 30 02 00 	mov    r13,QWORD PTR [rsp+0x230]
    1c6c:	00 
    1c6d:	48 89 c6             	mov    rsi,rax
    1c70:	48 89 b4 24 20 02 00 	mov    QWORD PTR [rsp+0x220],rsi
    1c77:	00 
    1c78:	49 8b b4 24 98 00 00 	mov    rsi,QWORD PTR [r12+0x98]
    1c7f:	00 
    1c80:	49 8b 7d 08          	mov    rdi,QWORD PTR [r13+0x8]
    1c84:	49 89 b4 24 98 00 00 	mov    QWORD PTR [r12+0x98],rsi
    1c8b:	00 
    1c8c:	48 89 5e e0          	mov    QWORD PTR [rsi-0x20],rbx
    1c90:	4c 89 7e e8          	mov    QWORD PTR [rsi-0x18],r15
    1c94:	b8 01 00 00 00       	mov    eax,0x1
    1c99:	48 89 46 f0          	mov    QWORD PTR [rsi-0x10],rax
    1c9d:	b8 01 00 00 00       	mov    eax,0x1
    1ca2:	48 89 46 f8          	mov    QWORD PTR [rsi-0x8],rax
    1ca6:	48 31 f6             	xor    rsi,rsi
    1ca9:	48 b8 00 00 00 00 00 	movabs rax,0x0
    1cb0:	00 00 00 
			1cab: R_X86_64_64	do_callback
    1cb3:	48 89 9c 24 28 02 00 	mov    QWORD PTR [rsp+0x228],rbx
    1cba:	00 
    1cbb:	48 89 bc 24 30 02 00 	mov    QWORD PTR [rsp+0x230],rdi
    1cc2:	00 
    1cc3:	4c 89 ac 24 38 02 00 	mov    QWORD PTR [rsp+0x238],r13
    1cca:	00 
    1ccb:	ff d0                	call   rax
    1ccd:	48 8b 9c 24 28 02 00 	mov    rbx,QWORD PTR [rsp+0x228]
    1cd4:	00 
    1cd5:	4c 8b ac 24 38 02 00 	mov    r13,QWORD PTR [rsp+0x238]
    1cdc:	00 
    1cdd:	48 89 c6             	mov    rsi,rax
    1ce0:	48 89 b4 24 28 02 00 	mov    QWORD PTR [rsp+0x228],rsi
    1ce7:	00 
    1ce8:	49 8b b4 24 98 00 00 	mov    rsi,QWORD PTR [r12+0x98]
    1cef:	00 
    1cf0:	49 8b 7d 08          	mov    rdi,QWORD PTR [r13+0x8]
    1cf4:	49 89 b4 24 98 00 00 	mov    QWORD PTR [r12+0x98],rsi
    1cfb:	00 
    1cfc:	48 89 5e e0          	mov    QWORD PTR [rsi-0x20],rbx
    1d00:	4c 89 7e e8          	mov    QWORD PTR [rsi-0x18],r15
    1d04:	b8 01 00 00 00       	mov    eax,0x1
    1d09:	48 89 46 f0          	mov    QWORD PTR [rsi-0x10],rax
    1d0d:	b8 01 00 00 00       	mov    eax,0x1
    1d12:	48 89 46 f8          	mov    QWORD PTR [rsi-0x8],rax
    1d16:	48 31 f6             	xor    rsi,rsi
    1d19:	48 b8 00 00 00 00 00 	movabs rax,0x0
    1d20:	00 00 00 
			1d1b: R_X86_64_64	do_callback
    1d23:	48 89 9c 24 30 02 00 	mov    QWORD PTR [rsp+0x230],rbx
    1d2a:	00 
    1d2b:	48 89 bc 24 38 02 00 	mov    QWORD PTR [rsp+0x238],rdi
    1d32:	00 
    1d33:	4c 89 ac 24 40 02 00 	mov    QWORD PTR [rsp+0x240],r13
    1d3a:	00 
    1d3b:	ff d0                	call   rax
    1d3d:	48 8b 9c 24 30 02 00 	mov    rbx,QWORD PTR [rsp+0x230]
    1d44:	00 
    1d45:	4c 8b ac 24 40 02 00 	mov    r13,QWORD PTR [rsp+0x240]
    1d4c:	00 
    1d4d:	48 89 c6             	mov    rsi,rax
    1d50:	48 89 b4 24 30 02 00 	mov    QWORD PTR [rsp+0x230],rsi
    1d57:	00 
    1d58:	49 8b b4 24 98 00 00 	mov    rsi,QWORD PTR [r12+0x98]
    1d5f:	00 
    1d60:	49 8b 7d 08          	mov    rdi,QWORD PTR [r13+0x8]
    1d64:	49 89 b4 24 98 00 00 	mov    QWORD PTR [r12+0x98],rsi
    1d6b:	00 
    1d6c:	48 89 5e e0          	mov    QWORD PTR [rsi-0x20],rbx
    1d70:	4c 89 7e e8          	mov    QWORD PTR [rsi-0x18],r15
    1d74:	b8 01 00 00 00       	mov    eax,0x1
    1d79:	48 89 46 f0          	mov    QWORD PTR [rsi-0x10],rax
    1d7d:	b8 01 00 00 00       	mov    eax,0x1
    1d82:	48 89 46 f8          	mov    QWORD PTR [rsi-0x8],rax
    1d86:	48 31 f6             	xor    rsi,rsi
    1d89:	48 b8 00 00 00 00 00 	movabs rax,0x0
    1d90:	00 00 00 
			1d8b: R_X86_64_64	do_callback
    1d93:	48 89 9c 24 38 02 00 	mov    QWORD PTR [rsp+0x238],rbx
    1d9a:	00 
    1d9b:	48 89 bc 24 40 02 00 	mov    QWORD PTR [rsp+0x240],rdi
    1da2:	00 
    1da3:	4c 89 ac 24 48 02 00 	mov    QWORD PTR [rsp+0x248],r13
    1daa:	00 
    1dab:	ff d0                	call   rax
    1dad:	48 8b 9c 24 38 02 00 	mov    rbx,QWORD PTR [rsp+0x238]
    1db4:	00 
    1db5:	4c 8b ac 24 48 02 00 	mov    r13,QWORD PTR [rsp+0x248]
    1dbc:	00 
    1dbd:	48 89 c6             	mov    rsi,rax
    1dc0:	48 89 b4 24 38 02 00 	mov    QWORD PTR [rsp+0x238],rsi
    1dc7:	00 
    1dc8:	49 8b b4 24 98 00 00 	mov    rsi,QWORD PTR [r12+0x98]
    1dcf:	00 
    1dd0:	49 8b 7d 08          	mov    rdi,QWORD PTR [r13+0x8]
    1dd4:	49 89 b4 24 98 00 00 	mov    QWORD PTR [r12+0x98],rsi
    1ddb:	00 
    1ddc:	48 89 5e e0          	mov    QWORD PTR [rsi-0x20],rbx
    1de0:	4c 89 7e e8          	mov    QWORD PTR [rsi-0x18],r15
    1de4:	b8 01 00 00 00       	mov    eax,0x1
    1de9:	48 89 46 f0          	mov    QWORD PTR [rsi-0x10],rax
    1ded:	b8 01 00 00 00       	mov    eax,0x1
    1df2:	48 89 46 f8          	mov    QWORD PTR [rsi-0x8],rax
    1df6:	48 31 f6             	xor    rsi,rsi
    1df9:	48 b8 00 00 00 00 00 	movabs rax,0x0
    1e00:	00 00 00 
			1dfb: R_X86_64_64	do_callback
    1e03:	48 89 9c 24 40 02 00 	mov    QWORD PTR [rsp+0x240],rbx
    1e0a:	00 
    1e0b:	48 89 bc 24 48 02 00 	mov    QWORD PTR [rsp+0x248],rdi
    1e12:	00 
    1e13:	4c 89 ac 24 50 02 00 	mov    QWORD PTR [rsp+0x250],r13
    1e1a:	00 
    1e1b:	ff d0                	call   rax
    1e1d:	48 8b 9c 24 40 02 00 	mov    rbx,QWORD PTR [rsp+0x240]
    1e24:	00 
    1e25:	4c 8b ac 24 50 02 00 	mov    r13,QWORD PTR [rsp+0x250]
    1e2c:	00 
    1e2d:	48 89 c6             	mov    rsi,rax
    1e30:	48 89 b4 24 40 02 00 	mov    QWORD PTR [rsp+0x240],rsi
    1e37:	00 
    1e38:	49 8b b4 24 98 00 00 	mov    rsi,QWORD PTR [r12+0x98]
    1e3f:	00 
    1e40:	49 8b 7d 08          	mov    rdi,QWORD PTR [r13+0x8]
    1e44:	49 89 b4 24 98 00 00 	mov    QWORD PTR [r12+0x98],rsi
    1e4b:	00 
    1e4c:	48 89 5e e0          	mov    QWORD PTR [rsi-0x20],rbx
    1e50:	4c 89 7e e8          	mov    QWORD PTR [rsi-0x18],r15
    1e54:	b8 01 00 00 00       	mov    eax,0x1
    1e59:	48 89 46 f0          	mov    QWORD PTR [rsi-0x10],rax
    1e5d:	b8 01 00 00 00       	mov    eax,0x1
    1e62:	48 89 46 f8          	mov    QWORD PTR [rsi-0x8],rax
    1e66:	48 31 f6             	xor    rsi,rsi
    1e69:	48 b8 00 00 00 00 00 	movabs rax,0x0
    1e70:	00 00 00 
			1e6b: R_X86_64_64	do_callback
    1e73:	48 89 9c 24 48 02 00 	mov    QWORD PTR [rsp+0x248],rbx
    1e7a:	00 
    1e7b:	48 89 bc 24 50 02 00 	mov    QWORD PTR [rsp+0x250],rdi
    1e82:	00 
    1e83:	4c 89 ac 24 58 02 00 	mov    QWORD PTR [rsp+0x258],r13
    1e8a:	00 
    1e8b:	ff d0                	call   rax
    1e8d:	48 8b 9c 24 48 02 00 	mov    rbx,QWORD PTR [rsp+0x248]
    1e94:	00 
    1e95:	4c 8b ac 24 58 02 00 	mov    r13,QWORD PTR [rsp+0x258]
    1e9c:	00 
    1e9d:	48 89 c6             	mov    rsi,rax
    1ea0:	48 89 b4 24 48 02 00 	mov    QWORD PTR [rsp+0x248],rsi
    1ea7:	00 
    1ea8:	49 8b b4 24 98 00 00 	mov    rsi,QWORD PTR [r12+0x98]
    1eaf:	00 
    1eb0:	49 8b 7d 08          	mov    rdi,QWORD PTR [r13+0x8]
    1eb4:	49 89 b4 24 98 00 00 	mov    QWORD PTR [r12+0x98],rsi
    1ebb:	00 
    1ebc:	48 89 5e e0          	mov    QWORD PTR [rsi-0x20],rbx
    1ec0:	4c 89 7e e8          	mov    QWORD PTR [rsi-0x18],r15
    1ec4:	b8 01 00 00 00       	mov    eax,0x1
    1ec9:	48 89 46 f0          	mov    QWORD PTR [rsi-0x10],rax
    1ecd:	b8 01 00 00 00       	mov    eax,0x1
    1ed2:	48 89 46 f8          	mov    QWORD PTR [rsi-0x8],rax
    1ed6:	48 31 f6             	xor    rsi,rsi
    1ed9:	48 b8 00 00 00 00 00 	movabs rax,0x0
    1ee0:	00 00 00 
			1edb: R_X86_64_64	do_callback
    1ee3:	48 89 9c 24 50 02 00 	mov    QWORD PTR [rsp+0x250],rbx
    1eea:	00 
    1eeb:	48 89 bc 24 58 02 00 	mov    QWORD PTR [rsp+0x258],rdi
    1ef2:	00 
    1ef3:	4c 89 ac 24 60 02 00 	mov    QWORD PTR [rsp+0x260],r13
    1efa:	00 
    1efb:	ff d0                	call   rax
    1efd:	48 8b 9c 24 50 02 00 	mov    rbx,QWORD PTR [rsp+0x250]
    1f04:	00 
    1f05:	4c 8b ac 24 60 02 00 	mov    r13,QWORD PTR [rsp+0x260]
    1f0c:	00 
    1f0d:	48 89 c6             	mov    rsi,rax
    1f10:	48 89 b4 24 50 02 00 	mov    QWORD PTR [rsp+0x250],rsi
    1f17:	00 
    1f18:	49 8b b4 24 98 00 00 	mov    rsi,QWORD PTR [r12+0x98]
    1f1f:	00 
    1f20:	49 8b 7d 08          	mov    rdi,QWORD PTR [r13+0x8]
    1f24:	49 89 b4 24 98 00 00 	mov    QWORD PTR [r12+0x98],rsi
    1f2b:	00 
    1f2c:	48 89 5e e0          	mov    QWORD PTR [rsi-0x20],rbx
    1f30:	4c 89 7e e8          	mov    QWORD PTR [rsi-0x18],r15
    1f34:	b8 01 00 00 00       	mov    eax,0x1
    1f39:	48 89 46 f0          	mov    QWORD PTR [rsi-0x10],rax
    1f3d:	b8 01 00 00 00       	mov    eax,0x1
    1f42:	48 89 46 f8          	mov    QWORD PTR [rsi-0x8],rax
    1f46:	48 31 f6             	xor    rsi,rsi
    1f49:	48 b8 00 00 00 00 00 	movabs rax,0x0
    1f50:	00 00 00 
			1f4b: R_X86_64_64	do_callback
    1f53:	48 89 9c 24 58 02 00 	mov    QWORD PTR [rsp+0x258],rbx
    1f5a:	00 
    1f5b:	48 89 bc 24 60 02 00 	mov    QWORD PTR [rsp+0x260],rdi
    1f62:	00 
    1f63:	4c 89 ac 24 68 02 00 	mov    QWORD PTR [rsp+0x268],r13
    1f6a:	00 
    1f6b:	ff d0                	call   rax
    1f6d:	48 8b 9c 24 58 02 00 	mov    rbx,QWORD PTR [rsp+0x258]
    1f74:	00 
    1f75:	4c 8b ac 24 68 02 00 	mov    r13,QWORD PTR [rsp+0x268]
    1f7c:	00 
    1f7d:	48 89 c6             	mov    rsi,rax
    1f80:	48 89 b4 24 58 02 00 	mov    QWORD PTR [rsp+0x258],rsi
    1f87:	00 
    1f88:	49 8b b4 24 98 00 00 	mov    rsi,QWORD PTR [r12+0x98]
    1f8f:	00 
    1f90:	49 8b 7d 08          	mov    rdi,QWORD PTR [r13+0x8]
    1f94:	49 89 b4 24 98 00 00 	mov    QWORD PTR [r12+0x98],rsi
    1f9b:	00 
    1f9c:	48 89 5e e0          	mov    QWORD PTR [rsi-0x20],rbx
    1fa0:	4c 89 7e e8          	mov    QWORD PTR [rsi-0x18],r15
    1fa4:	b8 01 00 00 00       	mov    eax,0x1
    1fa9:	48 89 46 f0          	mov    QWORD PTR [rsi-0x10],rax
    1fad:	b8 01 00 00 00       	mov    eax,0x1
    1fb2:	48 89 46 f8          	mov    QWORD PTR [rsi-0x8],rax
    1fb6:	48 31 f6             	xor    rsi,rsi
    1fb9:	48 b8 00 00 00 00 00 	movabs rax,0x0
    1fc0:	00 00 00 
			1fbb: R_X86_64_64	do_callback
    1fc3:	48 89 9c 24 60 02 00 	mov    QWORD PTR [rsp+0x260],rbx
    1fca:	00 
    1fcb:	48 89 bc 24 68 02 00 	mov    QWORD PTR [rsp+0x268],rdi
    1fd2:	00 
    1fd3:	4c 89 ac 24 70 02 00 	mov    QWORD PTR [rsp+0x270],r13
    1fda:	00 
    1fdb:	ff d0                	call   rax
    1fdd:	48 8b 9c 24 60 02 00 	mov    rbx,QWORD PTR [rsp+0x260]
    1fe4:	00 
    1fe5:	4c 8b ac 24 70 02 00 	mov    r13,QWORD PTR [rsp+0x270]
    1fec:	00 
    1fed:	48 89 c6             	mov    rsi,rax
    1ff0:	48 89 b4 24 60 02 00 	mov    QWORD PTR [rsp+0x260],rsi
    1ff7:	00 
    1ff8:	49 8b b4 24 98 00 00 	mov    rsi,QWORD PTR [r12+0x98]
    1fff:	00 
    2000:	49 8b 7d 08          	mov    rdi,QWORD PTR [r13+0x8]
    2004:	49 89 b4 24 98 00 00 	mov    QWORD PTR [r12+0x98],rsi
    200b:	00 
    200c:	48 89 5e e0          	mov    QWORD PTR [rsi-0x20],rbx
    2010:	4c 89 7e e8          	mov    QWORD PTR [rsi-0x18],r15
    2014:	b8 01 00 00 00       	mov    eax,0x1
    2019:	48 89 46 f0          	mov    QWORD PTR [rsi-0x10],rax
    201d:	b8 01 00 00 00       	mov    eax,0x1
    2022:	48 89 46 f8          	mov    QWORD PTR [rsi-0x8],rax
    2026:	48 31 f6             	xor    rsi,rsi
    2029:	48 b8 00 00 00 00 00 	movabs rax,0x0
    2030:	00 00 00 
			202b: R_X86_64_64	do_callback
    2033:	48 89 9c 24 68 02 00 	mov    QWORD PTR [rsp+0x268],rbx
    203a:	00 
    203b:	48 89 bc 24 70 02 00 	mov    QWORD PTR [rsp+0x270],rdi
    2042:	00 
    2043:	4c 89 ac 24 78 02 00 	mov    QWORD PTR [rsp+0x278],r13
    204a:	00 
    204b:	ff d0                	call   rax
    204d:	48 8b 9c 24 68 02 00 	mov    rbx,QWORD PTR [rsp+0x268]
    2054:	00 
    2055:	4c 8b ac 24 78 02 00 	mov    r13,QWORD PTR [rsp+0x278]
    205c:	00 
    205d:	48 89 c6             	mov    rsi,rax
    2060:	48 89 b4 24 68 02 00 	mov    QWORD PTR [rsp+0x268],rsi
    2067:	00 
    2068:	49 8b b4 24 98 00 00 	mov    rsi,QWORD PTR [r12+0x98]
    206f:	00 
    2070:	49 8b 7d 08          	mov    rdi,QWORD PTR [r13+0x8]
    2074:	49 89 b4 24 98 00 00 	mov    QWORD PTR [r12+0x98],rsi
    207b:	00 
    207c:	48 89 5e e0          	mov    QWORD PTR [rsi-0x20],rbx
    2080:	4c 89 7e e8          	mov    QWORD PTR [rsi-0x18],r15
    2084:	b8 01 00 00 00       	mov    eax,0x1
    2089:	48 89 46 f0          	mov    QWORD PTR [rsi-0x10],rax
    208d:	b8 01 00 00 00       	mov    eax,0x1
    2092:	48 89 46 f8          	mov    QWORD PTR [rsi-0x8],rax
    2096:	48 31 f6             	xor    rsi,rsi
    2099:	48 b8 00 00 00 00 00 	movabs rax,0x0
    20a0:	00 00 00 
			209b: R_X86_64_64	do_callback
    20a3:	48 89 9c 24 70 02 00 	mov    QWORD PTR [rsp+0x270],rbx
    20aa:	00 
    20ab:	48 89 bc 24 78 02 00 	mov    QWORD PTR [rsp+0x278],rdi
    20b2:	00 
    20b3:	4c 89 ac 24 80 02 00 	mov    QWORD PTR [rsp+0x280],r13
    20ba:	00 
    20bb:	ff d0                	call   rax
    20bd:	48 8b 9c 24 70 02 00 	mov    rbx,QWORD PTR [rsp+0x270]
    20c4:	00 
    20c5:	4c 8b ac 24 80 02 00 	mov    r13,QWORD PTR [rsp+0x280]
    20cc:	00 
    20cd:	48 89 c6             	mov    rsi,rax
    20d0:	48 89 b4 24 70 02 00 	mov    QWORD PTR [rsp+0x270],rsi
    20d7:	00 
    20d8:	49 8b b4 24 98 00 00 	mov    rsi,QWORD PTR [r12+0x98]
    20df:	00 
    20e0:	49 8b 7d 08          	mov    rdi,QWORD PTR [r13+0x8]
    20e4:	49 89 b4 24 98 00 00 	mov    QWORD PTR [r12+0x98],rsi
    20eb:	00 
    20ec:	48 89 5e e0          	mov    QWORD PTR [rsi-0x20],rbx
    20f0:	4c 89 7e e8          	mov    QWORD PTR [rsi-0x18],r15
    20f4:	b8 01 00 00 00       	mov    eax,0x1
    20f9:	48 89 46 f0          	mov    QWORD PTR [rsi-0x10],rax
    20fd:	b8 01 00 00 00       	mov    eax,0x1
    2102:	48 89 46 f8          	mov    QWORD PTR [rsi-0x8],rax
    2106:	48 31 f6             	xor    rsi,rsi
    2109:	48 b8 00 00 00 00 00 	movabs rax,0x0
    2110:	00 00 00 
			210b: R_X86_64_64	do_callback
    2113:	48 89 9c 24 78 02 00 	mov    QWORD PTR [rsp+0x278],rbx
    211a:	00 
    211b:	48 89 bc 24 80 02 00 	mov    QWORD PTR [rsp+0x280],rdi
    2122:	00 
    2123:	4c 89 ac 24 88 02 00 	mov    QWORD PTR [rsp+0x288],r13
    212a:	00 
    212b:	ff d0                	call   rax
    212d:	48 8b 9c 24 78 02 00 	mov    rbx,QWORD PTR [rsp+0x278]
    2134:	00 
    2135:	4c 8b ac 24 88 02 00 	mov    r13,QWORD PTR [rsp+0x288]
    213c:	00 
    213d:	48 89 c6             	mov    rsi,rax
    2140:	48 89 b4 24 78 02 00 	mov    QWORD PTR [rsp+0x278],rsi
    2147:	00 
    2148:	49 8b b4 24 98 00 00 	mov    rsi,QWORD PTR [r12+0x98]
    214f:	00 
    2150:	49 8b 7d 08          	mov    rdi,QWORD PTR [r13+0x8]
    2154:	49 89 b4 24 98 00 00 	mov    QWORD PTR [r12+0x98],rsi
    215b:	00 
    215c:	48 89 5e e0          	mov    QWORD PTR [rsi-0x20],rbx
    2160:	4c 89 7e e8          	mov    QWORD PTR [rsi-0x18],r15
    2164:	b8 01 00 00 00       	mov    eax,0x1
    2169:	48 89 46 f0          	mov    QWORD PTR [rsi-0x10],rax
    216d:	b8 01 00 00 00       	mov    eax,0x1
    2172:	48 89 46 f8          	mov    QWORD PTR [rsi-0x8],rax
    2176:	48 31 f6             	xor    rsi,rsi
    2179:	48 b8 00 00 00 00 00 	movabs rax,0x0
    2180:	00 00 00 
			217b: R_X86_64_64	do_callback
    2183:	48 89 9c 24 80 02 00 	mov    QWORD PTR [rsp+0x280],rbx
    218a:	00 
    218b:	48 89 bc 24 88 02 00 	mov    QWORD PTR [rsp+0x288],rdi
    2192:	00 
    2193:	4c 89 ac 24 90 02 00 	mov    QWORD PTR [rsp+0x290],r13
    219a:	00 
    219b:	ff d0                	call   rax
    219d:	48 8b 9c 24 80 02 00 	mov    rbx,QWORD PTR [rsp+0x280]
    21a4:	00 
    21a5:	4c 8b ac 24 90 02 00 	mov    r13,QWORD PTR [rsp+0x290]
    21ac:	00 
    21ad:	48 89 c6             	mov    rsi,rax
    21b0:	48 89 b4 24 80 02 00 	mov    QWORD PTR [rsp+0x280],rsi
    21b7:	00 
    21b8:	49 8b b4 24 98 00 00 	mov    rsi,QWORD PTR [r12+0x98]
    21bf:	00 
    21c0:	49 8b 7d 08          	mov    rdi,QWORD PTR [r13+0x8]
    21c4:	49 89 b4 24 98 00 00 	mov    QWORD PTR [r12+0x98],rsi
    21cb:	00 
    21cc:	48 89 5e e0          	mov    QWORD PTR [rsi-0x20],rbx
    21d0:	4c 89 7e e8          	mov    QWORD PTR [rsi-0x18],r15
    21d4:	b8 01 00 00 00       	mov    eax,0x1
    21d9:	48 89 46 f0          	mov    QWORD PTR [rsi-0x10],rax
    21dd:	b8 01 00 00 00       	mov    eax,0x1
    21e2:	48 89 46 f8          	mov    QWORD PTR [rsi-0x8],rax
    21e6:	48 31 f6             	xor    rsi,rsi
    21e9:	48 b8 00 00 00 00 00 	movabs rax,0x0
    21f0:	00 00 00 
			21eb: R_X86_64_64	do_callback
    21f3:	48 89 9c 24 88 02 00 	mov    QWORD PTR [rsp+0x288],rbx
    21fa:	00 
    21fb:	48 89 bc 24 90 02 00 	mov    QWORD PTR [rsp+0x290],rdi
    2202:	00 
    2203:	4c 89 ac 24 98 02 00 	mov    QWORD PTR [rsp+0x298],r13
    220a:	00 
    220b:	ff d0                	call   rax
    220d:	48 8b 9c 24 88 02 00 	mov    rbx,QWORD PTR [rsp+0x288]
    2214:	00 
    2215:	4c 8b ac 24 98 02 00 	mov    r13,QWORD PTR [rsp+0x298]
    221c:	00 
    221d:	48 89 c6             	mov    rsi,rax
    2220:	48 89 b4 24 88 02 00 	mov    QWORD PTR [rsp+0x288],rsi
    2227:	00 
    2228:	49 8b b4 24 98 00 00 	mov    rsi,QWORD PTR [r12+0x98]
    222f:	00 
    2230:	49 8b 7d 08          	mov    rdi,QWORD PTR [r13+0x8]
    2234:	49 89 b4 24 98 00 00 	mov    QWORD PTR [r12+0x98],rsi
    223b:	00 
    223c:	48 89 5e e0          	mov    QWORD PTR [rsi-0x20],rbx
    2240:	4c 89 7e e8          	mov    QWORD PTR [rsi-0x18],r15
    2244:	b8 01 00 00 00       	mov    eax,0x1
    2249:	48 89 46 f0          	mov    QWORD PTR [rsi-0x10],rax
    224d:	b8 01 00 00 00       	mov    eax,0x1
    2252:	48 89 46 f8          	mov    QWORD PTR [rsi-0x8],rax
    2256:	48 31 f6             	xor    rsi,rsi
    2259:	48 b8 00 00 00 00 00 	movabs rax,0x0
    2260:	00 00 00 
			225b: R_X86_64_64	do_callback
    2263:	48 89 9c 24 90 02 00 	mov    QWORD PTR [rsp+0x290],rbx
    226a:	00 
    226b:	48 89 bc 24 98 02 00 	mov    QWORD PTR [rsp+0x298],rdi
    2272:	00 
    2273:	4c 89 ac 24 a0 02 00 	mov    QWORD PTR [rsp+0x2a0],r13
    227a:	00 
    227b:	ff d0                	call   rax
    227d:	48 8b 9c 24 90 02 00 	mov    rbx,QWORD PTR [rsp+0x290]
    2284:	00 
    2285:	4c 8b ac 24 a0 02 00 	mov    r13,QWORD PTR [rsp+0x2a0]
    228c:	00 
    228d:	48 89 c6             	mov    rsi,rax
    2290:	48 89 b4 24 90 02 00 	mov    QWORD PTR [rsp+0x290],rsi
    2297:	00 
    2298:	49 8b b4 24 98 00 00 	mov    rsi,QWORD PTR [r12+0x98]
    229f:	00 
    22a0:	49 8b 7d 08          	mov    rdi,QWORD PTR [r13+0x8]
    22a4:	49 89 b4 24 98 00 00 	mov    QWORD PTR [r12+0x98],rsi
    22ab:	00 
    22ac:	48 89 5e e0          	mov    QWORD PTR [rsi-0x20],rbx
    22b0:	4c 89 7e e8          	mov    QWORD PTR [rsi-0x18],r15
    22b4:	b8 01 00 00 00       	mov    eax,0x1
    22b9:	48 89 46 f0          	mov    QWORD PTR [rsi-0x10],rax
    22bd:	b8 01 00 00 00       	mov    eax,0x1
    22c2:	48 89 46 f8          	mov    QWORD PTR [rsi-0x8],rax
    22c6:	48 31 f6             	xor    rsi,rsi
    22c9:	48 b8 00 00 00 00 00 	movabs rax,0x0
    22d0:	00 00 00 
			22cb: R_X86_64_64	do_callback
    22d3:	48 89 9c 24 98 02 00 	mov    QWORD PTR [rsp+0x298],rbx
    22da:	00 
    22db:	48 89 bc 24 a0 02 00 	mov    QWORD PTR [rsp+0x2a0],rdi
    22e2:	00 
    22e3:	4c 89 ac 24 a8 02 00 	mov    QWORD PTR [rsp+0x2a8],r13
    22ea:	00 
    22eb:	ff d0                	call   rax
    22ed:	48 8b 9c 24 98 02 00 	mov    rbx,QWORD PTR [rsp+0x298]
    22f4:	00 
    22f5:	4c 8b ac 24 a8 02 00 	mov    r13,QWORD PTR [rsp+0x2a8]
    22fc:	00 
    22fd:	48 89 c6             	mov    rsi,rax
    2300:	48 89 b4 24 98 02 00 	mov    QWORD PTR [rsp+0x298],rsi
    2307:	00 
    2308:	49 8b b4 24 98 00 00 	mov    rsi,QWORD PTR [r12+0x98]
    230f:	00 
    2310:	49 8b 7d 08          	mov    rdi,QWORD PTR [r13+0x8]
    2314:	49 89 b4 24 98 00 00 	mov    QWORD PTR [r12+0x98],rsi
    231b:	00 
    231c:	48 89 5e e0          	mov    QWORD PTR [rsi-0x20],rbx
    2320:	4c 89 7e e8          	mov    QWORD PTR [rsi-0x18],r15
    2324:	b8 01 00 00 00       	mov    eax,0x1
    2329:	48 89 46 f0          	mov    QWORD PTR [rsi-0x10],rax
    232d:	b8 01 00 00 00       	mov    eax,0x1
    2332:	48 89 46 f8          	mov    QWORD PTR [rsi-0x8],rax
    2336:	48 31 f6             	xor    rsi,rsi
    2339:	48 b8 00 00 00 00 00 	movabs rax,0x0
    2340:	00 00 00 
			233b: R_X86_64_64	do_callback
    2343:	48 89 9c 24 a0 02 00 	mov    QWORD PTR [rsp+0x2a0],rbx
    234a:	00 
    234b:	48 89 bc 24 a8 02 00 	mov    QWORD PTR [rsp+0x2a8],rdi
    2352:	00 
    2353:	4c 89 ac 24 b0 02 00 	mov    QWORD PTR [rsp+0x2b0],r13
    235a:	00 
    235b:	ff d0                	call   rax
    235d:	48 8b 9c 24 a0 02 00 	mov    rbx,QWORD PTR [rsp+0x2a0]
    2364:	00 
    2365:	4c 8b ac 24 b0 02 00 	mov    r13,QWORD PTR [rsp+0x2b0]
    236c:	00 
    236d:	48 89 c6             	mov    rsi,rax
    2370:	48 89 b4 24 a0 02 00 	mov    QWORD PTR [rsp+0x2a0],rsi
    2377:	00 
    2378:	49 8b b4 24 98 00 00 	mov    rsi,QWORD PTR [r12+0x98]
    237f:	00 
    2380:	49 8b 7d 08          	mov    rdi,QWORD PTR [r13+0x8]
    2384:	49 89 b4 24 98 00 00 	mov    QWORD PTR [r12+0x98],rsi
    238b:	00 
    238c:	48 89 5e e0          	mov    QWORD PTR [rsi-0x20],rbx
    2390:	4c 89 7e e8          	mov    QWORD PTR [rsi-0x18],r15
    2394:	b8 01 00 00 00       	mov    eax,0x1
    2399:	48 89 46 f0          	mov    QWORD PTR [rsi-0x10],rax
    239d:	b8 01 00 00 00       	mov    eax,0x1
    23a2:	48 89 46 f8          	mov    QWORD PTR [rsi-0x8],rax
    23a6:	48 31 f6             	xor    rsi,rsi
    23a9:	48 b8 00 00 00 00 00 	movabs rax,0x0
    23b0:	00 00 00 
			23ab: R_X86_64_64	do_callback
    23b3:	48 89 9c 24 a8 02 00 	mov    QWORD PTR [rsp+0x2a8],rbx
    23ba:	00 
    23bb:	48 89 bc 24 b0 02 00 	mov    QWORD PTR [rsp+0x2b0],rdi
    23c2:	00 
    23c3:	4c 89 ac 24 b8 02 00 	mov    QWORD PTR [rsp+0x2b8],r13
    23ca:	00 
    23cb:	ff d0                	call   rax
    23cd:	48 8b 9c 24 a8 02 00 	mov    rbx,QWORD PTR [rsp+0x2a8]
    23d4:	00 
    23d5:	4c 8b ac 24 b8 02 00 	mov    r13,QWORD PTR [rsp+0x2b8]
    23dc:	00 
    23dd:	48 89 c6             	mov    rsi,rax
    23e0:	48 89 b4 24 a8 02 00 	mov    QWORD PTR [rsp+0x2a8],rsi
    23e7:	00 
    23e8:	49 8b b4 24 98 00 00 	mov    rsi,QWORD PTR [r12+0x98]
    23ef:	00 
    23f0:	49 8b 7d 08          	mov    rdi,QWORD PTR [r13+0x8]
    23f4:	49 89 b4 24 98 00 00 	mov    QWORD PTR [r12+0x98],rsi
    23fb:	00 
    23fc:	48 89 5e e0          	mov    QWORD PTR [rsi-0x20],rbx
    2400:	4c 89 7e e8          	mov    QWORD PTR [rsi-0x18],r15
    2404:	b8 01 00 00 00       	mov    eax,0x1
    2409:	48 89 46 f0          	mov    QWORD PTR [rsi-0x10],rax
    240d:	b8 01 00 00 00       	mov    eax,0x1
    2412:	48 89 46 f8          	mov    QWORD PTR [rsi-0x8],rax
    2416:	48 31 f6             	xor    rsi,rsi
    2419:	48 b8 00 00 00 00 00 	movabs rax,0x0
    2420:	00 00 00 
			241b: R_X86_64_64	do_callback
    2423:	48 89 9c 24 b0 02 00 	mov    QWORD PTR [rsp+0x2b0],rbx
    242a:	00 
    242b:	48 89 bc 24 b8 02 00 	mov    QWORD PTR [rsp+0x2b8],rdi
    2432:	00 
    2433:	4c 89 ac 24 c0 02 00 	mov    QWORD PTR [rsp+0x2c0],r13
    243a:	00 
    243b:	ff d0                	call   rax
    243d:	48 8b 9c 24 b0 02 00 	mov    rbx,QWORD PTR [rsp+0x2b0]
    2444:	00 
    2445:	4c 8b ac 24 c0 02 00 	mov    r13,QWORD PTR [rsp+0x2c0]
    244c:	00 
    244d:	48 89 c6             	mov    rsi,rax
    2450:	48 89 b4 24 b0 02 00 	mov    QWORD PTR [rsp+0x2b0],rsi
    2457:	00 
    2458:	49 8b b4 24 98 00 00 	mov    rsi,QWORD PTR [r12+0x98]
    245f:	00 
    2460:	49 8b 7d 08          	mov    rdi,QWORD PTR [r13+0x8]
    2464:	49 89 b4 24 98 00 00 	mov    QWORD PTR [r12+0x98],rsi
    246b:	00 
    246c:	48 89 5e e0          	mov    QWORD PTR [rsi-0x20],rbx
    2470:	4c 89 7e e8          	mov    QWORD PTR [rsi-0x18],r15
    2474:	b8 01 00 00 00       	mov    eax,0x1
    2479:	48 89 46 f0          	mov    QWORD PTR [rsi-0x10],rax
    247d:	b8 01 00 00 00       	mov    eax,0x1
    2482:	48 89 46 f8          	mov    QWORD PTR [rsi-0x8],rax
    2486:	48 31 f6             	xor    rsi,rsi
    2489:	48 b8 00 00 00 00 00 	movabs rax,0x0
    2490:	00 00 00 
			248b: R_X86_64_64	do_callback
    2493:	48 89 9c 24 b8 02 00 	mov    QWORD PTR [rsp+0x2b8],rbx
    249a:	00 
    249b:	48 89 bc 24 c0 02 00 	mov    QWORD PTR [rsp+0x2c0],rdi
    24a2:	00 
    24a3:	4c 89 ac 24 c8 02 00 	mov    QWORD PTR [rsp+0x2c8],r13
    24aa:	00 
    24ab:	ff d0                	call   rax
    24ad:	48 8b 9c 24 b8 02 00 	mov    rbx,QWORD PTR [rsp+0x2b8]
    24b4:	00 
    24b5:	4c 8b ac 24 c8 02 00 	mov    r13,QWORD PTR [rsp+0x2c8]
    24bc:	00 
    24bd:	48 89 c6             	mov    rsi,rax
    24c0:	48 89 b4 24 b8 02 00 	mov    QWORD PTR [rsp+0x2b8],rsi
    24c7:	00 
    24c8:	49 8b b4 24 98 00 00 	mov    rsi,QWORD PTR [r12+0x98]
    24cf:	00 
    24d0:	49 8b 7d 08          	mov    rdi,QWORD PTR [r13+0x8]
    24d4:	49 89 b4 24 98 00 00 	mov    QWORD PTR [r12+0x98],rsi
    24db:	00 
    24dc:	48 89 5e e0          	mov    QWORD PTR [rsi-0x20],rbx
    24e0:	4c 89 7e e8          	mov    QWORD PTR [rsi-0x18],r15
    24e4:	b8 01 00 00 00       	mov    eax,0x1
    24e9:	48 89 46 f0          	mov    QWORD PTR [rsi-0x10],rax
    24ed:	b8 01 00 00 00       	mov    eax,0x1
    24f2:	48 89 46 f8          	mov    QWORD PTR [rsi-0x8],rax
    24f6:	48 31 f6             	xor    rsi,rsi
    24f9:	48 b8 00 00 00 00 00 	movabs rax,0x0
    2500:	00 00 00 
			24fb: R_X86_64_64	do_callback
    2503:	48 89 9c 24 c0 02 00 	mov    QWORD PTR [rsp+0x2c0],rbx
    250a:	00 
    250b:	48 89 bc 24 c8 02 00 	mov    QWORD PTR [rsp+0x2c8],rdi
    2512:	00 
    2513:	4c 89 ac 24 d0 02 00 	mov    QWORD PTR [rsp+0x2d0],r13
    251a:	00 
    251b:	ff d0                	call   rax
    251d:	48 8b 9c 24 c0 02 00 	mov    rbx,QWORD PTR [rsp+0x2c0]
    2524:	00 
    2525:	4c 8b ac 24 d0 02 00 	mov    r13,QWORD PTR [rsp+0x2d0]
    252c:	00 
    252d:	48 89 c6             	mov    rsi,rax
    2530:	48 89 b4 24 c0 02 00 	mov    QWORD PTR [rsp+0x2c0],rsi
    2537:	00 
    2538:	49 8b b4 24 98 00 00 	mov    rsi,QWORD PTR [r12+0x98]
    253f:	00 
    2540:	49 8b 7d 08          	mov    rdi,QWORD PTR [r13+0x8]
    2544:	49 89 b4 24 98 00 00 	mov    QWORD PTR [r12+0x98],rsi
    254b:	00 
    254c:	48 89 5e e0          	mov    QWORD PTR [rsi-0x20],rbx
    2550:	4c 89 7e e8          	mov    QWORD PTR [rsi-0x18],r15
    2554:	b8 01 00 00 00       	mov    eax,0x1
    2559:	48 89 46 f0          	mov    QWORD PTR [rsi-0x10],rax
    255d:	b8 01 00 00 00       	mov    eax,0x1
    2562:	48 89 46 f8          	mov    QWORD PTR [rsi-0x8],rax
    2566:	48 31 f6             	xor    rsi,rsi
    2569:	48 b8 00 00 00 00 00 	movabs rax,0x0
    2570:	00 00 00 
			256b: R_X86_64_64	do_callback
    2573:	48 89 9c 24 c8 02 00 	mov    QWORD PTR [rsp+0x2c8],rbx
    257a:	00 
    257b:	48 89 bc 24 d0 02 00 	mov    QWORD PTR [rsp+0x2d0],rdi
    2582:	00 
    2583:	4c 89 ac 24 d8 02 00 	mov    QWORD PTR [rsp+0x2d8],r13
    258a:	00 
    258b:	ff d0                	call   rax
    258d:	48 8b 9c 24 c8 02 00 	mov    rbx,QWORD PTR [rsp+0x2c8]
    2594:	00 
    2595:	4c 8b ac 24 d8 02 00 	mov    r13,QWORD PTR [rsp+0x2d8]
    259c:	00 
    259d:	48 89 c6             	mov    rsi,rax
    25a0:	48 89 b4 24 c8 02 00 	mov    QWORD PTR [rsp+0x2c8],rsi
    25a7:	00 
    25a8:	49 8b b4 24 98 00 00 	mov    rsi,QWORD PTR [r12+0x98]
    25af:	00 
    25b0:	49 8b 7d 08          	mov    rdi,QWORD PTR [r13+0x8]
    25b4:	49 89 b4 24 98 00 00 	mov    QWORD PTR [r12+0x98],rsi
    25bb:	00 
    25bc:	48 89 5e e0          	mov    QWORD PTR [rsi-0x20],rbx
    25c0:	4c 89 7e e8          	mov    QWORD PTR [rsi-0x18],r15
    25c4:	b8 01 00 00 00       	mov    eax,0x1
    25c9:	48 89 46 f0          	mov    QWORD PTR [rsi-0x10],rax
    25cd:	b8 01 00 00 00       	mov    eax,0x1
    25d2:	48 89 46 f8          	mov    QWORD PTR [rsi-0x8],rax
    25d6:	48 31 f6             	xor    rsi,rsi
    25d9:	48 b8 00 00 00 00 00 	movabs rax,0x0
    25e0:	00 00 00 
			25db: R_X86_64_64	do_callback
    25e3:	48 89 9c 24 d0 02 00 	mov    QWORD PTR [rsp+0x2d0],rbx
    25ea:	00 
    25eb:	48 89 bc 24 d8 02 00 	mov    QWORD PTR [rsp+0x2d8],rdi
    25f2:	00 
    25f3:	4c 89 ac 24 e0 02 00 	mov    QWORD PTR [rsp+0x2e0],r13
    25fa:	00 
    25fb:	ff d0                	call   rax
    25fd:	48 8b 9c 24 d0 02 00 	mov    rbx,QWORD PTR [rsp+0x2d0]
    2604:	00 
    2605:	4c 8b ac 24 e0 02 00 	mov    r13,QWORD PTR [rsp+0x2e0]
    260c:	00 
    260d:	48 89 c6             	mov    rsi,rax
    2610:	48 89 b4 24 d0 02 00 	mov    QWORD PTR [rsp+0x2d0],rsi
    2617:	00 
    2618:	49 8b b4 24 98 00 00 	mov    rsi,QWORD PTR [r12+0x98]
    261f:	00 
    2620:	49 8b 7d 08          	mov    rdi,QWORD PTR [r13+0x8]
    2624:	49 89 b4 24 98 00 00 	mov    QWORD PTR [r12+0x98],rsi
    262b:	00 
    262c:	48 89 5e e0          	mov    QWORD PTR [rsi-0x20],rbx
    2630:	4c 89 7e e8          	mov    QWORD PTR [rsi-0x18],r15
    2634:	b8 01 00 00 00       	mov    eax,0x1
    2639:	48 89 46 f0          	mov    QWORD PTR [rsi-0x10],rax
    263d:	b8 01 00 00 00       	mov    eax,0x1
    2642:	48 89 46 f8          	mov    QWORD PTR [rsi-0x8],rax
    2646:	48 31 f6             	xor    rsi,rsi
    2649:	48 b8 00 00 00 00 00 	movabs rax,0x0
    2650:	00 00 00 
			264b: R_X86_64_64	do_callback
    2653:	48 89 9c 24 d8 02 00 	mov    QWORD PTR [rsp+0x2d8],rbx
    265a:	00 
    265b:	48 89 bc 24 e0 02 00 	mov    QWORD PTR [rsp+0x2e0],rdi
    2662:	00 
    2663:	4c 89 ac 24 e8 02 00 	mov    QWORD PTR [rsp+0x2e8],r13
    266a:	00 
    266b:	ff d0                	call   rax
    266d:	48 8b 9c 24 d8 02 00 	mov    rbx,QWORD PTR [rsp+0x2d8]
    2674:	00 
    2675:	4c 8b ac 24 e8 02 00 	mov    r13,QWORD PTR [rsp+0x2e8]
    267c:	00 
    267d:	48 89 c6             	mov    rsi,rax
    2680:	48 89 b4 24 d8 02 00 	mov    QWORD PTR [rsp+0x2d8],rsi
    2687:	00 
    2688:	49 8b b4 24 98 00 00 	mov    rsi,QWORD PTR [r12+0x98]
    268f:	00 
    2690:	49 8b 7d 08          	mov    rdi,QWORD PTR [r13+0x8]
    2694:	49 89 b4 24 98 00 00 	mov    QWORD PTR [r12+0x98],rsi
    269b:	00 
    269c:	48 89 5e e0          	mov    QWORD PTR [rsi-0x20],rbx
    26a0:	4c 89 7e e8          	mov    QWORD PTR [rsi-0x18],r15
    26a4:	b8 01 00 00 00       	mov    eax,0x1
    26a9:	48 89 46 f0          	mov    QWORD PTR [rsi-0x10],rax
    26ad:	b8 01 00 00 00       	mov    eax,0x1
    26b2:	48 89 46 f8          	mov    QWORD PTR [rsi-0x8],rax
    26b6:	48 31 f6             	xor    rsi,rsi
    26b9:	48 b8 00 00 00 00 00 	movabs rax,0x0
    26c0:	00 00 00 
			26bb: R_X86_64_64	do_callback
    26c3:	48 89 9c 24 e0 02 00 	mov    QWORD PTR [rsp+0x2e0],rbx
    26ca:	00 
    26cb:	48 89 bc 24 e8 02 00 	mov    QWORD PTR [rsp+0x2e8],rdi
    26d2:	00 
    26d3:	4c 89 ac 24 f0 02 00 	mov    QWORD PTR [rsp+0x2f0],r13
    26da:	00 
    26db:	ff d0                	call   rax
    26dd:	48 8b 9c 24 e0 02 00 	mov    rbx,QWORD PTR [rsp+0x2e0]
    26e4:	00 
    26e5:	4c 8b ac 24 f0 02 00 	mov    r13,QWORD PTR [rsp+0x2f0]
    26ec:	00 
    26ed:	48 89 c6             	mov    rsi,rax
    26f0:	48 89 b4 24 e0 02 00 	mov    QWORD PTR [rsp+0x2e0],rsi
    26f7:	00 
    26f8:	49 8b b4 24 98 00 00 	mov    rsi,QWORD PTR [r12+0x98]
    26ff:	00 
    2700:	49 8b 7d 08          	mov    rdi,QWORD PTR [r13+0x8]
    2704:	49 89 b4 24 98 00 00 	mov    QWORD PTR [r12+0x98],rsi
    270b:	00 
    270c:	48 89 5e e0          	mov    QWORD PTR [rsi-0x20],rbx
    2710:	4c 89 7e e8          	mov    QWORD PTR [rsi-0x18],r15
    2714:	b8 01 00 00 00       	mov    eax,0x1
    2719:	48 89 46 f0          	mov    QWORD PTR [rsi-0x10],rax
    271d:	b8 01 00 00 00       	mov    eax,0x1
    2722:	48 89 46 f8          	mov    QWORD PTR [rsi-0x8],rax
    2726:	48 31 f6             	xor    rsi,rsi
    2729:	48 b8 00 00 00 00 00 	movabs rax,0x0
    2730:	00 00 00 
			272b: R_X86_64_64	do_callback
    2733:	48 89 9c 24 e8 02 00 	mov    QWORD PTR [rsp+0x2e8],rbx
    273a:	00 
    273b:	48 89 bc 24 f0 02 00 	mov    QWORD PTR [rsp+0x2f0],rdi
    2742:	00 
    2743:	4c 89 ac 24 f8 02 00 	mov    QWORD PTR [rsp+0x2f8],r13
    274a:	00 
    274b:	ff d0                	call   rax
    274d:	48 8b 9c 24 e8 02 00 	mov    rbx,QWORD PTR [rsp+0x2e8]
    2754:	00 
    2755:	4c 8b ac 24 f8 02 00 	mov    r13,QWORD PTR [rsp+0x2f8]
    275c:	00 
    275d:	48 89 c6             	mov    rsi,rax
    2760:	48 89 b4 24 e8 02 00 	mov    QWORD PTR [rsp+0x2e8],rsi
    2767:	00 
    2768:	49 8b b4 24 98 00 00 	mov    rsi,QWORD PTR [r12+0x98]
    276f:	00 
    2770:	49 8b 7d 08          	mov    rdi,QWORD PTR [r13+0x8]
    2774:	49 89 b4 24 98 00 00 	mov    QWORD PTR [r12+0x98],rsi
    277b:	00 
    277c:	48 89 5e e0          	mov    QWORD PTR [rsi-0x20],rbx
    2780:	4c 89 7e e8          	mov    QWORD PTR [rsi-0x18],r15
    2784:	b8 01 00 00 00       	mov    eax,0x1
    2789:	48 89 46 f0          	mov    QWORD PTR [rsi-0x10],rax
    278d:	b8 01 00 00 00       	mov    eax,0x1
    2792:	48 89 46 f8          	mov    QWORD PTR [rsi-0x8],rax
    2796:	48 31 f6             	xor    rsi,rsi
    2799:	48 b8 00 00 00 00 00 	movabs rax,0x0
    27a0:	00 00 00 
			279b: R_X86_64_64	do_callback
    27a3:	48 89 9c 24 f0 02 00 	mov    QWORD PTR [rsp+0x2f0],rbx
    27aa:	00 
    27ab:	48 89 bc 24 f8 02 00 	mov    QWORD PTR [rsp+0x2f8],rdi
    27b2:	00 
    27b3:	4c 89 ac 24 00 03 00 	mov    QWORD PTR [rsp+0x300],r13
    27ba:	00 
    27bb:	ff d0                	call   rax
    27bd:	48 8b 9c 24 f0 02 00 	mov    rbx,QWORD PTR [rsp+0x2f0]
    27c4:	00 
    27c5:	4c 8b ac 24 00 03 00 	mov    r13,QWORD PTR [rsp+0x300]
    27cc:	00 
    27cd:	48 89 c6             	mov    rsi,rax
    27d0:	48 89 b4 24 f0 02 00 	mov    QWORD PTR [rsp+0x2f0],rsi
    27d7:	00 
    27d8:	49 8b b4 24 98 00 00 	mov    rsi,QWORD PTR [r12+0x98]
    27df:	00 
    27e0:	49 8b 7d 08          	mov    rdi,QWORD PTR [r13+0x8]
    27e4:	49 89 b4 24 98 00 00 	mov    QWORD PTR [r12+0x98],rsi
    27eb:	00 
    27ec:	48 89 5e e0          	mov    QWORD PTR [rsi-0x20],rbx
    27f0:	4c 89 7e e8          	mov    QWORD PTR [rsi-0x18],r15
    27f4:	b8 01 00 00 00       	mov    eax,0x1
    27f9:	48 89 46 f0          	mov    QWORD PTR [rsi-0x10],rax
    27fd:	b8 01 00 00 00       	mov    eax,0x1
    2802:	48 89 46 f8          	mov    QWORD PTR [rsi-0x8],rax
    2806:	48 31 f6             	xor    rsi,rsi
    2809:	48 b8 00 00 00 00 00 	movabs rax,0x0
    2810:	00 00 00 
			280b: R_X86_64_64	do_callback
    2813:	48 89 9c 24 f8 02 00 	mov    QWORD PTR [rsp+0x2f8],rbx
    281a:	00 
    281b:	48 89 bc 24 00 03 00 	mov    QWORD PTR [rsp+0x300],rdi
    2822:	00 
    2823:	4c 89 ac 24 08 03 00 	mov    QWORD PTR [rsp+0x308],r13
    282a:	00 
    282b:	ff d0                	call   rax
    282d:	48 8b 9c 24 f8 02 00 	mov    rbx,QWORD PTR [rsp+0x2f8]
    2834:	00 
    2835:	4c 8b ac 24 08 03 00 	mov    r13,QWORD PTR [rsp+0x308]
    283c:	00 
    283d:	48 89 c6             	mov    rsi,rax
    2840:	48 89 b4 24 f8 02 00 	mov    QWORD PTR [rsp+0x2f8],rsi
    2847:	00 
    2848:	49 8b b4 24 98 00 00 	mov    rsi,QWORD PTR [r12+0x98]
    284f:	00 
    2850:	49 8b 7d 08          	mov    rdi,QWORD PTR [r13+0x8]
    2854:	49 89 b4 24 98 00 00 	mov    QWORD PTR [r12+0x98],rsi
    285b:	00 
    285c:	48 89 5e e0          	mov    QWORD PTR [rsi-0x20],rbx
    2860:	4c 89 7e e8          	mov    QWORD PTR [rsi-0x18],r15
    2864:	b8 01 00 00 00       	mov    eax,0x1
    2869:	48 89 46 f0          	mov    QWORD PTR [rsi-0x10],rax
    286d:	b8 01 00 00 00       	mov    eax,0x1
    2872:	48 89 46 f8          	mov    QWORD PTR [rsi-0x8],rax
    2876:	48 31 f6             	xor    rsi,rsi
    2879:	48 b8 00 00 00 00 00 	movabs rax,0x0
    2880:	00 00 00 
			287b: R_X86_64_64	do_callback
    2883:	48 89 9c 24 00 03 00 	mov    QWORD PTR [rsp+0x300],rbx
    288a:	00 
    288b:	48 89 bc 24 08 03 00 	mov    QWORD PTR [rsp+0x308],rdi
    2892:	00 
    2893:	4c 89 ac 24 10 03 00 	mov    QWORD PTR [rsp+0x310],r13
    289a:	00 
    289b:	ff d0                	call   rax
    289d:	48 8b 9c 24 00 03 00 	mov    rbx,QWORD PTR [rsp+0x300]
    28a4:	00 
    28a5:	4c 8b ac 24 10 03 00 	mov    r13,QWORD PTR [rsp+0x310]
    28ac:	00 
    28ad:	48 89 c6             	mov    rsi,rax
    28b0:	48 89 b4 24 00 03 00 	mov    QWORD PTR [rsp+0x300],rsi
    28b7:	00 
    28b8:	49 8b b4 24 98 00 00 	mov    rsi,QWORD PTR [r12+0x98]
    28bf:	00 
    28c0:	49 8b 7d 08          	mov    rdi,QWORD PTR [r13+0x8]
    28c4:	49 89 b4 24 98 00 00 	mov    QWORD PTR [r12+0x98],rsi
    28cb:	00 
    28cc:	48 89 5e e0          	mov    QWORD PTR [rsi-0x20],rbx
    28d0:	4c 89 7e e8          	mov    QWORD PTR [rsi-0x18],r15
    28d4:	b8 01 00 00 00       	mov    eax,0x1
    28d9:	48 89 46 f0          	mov    QWORD PTR [rsi-0x10],rax
    28dd:	b8 01 00 00 00       	mov    eax,0x1
    28e2:	48 89 46 f8          	mov    QWORD PTR [rsi-0x8],rax
    28e6:	48 31 f6             	xor    rsi,rsi
    28e9:	48 b8 00 00 00 00 00 	movabs rax,0x0
    28f0:	00 00 00 
			28eb: R_X86_64_64	do_callback
    28f3:	48 89 9c 24 08 03 00 	mov    QWORD PTR [rsp+0x308],rbx
    28fa:	00 
    28fb:	48 89 bc 24 10 03 00 	mov    QWORD PTR [rsp+0x310],rdi
    2902:	00 
    2903:	4c 89 ac 24 18 03 00 	mov    QWORD PTR [rsp+0x318],r13
    290a:	00 
    290b:	ff d0                	call   rax
    290d:	48 8b 9c 24 08 03 00 	mov    rbx,QWORD PTR [rsp+0x308]
    2914:	00 
    2915:	4c 8b ac 24 18 03 00 	mov    r13,QWORD PTR [rsp+0x318]
    291c:	00 
    291d:	48 89 c6             	mov    rsi,rax
    2920:	48 89 b4 24 08 03 00 	mov    QWORD PTR [rsp+0x308],rsi
    2927:	00 
    2928:	49 8b b4 24 98 00 00 	mov    rsi,QWORD PTR [r12+0x98]
    292f:	00 
    2930:	49 8b 7d 08          	mov    rdi,QWORD PTR [r13+0x8]
    2934:	49 89 b4 24 98 00 00 	mov    QWORD PTR [r12+0x98],rsi
    293b:	00 
    293c:	48 89 5e e0          	mov    QWORD PTR [rsi-0x20],rbx
    2940:	4c 89 7e e8          	mov    QWORD PTR [rsi-0x18],r15
    2944:	b8 01 00 00 00       	mov    eax,0x1
    2949:	48 89 46 f0          	mov    QWORD PTR [rsi-0x10],rax
    294d:	b8 01 00 00 00       	mov    eax,0x1
    2952:	48 89 46 f8          	mov    QWORD PTR [rsi-0x8],rax
    2956:	48 31 f6             	xor    rsi,rsi
    2959:	48 b8 00 00 00 00 00 	movabs rax,0x0
    2960:	00 00 00 
			295b: R_X86_64_64	do_callback
    2963:	48 89 9c 24 10 03 00 	mov    QWORD PTR [rsp+0x310],rbx
    296a:	00 
    296b:	48 89 bc 24 18 03 00 	mov    QWORD PTR [rsp+0x318],rdi
    2972:	00 
    2973:	4c 89 ac 24 20 03 00 	mov    QWORD PTR [rsp+0x320],r13
    297a:	00 
    297b:	ff d0                	call   rax
    297d:	48 8b 9c 24 10 03 00 	mov    rbx,QWORD PTR [rsp+0x310]
    2984:	00 
    2985:	4c 8b ac 24 20 03 00 	mov    r13,QWORD PTR [rsp+0x320]
    298c:	00 
    298d:	48 89 c6             	mov    rsi,rax
    2990:	48 89 b4 24 10 03 00 	mov    QWORD PTR [rsp+0x310],rsi
    2997:	00 
    2998:	49 8b b4 24 98 00 00 	mov    rsi,QWORD PTR [r12+0x98]
    299f:	00 
    29a0:	49 8b 7d 08          	mov    rdi,QWORD PTR [r13+0x8]
    29a4:	49 89 b4 24 98 00 00 	mov    QWORD PTR [r12+0x98],rsi
    29ab:	00 
    29ac:	48 89 5e e0          	mov    QWORD PTR [rsi-0x20],rbx
    29b0:	4c 89 7e e8          	mov    QWORD PTR [rsi-0x18],r15
    29b4:	b8 01 00 00 00       	mov    eax,0x1
    29b9:	48 89 46 f0          	mov    QWORD PTR [rsi-0x10],rax
    29bd:	b8 01 00 00 00       	mov    eax,0x1
    29c2:	48 89 46 f8          	mov    QWORD PTR [rsi-0x8],rax
    29c6:	48 31 f6             	xor    rsi,rsi
    29c9:	48 b8 00 00 00 00 00 	movabs rax,0x0
    29d0:	00 00 00 
			29cb: R_X86_64_64	do_callback
    29d3:	48 89 9c 24 18 03 00 	mov    QWORD PTR [rsp+0x318],rbx
    29da:	00 
    29db:	48 89 bc 24 20 03 00 	mov    QWORD PTR [rsp+0x320],rdi
    29e2:	00 
    29e3:	4c 89 ac 24 28 03 00 	mov    QWORD PTR [rsp+0x328],r13
    29ea:	00 
    29eb:	ff d0                	call   rax
    29ed:	48 8b 9c 24 18 03 00 	mov    rbx,QWORD PTR [rsp+0x318]
    29f4:	00 
    29f5:	4c 8b ac 24 28 03 00 	mov    r13,QWORD PTR [rsp+0x328]
    29fc:	00 
    29fd:	48 89 c6             	mov    rsi,rax
    2a00:	48 89 b4 24 18 03 00 	mov    QWORD PTR [rsp+0x318],rsi
    2a07:	00 
    2a08:	49 8b b4 24 98 00 00 	mov    rsi,QWORD PTR [r12+0x98]
    2a0f:	00 
    2a10:	49 8b 7d 08          	mov    rdi,QWORD PTR [r13+0x8]
    2a14:	49 89 b4 24 98 00 00 	mov    QWORD PTR [r12+0x98],rsi
    2a1b:	00 
    2a1c:	48 89 5e e0          	mov    QWORD PTR [rsi-0x20],rbx
    2a20:	4c 89 7e e8          	mov    QWORD PTR [rsi-0x18],r15
    2a24:	b8 01 00 00 00       	mov    eax,0x1
    2a29:	48 89 46 f0          	mov    QWORD PTR [rsi-0x10],rax
    2a2d:	b8 01 00 00 00       	mov    eax,0x1
    2a32:	48 89 46 f8          	mov    QWORD PTR [rsi-0x8],rax
    2a36:	48 31 f6             	xor    rsi,rsi
    2a39:	48 b8 00 00 00 00 00 	movabs rax,0x0
    2a40:	00 00 00 
			2a3b: R_X86_64_64	do_callback
    2a43:	48 89 9c 24 20 03 00 	mov    QWORD PTR [rsp+0x320],rbx
    2a4a:	00 
    2a4b:	48 89 bc 24 28 03 00 	mov    QWORD PTR [rsp+0x328],rdi
    2a52:	00 
    2a53:	4c 89 ac 24 30 03 00 	mov    QWORD PTR [rsp+0x330],r13
    2a5a:	00 
    2a5b:	ff d0                	call   rax
    2a5d:	48 8b 9c 24 20 03 00 	mov    rbx,QWORD PTR [rsp+0x320]
    2a64:	00 
    2a65:	4c 8b ac 24 30 03 00 	mov    r13,QWORD PTR [rsp+0x330]
    2a6c:	00 
    2a6d:	48 89 c6             	mov    rsi,rax
    2a70:	48 89 b4 24 20 03 00 	mov    QWORD PTR [rsp+0x320],rsi
    2a77:	00 
    2a78:	49 8b b4 24 98 00 00 	mov    rsi,QWORD PTR [r12+0x98]
    2a7f:	00 
    2a80:	49 8b 7d 08          	mov    rdi,QWORD PTR [r13+0x8]
    2a84:	49 89 b4 24 98 00 00 	mov    QWORD PTR [r12+0x98],rsi
    2a8b:	00 
    2a8c:	48 89 5e e0          	mov    QWORD PTR [rsi-0x20],rbx
    2a90:	4c 89 7e e8          	mov    QWORD PTR [rsi-0x18],r15
    2a94:	b8 01 00 00 00       	mov    eax,0x1
    2a99:	48 89 46 f0          	mov    QWORD PTR [rsi-0x10],rax
    2a9d:	b8 01 00 00 00       	mov    eax,0x1
    2aa2:	48 89 46 f8          	mov    QWORD PTR [rsi-0x8],rax
    2aa6:	48 31 f6             	xor    rsi,rsi
    2aa9:	48 b8 00 00 00 00 00 	movabs rax,0x0
    2ab0:	00 00 00 
			2aab: R_X86_64_64	do_callback
    2ab3:	48 89 9c 24 28 03 00 	mov    QWORD PTR [rsp+0x328],rbx
    2aba:	00 
    2abb:	48 89 bc 24 30 03 00 	mov    QWORD PTR [rsp+0x330],rdi
    2ac2:	00 
    2ac3:	4c 89 ac 24 38 03 00 	mov    QWORD PTR [rsp+0x338],r13
    2aca:	00 
    2acb:	ff d0                	call   rax
    2acd:	48 8b 9c 24 28 03 00 	mov    rbx,QWORD PTR [rsp+0x328]
    2ad4:	00 
    2ad5:	4c 8b ac 24 38 03 00 	mov    r13,QWORD PTR [rsp+0x338]
    2adc:	00 
    2add:	49 89 c6             	mov    r14,rax
    2ae0:	49 8b b4 24 98 00 00 	mov    rsi,QWORD PTR [r12+0x98]
    2ae7:	00 
    2ae8:	49 8b 7d 08          	mov    rdi,QWORD PTR [r13+0x8]
    2aec:	49 89 b4 24 98 00 00 	mov    QWORD PTR [r12+0x98],rsi
    2af3:	00 
    2af4:	48 89 5e e0          	mov    QWORD PTR [rsi-0x20],rbx
    2af8:	4c 89 7e e8          	mov    QWORD PTR [rsi-0x18],r15
    2afc:	b8 01 00 00 00       	mov    eax,0x1
    2b01:	48 89 46 f0          	mov    QWORD PTR [rsi-0x10],rax
    2b05:	b8 01 00 00 00       	mov    eax,0x1
    2b0a:	48 89 46 f8          	mov    QWORD PTR [rsi-0x8],rax
    2b0e:	48 31 f6             	xor    rsi,rsi
    2b11:	48 b8 00 00 00 00 00 	movabs rax,0x0
    2b18:	00 00 00 
			2b13: R_X86_64_64	do_callback
    2b1b:	48 89 bc 24 28 03 00 	mov    QWORD PTR [rsp+0x328],rdi
    2b22:	00 
    2b23:	4c 89 ac 24 30 03 00 	mov    QWORD PTR [rsp+0x330],r13
    2b2a:	00 
    2b2b:	4c 89 b4 24 38 03 00 	mov    QWORD PTR [rsp+0x338],r14
    2b32:	00 
    2b33:	ff d0                	call   rax
    2b35:	4c 8b ac 24 30 03 00 	mov    r13,QWORD PTR [rsp+0x330]
    2b3c:	00 
    2b3d:	4c 8b b4 24 38 03 00 	mov    r14,QWORD PTR [rsp+0x338]
    2b44:	00 
    2b45:	48 89 c3             	mov    rbx,rax
    2b48:	49 8b b4 24 98 00 00 	mov    rsi,QWORD PTR [r12+0x98]
    2b4f:	00 
    2b50:	48 89 b4 24 28 03 00 	mov    QWORD PTR [rsp+0x328],rsi
    2b57:	00 
    2b58:	49 c7 c7 d8 fc ff ff 	mov    r15,0xfffffffffffffcd8
    2b5f:	4d 03 3c 24          	add    r15,QWORD PTR [r12]
    2b63:	4d 89 3c 24          	mov    QWORD PTR [r12],r15
    2b67:	49 8b 74 24 08       	mov    rsi,QWORD PTR [r12+0x8]
    2b6c:	49 39 f7             	cmp    r15,rsi
    2b6f:	0f 83 52 00 00 00    	jae    2bc7 <trigger_gc_please+0x2bc7>
    2b75:	bf 64 00 00 00       	mov    edi,0x64
    2b7a:	be 11 00 00 00       	mov    esi,0x11
    2b7f:	ba 01 00 00 00       	mov    edx,0x1
    2b84:	48 31 c9             	xor    rcx,rcx
    2b87:	48 b8 00 00 00 00 00 	movabs rax,0x0
    2b8e:	00 00 00 
			2b89: R_X86_64_64	caml_alloc_small_dispatch
    2b91:	48 89 9c 24 30 03 00 	mov    QWORD PTR [rsp+0x330],rbx
    2b98:	00 
    2b99:	4c 89 ac 24 38 03 00 	mov    QWORD PTR [rsp+0x338],r13
    2ba0:	00 
    2ba1:	4c 89 b4 24 40 03 00 	mov    QWORD PTR [rsp+0x340],r14
    2ba8:	00 
    2ba9:	ff d0                	call   rax
    2bab:	48 8b 9c 24 30 03 00 	mov    rbx,QWORD PTR [rsp+0x330]
    2bb2:	00 
    2bb3:	4c 8b ac 24 38 03 00 	mov    r13,QWORD PTR [rsp+0x338]
    2bba:	00 
    2bbb:	4c 8b b4 24 40 03 00 	mov    r14,QWORD PTR [rsp+0x340]
    2bc2:	00 
    2bc3:	4d 8b 3c 24          	mov    r15,QWORD PTR [r12]
    2bc7:	be 00 90 01 00       	mov    esi,0x19000
    2bcc:	49 89 37             	mov    QWORD PTR [r15],rsi
    2bcf:	49 83 c7 08          	add    r15,0x8
    2bd3:	49 89 1f             	mov    QWORD PTR [r15],rbx
    2bd6:	4d 89 77 08          	mov    QWORD PTR [r15+0x8],r14
    2bda:	48 8b b4 24 20 03 00 	mov    rsi,QWORD PTR [rsp+0x320]
    2be1:	00 
    2be2:	49 89 77 10          	mov    QWORD PTR [r15+0x10],rsi
    2be6:	48 8b b4 24 18 03 00 	mov    rsi,QWORD PTR [rsp+0x318]
    2bed:	00 
    2bee:	49 89 77 18          	mov    QWORD PTR [r15+0x18],rsi
    2bf2:	48 8b b4 24 10 03 00 	mov    rsi,QWORD PTR [rsp+0x310]
    2bf9:	00 
    2bfa:	49 89 77 20          	mov    QWORD PTR [r15+0x20],rsi
    2bfe:	48 8b b4 24 08 03 00 	mov    rsi,QWORD PTR [rsp+0x308]
    2c05:	00 
    2c06:	49 89 77 28          	mov    QWORD PTR [r15+0x28],rsi
    2c0a:	48 8b b4 24 00 03 00 	mov    rsi,QWORD PTR [rsp+0x300]
    2c11:	00 
    2c12:	49 89 77 30          	mov    QWORD PTR [r15+0x30],rsi
    2c16:	48 8b b4 24 f8 02 00 	mov    rsi,QWORD PTR [rsp+0x2f8]
    2c1d:	00 
    2c1e:	49 89 77 38          	mov    QWORD PTR [r15+0x38],rsi
    2c22:	48 8b b4 24 f0 02 00 	mov    rsi,QWORD PTR [rsp+0x2f0]
    2c29:	00 
    2c2a:	49 89 77 40          	mov    QWORD PTR [r15+0x40],rsi
    2c2e:	48 8b b4 24 e8 02 00 	mov    rsi,QWORD PTR [rsp+0x2e8]
    2c35:	00 
    2c36:	49 89 77 48          	mov    QWORD PTR [r15+0x48],rsi
    2c3a:	48 8b b4 24 e0 02 00 	mov    rsi,QWORD PTR [rsp+0x2e0]
    2c41:	00 
    2c42:	49 89 77 50          	mov    QWORD PTR [r15+0x50],rsi
    2c46:	48 8b b4 24 d8 02 00 	mov    rsi,QWORD PTR [rsp+0x2d8]
    2c4d:	00 
    2c4e:	49 89 77 58          	mov    QWORD PTR [r15+0x58],rsi
    2c52:	48 8b b4 24 d0 02 00 	mov    rsi,QWORD PTR [rsp+0x2d0]
    2c59:	00 
    2c5a:	49 89 77 60          	mov    QWORD PTR [r15+0x60],rsi
    2c5e:	48 8b b4 24 c8 02 00 	mov    rsi,QWORD PTR [rsp+0x2c8]
    2c65:	00 
    2c66:	49 89 77 68          	mov    QWORD PTR [r15+0x68],rsi
    2c6a:	48 8b b4 24 c0 02 00 	mov    rsi,QWORD PTR [rsp+0x2c0]
    2c71:	00 
    2c72:	49 89 77 70          	mov    QWORD PTR [r15+0x70],rsi
    2c76:	48 8b b4 24 b8 02 00 	mov    rsi,QWORD PTR [rsp+0x2b8]
    2c7d:	00 
    2c7e:	49 89 77 78          	mov    QWORD PTR [r15+0x78],rsi
    2c82:	48 8b b4 24 b0 02 00 	mov    rsi,QWORD PTR [rsp+0x2b0]
    2c89:	00 
    2c8a:	49 89 b7 80 00 00 00 	mov    QWORD PTR [r15+0x80],rsi
    2c91:	48 8b b4 24 a8 02 00 	mov    rsi,QWORD PTR [rsp+0x2a8]
    2c98:	00 
    2c99:	49 89 b7 88 00 00 00 	mov    QWORD PTR [r15+0x88],rsi
    2ca0:	48 8b b4 24 a0 02 00 	mov    rsi,QWORD PTR [rsp+0x2a0]
    2ca7:	00 
    2ca8:	49 89 b7 90 00 00 00 	mov    QWORD PTR [r15+0x90],rsi
    2caf:	48 8b b4 24 98 02 00 	mov    rsi,QWORD PTR [rsp+0x298]
    2cb6:	00 
    2cb7:	49 89 b7 98 00 00 00 	mov    QWORD PTR [r15+0x98],rsi
    2cbe:	48 8b b4 24 90 02 00 	mov    rsi,QWORD PTR [rsp+0x290]
    2cc5:	00 
    2cc6:	49 89 b7 a0 00 00 00 	mov    QWORD PTR [r15+0xa0],rsi
    2ccd:	48 8b b4 24 88 02 00 	mov    rsi,QWORD PTR [rsp+0x288]
    2cd4:	00 
    2cd5:	49 89 b7 a8 00 00 00 	mov    QWORD PTR [r15+0xa8],rsi
    2cdc:	48 8b b4 24 80 02 00 	mov    rsi,QWORD PTR [rsp+0x280]
    2ce3:	00 
    2ce4:	49 89 b7 b0 00 00 00 	mov    QWORD PTR [r15+0xb0],rsi
    2ceb:	48 8b b4 24 78 02 00 	mov    rsi,QWORD PTR [rsp+0x278]
    2cf2:	00 
    2cf3:	49 89 b7 b8 00 00 00 	mov    QWORD PTR [r15+0xb8],rsi
    2cfa:	48 8b b4 24 70 02 00 	mov    rsi,QWORD PTR [rsp+0x270]
    2d01:	00 
    2d02:	49 89 b7 c0 00 00 00 	mov    QWORD PTR [r15+0xc0],rsi
    2d09:	48 8b b4 24 68 02 00 	mov    rsi,QWORD PTR [rsp+0x268]
    2d10:	00 
    2d11:	49 89 b7 c8 00 00 00 	mov    QWORD PTR [r15+0xc8],rsi
    2d18:	48 8b b4 24 60 02 00 	mov    rsi,QWORD PTR [rsp+0x260]
    2d1f:	00 
    2d20:	49 89 b7 d0 00 00 00 	mov    QWORD PTR [r15+0xd0],rsi
    2d27:	48 8b b4 24 58 02 00 	mov    rsi,QWORD PTR [rsp+0x258]
    2d2e:	00 
    2d2f:	49 89 b7 d8 00 00 00 	mov    QWORD PTR [r15+0xd8],rsi
    2d36:	48 8b b4 24 50 02 00 	mov    rsi,QWORD PTR [rsp+0x250]
    2d3d:	00 
    2d3e:	49 89 b7 e0 00 00 00 	mov    QWORD PTR [r15+0xe0],rsi
    2d45:	48 8b b4 24 48 02 00 	mov    rsi,QWORD PTR [rsp+0x248]
    2d4c:	00 
    2d4d:	49 89 b7 e8 00 00 00 	mov    QWORD PTR [r15+0xe8],rsi
    2d54:	48 8b b4 24 40 02 00 	mov    rsi,QWORD PTR [rsp+0x240]
    2d5b:	00 
    2d5c:	49 89 b7 f0 00 00 00 	mov    QWORD PTR [r15+0xf0],rsi
    2d63:	48 8b b4 24 38 02 00 	mov    rsi,QWORD PTR [rsp+0x238]
    2d6a:	00 
    2d6b:	49 89 b7 f8 00 00 00 	mov    QWORD PTR [r15+0xf8],rsi
    2d72:	48 8b b4 24 30 02 00 	mov    rsi,QWORD PTR [rsp+0x230]
    2d79:	00 
    2d7a:	49 89 b7 00 01 00 00 	mov    QWORD PTR [r15+0x100],rsi
    2d81:	48 8b b4 24 28 02 00 	mov    rsi,QWORD PTR [rsp+0x228]
    2d88:	00 
    2d89:	49 89 b7 08 01 00 00 	mov    QWORD PTR [r15+0x108],rsi
    2d90:	48 8b b4 24 20 02 00 	mov    rsi,QWORD PTR [rsp+0x220]
    2d97:	00 
    2d98:	49 89 b7 10 01 00 00 	mov    QWORD PTR [r15+0x110],rsi
    2d9f:	48 8b b4 24 18 02 00 	mov    rsi,QWORD PTR [rsp+0x218]
    2da6:	00 
    2da7:	49 89 b7 18 01 00 00 	mov    QWORD PTR [r15+0x118],rsi
    2dae:	48 8b b4 24 10 02 00 	mov    rsi,QWORD PTR [rsp+0x210]
    2db5:	00 
    2db6:	49 89 b7 20 01 00 00 	mov    QWORD PTR [r15+0x120],rsi
    2dbd:	48 8b b4 24 08 02 00 	mov    rsi,QWORD PTR [rsp+0x208]
    2dc4:	00 
    2dc5:	49 89 b7 28 01 00 00 	mov    QWORD PTR [r15+0x128],rsi
    2dcc:	48 8b b4 24 00 02 00 	mov    rsi,QWORD PTR [rsp+0x200]
    2dd3:	00 
    2dd4:	49 89 b7 30 01 00 00 	mov    QWORD PTR [r15+0x130],rsi
    2ddb:	48 8b b4 24 f8 01 00 	mov    rsi,QWORD PTR [rsp+0x1f8]
    2de2:	00 
    2de3:	49 89 b7 38 01 00 00 	mov    QWORD PTR [r15+0x138],rsi
    2dea:	48 8b b4 24 f0 01 00 	mov    rsi,QWORD PTR [rsp+0x1f0]
    2df1:	00 
    2df2:	49 89 b7 40 01 00 00 	mov    QWORD PTR [r15+0x140],rsi
    2df9:	48 8b b4 24 e8 01 00 	mov    rsi,QWORD PTR [rsp+0x1e8]
    2e00:	00 
    2e01:	49 89 b7 48 01 00 00 	mov    QWORD PTR [r15+0x148],rsi
    2e08:	48 8b b4 24 e0 01 00 	mov    rsi,QWORD PTR [rsp+0x1e0]
    2e0f:	00 
    2e10:	49 89 b7 50 01 00 00 	mov    QWORD PTR [r15+0x150],rsi
    2e17:	48 8b b4 24 d8 01 00 	mov    rsi,QWORD PTR [rsp+0x1d8]
    2e1e:	00 
    2e1f:	49 89 b7 58 01 00 00 	mov    QWORD PTR [r15+0x158],rsi
    2e26:	48 8b b4 24 d0 01 00 	mov    rsi,QWORD PTR [rsp+0x1d0]
    2e2d:	00 
    2e2e:	49 89 b7 60 01 00 00 	mov    QWORD PTR [r15+0x160],rsi
    2e35:	48 8b b4 24 c8 01 00 	mov    rsi,QWORD PTR [rsp+0x1c8]
    2e3c:	00 
    2e3d:	49 89 b7 68 01 00 00 	mov    QWORD PTR [r15+0x168],rsi
    2e44:	48 8b b4 24 c0 01 00 	mov    rsi,QWORD PTR [rsp+0x1c0]
    2e4b:	00 
    2e4c:	49 89 b7 70 01 00 00 	mov    QWORD PTR [r15+0x170],rsi
    2e53:	48 8b b4 24 b8 01 00 	mov    rsi,QWORD PTR [rsp+0x1b8]
    2e5a:	00 
    2e5b:	49 89 b7 78 01 00 00 	mov    QWORD PTR [r15+0x178],rsi
    2e62:	48 8b b4 24 b0 01 00 	mov    rsi,QWORD PTR [rsp+0x1b0]
    2e69:	00 
    2e6a:	49 89 b7 80 01 00 00 	mov    QWORD PTR [r15+0x180],rsi
    2e71:	48 8b b4 24 a8 01 00 	mov    rsi,QWORD PTR [rsp+0x1a8]
    2e78:	00 
    2e79:	49 89 b7 88 01 00 00 	mov    QWORD PTR [r15+0x188],rsi
    2e80:	48 8b b4 24 a0 01 00 	mov    rsi,QWORD PTR [rsp+0x1a0]
    2e87:	00 
    2e88:	49 89 b7 90 01 00 00 	mov    QWORD PTR [r15+0x190],rsi
    2e8f:	48 8b b4 24 98 01 00 	mov    rsi,QWORD PTR [rsp+0x198]
    2e96:	00 
    2e97:	49 89 b7 98 01 00 00 	mov    QWORD PTR [r15+0x198],rsi
    2e9e:	48 8b b4 24 90 01 00 	mov    rsi,QWORD PTR [rsp+0x190]
    2ea5:	00 
    2ea6:	49 89 b7 a0 01 00 00 	mov    QWORD PTR [r15+0x1a0],rsi
    2ead:	48 8b b4 24 88 01 00 	mov    rsi,QWORD PTR [rsp+0x188]
    2eb4:	00 
    2eb5:	49 89 b7 a8 01 00 00 	mov    QWORD PTR [r15+0x1a8],rsi
    2ebc:	48 8b b4 24 80 01 00 	mov    rsi,QWORD PTR [rsp+0x180]
    2ec3:	00 
    2ec4:	49 89 b7 b0 01 00 00 	mov    QWORD PTR [r15+0x1b0],rsi
    2ecb:	48 8b b4 24 78 01 00 	mov    rsi,QWORD PTR [rsp+0x178]
    2ed2:	00 
    2ed3:	49 89 b7 b8 01 00 00 	mov    QWORD PTR [r15+0x1b8],rsi
    2eda:	48 8b b4 24 70 01 00 	mov    rsi,QWORD PTR [rsp+0x170]
    2ee1:	00 
    2ee2:	49 89 b7 c0 01 00 00 	mov    QWORD PTR [r15+0x1c0],rsi
    2ee9:	48 8b b4 24 68 01 00 	mov    rsi,QWORD PTR [rsp+0x168]
    2ef0:	00 
    2ef1:	49 89 b7 c8 01 00 00 	mov    QWORD PTR [r15+0x1c8],rsi
    2ef8:	48 8b b4 24 60 01 00 	mov    rsi,QWORD PTR [rsp+0x160]
    2eff:	00 
    2f00:	49 89 b7 d0 01 00 00 	mov    QWORD PTR [r15+0x1d0],rsi
    2f07:	48 8b b4 24 58 01 00 	mov    rsi,QWORD PTR [rsp+0x158]
    2f0e:	00 
    2f0f:	49 89 b7 d8 01 00 00 	mov    QWORD PTR [r15+0x1d8],rsi
    2f16:	48 8b b4 24 50 01 00 	mov    rsi,QWORD PTR [rsp+0x150]
    2f1d:	00 
    2f1e:	49 89 b7 e0 01 00 00 	mov    QWORD PTR [r15+0x1e0],rsi
    2f25:	48 8b b4 24 48 01 00 	mov    rsi,QWORD PTR [rsp+0x148]
    2f2c:	00 
    2f2d:	49 89 b7 e8 01 00 00 	mov    QWORD PTR [r15+0x1e8],rsi
    2f34:	48 8b b4 24 40 01 00 	mov    rsi,QWORD PTR [rsp+0x140]
    2f3b:	00 
    2f3c:	49 89 b7 f0 01 00 00 	mov    QWORD PTR [r15+0x1f0],rsi
    2f43:	48 8b b4 24 38 01 00 	mov    rsi,QWORD PTR [rsp+0x138]
    2f4a:	00 
    2f4b:	49 89 b7 f8 01 00 00 	mov    QWORD PTR [r15+0x1f8],rsi
    2f52:	48 8b b4 24 30 01 00 	mov    rsi,QWORD PTR [rsp+0x130]
    2f59:	00 
    2f5a:	49 89 b7 00 02 00 00 	mov    QWORD PTR [r15+0x200],rsi
    2f61:	48 8b b4 24 28 01 00 	mov    rsi,QWORD PTR [rsp+0x128]
    2f68:	00 
    2f69:	49 89 b7 08 02 00 00 	mov    QWORD PTR [r15+0x208],rsi
    2f70:	48 8b b4 24 20 01 00 	mov    rsi,QWORD PTR [rsp+0x120]
    2f77:	00 
    2f78:	49 89 b7 10 02 00 00 	mov    QWORD PTR [r15+0x210],rsi
    2f7f:	48 8b b4 24 18 01 00 	mov    rsi,QWORD PTR [rsp+0x118]
    2f86:	00 
    2f87:	49 89 b7 18 02 00 00 	mov    QWORD PTR [r15+0x218],rsi
    2f8e:	48 8b b4 24 10 01 00 	mov    rsi,QWORD PTR [rsp+0x110]
    2f95:	00 
    2f96:	49 89 b7 20 02 00 00 	mov    QWORD PTR [r15+0x220],rsi
    2f9d:	48 8b b4 24 08 01 00 	mov    rsi,QWORD PTR [rsp+0x108]
    2fa4:	00 
    2fa5:	49 89 b7 28 02 00 00 	mov    QWORD PTR [r15+0x228],rsi
    2fac:	48 8b b4 24 00 01 00 	mov    rsi,QWORD PTR [rsp+0x100]
    2fb3:	00 
    2fb4:	49 89 b7 30 02 00 00 	mov    QWORD PTR [r15+0x230],rsi
    2fbb:	48 8b b4 24 f8 00 00 	mov    rsi,QWORD PTR [rsp+0xf8]
    2fc2:	00 
    2fc3:	49 89 b7 38 02 00 00 	mov    QWORD PTR [r15+0x238],rsi
    2fca:	48 8b b4 24 f0 00 00 	mov    rsi,QWORD PTR [rsp+0xf0]
    2fd1:	00 
    2fd2:	49 89 b7 40 02 00 00 	mov    QWORD PTR [r15+0x240],rsi
    2fd9:	48 8b b4 24 e8 00 00 	mov    rsi,QWORD PTR [rsp+0xe8]
    2fe0:	00 
    2fe1:	49 89 b7 48 02 00 00 	mov    QWORD PTR [r15+0x248],rsi
    2fe8:	48 8b b4 24 e0 00 00 	mov    rsi,QWORD PTR [rsp+0xe0]
    2fef:	00 
    2ff0:	49 89 b7 50 02 00 00 	mov    QWORD PTR [r15+0x250],rsi
    2ff7:	48 8b b4 24 d8 00 00 	mov    rsi,QWORD PTR [rsp+0xd8]
    2ffe:	00 
    2fff:	49 89 b7 58 02 00 00 	mov    QWORD PTR [r15+0x258],rsi
    3006:	48 8b b4 24 d0 00 00 	mov    rsi,QWORD PTR [rsp+0xd0]
    300d:	00 
    300e:	49 89 b7 60 02 00 00 	mov    QWORD PTR [r15+0x260],rsi
    3015:	48 8b b4 24 c8 00 00 	mov    rsi,QWORD PTR [rsp+0xc8]
    301c:	00 
    301d:	49 89 b7 68 02 00 00 	mov    QWORD PTR [r15+0x268],rsi
    3024:	48 8b b4 24 c0 00 00 	mov    rsi,QWORD PTR [rsp+0xc0]
    302b:	00 
    302c:	49 89 b7 70 02 00 00 	mov    QWORD PTR [r15+0x270],rsi
    3033:	48 8b b4 24 b8 00 00 	mov    rsi,QWORD PTR [rsp+0xb8]
    303a:	00 
    303b:	49 89 b7 78 02 00 00 	mov    QWORD PTR [r15+0x278],rsi
    3042:	48 8b b4 24 b0 00 00 	mov    rsi,QWORD PTR [rsp+0xb0]
    3049:	00 
    304a:	49 89 b7 80 02 00 00 	mov    QWORD PTR [r15+0x280],rsi
    3051:	48 8b b4 24 a8 00 00 	mov    rsi,QWORD PTR [rsp+0xa8]
    3058:	00 
    3059:	49 89 b7 88 02 00 00 	mov    QWORD PTR [r15+0x288],rsi
    3060:	48 8b b4 24 a0 00 00 	mov    rsi,QWORD PTR [rsp+0xa0]
    3067:	00 
    3068:	49 89 b7 90 02 00 00 	mov    QWORD PTR [r15+0x290],rsi
    306f:	48 8b b4 24 98 00 00 	mov    rsi,QWORD PTR [rsp+0x98]
    3076:	00 
    3077:	49 89 b7 98 02 00 00 	mov    QWORD PTR [r15+0x298],rsi
    307e:	48 8b b4 24 90 00 00 	mov    rsi,QWORD PTR [rsp+0x90]
    3085:	00 
    3086:	49 89 b7 a0 02 00 00 	mov    QWORD PTR [r15+0x2a0],rsi
    308d:	48 8b b4 24 88 00 00 	mov    rsi,QWORD PTR [rsp+0x88]
    3094:	00 
    3095:	49 89 b7 a8 02 00 00 	mov    QWORD PTR [r15+0x2a8],rsi
    309c:	48 8b b4 24 80 00 00 	mov    rsi,QWORD PTR [rsp+0x80]
    30a3:	00 
    30a4:	49 89 b7 b0 02 00 00 	mov    QWORD PTR [r15+0x2b0],rsi
    30ab:	48 8b 74 24 78       	mov    rsi,QWORD PTR [rsp+0x78]
    30b0:	49 89 b7 b8 02 00 00 	mov    QWORD PTR [r15+0x2b8],rsi
    30b7:	48 8b 74 24 70       	mov    rsi,QWORD PTR [rsp+0x70]
    30bc:	49 89 b7 c0 02 00 00 	mov    QWORD PTR [r15+0x2c0],rsi
    30c3:	48 8b 74 24 68       	mov    rsi,QWORD PTR [rsp+0x68]
    30c8:	49 89 b7 c8 02 00 00 	mov    QWORD PTR [r15+0x2c8],rsi
    30cf:	48 8b 74 24 60       	mov    rsi,QWORD PTR [rsp+0x60]
    30d4:	49 89 b7 d0 02 00 00 	mov    QWORD PTR [r15+0x2d0],rsi
    30db:	48 8b 74 24 58       	mov    rsi,QWORD PTR [rsp+0x58]
    30e0:	49 89 b7 d8 02 00 00 	mov    QWORD PTR [r15+0x2d8],rsi
    30e7:	48 8b 74 24 50       	mov    rsi,QWORD PTR [rsp+0x50]
    30ec:	49 89 b7 e0 02 00 00 	mov    QWORD PTR [r15+0x2e0],rsi
    30f3:	48 8b 74 24 48       	mov    rsi,QWORD PTR [rsp+0x48]
    30f8:	49 89 b7 e8 02 00 00 	mov    QWORD PTR [r15+0x2e8],rsi
    30ff:	48 8b 74 24 40       	mov    rsi,QWORD PTR [rsp+0x40]
    3104:	49 89 b7 f0 02 00 00 	mov    QWORD PTR [r15+0x2f0],rsi
    310b:	48 8b 74 24 38       	mov    rsi,QWORD PTR [rsp+0x38]
    3110:	49 89 b7 f8 02 00 00 	mov    QWORD PTR [r15+0x2f8],rsi
    3117:	48 8b 74 24 30       	mov    rsi,QWORD PTR [rsp+0x30]
    311c:	49 89 b7 00 03 00 00 	mov    QWORD PTR [r15+0x300],rsi
    3123:	48 8b 74 24 28       	mov    rsi,QWORD PTR [rsp+0x28]
    3128:	49 89 b7 08 03 00 00 	mov    QWORD PTR [r15+0x308],rsi
    312f:	48 8b 74 24 20       	mov    rsi,QWORD PTR [rsp+0x20]
    3134:	49 89 b7 10 03 00 00 	mov    QWORD PTR [r15+0x310],rsi
    313b:	48 8b 74 24 18       	mov    rsi,QWORD PTR [rsp+0x18]
    3140:	49 89 b7 18 03 00 00 	mov    QWORD PTR [r15+0x318],rsi
    3147:	48 c7 c6 e8 ff ff ff 	mov    rsi,0xffffffffffffffe8
    314e:	49 03 34 24          	add    rsi,QWORD PTR [r12]
    3152:	49 89 34 24          	mov    QWORD PTR [r12],rsi
    3156:	49 8b 7c 24 08       	mov    rdi,QWORD PTR [r12+0x8]
    315b:	48 39 fe             	cmp    rsi,rdi
    315e:	0f 83 36 00 00 00    	jae    319a <trigger_gc_please+0x319a>
    3164:	bf 02 00 00 00       	mov    edi,0x2
    3169:	be 11 00 00 00       	mov    esi,0x11
    316e:	ba 01 00 00 00       	mov    edx,0x1
    3173:	48 31 c9             	xor    rcx,rcx
    3176:	48 b8 00 00 00 00 00 	movabs rax,0x0
    317d:	00 00 00 
			3178: R_X86_64_64	caml_alloc_small_dispatch
    3180:	4c 89 7c 24 18       	mov    QWORD PTR [rsp+0x18],r15
    3185:	4c 89 6c 24 20       	mov    QWORD PTR [rsp+0x20],r13
    318a:	ff d0                	call   rax
    318c:	4c 8b 7c 24 18       	mov    r15,QWORD PTR [rsp+0x18]
    3191:	4c 8b 6c 24 20       	mov    r13,QWORD PTR [rsp+0x20]
    3196:	49 8b 34 24          	mov    rsi,QWORD PTR [r12]
    319a:	bf 00 08 00 00       	mov    edi,0x800
    319f:	48 89 3e             	mov    QWORD PTR [rsi],rdi
    31a2:	48 83 c6 08          	add    rsi,0x8
    31a6:	4c 89 3e             	mov    QWORD PTR [rsi],r15
    31a9:	48 8b 3c 24          	mov    rdi,QWORD PTR [rsp]
    31ad:	48 89 7e 08          	mov    QWORD PTR [rsi+0x8],rdi
    31b1:	48 8b 44 24 10       	mov    rax,QWORD PTR [rsp+0x10]
    31b6:	48 83 c0 fe          	add    rax,0xfffffffffffffffe
    31ba:	48 8b bc 24 28 03 00 	mov    rdi,QWORD PTR [rsp+0x328]
    31c1:	00 
    31c2:	48 83 c7 f0          	add    rdi,0xfffffffffffffff0
    31c6:	48 8b 8c 24 28 03 00 	mov    rcx,QWORD PTR [rsp+0x328]
    31cd:	00 
    31ce:	48 89 41 f0          	mov    QWORD PTR [rcx-0x10],rax
    31d2:	48 8b 84 24 28 03 00 	mov    rax,QWORD PTR [rsp+0x328]
    31d9:	00 
    31da:	48 89 70 f8          	mov    QWORD PTR [rax-0x8],rsi
    31de:	be 02 00 00 00       	mov    esi,0x2
    31e3:	e9 07 00 00 00       	jmp    31ef <trigger_gc_please+0x31ef>
    31e8:	4c 8b 2c 24          	mov    r13,QWORD PTR [rsp]
    31ec:	48 31 f6             	xor    rsi,rsi
    31ef:	49 89 bc 24 98 00 00 	mov    QWORD PTR [r12+0x98],rdi
    31f6:	00 
    31f7:	4c 89 e8             	mov    rax,r13
    31fa:	48 89 f2             	mov    rdx,rsi
    31fd:	4c 8b a4 24 50 03 00 	mov    r12,QWORD PTR [rsp+0x350]
    3204:	00 
    3205:	4c 8b ac 24 58 03 00 	mov    r13,QWORD PTR [rsp+0x358]
    320c:	00 
    320d:	4c 8b b4 24 60 03 00 	mov    r14,QWORD PTR [rsp+0x360]
    3214:	00 
    3215:	48 8b 9c 24 68 03 00 	mov    rbx,QWORD PTR [rsp+0x368]
    321c:	00 
    321d:	4c 8b bc 24 70 03 00 	mov    r15,QWORD PTR [rsp+0x370]
    3224:	00 
    3225:	48 81 c4 80 03 00 00 	add    rsp,0x380
    322c:	48 89 ec             	mov    rsp,rbp
    322f:	5d                   	pop    rbp
    3230:	c3                   	ret    
