
<input>:     file format elf64-x86-64


Disassembly of section .text:

0000000000000000 <trigger_gc_please>:
       0:	55                   	push   rbp
       1:	48 89 e5             	mov    rbp,rsp
       4:	48 81 ec 80 03 00 00 	sub    rsp,0x380
       b:	4c 89 a4 24 50 03 00 	mov    QWORD PTR [rsp+0x350],r12
      12:	00 
      13:	4c 89 ac 24 58 03 00 	mov    QWORD PTR [rsp+0x358],r13
      1a:	00 
      1b:	4c 89 b4 24 60 03 00 	mov    QWORD PTR [rsp+0x360],r14
      22:	00 
      23:	48 89 9c 24 68 03 00 	mov    QWORD PTR [rsp+0x368],rbx
      2a:	00 
      2b:	4c 89 bc 24 70 03 00 	mov    QWORD PTR [rsp+0x370],r15
      32:	00 
      33:	49 89 fd             	mov    r13,rdi
      36:	48 89 74 24 10       	mov    QWORD PTR [rsp+0x10],rsi
      3b:	48 89 d6             	mov    rsi,rdx
      3e:	48 89 34 24          	mov    QWORD PTR [rsp],rsi
      42:	49 bc 00 00 00 00 00 	movabs r12,0x0
      49:	00 00 00 
			44: R_X86_64_64	caml_state_addr
      4c:	49 8b b4 24 98 00 00 	mov    rsi,QWORD PTR [r12+0x98]
      53:	00 
      54:	48 8b 7c 24 10       	mov    rdi,QWORD PTR [rsp+0x10]
      59:	b8 01 00 00 00       	mov    eax,0x1
      5e:	48 39 f8             	cmp    rax,rdi
      61:	0f 84 7f 31 00 00    	je     31e6 <trigger_gc_please+0x31e6>
      67:	bb 01 00 00 00       	mov    ebx,0x1
      6c:	49 8b 7d 08          	mov    rdi,QWORD PTR [r13+0x8]
      70:	49 bf 00 00 00 00 00 	movabs r15,0x0
      77:	00 00 00 
			72: R_X86_64_64	callback_return_addr
      7a:	49 89 b4 24 98 00 00 	mov    QWORD PTR [r12+0x98],rsi
      81:	00 
      82:	48 89 5e e0          	mov    QWORD PTR [rsi-0x20],rbx
      86:	4c 89 7e e8          	mov    QWORD PTR [rsi-0x18],r15
      8a:	b8 01 00 00 00       	mov    eax,0x1
      8f:	48 89 46 f0          	mov    QWORD PTR [rsi-0x10],rax
      93:	b8 01 00 00 00       	mov    eax,0x1
      98:	48 89 46 f8          	mov    QWORD PTR [rsi-0x8],rax
      9c:	48 31 f6             	xor    rsi,rsi
      9f:	48 b8 00 00 00 00 00 	movabs rax,0x0
      a6:	00 00 00 
			a1: R_X86_64_64	do_callback
      a9:	48 89 5c 24 18       	mov    QWORD PTR [rsp+0x18],rbx
      ae:	48 89 7c 24 20       	mov    QWORD PTR [rsp+0x20],rdi
      b3:	4c 89 6c 24 28       	mov    QWORD PTR [rsp+0x28],r13
      b8:	ff d0                	call   rax
      ba:	48 8b 5c 24 18       	mov    rbx,QWORD PTR [rsp+0x18]
      bf:	4c 8b 6c 24 28       	mov    r13,QWORD PTR [rsp+0x28]
      c4:	48 89 c6             	mov    rsi,rax
      c7:	48 89 74 24 18       	mov    QWORD PTR [rsp+0x18],rsi
      cc:	49 8b b4 24 98 00 00 	mov    rsi,QWORD PTR [r12+0x98]
      d3:	00 
      d4:	49 8b 7d 08          	mov    rdi,QWORD PTR [r13+0x8]
      d8:	49 89 b4 24 98 00 00 	mov    QWORD PTR [r12+0x98],rsi
      df:	00 
      e0:	48 89 5e e0          	mov    QWORD PTR [rsi-0x20],rbx
      e4:	4c 89 7e e8          	mov    QWORD PTR [rsi-0x18],r15
      e8:	b8 01 00 00 00       	mov    eax,0x1
      ed:	48 89 46 f0          	mov    QWORD PTR [rsi-0x10],rax
      f1:	b8 01 00 00 00       	mov    eax,0x1
      f6:	48 89 46 f8          	mov    QWORD PTR [rsi-0x8],rax
      fa:	48 31 f6             	xor    rsi,rsi
      fd:	48 b8 00 00 00 00 00 	movabs rax,0x0
     104:	00 00 00 
			ff: R_X86_64_64	do_callback
     107:	48 89 5c 24 20       	mov    QWORD PTR [rsp+0x20],rbx
     10c:	48 89 7c 24 28       	mov    QWORD PTR [rsp+0x28],rdi
     111:	4c 89 6c 24 30       	mov    QWORD PTR [rsp+0x30],r13
     116:	ff d0                	call   rax
     118:	48 8b 5c 24 20       	mov    rbx,QWORD PTR [rsp+0x20]
     11d:	4c 8b 6c 24 30       	mov    r13,QWORD PTR [rsp+0x30]
     122:	48 89 c6             	mov    rsi,rax
     125:	48 89 74 24 20       	mov    QWORD PTR [rsp+0x20],rsi
     12a:	49 8b b4 24 98 00 00 	mov    rsi,QWORD PTR [r12+0x98]
     131:	00 
     132:	49 8b 7d 08          	mov    rdi,QWORD PTR [r13+0x8]
     136:	49 89 b4 24 98 00 00 	mov    QWORD PTR [r12+0x98],rsi
     13d:	00 
     13e:	48 89 5e e0          	mov    QWORD PTR [rsi-0x20],rbx
     142:	4c 89 7e e8          	mov    QWORD PTR [rsi-0x18],r15
     146:	b8 01 00 00 00       	mov    eax,0x1
     14b:	48 89 46 f0          	mov    QWORD PTR [rsi-0x10],rax
     14f:	b8 01 00 00 00       	mov    eax,0x1
     154:	48 89 46 f8          	mov    QWORD PTR [rsi-0x8],rax
     158:	48 31 f6             	xor    rsi,rsi
     15b:	48 b8 00 00 00 00 00 	movabs rax,0x0
     162:	00 00 00 
			15d: R_X86_64_64	do_callback
     165:	48 89 5c 24 28       	mov    QWORD PTR [rsp+0x28],rbx
     16a:	48 89 7c 24 30       	mov    QWORD PTR [rsp+0x30],rdi
     16f:	4c 89 6c 24 38       	mov    QWORD PTR [rsp+0x38],r13
     174:	ff d0                	call   rax
     176:	48 8b 5c 24 28       	mov    rbx,QWORD PTR [rsp+0x28]
     17b:	4c 8b 6c 24 38       	mov    r13,QWORD PTR [rsp+0x38]
     180:	48 89 c6             	mov    rsi,rax
     183:	48 89 74 24 28       	mov    QWORD PTR [rsp+0x28],rsi
     188:	49 8b b4 24 98 00 00 	mov    rsi,QWORD PTR [r12+0x98]
     18f:	00 
     190:	49 8b 7d 08          	mov    rdi,QWORD PTR [r13+0x8]
     194:	49 89 b4 24 98 00 00 	mov    QWORD PTR [r12+0x98],rsi
     19b:	00 
     19c:	48 89 5e e0          	mov    QWORD PTR [rsi-0x20],rbx
     1a0:	4c 89 7e e8          	mov    QWORD PTR [rsi-0x18],r15
     1a4:	b8 01 00 00 00       	mov    eax,0x1
     1a9:	48 89 46 f0          	mov    QWORD PTR [rsi-0x10],rax
     1ad:	b8 01 00 00 00       	mov    eax,0x1
     1b2:	48 89 46 f8          	mov    QWORD PTR [rsi-0x8],rax
     1b6:	48 31 f6             	xor    rsi,rsi
     1b9:	48 b8 00 00 00 00 00 	movabs rax,0x0
     1c0:	00 00 00 
			1bb: R_X86_64_64	do_callback
     1c3:	48 89 5c 24 30       	mov    QWORD PTR [rsp+0x30],rbx
     1c8:	48 89 7c 24 38       	mov    QWORD PTR [rsp+0x38],rdi
     1cd:	4c 89 6c 24 40       	mov    QWORD PTR [rsp+0x40],r13
     1d2:	ff d0                	call   rax
     1d4:	48 8b 5c 24 30       	mov    rbx,QWORD PTR [rsp+0x30]
     1d9:	4c 8b 6c 24 40       	mov    r13,QWORD PTR [rsp+0x40]
     1de:	48 89 c6             	mov    rsi,rax
     1e1:	48 89 74 24 30       	mov    QWORD PTR [rsp+0x30],rsi
     1e6:	49 8b b4 24 98 00 00 	mov    rsi,QWORD PTR [r12+0x98]
     1ed:	00 
     1ee:	49 8b 7d 08          	mov    rdi,QWORD PTR [r13+0x8]
     1f2:	49 89 b4 24 98 00 00 	mov    QWORD PTR [r12+0x98],rsi
     1f9:	00 
     1fa:	48 89 5e e0          	mov    QWORD PTR [rsi-0x20],rbx
     1fe:	4c 89 7e e8          	mov    QWORD PTR [rsi-0x18],r15
     202:	b8 01 00 00 00       	mov    eax,0x1
     207:	48 89 46 f0          	mov    QWORD PTR [rsi-0x10],rax
     20b:	b8 01 00 00 00       	mov    eax,0x1
     210:	48 89 46 f8          	mov    QWORD PTR [rsi-0x8],rax
     214:	48 31 f6             	xor    rsi,rsi
     217:	48 b8 00 00 00 00 00 	movabs rax,0x0
     21e:	00 00 00 
			219: R_X86_64_64	do_callback
     221:	48 89 5c 24 38       	mov    QWORD PTR [rsp+0x38],rbx
     226:	48 89 7c 24 40       	mov    QWORD PTR [rsp+0x40],rdi
     22b:	4c 89 6c 24 48       	mov    QWORD PTR [rsp+0x48],r13
     230:	ff d0                	call   rax
     232:	48 8b 5c 24 38       	mov    rbx,QWORD PTR [rsp+0x38]
     237:	4c 8b 6c 24 48       	mov    r13,QWORD PTR [rsp+0x48]
     23c:	48 89 c6             	mov    rsi,rax
     23f:	48 89 74 24 38       	mov    QWORD PTR [rsp+0x38],rsi
     244:	49 8b b4 24 98 00 00 	mov    rsi,QWORD PTR [r12+0x98]
     24b:	00 
     24c:	49 8b 7d 08          	mov    rdi,QWORD PTR [r13+0x8]
     250:	49 89 b4 24 98 00 00 	mov    QWORD PTR [r12+0x98],rsi
     257:	00 
     258:	48 89 5e e0          	mov    QWORD PTR [rsi-0x20],rbx
     25c:	4c 89 7e e8          	mov    QWORD PTR [rsi-0x18],r15
     260:	b8 01 00 00 00       	mov    eax,0x1
     265:	48 89 46 f0          	mov    QWORD PTR [rsi-0x10],rax
     269:	b8 01 00 00 00       	mov    eax,0x1
     26e:	48 89 46 f8          	mov    QWORD PTR [rsi-0x8],rax
     272:	48 31 f6             	xor    rsi,rsi
     275:	48 b8 00 00 00 00 00 	movabs rax,0x0
     27c:	00 00 00 
			277: R_X86_64_64	do_callback
     27f:	48 89 5c 24 40       	mov    QWORD PTR [rsp+0x40],rbx
     284:	48 89 7c 24 48       	mov    QWORD PTR [rsp+0x48],rdi
     289:	4c 89 6c 24 50       	mov    QWORD PTR [rsp+0x50],r13
     28e:	ff d0                	call   rax
     290:	48 8b 5c 24 40       	mov    rbx,QWORD PTR [rsp+0x40]
     295:	4c 8b 6c 24 50       	mov    r13,QWORD PTR [rsp+0x50]
     29a:	48 89 c6             	mov    rsi,rax
     29d:	48 89 74 24 40       	mov    QWORD PTR [rsp+0x40],rsi
     2a2:	49 8b b4 24 98 00 00 	mov    rsi,QWORD PTR [r12+0x98]
     2a9:	00 
     2aa:	49 8b 7d 08          	mov    rdi,QWORD PTR [r13+0x8]
     2ae:	49 89 b4 24 98 00 00 	mov    QWORD PTR [r12+0x98],rsi
     2b5:	00 
     2b6:	48 89 5e e0          	mov    QWORD PTR [rsi-0x20],rbx
     2ba:	4c 89 7e e8          	mov    QWORD PTR [rsi-0x18],r15
     2be:	b8 01 00 00 00       	mov    eax,0x1
     2c3:	48 89 46 f0          	mov    QWORD PTR [rsi-0x10],rax
     2c7:	b8 01 00 00 00       	mov    eax,0x1
     2cc:	48 89 46 f8          	mov    QWORD PTR [rsi-0x8],rax
     2d0:	48 31 f6             	xor    rsi,rsi
     2d3:	48 b8 00 00 00 00 00 	movabs rax,0x0
     2da:	00 00 00 
			2d5: R_X86_64_64	do_callback
     2dd:	48 89 5c 24 48       	mov    QWORD PTR [rsp+0x48],rbx
     2e2:	48 89 7c 24 50       	mov    QWORD PTR [rsp+0x50],rdi
     2e7:	4c 89 6c 24 58       	mov    QWORD PTR [rsp+0x58],r13
     2ec:	ff d0                	call   rax
     2ee:	48 8b 5c 24 48       	mov    rbx,QWORD PTR [rsp+0x48]
     2f3:	4c 8b 6c 24 58       	mov    r13,QWORD PTR [rsp+0x58]
     2f8:	48 89 c6             	mov    rsi,rax
     2fb:	48 89 74 24 48       	mov    QWORD PTR [rsp+0x48],rsi
     300:	49 8b b4 24 98 00 00 	mov    rsi,QWORD PTR [r12+0x98]
     307:	00 
     308:	49 8b 7d 08          	mov    rdi,QWORD PTR [r13+0x8]
     30c:	49 89 b4 24 98 00 00 	mov    QWORD PTR [r12+0x98],rsi
     313:	00 
     314:	48 89 5e e0          	mov    QWORD PTR [rsi-0x20],rbx
     318:	4c 89 7e e8          	mov    QWORD PTR [rsi-0x18],r15
     31c:	b8 01 00 00 00       	mov    eax,0x1
     321:	48 89 46 f0          	mov    QWORD PTR [rsi-0x10],rax
     325:	b8 01 00 00 00       	mov    eax,0x1
     32a:	48 89 46 f8          	mov    QWORD PTR [rsi-0x8],rax
     32e:	48 31 f6             	xor    rsi,rsi
     331:	48 b8 00 00 00 00 00 	movabs rax,0x0
     338:	00 00 00 
			333: R_X86_64_64	do_callback
     33b:	48 89 5c 24 50       	mov    QWORD PTR [rsp+0x50],rbx
     340:	48 89 7c 24 58       	mov    QWORD PTR [rsp+0x58],rdi
     345:	4c 89 6c 24 60       	mov    QWORD PTR [rsp+0x60],r13
     34a:	ff d0                	call   rax
     34c:	48 8b 5c 24 50       	mov    rbx,QWORD PTR [rsp+0x50]
     351:	4c 8b 6c 24 60       	mov    r13,QWORD PTR [rsp+0x60]
     356:	48 89 c6             	mov    rsi,rax
     359:	48 89 74 24 50       	mov    QWORD PTR [rsp+0x50],rsi
     35e:	49 8b b4 24 98 00 00 	mov    rsi,QWORD PTR [r12+0x98]
     365:	00 
     366:	49 8b 7d 08          	mov    rdi,QWORD PTR [r13+0x8]
     36a:	49 89 b4 24 98 00 00 	mov    QWORD PTR [r12+0x98],rsi
     371:	00 
     372:	48 89 5e e0          	mov    QWORD PTR [rsi-0x20],rbx
     376:	4c 89 7e e8          	mov    QWORD PTR [rsi-0x18],r15
     37a:	b8 01 00 00 00       	mov    eax,0x1
     37f:	48 89 46 f0          	mov    QWORD PTR [rsi-0x10],rax
     383:	b8 01 00 00 00       	mov    eax,0x1
     388:	48 89 46 f8          	mov    QWORD PTR [rsi-0x8],rax
     38c:	48 31 f6             	xor    rsi,rsi
     38f:	48 b8 00 00 00 00 00 	movabs rax,0x0
     396:	00 00 00 
			391: R_X86_64_64	do_callback
     399:	48 89 5c 24 58       	mov    QWORD PTR [rsp+0x58],rbx
     39e:	48 89 7c 24 60       	mov    QWORD PTR [rsp+0x60],rdi
     3a3:	4c 89 6c 24 68       	mov    QWORD PTR [rsp+0x68],r13
     3a8:	ff d0                	call   rax
     3aa:	48 8b 5c 24 58       	mov    rbx,QWORD PTR [rsp+0x58]
     3af:	4c 8b 6c 24 68       	mov    r13,QWORD PTR [rsp+0x68]
     3b4:	48 89 c6             	mov    rsi,rax
     3b7:	48 89 74 24 58       	mov    QWORD PTR [rsp+0x58],rsi
     3bc:	49 8b b4 24 98 00 00 	mov    rsi,QWORD PTR [r12+0x98]
     3c3:	00 
     3c4:	49 8b 7d 08          	mov    rdi,QWORD PTR [r13+0x8]
     3c8:	49 89 b4 24 98 00 00 	mov    QWORD PTR [r12+0x98],rsi
     3cf:	00 
     3d0:	48 89 5e e0          	mov    QWORD PTR [rsi-0x20],rbx
     3d4:	4c 89 7e e8          	mov    QWORD PTR [rsi-0x18],r15
     3d8:	b8 01 00 00 00       	mov    eax,0x1
     3dd:	48 89 46 f0          	mov    QWORD PTR [rsi-0x10],rax
     3e1:	b8 01 00 00 00       	mov    eax,0x1
     3e6:	48 89 46 f8          	mov    QWORD PTR [rsi-0x8],rax
     3ea:	48 31 f6             	xor    rsi,rsi
     3ed:	48 b8 00 00 00 00 00 	movabs rax,0x0
     3f4:	00 00 00 
			3ef: R_X86_64_64	do_callback
     3f7:	48 89 5c 24 60       	mov    QWORD PTR [rsp+0x60],rbx
     3fc:	48 89 7c 24 68       	mov    QWORD PTR [rsp+0x68],rdi
     401:	4c 89 6c 24 70       	mov    QWORD PTR [rsp+0x70],r13
     406:	ff d0                	call   rax
     408:	48 8b 5c 24 60       	mov    rbx,QWORD PTR [rsp+0x60]
     40d:	4c 8b 6c 24 70       	mov    r13,QWORD PTR [rsp+0x70]
     412:	48 89 c6             	mov    rsi,rax
     415:	48 89 74 24 60       	mov    QWORD PTR [rsp+0x60],rsi
     41a:	49 8b b4 24 98 00 00 	mov    rsi,QWORD PTR [r12+0x98]
     421:	00 
     422:	49 8b 7d 08          	mov    rdi,QWORD PTR [r13+0x8]
     426:	49 89 b4 24 98 00 00 	mov    QWORD PTR [r12+0x98],rsi
     42d:	00 
     42e:	48 89 5e e0          	mov    QWORD PTR [rsi-0x20],rbx
     432:	4c 89 7e e8          	mov    QWORD PTR [rsi-0x18],r15
     436:	b8 01 00 00 00       	mov    eax,0x1
     43b:	48 89 46 f0          	mov    QWORD PTR [rsi-0x10],rax
     43f:	b8 01 00 00 00       	mov    eax,0x1
     444:	48 89 46 f8          	mov    QWORD PTR [rsi-0x8],rax
     448:	48 31 f6             	xor    rsi,rsi
     44b:	48 b8 00 00 00 00 00 	movabs rax,0x0
     452:	00 00 00 
			44d: R_X86_64_64	do_callback
     455:	48 89 5c 24 68       	mov    QWORD PTR [rsp+0x68],rbx
     45a:	48 89 7c 24 70       	mov    QWORD PTR [rsp+0x70],rdi
     45f:	4c 89 6c 24 78       	mov    QWORD PTR [rsp+0x78],r13
     464:	ff d0                	call   rax
     466:	48 8b 5c 24 68       	mov    rbx,QWORD PTR [rsp+0x68]
     46b:	4c 8b 6c 24 78       	mov    r13,QWORD PTR [rsp+0x78]
     470:	48 89 c6             	mov    rsi,rax
     473:	48 89 74 24 68       	mov    QWORD PTR [rsp+0x68],rsi
     478:	49 8b b4 24 98 00 00 	mov    rsi,QWORD PTR [r12+0x98]
     47f:	00 
     480:	49 8b 7d 08          	mov    rdi,QWORD PTR [r13+0x8]
     484:	49 89 b4 24 98 00 00 	mov    QWORD PTR [r12+0x98],rsi
     48b:	00 
     48c:	48 89 5e e0          	mov    QWORD PTR [rsi-0x20],rbx
     490:	4c 89 7e e8          	mov    QWORD PTR [rsi-0x18],r15
     494:	b8 01 00 00 00       	mov    eax,0x1
     499:	48 89 46 f0          	mov    QWORD PTR [rsi-0x10],rax
     49d:	b8 01 00 00 00       	mov    eax,0x1
     4a2:	48 89 46 f8          	mov    QWORD PTR [rsi-0x8],rax
     4a6:	48 31 f6             	xor    rsi,rsi
     4a9:	48 b8 00 00 00 00 00 	movabs rax,0x0
     4b0:	00 00 00 
			4ab: R_X86_64_64	do_callback
     4b3:	48 89 5c 24 70       	mov    QWORD PTR [rsp+0x70],rbx
     4b8:	48 89 7c 24 78       	mov    QWORD PTR [rsp+0x78],rdi
     4bd:	4c 89 ac 24 80 00 00 	mov    QWORD PTR [rsp+0x80],r13
     4c4:	00 
     4c5:	ff d0                	call   rax
     4c7:	48 8b 5c 24 70       	mov    rbx,QWORD PTR [rsp+0x70]
     4cc:	4c 8b ac 24 80 00 00 	mov    r13,QWORD PTR [rsp+0x80]
     4d3:	00 
     4d4:	48 89 c6             	mov    rsi,rax
     4d7:	48 89 74 24 70       	mov    QWORD PTR [rsp+0x70],rsi
     4dc:	49 8b b4 24 98 00 00 	mov    rsi,QWORD PTR [r12+0x98]
     4e3:	00 
     4e4:	49 8b 7d 08          	mov    rdi,QWORD PTR [r13+0x8]
     4e8:	49 89 b4 24 98 00 00 	mov    QWORD PTR [r12+0x98],rsi
     4ef:	00 
     4f0:	48 89 5e e0          	mov    QWORD PTR [rsi-0x20],rbx
     4f4:	4c 89 7e e8          	mov    QWORD PTR [rsi-0x18],r15
     4f8:	b8 01 00 00 00       	mov    eax,0x1
     4fd:	48 89 46 f0          	mov    QWORD PTR [rsi-0x10],rax
     501:	b8 01 00 00 00       	mov    eax,0x1
     506:	48 89 46 f8          	mov    QWORD PTR [rsi-0x8],rax
     50a:	48 31 f6             	xor    rsi,rsi
     50d:	48 b8 00 00 00 00 00 	movabs rax,0x0
     514:	00 00 00 
			50f: R_X86_64_64	do_callback
     517:	48 89 5c 24 78       	mov    QWORD PTR [rsp+0x78],rbx
     51c:	48 89 bc 24 80 00 00 	mov    QWORD PTR [rsp+0x80],rdi
     523:	00 
     524:	4c 89 ac 24 88 00 00 	mov    QWORD PTR [rsp+0x88],r13
     52b:	00 
     52c:	ff d0                	call   rax
     52e:	48 8b 5c 24 78       	mov    rbx,QWORD PTR [rsp+0x78]
     533:	4c 8b ac 24 88 00 00 	mov    r13,QWORD PTR [rsp+0x88]
     53a:	00 
     53b:	48 89 c6             	mov    rsi,rax
     53e:	48 89 74 24 78       	mov    QWORD PTR [rsp+0x78],rsi
     543:	49 8b b4 24 98 00 00 	mov    rsi,QWORD PTR [r12+0x98]
     54a:	00 
     54b:	49 8b 7d 08          	mov    rdi,QWORD PTR [r13+0x8]
     54f:	49 89 b4 24 98 00 00 	mov    QWORD PTR [r12+0x98],rsi
     556:	00 
     557:	48 89 5e e0          	mov    QWORD PTR [rsi-0x20],rbx
     55b:	4c 89 7e e8          	mov    QWORD PTR [rsi-0x18],r15
     55f:	b8 01 00 00 00       	mov    eax,0x1
     564:	48 89 46 f0          	mov    QWORD PTR [rsi-0x10],rax
     568:	b8 01 00 00 00       	mov    eax,0x1
     56d:	48 89 46 f8          	mov    QWORD PTR [rsi-0x8],rax
     571:	48 31 f6             	xor    rsi,rsi
     574:	48 b8 00 00 00 00 00 	movabs rax,0x0
     57b:	00 00 00 
			576: R_X86_64_64	do_callback
     57e:	48 89 9c 24 80 00 00 	mov    QWORD PTR [rsp+0x80],rbx
     585:	00 
     586:	48 89 bc 24 88 00 00 	mov    QWORD PTR [rsp+0x88],rdi
     58d:	00 
     58e:	4c 89 ac 24 90 00 00 	mov    QWORD PTR [rsp+0x90],r13
     595:	00 
     596:	ff d0                	call   rax
     598:	48 8b 9c 24 80 00 00 	mov    rbx,QWORD PTR [rsp+0x80]
     59f:	00 
     5a0:	4c 8b ac 24 90 00 00 	mov    r13,QWORD PTR [rsp+0x90]
     5a7:	00 
     5a8:	48 89 c6             	mov    rsi,rax
     5ab:	48 89 b4 24 80 00 00 	mov    QWORD PTR [rsp+0x80],rsi
     5b2:	00 
     5b3:	49 8b b4 24 98 00 00 	mov    rsi,QWORD PTR [r12+0x98]
     5ba:	00 
     5bb:	49 8b 7d 08          	mov    rdi,QWORD PTR [r13+0x8]
     5bf:	49 89 b4 24 98 00 00 	mov    QWORD PTR [r12+0x98],rsi
     5c6:	00 
     5c7:	48 89 5e e0          	mov    QWORD PTR [rsi-0x20],rbx
     5cb:	4c 89 7e e8          	mov    QWORD PTR [rsi-0x18],r15
     5cf:	b8 01 00 00 00       	mov    eax,0x1
     5d4:	48 89 46 f0          	mov    QWORD PTR [rsi-0x10],rax
     5d8:	b8 01 00 00 00       	mov    eax,0x1
     5dd:	48 89 46 f8          	mov    QWORD PTR [rsi-0x8],rax
     5e1:	48 31 f6             	xor    rsi,rsi
     5e4:	48 b8 00 00 00 00 00 	movabs rax,0x0
     5eb:	00 00 00 
			5e6: R_X86_64_64	do_callback
     5ee:	48 89 9c 24 88 00 00 	mov    QWORD PTR [rsp+0x88],rbx
     5f5:	00 
     5f6:	48 89 bc 24 90 00 00 	mov    QWORD PTR [rsp+0x90],rdi
     5fd:	00 
     5fe:	4c 89 ac 24 98 00 00 	mov    QWORD PTR [rsp+0x98],r13
     605:	00 
     606:	ff d0                	call   rax
     608:	48 8b 9c 24 88 00 00 	mov    rbx,QWORD PTR [rsp+0x88]
     60f:	00 
     610:	4c 8b ac 24 98 00 00 	mov    r13,QWORD PTR [rsp+0x98]
     617:	00 
     618:	48 89 c6             	mov    rsi,rax
     61b:	48 89 b4 24 88 00 00 	mov    QWORD PTR [rsp+0x88],rsi
     622:	00 
     623:	49 8b b4 24 98 00 00 	mov    rsi,QWORD PTR [r12+0x98]
     62a:	00 
     62b:	49 8b 7d 08          	mov    rdi,QWORD PTR [r13+0x8]
     62f:	49 89 b4 24 98 00 00 	mov    QWORD PTR [r12+0x98],rsi
     636:	00 
     637:	48 89 5e e0          	mov    QWORD PTR [rsi-0x20],rbx
     63b:	4c 89 7e e8          	mov    QWORD PTR [rsi-0x18],r15
     63f:	b8 01 00 00 00       	mov    eax,0x1
     644:	48 89 46 f0          	mov    QWORD PTR [rsi-0x10],rax
     648:	b8 01 00 00 00       	mov    eax,0x1
     64d:	48 89 46 f8          	mov    QWORD PTR [rsi-0x8],rax
     651:	48 31 f6             	xor    rsi,rsi
     654:	48 b8 00 00 00 00 00 	movabs rax,0x0
     65b:	00 00 00 
			656: R_X86_64_64	do_callback
     65e:	48 89 9c 24 90 00 00 	mov    QWORD PTR [rsp+0x90],rbx
     665:	00 
     666:	48 89 bc 24 98 00 00 	mov    QWORD PTR [rsp+0x98],rdi
     66d:	00 
     66e:	4c 89 ac 24 a0 00 00 	mov    QWORD PTR [rsp+0xa0],r13
     675:	00 
     676:	ff d0                	call   rax
     678:	48 8b 9c 24 90 00 00 	mov    rbx,QWORD PTR [rsp+0x90]
     67f:	00 
     680:	4c 8b ac 24 a0 00 00 	mov    r13,QWORD PTR [rsp+0xa0]
     687:	00 
     688:	48 89 c6             	mov    rsi,rax
     68b:	48 89 b4 24 90 00 00 	mov    QWORD PTR [rsp+0x90],rsi
     692:	00 
     693:	49 8b b4 24 98 00 00 	mov    rsi,QWORD PTR [r12+0x98]
     69a:	00 
     69b:	49 8b 7d 08          	mov    rdi,QWORD PTR [r13+0x8]
     69f:	49 89 b4 24 98 00 00 	mov    QWORD PTR [r12+0x98],rsi
     6a6:	00 
     6a7:	48 89 5e e0          	mov    QWORD PTR [rsi-0x20],rbx
     6ab:	4c 89 7e e8          	mov    QWORD PTR [rsi-0x18],r15
     6af:	b8 01 00 00 00       	mov    eax,0x1
     6b4:	48 89 46 f0          	mov    QWORD PTR [rsi-0x10],rax
     6b8:	b8 01 00 00 00       	mov    eax,0x1
     6bd:	48 89 46 f8          	mov    QWORD PTR [rsi-0x8],rax
     6c1:	48 31 f6             	xor    rsi,rsi
     6c4:	48 b8 00 00 00 00 00 	movabs rax,0x0
     6cb:	00 00 00 
			6c6: R_X86_64_64	do_callback
     6ce:	48 89 9c 24 98 00 00 	mov    QWORD PTR [rsp+0x98],rbx
     6d5:	00 
     6d6:	48 89 bc 24 a0 00 00 	mov    QWORD PTR [rsp+0xa0],rdi
     6dd:	00 
     6de:	4c 89 ac 24 a8 00 00 	mov    QWORD PTR [rsp+0xa8],r13
     6e5:	00 
     6e6:	ff d0                	call   rax
     6e8:	48 8b 9c 24 98 00 00 	mov    rbx,QWORD PTR [rsp+0x98]
     6ef:	00 
     6f0:	4c 8b ac 24 a8 00 00 	mov    r13,QWORD PTR [rsp+0xa8]
     6f7:	00 
     6f8:	48 89 c6             	mov    rsi,rax
     6fb:	48 89 b4 24 98 00 00 	mov    QWORD PTR [rsp+0x98],rsi
     702:	00 
     703:	49 8b b4 24 98 00 00 	mov    rsi,QWORD PTR [r12+0x98]
     70a:	00 
     70b:	49 8b 7d 08          	mov    rdi,QWORD PTR [r13+0x8]
     70f:	49 89 b4 24 98 00 00 	mov    QWORD PTR [r12+0x98],rsi
     716:	00 
     717:	48 89 5e e0          	mov    QWORD PTR [rsi-0x20],rbx
     71b:	4c 89 7e e8          	mov    QWORD PTR [rsi-0x18],r15
     71f:	b8 01 00 00 00       	mov    eax,0x1
     724:	48 89 46 f0          	mov    QWORD PTR [rsi-0x10],rax
     728:	b8 01 00 00 00       	mov    eax,0x1
     72d:	48 89 46 f8          	mov    QWORD PTR [rsi-0x8],rax
     731:	48 31 f6             	xor    rsi,rsi
     734:	48 b8 00 00 00 00 00 	movabs rax,0x0
     73b:	00 00 00 
			736: R_X86_64_64	do_callback
     73e:	48 89 9c 24 a0 00 00 	mov    QWORD PTR [rsp+0xa0],rbx
     745:	00 
     746:	48 89 bc 24 a8 00 00 	mov    QWORD PTR [rsp+0xa8],rdi
     74d:	00 
     74e:	4c 89 ac 24 b0 00 00 	mov    QWORD PTR [rsp+0xb0],r13
     755:	00 
     756:	ff d0                	call   rax
     758:	48 8b 9c 24 a0 00 00 	mov    rbx,QWORD PTR [rsp+0xa0]
     75f:	00 
     760:	4c 8b ac 24 b0 00 00 	mov    r13,QWORD PTR [rsp+0xb0]
     767:	00 
     768:	48 89 c6             	mov    rsi,rax
     76b:	48 89 b4 24 a0 00 00 	mov    QWORD PTR [rsp+0xa0],rsi
     772:	00 
     773:	49 8b b4 24 98 00 00 	mov    rsi,QWORD PTR [r12+0x98]
     77a:	00 
     77b:	49 8b 7d 08          	mov    rdi,QWORD PTR [r13+0x8]
     77f:	49 89 b4 24 98 00 00 	mov    QWORD PTR [r12+0x98],rsi
     786:	00 
     787:	48 89 5e e0          	mov    QWORD PTR [rsi-0x20],rbx
     78b:	4c 89 7e e8          	mov    QWORD PTR [rsi-0x18],r15
     78f:	b8 01 00 00 00       	mov    eax,0x1
     794:	48 89 46 f0          	mov    QWORD PTR [rsi-0x10],rax
     798:	b8 01 00 00 00       	mov    eax,0x1
     79d:	48 89 46 f8          	mov    QWORD PTR [rsi-0x8],rax
     7a1:	48 31 f6             	xor    rsi,rsi
     7a4:	48 b8 00 00 00 00 00 	movabs rax,0x0
     7ab:	00 00 00 
			7a6: R_X86_64_64	do_callback
     7ae:	48 89 9c 24 a8 00 00 	mov    QWORD PTR [rsp+0xa8],rbx
     7b5:	00 
     7b6:	48 89 bc 24 b0 00 00 	mov    QWORD PTR [rsp+0xb0],rdi
     7bd:	00 
     7be:	4c 89 ac 24 b8 00 00 	mov    QWORD PTR [rsp+0xb8],r13
     7c5:	00 
     7c6:	ff d0                	call   rax
     7c8:	48 8b 9c 24 a8 00 00 	mov    rbx,QWORD PTR [rsp+0xa8]
     7cf:	00 
     7d0:	4c 8b ac 24 b8 00 00 	mov    r13,QWORD PTR [rsp+0xb8]
     7d7:	00 
     7d8:	48 89 c6             	mov    rsi,rax
     7db:	48 89 b4 24 a8 00 00 	mov    QWORD PTR [rsp+0xa8],rsi
     7e2:	00 
     7e3:	49 8b b4 24 98 00 00 	mov    rsi,QWORD PTR [r12+0x98]
     7ea:	00 
     7eb:	49 8b 7d 08          	mov    rdi,QWORD PTR [r13+0x8]
     7ef:	49 89 b4 24 98 00 00 	mov    QWORD PTR [r12+0x98],rsi
     7f6:	00 
     7f7:	48 89 5e e0          	mov    QWORD PTR [rsi-0x20],rbx
     7fb:	4c 89 7e e8          	mov    QWORD PTR [rsi-0x18],r15
     7ff:	b8 01 00 00 00       	mov    eax,0x1
     804:	48 89 46 f0          	mov    QWORD PTR [rsi-0x10],rax
     808:	b8 01 00 00 00       	mov    eax,0x1
     80d:	48 89 46 f8          	mov    QWORD PTR [rsi-0x8],rax
     811:	48 31 f6             	xor    rsi,rsi
     814:	48 b8 00 00 00 00 00 	movabs rax,0x0
     81b:	00 00 00 
			816: R_X86_64_64	do_callback
     81e:	48 89 9c 24 b0 00 00 	mov    QWORD PTR [rsp+0xb0],rbx
     825:	00 
     826:	48 89 bc 24 b8 00 00 	mov    QWORD PTR [rsp+0xb8],rdi
     82d:	00 
     82e:	4c 89 ac 24 c0 00 00 	mov    QWORD PTR [rsp+0xc0],r13
     835:	00 
     836:	ff d0                	call   rax
     838:	48 8b 9c 24 b0 00 00 	mov    rbx,QWORD PTR [rsp+0xb0]
     83f:	00 
     840:	4c 8b ac 24 c0 00 00 	mov    r13,QWORD PTR [rsp+0xc0]
     847:	00 
     848:	48 89 c6             	mov    rsi,rax
     84b:	48 89 b4 24 b0 00 00 	mov    QWORD PTR [rsp+0xb0],rsi
     852:	00 
     853:	49 8b b4 24 98 00 00 	mov    rsi,QWORD PTR [r12+0x98]
     85a:	00 
     85b:	49 8b 7d 08          	mov    rdi,QWORD PTR [r13+0x8]
     85f:	49 89 b4 24 98 00 00 	mov    QWORD PTR [r12+0x98],rsi
     866:	00 
     867:	48 89 5e e0          	mov    QWORD PTR [rsi-0x20],rbx
     86b:	4c 89 7e e8          	mov    QWORD PTR [rsi-0x18],r15
     86f:	b8 01 00 00 00       	mov    eax,0x1
     874:	48 89 46 f0          	mov    QWORD PTR [rsi-0x10],rax
     878:	b8 01 00 00 00       	mov    eax,0x1
     87d:	48 89 46 f8          	mov    QWORD PTR [rsi-0x8],rax
     881:	48 31 f6             	xor    rsi,rsi
     884:	48 b8 00 00 00 00 00 	movabs rax,0x0
     88b:	00 00 00 
			886: R_X86_64_64	do_callback
     88e:	48 89 9c 24 b8 00 00 	mov    QWORD PTR [rsp+0xb8],rbx
     895:	00 
     896:	48 89 bc 24 c0 00 00 	mov    QWORD PTR [rsp+0xc0],rdi
     89d:	00 
     89e:	4c 89 ac 24 c8 00 00 	mov    QWORD PTR [rsp+0xc8],r13
     8a5:	00 
     8a6:	ff d0                	call   rax
     8a8:	48 8b 9c 24 b8 00 00 	mov    rbx,QWORD PTR [rsp+0xb8]
     8af:	00 
     8b0:	4c 8b ac 24 c8 00 00 	mov    r13,QWORD PTR [rsp+0xc8]
     8b7:	00 
     8b8:	48 89 c6             	mov    rsi,rax
     8bb:	48 89 b4 24 b8 00 00 	mov    QWORD PTR [rsp+0xb8],rsi
     8c2:	00 
     8c3:	49 8b b4 24 98 00 00 	mov    rsi,QWORD PTR [r12+0x98]
     8ca:	00 
     8cb:	49 8b 7d 08          	mov    rdi,QWORD PTR [r13+0x8]
     8cf:	49 89 b4 24 98 00 00 	mov    QWORD PTR [r12+0x98],rsi
     8d6:	00 
     8d7:	48 89 5e e0          	mov    QWORD PTR [rsi-0x20],rbx
     8db:	4c 89 7e e8          	mov    QWORD PTR [rsi-0x18],r15
     8df:	b8 01 00 00 00       	mov    eax,0x1
     8e4:	48 89 46 f0          	mov    QWORD PTR [rsi-0x10],rax
     8e8:	b8 01 00 00 00       	mov    eax,0x1
     8ed:	48 89 46 f8          	mov    QWORD PTR [rsi-0x8],rax
     8f1:	48 31 f6             	xor    rsi,rsi
     8f4:	48 b8 00 00 00 00 00 	movabs rax,0x0
     8fb:	00 00 00 
			8f6: R_X86_64_64	do_callback
     8fe:	48 89 9c 24 c0 00 00 	mov    QWORD PTR [rsp+0xc0],rbx
     905:	00 
     906:	48 89 bc 24 c8 00 00 	mov    QWORD PTR [rsp+0xc8],rdi
     90d:	00 
     90e:	4c 89 ac 24 d0 00 00 	mov    QWORD PTR [rsp+0xd0],r13
     915:	00 
     916:	ff d0                	call   rax
     918:	48 8b 9c 24 c0 00 00 	mov    rbx,QWORD PTR [rsp+0xc0]
     91f:	00 
     920:	4c 8b ac 24 d0 00 00 	mov    r13,QWORD PTR [rsp+0xd0]
     927:	00 
     928:	48 89 c6             	mov    rsi,rax
     92b:	48 89 b4 24 c0 00 00 	mov    QWORD PTR [rsp+0xc0],rsi
     932:	00 
     933:	49 8b b4 24 98 00 00 	mov    rsi,QWORD PTR [r12+0x98]
     93a:	00 
     93b:	49 8b 7d 08          	mov    rdi,QWORD PTR [r13+0x8]
     93f:	49 89 b4 24 98 00 00 	mov    QWORD PTR [r12+0x98],rsi
     946:	00 
     947:	48 89 5e e0          	mov    QWORD PTR [rsi-0x20],rbx
     94b:	4c 89 7e e8          	mov    QWORD PTR [rsi-0x18],r15
     94f:	b8 01 00 00 00       	mov    eax,0x1
     954:	48 89 46 f0          	mov    QWORD PTR [rsi-0x10],rax
     958:	b8 01 00 00 00       	mov    eax,0x1
     95d:	48 89 46 f8          	mov    QWORD PTR [rsi-0x8],rax
     961:	48 31 f6             	xor    rsi,rsi
     964:	48 b8 00 00 00 00 00 	movabs rax,0x0
     96b:	00 00 00 
			966: R_X86_64_64	do_callback
     96e:	48 89 9c 24 c8 00 00 	mov    QWORD PTR [rsp+0xc8],rbx
     975:	00 
     976:	48 89 bc 24 d0 00 00 	mov    QWORD PTR [rsp+0xd0],rdi
     97d:	00 
     97e:	4c 89 ac 24 d8 00 00 	mov    QWORD PTR [rsp+0xd8],r13
     985:	00 
     986:	ff d0                	call   rax
     988:	48 8b 9c 24 c8 00 00 	mov    rbx,QWORD PTR [rsp+0xc8]
     98f:	00 
     990:	4c 8b ac 24 d8 00 00 	mov    r13,QWORD PTR [rsp+0xd8]
     997:	00 
     998:	48 89 c6             	mov    rsi,rax
     99b:	48 89 b4 24 c8 00 00 	mov    QWORD PTR [rsp+0xc8],rsi
     9a2:	00 
     9a3:	49 8b b4 24 98 00 00 	mov    rsi,QWORD PTR [r12+0x98]
     9aa:	00 
     9ab:	49 8b 7d 08          	mov    rdi,QWORD PTR [r13+0x8]
     9af:	49 89 b4 24 98 00 00 	mov    QWORD PTR [r12+0x98],rsi
     9b6:	00 
     9b7:	48 89 5e e0          	mov    QWORD PTR [rsi-0x20],rbx
     9bb:	4c 89 7e e8          	mov    QWORD PTR [rsi-0x18],r15
     9bf:	b8 01 00 00 00       	mov    eax,0x1
     9c4:	48 89 46 f0          	mov    QWORD PTR [rsi-0x10],rax
     9c8:	b8 01 00 00 00       	mov    eax,0x1
     9cd:	48 89 46 f8          	mov    QWORD PTR [rsi-0x8],rax
     9d1:	48 31 f6             	xor    rsi,rsi
     9d4:	48 b8 00 00 00 00 00 	movabs rax,0x0
     9db:	00 00 00 
			9d6: R_X86_64_64	do_callback
     9de:	48 89 9c 24 d0 00 00 	mov    QWORD PTR [rsp+0xd0],rbx
     9e5:	00 
     9e6:	48 89 bc 24 d8 00 00 	mov    QWORD PTR [rsp+0xd8],rdi
     9ed:	00 
     9ee:	4c 89 ac 24 e0 00 00 	mov    QWORD PTR [rsp+0xe0],r13
     9f5:	00 
     9f6:	ff d0                	call   rax
     9f8:	48 8b 9c 24 d0 00 00 	mov    rbx,QWORD PTR [rsp+0xd0]
     9ff:	00 
     a00:	4c 8b ac 24 e0 00 00 	mov    r13,QWORD PTR [rsp+0xe0]
     a07:	00 
     a08:	48 89 c6             	mov    rsi,rax
     a0b:	48 89 b4 24 d0 00 00 	mov    QWORD PTR [rsp+0xd0],rsi
     a12:	00 
     a13:	49 8b b4 24 98 00 00 	mov    rsi,QWORD PTR [r12+0x98]
     a1a:	00 
     a1b:	49 8b 7d 08          	mov    rdi,QWORD PTR [r13+0x8]
     a1f:	49 89 b4 24 98 00 00 	mov    QWORD PTR [r12+0x98],rsi
     a26:	00 
     a27:	48 89 5e e0          	mov    QWORD PTR [rsi-0x20],rbx
     a2b:	4c 89 7e e8          	mov    QWORD PTR [rsi-0x18],r15
     a2f:	b8 01 00 00 00       	mov    eax,0x1
     a34:	48 89 46 f0          	mov    QWORD PTR [rsi-0x10],rax
     a38:	b8 01 00 00 00       	mov    eax,0x1
     a3d:	48 89 46 f8          	mov    QWORD PTR [rsi-0x8],rax
     a41:	48 31 f6             	xor    rsi,rsi
     a44:	48 b8 00 00 00 00 00 	movabs rax,0x0
     a4b:	00 00 00 
			a46: R_X86_64_64	do_callback
     a4e:	48 89 9c 24 d8 00 00 	mov    QWORD PTR [rsp+0xd8],rbx
     a55:	00 
     a56:	48 89 bc 24 e0 00 00 	mov    QWORD PTR [rsp+0xe0],rdi
     a5d:	00 
     a5e:	4c 89 ac 24 e8 00 00 	mov    QWORD PTR [rsp+0xe8],r13
     a65:	00 
     a66:	ff d0                	call   rax
     a68:	48 8b 9c 24 d8 00 00 	mov    rbx,QWORD PTR [rsp+0xd8]
     a6f:	00 
     a70:	4c 8b ac 24 e8 00 00 	mov    r13,QWORD PTR [rsp+0xe8]
     a77:	00 
     a78:	48 89 c6             	mov    rsi,rax
     a7b:	48 89 b4 24 d8 00 00 	mov    QWORD PTR [rsp+0xd8],rsi
     a82:	00 
     a83:	49 8b b4 24 98 00 00 	mov    rsi,QWORD PTR [r12+0x98]
     a8a:	00 
     a8b:	49 8b 7d 08          	mov    rdi,QWORD PTR [r13+0x8]
     a8f:	49 89 b4 24 98 00 00 	mov    QWORD PTR [r12+0x98],rsi
     a96:	00 
     a97:	48 89 5e e0          	mov    QWORD PTR [rsi-0x20],rbx
     a9b:	4c 89 7e e8          	mov    QWORD PTR [rsi-0x18],r15
     a9f:	b8 01 00 00 00       	mov    eax,0x1
     aa4:	48 89 46 f0          	mov    QWORD PTR [rsi-0x10],rax
     aa8:	b8 01 00 00 00       	mov    eax,0x1
     aad:	48 89 46 f8          	mov    QWORD PTR [rsi-0x8],rax
     ab1:	48 31 f6             	xor    rsi,rsi
     ab4:	48 b8 00 00 00 00 00 	movabs rax,0x0
     abb:	00 00 00 
			ab6: R_X86_64_64	do_callback
     abe:	48 89 9c 24 e0 00 00 	mov    QWORD PTR [rsp+0xe0],rbx
     ac5:	00 
     ac6:	48 89 bc 24 e8 00 00 	mov    QWORD PTR [rsp+0xe8],rdi
     acd:	00 
     ace:	4c 89 ac 24 f0 00 00 	mov    QWORD PTR [rsp+0xf0],r13
     ad5:	00 
     ad6:	ff d0                	call   rax
     ad8:	48 8b 9c 24 e0 00 00 	mov    rbx,QWORD PTR [rsp+0xe0]
     adf:	00 
     ae0:	4c 8b ac 24 f0 00 00 	mov    r13,QWORD PTR [rsp+0xf0]
     ae7:	00 
     ae8:	48 89 c6             	mov    rsi,rax
     aeb:	48 89 b4 24 e0 00 00 	mov    QWORD PTR [rsp+0xe0],rsi
     af2:	00 
     af3:	49 8b b4 24 98 00 00 	mov    rsi,QWORD PTR [r12+0x98]
     afa:	00 
     afb:	49 8b 7d 08          	mov    rdi,QWORD PTR [r13+0x8]
     aff:	49 89 b4 24 98 00 00 	mov    QWORD PTR [r12+0x98],rsi
     b06:	00 
     b07:	48 89 5e e0          	mov    QWORD PTR [rsi-0x20],rbx
     b0b:	4c 89 7e e8          	mov    QWORD PTR [rsi-0x18],r15
     b0f:	b8 01 00 00 00       	mov    eax,0x1
     b14:	48 89 46 f0          	mov    QWORD PTR [rsi-0x10],rax
     b18:	b8 01 00 00 00       	mov    eax,0x1
     b1d:	48 89 46 f8          	mov    QWORD PTR [rsi-0x8],rax
     b21:	48 31 f6             	xor    rsi,rsi
     b24:	48 b8 00 00 00 00 00 	movabs rax,0x0
     b2b:	00 00 00 
			b26: R_X86_64_64	do_callback
     b2e:	48 89 9c 24 e8 00 00 	mov    QWORD PTR [rsp+0xe8],rbx
     b35:	00 
     b36:	48 89 bc 24 f0 00 00 	mov    QWORD PTR [rsp+0xf0],rdi
     b3d:	00 
     b3e:	4c 89 ac 24 f8 00 00 	mov    QWORD PTR [rsp+0xf8],r13
     b45:	00 
     b46:	ff d0                	call   rax
     b48:	48 8b 9c 24 e8 00 00 	mov    rbx,QWORD PTR [rsp+0xe8]
     b4f:	00 
     b50:	4c 8b ac 24 f8 00 00 	mov    r13,QWORD PTR [rsp+0xf8]
     b57:	00 
     b58:	48 89 c6             	mov    rsi,rax
     b5b:	48 89 b4 24 e8 00 00 	mov    QWORD PTR [rsp+0xe8],rsi
     b62:	00 
     b63:	49 8b b4 24 98 00 00 	mov    rsi,QWORD PTR [r12+0x98]
     b6a:	00 
     b6b:	49 8b 7d 08          	mov    rdi,QWORD PTR [r13+0x8]
     b6f:	49 89 b4 24 98 00 00 	mov    QWORD PTR [r12+0x98],rsi
     b76:	00 
     b77:	48 89 5e e0          	mov    QWORD PTR [rsi-0x20],rbx
     b7b:	4c 89 7e e8          	mov    QWORD PTR [rsi-0x18],r15
     b7f:	b8 01 00 00 00       	mov    eax,0x1
     b84:	48 89 46 f0          	mov    QWORD PTR [rsi-0x10],rax
     b88:	b8 01 00 00 00       	mov    eax,0x1
     b8d:	48 89 46 f8          	mov    QWORD PTR [rsi-0x8],rax
     b91:	48 31 f6             	xor    rsi,rsi
     b94:	48 b8 00 00 00 00 00 	movabs rax,0x0
     b9b:	00 00 00 
			b96: R_X86_64_64	do_callback
     b9e:	48 89 9c 24 f0 00 00 	mov    QWORD PTR [rsp+0xf0],rbx
     ba5:	00 
     ba6:	48 89 bc 24 f8 00 00 	mov    QWORD PTR [rsp+0xf8],rdi
     bad:	00 
     bae:	4c 89 ac 24 00 01 00 	mov    QWORD PTR [rsp+0x100],r13
     bb5:	00 
     bb6:	ff d0                	call   rax
     bb8:	48 8b 9c 24 f0 00 00 	mov    rbx,QWORD PTR [rsp+0xf0]
     bbf:	00 
     bc0:	4c 8b ac 24 00 01 00 	mov    r13,QWORD PTR [rsp+0x100]
     bc7:	00 
     bc8:	48 89 c6             	mov    rsi,rax
     bcb:	48 89 b4 24 f0 00 00 	mov    QWORD PTR [rsp+0xf0],rsi
     bd2:	00 
     bd3:	49 8b b4 24 98 00 00 	mov    rsi,QWORD PTR [r12+0x98]
     bda:	00 
     bdb:	49 8b 7d 08          	mov    rdi,QWORD PTR [r13+0x8]
     bdf:	49 89 b4 24 98 00 00 	mov    QWORD PTR [r12+0x98],rsi
     be6:	00 
     be7:	48 89 5e e0          	mov    QWORD PTR [rsi-0x20],rbx
     beb:	4c 89 7e e8          	mov    QWORD PTR [rsi-0x18],r15
     bef:	b8 01 00 00 00       	mov    eax,0x1
     bf4:	48 89 46 f0          	mov    QWORD PTR [rsi-0x10],rax
     bf8:	b8 01 00 00 00       	mov    eax,0x1
     bfd:	48 89 46 f8          	mov    QWORD PTR [rsi-0x8],rax
     c01:	48 31 f6             	xor    rsi,rsi
     c04:	48 b8 00 00 00 00 00 	movabs rax,0x0
     c0b:	00 00 00 
			c06: R_X86_64_64	do_callback
     c0e:	48 89 9c 24 f8 00 00 	mov    QWORD PTR [rsp+0xf8],rbx
     c15:	00 
     c16:	48 89 bc 24 00 01 00 	mov    QWORD PTR [rsp+0x100],rdi
     c1d:	00 
     c1e:	4c 89 ac 24 08 01 00 	mov    QWORD PTR [rsp+0x108],r13
     c25:	00 
     c26:	ff d0                	call   rax
     c28:	48 8b 9c 24 f8 00 00 	mov    rbx,QWORD PTR [rsp+0xf8]
     c2f:	00 
     c30:	4c 8b ac 24 08 01 00 	mov    r13,QWORD PTR [rsp+0x108]
     c37:	00 
     c38:	48 89 c6             	mov    rsi,rax
     c3b:	48 89 b4 24 f8 00 00 	mov    QWORD PTR [rsp+0xf8],rsi
     c42:	00 
     c43:	49 8b b4 24 98 00 00 	mov    rsi,QWORD PTR [r12+0x98]
     c4a:	00 
     c4b:	49 8b 7d 08          	mov    rdi,QWORD PTR [r13+0x8]
     c4f:	49 89 b4 24 98 00 00 	mov    QWORD PTR [r12+0x98],rsi
     c56:	00 
     c57:	48 89 5e e0          	mov    QWORD PTR [rsi-0x20],rbx
     c5b:	4c 89 7e e8          	mov    QWORD PTR [rsi-0x18],r15
     c5f:	b8 01 00 00 00       	mov    eax,0x1
     c64:	48 89 46 f0          	mov    QWORD PTR [rsi-0x10],rax
     c68:	b8 01 00 00 00       	mov    eax,0x1
     c6d:	48 89 46 f8          	mov    QWORD PTR [rsi-0x8],rax
     c71:	48 31 f6             	xor    rsi,rsi
     c74:	48 b8 00 00 00 00 00 	movabs rax,0x0
     c7b:	00 00 00 
			c76: R_X86_64_64	do_callback
     c7e:	48 89 9c 24 00 01 00 	mov    QWORD PTR [rsp+0x100],rbx
     c85:	00 
     c86:	48 89 bc 24 08 01 00 	mov    QWORD PTR [rsp+0x108],rdi
     c8d:	00 
     c8e:	4c 89 ac 24 10 01 00 	mov    QWORD PTR [rsp+0x110],r13
     c95:	00 
     c96:	ff d0                	call   rax
     c98:	48 8b 9c 24 00 01 00 	mov    rbx,QWORD PTR [rsp+0x100]
     c9f:	00 
     ca0:	4c 8b ac 24 10 01 00 	mov    r13,QWORD PTR [rsp+0x110]
     ca7:	00 
     ca8:	48 89 c6             	mov    rsi,rax
     cab:	48 89 b4 24 00 01 00 	mov    QWORD PTR [rsp+0x100],rsi
     cb2:	00 
     cb3:	49 8b b4 24 98 00 00 	mov    rsi,QWORD PTR [r12+0x98]
     cba:	00 
     cbb:	49 8b 7d 08          	mov    rdi,QWORD PTR [r13+0x8]
     cbf:	49 89 b4 24 98 00 00 	mov    QWORD PTR [r12+0x98],rsi
     cc6:	00 
     cc7:	48 89 5e e0          	mov    QWORD PTR [rsi-0x20],rbx
     ccb:	4c 89 7e e8          	mov    QWORD PTR [rsi-0x18],r15
     ccf:	b8 01 00 00 00       	mov    eax,0x1
     cd4:	48 89 46 f0          	mov    QWORD PTR [rsi-0x10],rax
     cd8:	b8 01 00 00 00       	mov    eax,0x1
     cdd:	48 89 46 f8          	mov    QWORD PTR [rsi-0x8],rax
     ce1:	48 31 f6             	xor    rsi,rsi
     ce4:	48 b8 00 00 00 00 00 	movabs rax,0x0
     ceb:	00 00 00 
			ce6: R_X86_64_64	do_callback
     cee:	48 89 9c 24 08 01 00 	mov    QWORD PTR [rsp+0x108],rbx
     cf5:	00 
     cf6:	48 89 bc 24 10 01 00 	mov    QWORD PTR [rsp+0x110],rdi
     cfd:	00 
     cfe:	4c 89 ac 24 18 01 00 	mov    QWORD PTR [rsp+0x118],r13
     d05:	00 
     d06:	ff d0                	call   rax
     d08:	48 8b 9c 24 08 01 00 	mov    rbx,QWORD PTR [rsp+0x108]
     d0f:	00 
     d10:	4c 8b ac 24 18 01 00 	mov    r13,QWORD PTR [rsp+0x118]
     d17:	00 
     d18:	48 89 c6             	mov    rsi,rax
     d1b:	48 89 b4 24 08 01 00 	mov    QWORD PTR [rsp+0x108],rsi
     d22:	00 
     d23:	49 8b b4 24 98 00 00 	mov    rsi,QWORD PTR [r12+0x98]
     d2a:	00 
     d2b:	49 8b 7d 08          	mov    rdi,QWORD PTR [r13+0x8]
     d2f:	49 89 b4 24 98 00 00 	mov    QWORD PTR [r12+0x98],rsi
     d36:	00 
     d37:	48 89 5e e0          	mov    QWORD PTR [rsi-0x20],rbx
     d3b:	4c 89 7e e8          	mov    QWORD PTR [rsi-0x18],r15
     d3f:	b8 01 00 00 00       	mov    eax,0x1
     d44:	48 89 46 f0          	mov    QWORD PTR [rsi-0x10],rax
     d48:	b8 01 00 00 00       	mov    eax,0x1
     d4d:	48 89 46 f8          	mov    QWORD PTR [rsi-0x8],rax
     d51:	48 31 f6             	xor    rsi,rsi
     d54:	48 b8 00 00 00 00 00 	movabs rax,0x0
     d5b:	00 00 00 
			d56: R_X86_64_64	do_callback
     d5e:	48 89 9c 24 10 01 00 	mov    QWORD PTR [rsp+0x110],rbx
     d65:	00 
     d66:	48 89 bc 24 18 01 00 	mov    QWORD PTR [rsp+0x118],rdi
     d6d:	00 
     d6e:	4c 89 ac 24 20 01 00 	mov    QWORD PTR [rsp+0x120],r13
     d75:	00 
     d76:	ff d0                	call   rax
     d78:	48 8b 9c 24 10 01 00 	mov    rbx,QWORD PTR [rsp+0x110]
     d7f:	00 
     d80:	4c 8b ac 24 20 01 00 	mov    r13,QWORD PTR [rsp+0x120]
     d87:	00 
     d88:	48 89 c6             	mov    rsi,rax
     d8b:	48 89 b4 24 10 01 00 	mov    QWORD PTR [rsp+0x110],rsi
     d92:	00 
     d93:	49 8b b4 24 98 00 00 	mov    rsi,QWORD PTR [r12+0x98]
     d9a:	00 
     d9b:	49 8b 7d 08          	mov    rdi,QWORD PTR [r13+0x8]
     d9f:	49 89 b4 24 98 00 00 	mov    QWORD PTR [r12+0x98],rsi
     da6:	00 
     da7:	48 89 5e e0          	mov    QWORD PTR [rsi-0x20],rbx
     dab:	4c 89 7e e8          	mov    QWORD PTR [rsi-0x18],r15
     daf:	b8 01 00 00 00       	mov    eax,0x1
     db4:	48 89 46 f0          	mov    QWORD PTR [rsi-0x10],rax
     db8:	b8 01 00 00 00       	mov    eax,0x1
     dbd:	48 89 46 f8          	mov    QWORD PTR [rsi-0x8],rax
     dc1:	48 31 f6             	xor    rsi,rsi
     dc4:	48 b8 00 00 00 00 00 	movabs rax,0x0
     dcb:	00 00 00 
			dc6: R_X86_64_64	do_callback
     dce:	48 89 9c 24 18 01 00 	mov    QWORD PTR [rsp+0x118],rbx
     dd5:	00 
     dd6:	48 89 bc 24 20 01 00 	mov    QWORD PTR [rsp+0x120],rdi
     ddd:	00 
     dde:	4c 89 ac 24 28 01 00 	mov    QWORD PTR [rsp+0x128],r13
     de5:	00 
     de6:	ff d0                	call   rax
     de8:	48 8b 9c 24 18 01 00 	mov    rbx,QWORD PTR [rsp+0x118]
     def:	00 
     df0:	4c 8b ac 24 28 01 00 	mov    r13,QWORD PTR [rsp+0x128]
     df7:	00 
     df8:	48 89 c6             	mov    rsi,rax
     dfb:	48 89 b4 24 18 01 00 	mov    QWORD PTR [rsp+0x118],rsi
     e02:	00 
     e03:	49 8b b4 24 98 00 00 	mov    rsi,QWORD PTR [r12+0x98]
     e0a:	00 
     e0b:	49 8b 7d 08          	mov    rdi,QWORD PTR [r13+0x8]
     e0f:	49 89 b4 24 98 00 00 	mov    QWORD PTR [r12+0x98],rsi
     e16:	00 
     e17:	48 89 5e e0          	mov    QWORD PTR [rsi-0x20],rbx
     e1b:	4c 89 7e e8          	mov    QWORD PTR [rsi-0x18],r15
     e1f:	b8 01 00 00 00       	mov    eax,0x1
     e24:	48 89 46 f0          	mov    QWORD PTR [rsi-0x10],rax
     e28:	b8 01 00 00 00       	mov    eax,0x1
     e2d:	48 89 46 f8          	mov    QWORD PTR [rsi-0x8],rax
     e31:	48 31 f6             	xor    rsi,rsi
     e34:	48 b8 00 00 00 00 00 	movabs rax,0x0
     e3b:	00 00 00 
			e36: R_X86_64_64	do_callback
     e3e:	48 89 9c 24 20 01 00 	mov    QWORD PTR [rsp+0x120],rbx
     e45:	00 
     e46:	48 89 bc 24 28 01 00 	mov    QWORD PTR [rsp+0x128],rdi
     e4d:	00 
     e4e:	4c 89 ac 24 30 01 00 	mov    QWORD PTR [rsp+0x130],r13
     e55:	00 
     e56:	ff d0                	call   rax
     e58:	48 8b 9c 24 20 01 00 	mov    rbx,QWORD PTR [rsp+0x120]
     e5f:	00 
     e60:	4c 8b ac 24 30 01 00 	mov    r13,QWORD PTR [rsp+0x130]
     e67:	00 
     e68:	48 89 c6             	mov    rsi,rax
     e6b:	48 89 b4 24 20 01 00 	mov    QWORD PTR [rsp+0x120],rsi
     e72:	00 
     e73:	49 8b b4 24 98 00 00 	mov    rsi,QWORD PTR [r12+0x98]
     e7a:	00 
     e7b:	49 8b 7d 08          	mov    rdi,QWORD PTR [r13+0x8]
     e7f:	49 89 b4 24 98 00 00 	mov    QWORD PTR [r12+0x98],rsi
     e86:	00 
     e87:	48 89 5e e0          	mov    QWORD PTR [rsi-0x20],rbx
     e8b:	4c 89 7e e8          	mov    QWORD PTR [rsi-0x18],r15
     e8f:	b8 01 00 00 00       	mov    eax,0x1
     e94:	48 89 46 f0          	mov    QWORD PTR [rsi-0x10],rax
     e98:	b8 01 00 00 00       	mov    eax,0x1
     e9d:	48 89 46 f8          	mov    QWORD PTR [rsi-0x8],rax
     ea1:	48 31 f6             	xor    rsi,rsi
     ea4:	48 b8 00 00 00 00 00 	movabs rax,0x0
     eab:	00 00 00 
			ea6: R_X86_64_64	do_callback
     eae:	48 89 9c 24 28 01 00 	mov    QWORD PTR [rsp+0x128],rbx
     eb5:	00 
     eb6:	48 89 bc 24 30 01 00 	mov    QWORD PTR [rsp+0x130],rdi
     ebd:	00 
     ebe:	4c 89 ac 24 38 01 00 	mov    QWORD PTR [rsp+0x138],r13
     ec5:	00 
     ec6:	ff d0                	call   rax
     ec8:	48 8b 9c 24 28 01 00 	mov    rbx,QWORD PTR [rsp+0x128]
     ecf:	00 
     ed0:	4c 8b ac 24 38 01 00 	mov    r13,QWORD PTR [rsp+0x138]
     ed7:	00 
     ed8:	48 89 c6             	mov    rsi,rax
     edb:	48 89 b4 24 28 01 00 	mov    QWORD PTR [rsp+0x128],rsi
     ee2:	00 
     ee3:	49 8b b4 24 98 00 00 	mov    rsi,QWORD PTR [r12+0x98]
     eea:	00 
     eeb:	49 8b 7d 08          	mov    rdi,QWORD PTR [r13+0x8]
     eef:	49 89 b4 24 98 00 00 	mov    QWORD PTR [r12+0x98],rsi
     ef6:	00 
     ef7:	48 89 5e e0          	mov    QWORD PTR [rsi-0x20],rbx
     efb:	4c 89 7e e8          	mov    QWORD PTR [rsi-0x18],r15
     eff:	b8 01 00 00 00       	mov    eax,0x1
     f04:	48 89 46 f0          	mov    QWORD PTR [rsi-0x10],rax
     f08:	b8 01 00 00 00       	mov    eax,0x1
     f0d:	48 89 46 f8          	mov    QWORD PTR [rsi-0x8],rax
     f11:	48 31 f6             	xor    rsi,rsi
     f14:	48 b8 00 00 00 00 00 	movabs rax,0x0
     f1b:	00 00 00 
			f16: R_X86_64_64	do_callback
     f1e:	48 89 9c 24 30 01 00 	mov    QWORD PTR [rsp+0x130],rbx
     f25:	00 
     f26:	48 89 bc 24 38 01 00 	mov    QWORD PTR [rsp+0x138],rdi
     f2d:	00 
     f2e:	4c 89 ac 24 40 01 00 	mov    QWORD PTR [rsp+0x140],r13
     f35:	00 
     f36:	ff d0                	call   rax
     f38:	48 8b 9c 24 30 01 00 	mov    rbx,QWORD PTR [rsp+0x130]
     f3f:	00 
     f40:	4c 8b ac 24 40 01 00 	mov    r13,QWORD PTR [rsp+0x140]
     f47:	00 
     f48:	48 89 c6             	mov    rsi,rax
     f4b:	48 89 b4 24 30 01 00 	mov    QWORD PTR [rsp+0x130],rsi
     f52:	00 
     f53:	49 8b b4 24 98 00 00 	mov    rsi,QWORD PTR [r12+0x98]
     f5a:	00 
     f5b:	49 8b 7d 08          	mov    rdi,QWORD PTR [r13+0x8]
     f5f:	49 89 b4 24 98 00 00 	mov    QWORD PTR [r12+0x98],rsi
     f66:	00 
     f67:	48 89 5e e0          	mov    QWORD PTR [rsi-0x20],rbx
     f6b:	4c 89 7e e8          	mov    QWORD PTR [rsi-0x18],r15
     f6f:	b8 01 00 00 00       	mov    eax,0x1
     f74:	48 89 46 f0          	mov    QWORD PTR [rsi-0x10],rax
     f78:	b8 01 00 00 00       	mov    eax,0x1
     f7d:	48 89 46 f8          	mov    QWORD PTR [rsi-0x8],rax
     f81:	48 31 f6             	xor    rsi,rsi
     f84:	48 b8 00 00 00 00 00 	movabs rax,0x0
     f8b:	00 00 00 
			f86: R_X86_64_64	do_callback
     f8e:	48 89 9c 24 38 01 00 	mov    QWORD PTR [rsp+0x138],rbx
     f95:	00 
     f96:	48 89 bc 24 40 01 00 	mov    QWORD PTR [rsp+0x140],rdi
     f9d:	00 
     f9e:	4c 89 ac 24 48 01 00 	mov    QWORD PTR [rsp+0x148],r13
     fa5:	00 
     fa6:	ff d0                	call   rax
     fa8:	48 8b 9c 24 38 01 00 	mov    rbx,QWORD PTR [rsp+0x138]
     faf:	00 
     fb0:	4c 8b ac 24 48 01 00 	mov    r13,QWORD PTR [rsp+0x148]
     fb7:	00 
     fb8:	48 89 c6             	mov    rsi,rax
     fbb:	48 89 b4 24 38 01 00 	mov    QWORD PTR [rsp+0x138],rsi
     fc2:	00 
     fc3:	49 8b b4 24 98 00 00 	mov    rsi,QWORD PTR [r12+0x98]
     fca:	00 
     fcb:	49 8b 7d 08          	mov    rdi,QWORD PTR [r13+0x8]
     fcf:	49 89 b4 24 98 00 00 	mov    QWORD PTR [r12+0x98],rsi
     fd6:	00 
     fd7:	48 89 5e e0          	mov    QWORD PTR [rsi-0x20],rbx
     fdb:	4c 89 7e e8          	mov    QWORD PTR [rsi-0x18],r15
     fdf:	b8 01 00 00 00       	mov    eax,0x1
     fe4:	48 89 46 f0          	mov    QWORD PTR [rsi-0x10],rax
     fe8:	b8 01 00 00 00       	mov    eax,0x1
     fed:	48 89 46 f8          	mov    QWORD PTR [rsi-0x8],rax
     ff1:	48 31 f6             	xor    rsi,rsi
     ff4:	48 b8 00 00 00 00 00 	movabs rax,0x0
     ffb:	00 00 00 
			ff6: R_X86_64_64	do_callback
     ffe:	48 89 9c 24 40 01 00 	mov    QWORD PTR [rsp+0x140],rbx
    1005:	00 
    1006:	48 89 bc 24 48 01 00 	mov    QWORD PTR [rsp+0x148],rdi
    100d:	00 
    100e:	4c 89 ac 24 50 01 00 	mov    QWORD PTR [rsp+0x150],r13
    1015:	00 
    1016:	ff d0                	call   rax
    1018:	48 8b 9c 24 40 01 00 	mov    rbx,QWORD PTR [rsp+0x140]
    101f:	00 
    1020:	4c 8b ac 24 50 01 00 	mov    r13,QWORD PTR [rsp+0x150]
    1027:	00 
    1028:	48 89 c6             	mov    rsi,rax
    102b:	48 89 b4 24 40 01 00 	mov    QWORD PTR [rsp+0x140],rsi
    1032:	00 
    1033:	49 8b b4 24 98 00 00 	mov    rsi,QWORD PTR [r12+0x98]
    103a:	00 
    103b:	49 8b 7d 08          	mov    rdi,QWORD PTR [r13+0x8]
    103f:	49 89 b4 24 98 00 00 	mov    QWORD PTR [r12+0x98],rsi
    1046:	00 
    1047:	48 89 5e e0          	mov    QWORD PTR [rsi-0x20],rbx
    104b:	4c 89 7e e8          	mov    QWORD PTR [rsi-0x18],r15
    104f:	b8 01 00 00 00       	mov    eax,0x1
    1054:	48 89 46 f0          	mov    QWORD PTR [rsi-0x10],rax
    1058:	b8 01 00 00 00       	mov    eax,0x1
    105d:	48 89 46 f8          	mov    QWORD PTR [rsi-0x8],rax
    1061:	48 31 f6             	xor    rsi,rsi
    1064:	48 b8 00 00 00 00 00 	movabs rax,0x0
    106b:	00 00 00 
			1066: R_X86_64_64	do_callback
    106e:	48 89 9c 24 48 01 00 	mov    QWORD PTR [rsp+0x148],rbx
    1075:	00 
    1076:	48 89 bc 24 50 01 00 	mov    QWORD PTR [rsp+0x150],rdi
    107d:	00 
    107e:	4c 89 ac 24 58 01 00 	mov    QWORD PTR [rsp+0x158],r13
    1085:	00 
    1086:	ff d0                	call   rax
    1088:	48 8b 9c 24 48 01 00 	mov    rbx,QWORD PTR [rsp+0x148]
    108f:	00 
    1090:	4c 8b ac 24 58 01 00 	mov    r13,QWORD PTR [rsp+0x158]
    1097:	00 
    1098:	48 89 c6             	mov    rsi,rax
    109b:	48 89 b4 24 48 01 00 	mov    QWORD PTR [rsp+0x148],rsi
    10a2:	00 
    10a3:	49 8b b4 24 98 00 00 	mov    rsi,QWORD PTR [r12+0x98]
    10aa:	00 
    10ab:	49 8b 7d 08          	mov    rdi,QWORD PTR [r13+0x8]
    10af:	49 89 b4 24 98 00 00 	mov    QWORD PTR [r12+0x98],rsi
    10b6:	00 
    10b7:	48 89 5e e0          	mov    QWORD PTR [rsi-0x20],rbx
    10bb:	4c 89 7e e8          	mov    QWORD PTR [rsi-0x18],r15
    10bf:	b8 01 00 00 00       	mov    eax,0x1
    10c4:	48 89 46 f0          	mov    QWORD PTR [rsi-0x10],rax
    10c8:	b8 01 00 00 00       	mov    eax,0x1
    10cd:	48 89 46 f8          	mov    QWORD PTR [rsi-0x8],rax
    10d1:	48 31 f6             	xor    rsi,rsi
    10d4:	48 b8 00 00 00 00 00 	movabs rax,0x0
    10db:	00 00 00 
			10d6: R_X86_64_64	do_callback
    10de:	48 89 9c 24 50 01 00 	mov    QWORD PTR [rsp+0x150],rbx
    10e5:	00 
    10e6:	48 89 bc 24 58 01 00 	mov    QWORD PTR [rsp+0x158],rdi
    10ed:	00 
    10ee:	4c 89 ac 24 60 01 00 	mov    QWORD PTR [rsp+0x160],r13
    10f5:	00 
    10f6:	ff d0                	call   rax
    10f8:	48 8b 9c 24 50 01 00 	mov    rbx,QWORD PTR [rsp+0x150]
    10ff:	00 
    1100:	4c 8b ac 24 60 01 00 	mov    r13,QWORD PTR [rsp+0x160]
    1107:	00 
    1108:	48 89 c6             	mov    rsi,rax
    110b:	48 89 b4 24 50 01 00 	mov    QWORD PTR [rsp+0x150],rsi
    1112:	00 
    1113:	49 8b b4 24 98 00 00 	mov    rsi,QWORD PTR [r12+0x98]
    111a:	00 
    111b:	49 8b 7d 08          	mov    rdi,QWORD PTR [r13+0x8]
    111f:	49 89 b4 24 98 00 00 	mov    QWORD PTR [r12+0x98],rsi
    1126:	00 
    1127:	48 89 5e e0          	mov    QWORD PTR [rsi-0x20],rbx
    112b:	4c 89 7e e8          	mov    QWORD PTR [rsi-0x18],r15
    112f:	b8 01 00 00 00       	mov    eax,0x1
    1134:	48 89 46 f0          	mov    QWORD PTR [rsi-0x10],rax
    1138:	b8 01 00 00 00       	mov    eax,0x1
    113d:	48 89 46 f8          	mov    QWORD PTR [rsi-0x8],rax
    1141:	48 31 f6             	xor    rsi,rsi
    1144:	48 b8 00 00 00 00 00 	movabs rax,0x0
    114b:	00 00 00 
			1146: R_X86_64_64	do_callback
    114e:	48 89 9c 24 58 01 00 	mov    QWORD PTR [rsp+0x158],rbx
    1155:	00 
    1156:	48 89 bc 24 60 01 00 	mov    QWORD PTR [rsp+0x160],rdi
    115d:	00 
    115e:	4c 89 ac 24 68 01 00 	mov    QWORD PTR [rsp+0x168],r13
    1165:	00 
    1166:	ff d0                	call   rax
    1168:	48 8b 9c 24 58 01 00 	mov    rbx,QWORD PTR [rsp+0x158]
    116f:	00 
    1170:	4c 8b ac 24 68 01 00 	mov    r13,QWORD PTR [rsp+0x168]
    1177:	00 
    1178:	48 89 c6             	mov    rsi,rax
    117b:	48 89 b4 24 58 01 00 	mov    QWORD PTR [rsp+0x158],rsi
    1182:	00 
    1183:	49 8b b4 24 98 00 00 	mov    rsi,QWORD PTR [r12+0x98]
    118a:	00 
    118b:	49 8b 7d 08          	mov    rdi,QWORD PTR [r13+0x8]
    118f:	49 89 b4 24 98 00 00 	mov    QWORD PTR [r12+0x98],rsi
    1196:	00 
    1197:	48 89 5e e0          	mov    QWORD PTR [rsi-0x20],rbx
    119b:	4c 89 7e e8          	mov    QWORD PTR [rsi-0x18],r15
    119f:	b8 01 00 00 00       	mov    eax,0x1
    11a4:	48 89 46 f0          	mov    QWORD PTR [rsi-0x10],rax
    11a8:	b8 01 00 00 00       	mov    eax,0x1
    11ad:	48 89 46 f8          	mov    QWORD PTR [rsi-0x8],rax
    11b1:	48 31 f6             	xor    rsi,rsi
    11b4:	48 b8 00 00 00 00 00 	movabs rax,0x0
    11bb:	00 00 00 
			11b6: R_X86_64_64	do_callback
    11be:	48 89 9c 24 60 01 00 	mov    QWORD PTR [rsp+0x160],rbx
    11c5:	00 
    11c6:	48 89 bc 24 68 01 00 	mov    QWORD PTR [rsp+0x168],rdi
    11cd:	00 
    11ce:	4c 89 ac 24 70 01 00 	mov    QWORD PTR [rsp+0x170],r13
    11d5:	00 
    11d6:	ff d0                	call   rax
    11d8:	48 8b 9c 24 60 01 00 	mov    rbx,QWORD PTR [rsp+0x160]
    11df:	00 
    11e0:	4c 8b ac 24 70 01 00 	mov    r13,QWORD PTR [rsp+0x170]
    11e7:	00 
    11e8:	48 89 c6             	mov    rsi,rax
    11eb:	48 89 b4 24 60 01 00 	mov    QWORD PTR [rsp+0x160],rsi
    11f2:	00 
    11f3:	49 8b b4 24 98 00 00 	mov    rsi,QWORD PTR [r12+0x98]
    11fa:	00 
    11fb:	49 8b 7d 08          	mov    rdi,QWORD PTR [r13+0x8]
    11ff:	49 89 b4 24 98 00 00 	mov    QWORD PTR [r12+0x98],rsi
    1206:	00 
    1207:	48 89 5e e0          	mov    QWORD PTR [rsi-0x20],rbx
    120b:	4c 89 7e e8          	mov    QWORD PTR [rsi-0x18],r15
    120f:	b8 01 00 00 00       	mov    eax,0x1
    1214:	48 89 46 f0          	mov    QWORD PTR [rsi-0x10],rax
    1218:	b8 01 00 00 00       	mov    eax,0x1
    121d:	48 89 46 f8          	mov    QWORD PTR [rsi-0x8],rax
    1221:	48 31 f6             	xor    rsi,rsi
    1224:	48 b8 00 00 00 00 00 	movabs rax,0x0
    122b:	00 00 00 
			1226: R_X86_64_64	do_callback
    122e:	48 89 9c 24 68 01 00 	mov    QWORD PTR [rsp+0x168],rbx
    1235:	00 
    1236:	48 89 bc 24 70 01 00 	mov    QWORD PTR [rsp+0x170],rdi
    123d:	00 
    123e:	4c 89 ac 24 78 01 00 	mov    QWORD PTR [rsp+0x178],r13
    1245:	00 
    1246:	ff d0                	call   rax
    1248:	48 8b 9c 24 68 01 00 	mov    rbx,QWORD PTR [rsp+0x168]
    124f:	00 
    1250:	4c 8b ac 24 78 01 00 	mov    r13,QWORD PTR [rsp+0x178]
    1257:	00 
    1258:	48 89 c6             	mov    rsi,rax
    125b:	48 89 b4 24 68 01 00 	mov    QWORD PTR [rsp+0x168],rsi
    1262:	00 
    1263:	49 8b b4 24 98 00 00 	mov    rsi,QWORD PTR [r12+0x98]
    126a:	00 
    126b:	49 8b 7d 08          	mov    rdi,QWORD PTR [r13+0x8]
    126f:	49 89 b4 24 98 00 00 	mov    QWORD PTR [r12+0x98],rsi
    1276:	00 
    1277:	48 89 5e e0          	mov    QWORD PTR [rsi-0x20],rbx
    127b:	4c 89 7e e8          	mov    QWORD PTR [rsi-0x18],r15
    127f:	b8 01 00 00 00       	mov    eax,0x1
    1284:	48 89 46 f0          	mov    QWORD PTR [rsi-0x10],rax
    1288:	b8 01 00 00 00       	mov    eax,0x1
    128d:	48 89 46 f8          	mov    QWORD PTR [rsi-0x8],rax
    1291:	48 31 f6             	xor    rsi,rsi
    1294:	48 b8 00 00 00 00 00 	movabs rax,0x0
    129b:	00 00 00 
			1296: R_X86_64_64	do_callback
    129e:	48 89 9c 24 70 01 00 	mov    QWORD PTR [rsp+0x170],rbx
    12a5:	00 
    12a6:	48 89 bc 24 78 01 00 	mov    QWORD PTR [rsp+0x178],rdi
    12ad:	00 
    12ae:	4c 89 ac 24 80 01 00 	mov    QWORD PTR [rsp+0x180],r13
    12b5:	00 
    12b6:	ff d0                	call   rax
    12b8:	48 8b 9c 24 70 01 00 	mov    rbx,QWORD PTR [rsp+0x170]
    12bf:	00 
    12c0:	4c 8b ac 24 80 01 00 	mov    r13,QWORD PTR [rsp+0x180]
    12c7:	00 
    12c8:	48 89 c6             	mov    rsi,rax
    12cb:	48 89 b4 24 70 01 00 	mov    QWORD PTR [rsp+0x170],rsi
    12d2:	00 
    12d3:	49 8b b4 24 98 00 00 	mov    rsi,QWORD PTR [r12+0x98]
    12da:	00 
    12db:	49 8b 7d 08          	mov    rdi,QWORD PTR [r13+0x8]
    12df:	49 89 b4 24 98 00 00 	mov    QWORD PTR [r12+0x98],rsi
    12e6:	00 
    12e7:	48 89 5e e0          	mov    QWORD PTR [rsi-0x20],rbx
    12eb:	4c 89 7e e8          	mov    QWORD PTR [rsi-0x18],r15
    12ef:	b8 01 00 00 00       	mov    eax,0x1
    12f4:	48 89 46 f0          	mov    QWORD PTR [rsi-0x10],rax
    12f8:	b8 01 00 00 00       	mov    eax,0x1
    12fd:	48 89 46 f8          	mov    QWORD PTR [rsi-0x8],rax
    1301:	48 31 f6             	xor    rsi,rsi
    1304:	48 b8 00 00 00 00 00 	movabs rax,0x0
    130b:	00 00 00 
			1306: R_X86_64_64	do_callback
    130e:	48 89 9c 24 78 01 00 	mov    QWORD PTR [rsp+0x178],rbx
    1315:	00 
    1316:	48 89 bc 24 80 01 00 	mov    QWORD PTR [rsp+0x180],rdi
    131d:	00 
    131e:	4c 89 ac 24 88 01 00 	mov    QWORD PTR [rsp+0x188],r13
    1325:	00 
    1326:	ff d0                	call   rax
    1328:	48 8b 9c 24 78 01 00 	mov    rbx,QWORD PTR [rsp+0x178]
    132f:	00 
    1330:	4c 8b ac 24 88 01 00 	mov    r13,QWORD PTR [rsp+0x188]
    1337:	00 
    1338:	48 89 c6             	mov    rsi,rax
    133b:	48 89 b4 24 78 01 00 	mov    QWORD PTR [rsp+0x178],rsi
    1342:	00 
    1343:	49 8b b4 24 98 00 00 	mov    rsi,QWORD PTR [r12+0x98]
    134a:	00 
    134b:	49 8b 7d 08          	mov    rdi,QWORD PTR [r13+0x8]
    134f:	49 89 b4 24 98 00 00 	mov    QWORD PTR [r12+0x98],rsi
    1356:	00 
    1357:	48 89 5e e0          	mov    QWORD PTR [rsi-0x20],rbx
    135b:	4c 89 7e e8          	mov    QWORD PTR [rsi-0x18],r15
    135f:	b8 01 00 00 00       	mov    eax,0x1
    1364:	48 89 46 f0          	mov    QWORD PTR [rsi-0x10],rax
    1368:	b8 01 00 00 00       	mov    eax,0x1
    136d:	48 89 46 f8          	mov    QWORD PTR [rsi-0x8],rax
    1371:	48 31 f6             	xor    rsi,rsi
    1374:	48 b8 00 00 00 00 00 	movabs rax,0x0
    137b:	00 00 00 
			1376: R_X86_64_64	do_callback
    137e:	48 89 9c 24 80 01 00 	mov    QWORD PTR [rsp+0x180],rbx
    1385:	00 
    1386:	48 89 bc 24 88 01 00 	mov    QWORD PTR [rsp+0x188],rdi
    138d:	00 
    138e:	4c 89 ac 24 90 01 00 	mov    QWORD PTR [rsp+0x190],r13
    1395:	00 
    1396:	ff d0                	call   rax
    1398:	48 8b 9c 24 80 01 00 	mov    rbx,QWORD PTR [rsp+0x180]
    139f:	00 
    13a0:	4c 8b ac 24 90 01 00 	mov    r13,QWORD PTR [rsp+0x190]
    13a7:	00 
    13a8:	48 89 c6             	mov    rsi,rax
    13ab:	48 89 b4 24 80 01 00 	mov    QWORD PTR [rsp+0x180],rsi
    13b2:	00 
    13b3:	49 8b b4 24 98 00 00 	mov    rsi,QWORD PTR [r12+0x98]
    13ba:	00 
    13bb:	49 8b 7d 08          	mov    rdi,QWORD PTR [r13+0x8]
    13bf:	49 89 b4 24 98 00 00 	mov    QWORD PTR [r12+0x98],rsi
    13c6:	00 
    13c7:	48 89 5e e0          	mov    QWORD PTR [rsi-0x20],rbx
    13cb:	4c 89 7e e8          	mov    QWORD PTR [rsi-0x18],r15
    13cf:	b8 01 00 00 00       	mov    eax,0x1
    13d4:	48 89 46 f0          	mov    QWORD PTR [rsi-0x10],rax
    13d8:	b8 01 00 00 00       	mov    eax,0x1
    13dd:	48 89 46 f8          	mov    QWORD PTR [rsi-0x8],rax
    13e1:	48 31 f6             	xor    rsi,rsi
    13e4:	48 b8 00 00 00 00 00 	movabs rax,0x0
    13eb:	00 00 00 
			13e6: R_X86_64_64	do_callback
    13ee:	48 89 9c 24 88 01 00 	mov    QWORD PTR [rsp+0x188],rbx
    13f5:	00 
    13f6:	48 89 bc 24 90 01 00 	mov    QWORD PTR [rsp+0x190],rdi
    13fd:	00 
    13fe:	4c 89 ac 24 98 01 00 	mov    QWORD PTR [rsp+0x198],r13
    1405:	00 
    1406:	ff d0                	call   rax
    1408:	48 8b 9c 24 88 01 00 	mov    rbx,QWORD PTR [rsp+0x188]
    140f:	00 
    1410:	4c 8b ac 24 98 01 00 	mov    r13,QWORD PTR [rsp+0x198]
    1417:	00 
    1418:	48 89 c6             	mov    rsi,rax
    141b:	48 89 b4 24 88 01 00 	mov    QWORD PTR [rsp+0x188],rsi
    1422:	00 
    1423:	49 8b b4 24 98 00 00 	mov    rsi,QWORD PTR [r12+0x98]
    142a:	00 
    142b:	49 8b 7d 08          	mov    rdi,QWORD PTR [r13+0x8]
    142f:	49 89 b4 24 98 00 00 	mov    QWORD PTR [r12+0x98],rsi
    1436:	00 
    1437:	48 89 5e e0          	mov    QWORD PTR [rsi-0x20],rbx
    143b:	4c 89 7e e8          	mov    QWORD PTR [rsi-0x18],r15
    143f:	b8 01 00 00 00       	mov    eax,0x1
    1444:	48 89 46 f0          	mov    QWORD PTR [rsi-0x10],rax
    1448:	b8 01 00 00 00       	mov    eax,0x1
    144d:	48 89 46 f8          	mov    QWORD PTR [rsi-0x8],rax
    1451:	48 31 f6             	xor    rsi,rsi
    1454:	48 b8 00 00 00 00 00 	movabs rax,0x0
    145b:	00 00 00 
			1456: R_X86_64_64	do_callback
    145e:	48 89 9c 24 90 01 00 	mov    QWORD PTR [rsp+0x190],rbx
    1465:	00 
    1466:	48 89 bc 24 98 01 00 	mov    QWORD PTR [rsp+0x198],rdi
    146d:	00 
    146e:	4c 89 ac 24 a0 01 00 	mov    QWORD PTR [rsp+0x1a0],r13
    1475:	00 
    1476:	ff d0                	call   rax
    1478:	48 8b 9c 24 90 01 00 	mov    rbx,QWORD PTR [rsp+0x190]
    147f:	00 
    1480:	4c 8b ac 24 a0 01 00 	mov    r13,QWORD PTR [rsp+0x1a0]
    1487:	00 
    1488:	48 89 c6             	mov    rsi,rax
    148b:	48 89 b4 24 90 01 00 	mov    QWORD PTR [rsp+0x190],rsi
    1492:	00 
    1493:	49 8b b4 24 98 00 00 	mov    rsi,QWORD PTR [r12+0x98]
    149a:	00 
    149b:	49 8b 7d 08          	mov    rdi,QWORD PTR [r13+0x8]
    149f:	49 89 b4 24 98 00 00 	mov    QWORD PTR [r12+0x98],rsi
    14a6:	00 
    14a7:	48 89 5e e0          	mov    QWORD PTR [rsi-0x20],rbx
    14ab:	4c 89 7e e8          	mov    QWORD PTR [rsi-0x18],r15
    14af:	b8 01 00 00 00       	mov    eax,0x1
    14b4:	48 89 46 f0          	mov    QWORD PTR [rsi-0x10],rax
    14b8:	b8 01 00 00 00       	mov    eax,0x1
    14bd:	48 89 46 f8          	mov    QWORD PTR [rsi-0x8],rax
    14c1:	48 31 f6             	xor    rsi,rsi
    14c4:	48 b8 00 00 00 00 00 	movabs rax,0x0
    14cb:	00 00 00 
			14c6: R_X86_64_64	do_callback
    14ce:	48 89 9c 24 98 01 00 	mov    QWORD PTR [rsp+0x198],rbx
    14d5:	00 
    14d6:	48 89 bc 24 a0 01 00 	mov    QWORD PTR [rsp+0x1a0],rdi
    14dd:	00 
    14de:	4c 89 ac 24 a8 01 00 	mov    QWORD PTR [rsp+0x1a8],r13
    14e5:	00 
    14e6:	ff d0                	call   rax
    14e8:	48 8b 9c 24 98 01 00 	mov    rbx,QWORD PTR [rsp+0x198]
    14ef:	00 
    14f0:	4c 8b ac 24 a8 01 00 	mov    r13,QWORD PTR [rsp+0x1a8]
    14f7:	00 
    14f8:	48 89 c6             	mov    rsi,rax
    14fb:	48 89 b4 24 98 01 00 	mov    QWORD PTR [rsp+0x198],rsi
    1502:	00 
    1503:	49 8b b4 24 98 00 00 	mov    rsi,QWORD PTR [r12+0x98]
    150a:	00 
    150b:	49 8b 7d 08          	mov    rdi,QWORD PTR [r13+0x8]
    150f:	49 89 b4 24 98 00 00 	mov    QWORD PTR [r12+0x98],rsi
    1516:	00 
    1517:	48 89 5e e0          	mov    QWORD PTR [rsi-0x20],rbx
    151b:	4c 89 7e e8          	mov    QWORD PTR [rsi-0x18],r15
    151f:	b8 01 00 00 00       	mov    eax,0x1
    1524:	48 89 46 f0          	mov    QWORD PTR [rsi-0x10],rax
    1528:	b8 01 00 00 00       	mov    eax,0x1
    152d:	48 89 46 f8          	mov    QWORD PTR [rsi-0x8],rax
    1531:	48 31 f6             	xor    rsi,rsi
    1534:	48 b8 00 00 00 00 00 	movabs rax,0x0
    153b:	00 00 00 
			1536: R_X86_64_64	do_callback
    153e:	48 89 9c 24 a0 01 00 	mov    QWORD PTR [rsp+0x1a0],rbx
    1545:	00 
    1546:	48 89 bc 24 a8 01 00 	mov    QWORD PTR [rsp+0x1a8],rdi
    154d:	00 
    154e:	4c 89 ac 24 b0 01 00 	mov    QWORD PTR [rsp+0x1b0],r13
    1555:	00 
    1556:	ff d0                	call   rax
    1558:	48 8b 9c 24 a0 01 00 	mov    rbx,QWORD PTR [rsp+0x1a0]
    155f:	00 
    1560:	4c 8b ac 24 b0 01 00 	mov    r13,QWORD PTR [rsp+0x1b0]
    1567:	00 
    1568:	48 89 c6             	mov    rsi,rax
    156b:	48 89 b4 24 a0 01 00 	mov    QWORD PTR [rsp+0x1a0],rsi
    1572:	00 
    1573:	49 8b b4 24 98 00 00 	mov    rsi,QWORD PTR [r12+0x98]
    157a:	00 
    157b:	49 8b 7d 08          	mov    rdi,QWORD PTR [r13+0x8]
    157f:	49 89 b4 24 98 00 00 	mov    QWORD PTR [r12+0x98],rsi
    1586:	00 
    1587:	48 89 5e e0          	mov    QWORD PTR [rsi-0x20],rbx
    158b:	4c 89 7e e8          	mov    QWORD PTR [rsi-0x18],r15
    158f:	b8 01 00 00 00       	mov    eax,0x1
    1594:	48 89 46 f0          	mov    QWORD PTR [rsi-0x10],rax
    1598:	b8 01 00 00 00       	mov    eax,0x1
    159d:	48 89 46 f8          	mov    QWORD PTR [rsi-0x8],rax
    15a1:	48 31 f6             	xor    rsi,rsi
    15a4:	48 b8 00 00 00 00 00 	movabs rax,0x0
    15ab:	00 00 00 
			15a6: R_X86_64_64	do_callback
    15ae:	48 89 9c 24 a8 01 00 	mov    QWORD PTR [rsp+0x1a8],rbx
    15b5:	00 
    15b6:	48 89 bc 24 b0 01 00 	mov    QWORD PTR [rsp+0x1b0],rdi
    15bd:	00 
    15be:	4c 89 ac 24 b8 01 00 	mov    QWORD PTR [rsp+0x1b8],r13
    15c5:	00 
    15c6:	ff d0                	call   rax
    15c8:	48 8b 9c 24 a8 01 00 	mov    rbx,QWORD PTR [rsp+0x1a8]
    15cf:	00 
    15d0:	4c 8b ac 24 b8 01 00 	mov    r13,QWORD PTR [rsp+0x1b8]
    15d7:	00 
    15d8:	48 89 c6             	mov    rsi,rax
    15db:	48 89 b4 24 a8 01 00 	mov    QWORD PTR [rsp+0x1a8],rsi
    15e2:	00 
    15e3:	49 8b b4 24 98 00 00 	mov    rsi,QWORD PTR [r12+0x98]
    15ea:	00 
    15eb:	49 8b 7d 08          	mov    rdi,QWORD PTR [r13+0x8]
    15ef:	49 89 b4 24 98 00 00 	mov    QWORD PTR [r12+0x98],rsi
    15f6:	00 
    15f7:	48 89 5e e0          	mov    QWORD PTR [rsi-0x20],rbx
    15fb:	4c 89 7e e8          	mov    QWORD PTR [rsi-0x18],r15
    15ff:	b8 01 00 00 00       	mov    eax,0x1
    1604:	48 89 46 f0          	mov    QWORD PTR [rsi-0x10],rax
    1608:	b8 01 00 00 00       	mov    eax,0x1
    160d:	48 89 46 f8          	mov    QWORD PTR [rsi-0x8],rax
    1611:	48 31 f6             	xor    rsi,rsi
    1614:	48 b8 00 00 00 00 00 	movabs rax,0x0
    161b:	00 00 00 
			1616: R_X86_64_64	do_callback
    161e:	48 89 9c 24 b0 01 00 	mov    QWORD PTR [rsp+0x1b0],rbx
    1625:	00 
    1626:	48 89 bc 24 b8 01 00 	mov    QWORD PTR [rsp+0x1b8],rdi
    162d:	00 
    162e:	4c 89 ac 24 c0 01 00 	mov    QWORD PTR [rsp+0x1c0],r13
    1635:	00 
    1636:	ff d0                	call   rax
    1638:	48 8b 9c 24 b0 01 00 	mov    rbx,QWORD PTR [rsp+0x1b0]
    163f:	00 
    1640:	4c 8b ac 24 c0 01 00 	mov    r13,QWORD PTR [rsp+0x1c0]
    1647:	00 
    1648:	48 89 c6             	mov    rsi,rax
    164b:	48 89 b4 24 b0 01 00 	mov    QWORD PTR [rsp+0x1b0],rsi
    1652:	00 
    1653:	49 8b b4 24 98 00 00 	mov    rsi,QWORD PTR [r12+0x98]
    165a:	00 
    165b:	49 8b 7d 08          	mov    rdi,QWORD PTR [r13+0x8]
    165f:	49 89 b4 24 98 00 00 	mov    QWORD PTR [r12+0x98],rsi
    1666:	00 
    1667:	48 89 5e e0          	mov    QWORD PTR [rsi-0x20],rbx
    166b:	4c 89 7e e8          	mov    QWORD PTR [rsi-0x18],r15
    166f:	b8 01 00 00 00       	mov    eax,0x1
    1674:	48 89 46 f0          	mov    QWORD PTR [rsi-0x10],rax
    1678:	b8 01 00 00 00       	mov    eax,0x1
    167d:	48 89 46 f8          	mov    QWORD PTR [rsi-0x8],rax
    1681:	48 31 f6             	xor    rsi,rsi
    1684:	48 b8 00 00 00 00 00 	movabs rax,0x0
    168b:	00 00 00 
			1686: R_X86_64_64	do_callback
    168e:	48 89 9c 24 b8 01 00 	mov    QWORD PTR [rsp+0x1b8],rbx
    1695:	00 
    1696:	48 89 bc 24 c0 01 00 	mov    QWORD PTR [rsp+0x1c0],rdi
    169d:	00 
    169e:	4c 89 ac 24 c8 01 00 	mov    QWORD PTR [rsp+0x1c8],r13
    16a5:	00 
    16a6:	ff d0                	call   rax
    16a8:	48 8b 9c 24 b8 01 00 	mov    rbx,QWORD PTR [rsp+0x1b8]
    16af:	00 
    16b0:	4c 8b ac 24 c8 01 00 	mov    r13,QWORD PTR [rsp+0x1c8]
    16b7:	00 
    16b8:	48 89 c6             	mov    rsi,rax
    16bb:	48 89 b4 24 b8 01 00 	mov    QWORD PTR [rsp+0x1b8],rsi
    16c2:	00 
    16c3:	49 8b b4 24 98 00 00 	mov    rsi,QWORD PTR [r12+0x98]
    16ca:	00 
    16cb:	49 8b 7d 08          	mov    rdi,QWORD PTR [r13+0x8]
    16cf:	49 89 b4 24 98 00 00 	mov    QWORD PTR [r12+0x98],rsi
    16d6:	00 
    16d7:	48 89 5e e0          	mov    QWORD PTR [rsi-0x20],rbx
    16db:	4c 89 7e e8          	mov    QWORD PTR [rsi-0x18],r15
    16df:	b8 01 00 00 00       	mov    eax,0x1
    16e4:	48 89 46 f0          	mov    QWORD PTR [rsi-0x10],rax
    16e8:	b8 01 00 00 00       	mov    eax,0x1
    16ed:	48 89 46 f8          	mov    QWORD PTR [rsi-0x8],rax
    16f1:	48 31 f6             	xor    rsi,rsi
    16f4:	48 b8 00 00 00 00 00 	movabs rax,0x0
    16fb:	00 00 00 
			16f6: R_X86_64_64	do_callback
    16fe:	48 89 9c 24 c0 01 00 	mov    QWORD PTR [rsp+0x1c0],rbx
    1705:	00 
    1706:	48 89 bc 24 c8 01 00 	mov    QWORD PTR [rsp+0x1c8],rdi
    170d:	00 
    170e:	4c 89 ac 24 d0 01 00 	mov    QWORD PTR [rsp+0x1d0],r13
    1715:	00 
    1716:	ff d0                	call   rax
    1718:	48 8b 9c 24 c0 01 00 	mov    rbx,QWORD PTR [rsp+0x1c0]
    171f:	00 
    1720:	4c 8b ac 24 d0 01 00 	mov    r13,QWORD PTR [rsp+0x1d0]
    1727:	00 
    1728:	48 89 c6             	mov    rsi,rax
    172b:	48 89 b4 24 c0 01 00 	mov    QWORD PTR [rsp+0x1c0],rsi
    1732:	00 
    1733:	49 8b b4 24 98 00 00 	mov    rsi,QWORD PTR [r12+0x98]
    173a:	00 
    173b:	49 8b 7d 08          	mov    rdi,QWORD PTR [r13+0x8]
    173f:	49 89 b4 24 98 00 00 	mov    QWORD PTR [r12+0x98],rsi
    1746:	00 
    1747:	48 89 5e e0          	mov    QWORD PTR [rsi-0x20],rbx
    174b:	4c 89 7e e8          	mov    QWORD PTR [rsi-0x18],r15
    174f:	b8 01 00 00 00       	mov    eax,0x1
    1754:	48 89 46 f0          	mov    QWORD PTR [rsi-0x10],rax
    1758:	b8 01 00 00 00       	mov    eax,0x1
    175d:	48 89 46 f8          	mov    QWORD PTR [rsi-0x8],rax
    1761:	48 31 f6             	xor    rsi,rsi
    1764:	48 b8 00 00 00 00 00 	movabs rax,0x0
    176b:	00 00 00 
			1766: R_X86_64_64	do_callback
    176e:	48 89 9c 24 c8 01 00 	mov    QWORD PTR [rsp+0x1c8],rbx
    1775:	00 
    1776:	48 89 bc 24 d0 01 00 	mov    QWORD PTR [rsp+0x1d0],rdi
    177d:	00 
    177e:	4c 89 ac 24 d8 01 00 	mov    QWORD PTR [rsp+0x1d8],r13
    1785:	00 
    1786:	ff d0                	call   rax
    1788:	48 8b 9c 24 c8 01 00 	mov    rbx,QWORD PTR [rsp+0x1c8]
    178f:	00 
    1790:	4c 8b ac 24 d8 01 00 	mov    r13,QWORD PTR [rsp+0x1d8]
    1797:	00 
    1798:	48 89 c6             	mov    rsi,rax
    179b:	48 89 b4 24 c8 01 00 	mov    QWORD PTR [rsp+0x1c8],rsi
    17a2:	00 
    17a3:	49 8b b4 24 98 00 00 	mov    rsi,QWORD PTR [r12+0x98]
    17aa:	00 
    17ab:	49 8b 7d 08          	mov    rdi,QWORD PTR [r13+0x8]
    17af:	49 89 b4 24 98 00 00 	mov    QWORD PTR [r12+0x98],rsi
    17b6:	00 
    17b7:	48 89 5e e0          	mov    QWORD PTR [rsi-0x20],rbx
    17bb:	4c 89 7e e8          	mov    QWORD PTR [rsi-0x18],r15
    17bf:	b8 01 00 00 00       	mov    eax,0x1
    17c4:	48 89 46 f0          	mov    QWORD PTR [rsi-0x10],rax
    17c8:	b8 01 00 00 00       	mov    eax,0x1
    17cd:	48 89 46 f8          	mov    QWORD PTR [rsi-0x8],rax
    17d1:	48 31 f6             	xor    rsi,rsi
    17d4:	48 b8 00 00 00 00 00 	movabs rax,0x0
    17db:	00 00 00 
			17d6: R_X86_64_64	do_callback
    17de:	48 89 9c 24 d0 01 00 	mov    QWORD PTR [rsp+0x1d0],rbx
    17e5:	00 
    17e6:	48 89 bc 24 d8 01 00 	mov    QWORD PTR [rsp+0x1d8],rdi
    17ed:	00 
    17ee:	4c 89 ac 24 e0 01 00 	mov    QWORD PTR [rsp+0x1e0],r13
    17f5:	00 
    17f6:	ff d0                	call   rax
    17f8:	48 8b 9c 24 d0 01 00 	mov    rbx,QWORD PTR [rsp+0x1d0]
    17ff:	00 
    1800:	4c 8b ac 24 e0 01 00 	mov    r13,QWORD PTR [rsp+0x1e0]
    1807:	00 
    1808:	48 89 c6             	mov    rsi,rax
    180b:	48 89 b4 24 d0 01 00 	mov    QWORD PTR [rsp+0x1d0],rsi
    1812:	00 
    1813:	49 8b b4 24 98 00 00 	mov    rsi,QWORD PTR [r12+0x98]
    181a:	00 
    181b:	49 8b 7d 08          	mov    rdi,QWORD PTR [r13+0x8]
    181f:	49 89 b4 24 98 00 00 	mov    QWORD PTR [r12+0x98],rsi
    1826:	00 
    1827:	48 89 5e e0          	mov    QWORD PTR [rsi-0x20],rbx
    182b:	4c 89 7e e8          	mov    QWORD PTR [rsi-0x18],r15
    182f:	b8 01 00 00 00       	mov    eax,0x1
    1834:	48 89 46 f0          	mov    QWORD PTR [rsi-0x10],rax
    1838:	b8 01 00 00 00       	mov    eax,0x1
    183d:	48 89 46 f8          	mov    QWORD PTR [rsi-0x8],rax
    1841:	48 31 f6             	xor    rsi,rsi
    1844:	48 b8 00 00 00 00 00 	movabs rax,0x0
    184b:	00 00 00 
			1846: R_X86_64_64	do_callback
    184e:	48 89 9c 24 d8 01 00 	mov    QWORD PTR [rsp+0x1d8],rbx
    1855:	00 
    1856:	48 89 bc 24 e0 01 00 	mov    QWORD PTR [rsp+0x1e0],rdi
    185d:	00 
    185e:	4c 89 ac 24 e8 01 00 	mov    QWORD PTR [rsp+0x1e8],r13
    1865:	00 
    1866:	ff d0                	call   rax
    1868:	48 8b 9c 24 d8 01 00 	mov    rbx,QWORD PTR [rsp+0x1d8]
    186f:	00 
    1870:	4c 8b ac 24 e8 01 00 	mov    r13,QWORD PTR [rsp+0x1e8]
    1877:	00 
    1878:	48 89 c6             	mov    rsi,rax
    187b:	48 89 b4 24 d8 01 00 	mov    QWORD PTR [rsp+0x1d8],rsi
    1882:	00 
    1883:	49 8b b4 24 98 00 00 	mov    rsi,QWORD PTR [r12+0x98]
    188a:	00 
    188b:	49 8b 7d 08          	mov    rdi,QWORD PTR [r13+0x8]
    188f:	49 89 b4 24 98 00 00 	mov    QWORD PTR [r12+0x98],rsi
    1896:	00 
    1897:	48 89 5e e0          	mov    QWORD PTR [rsi-0x20],rbx
    189b:	4c 89 7e e8          	mov    QWORD PTR [rsi-0x18],r15
    189f:	b8 01 00 00 00       	mov    eax,0x1
    18a4:	48 89 46 f0          	mov    QWORD PTR [rsi-0x10],rax
    18a8:	b8 01 00 00 00       	mov    eax,0x1
    18ad:	48 89 46 f8          	mov    QWORD PTR [rsi-0x8],rax
    18b1:	48 31 f6             	xor    rsi,rsi
    18b4:	48 b8 00 00 00 00 00 	movabs rax,0x0
    18bb:	00 00 00 
			18b6: R_X86_64_64	do_callback
    18be:	48 89 9c 24 e0 01 00 	mov    QWORD PTR [rsp+0x1e0],rbx
    18c5:	00 
    18c6:	48 89 bc 24 e8 01 00 	mov    QWORD PTR [rsp+0x1e8],rdi
    18cd:	00 
    18ce:	4c 89 ac 24 f0 01 00 	mov    QWORD PTR [rsp+0x1f0],r13
    18d5:	00 
    18d6:	ff d0                	call   rax
    18d8:	48 8b 9c 24 e0 01 00 	mov    rbx,QWORD PTR [rsp+0x1e0]
    18df:	00 
    18e0:	4c 8b ac 24 f0 01 00 	mov    r13,QWORD PTR [rsp+0x1f0]
    18e7:	00 
    18e8:	48 89 c6             	mov    rsi,rax
    18eb:	48 89 b4 24 e0 01 00 	mov    QWORD PTR [rsp+0x1e0],rsi
    18f2:	00 
    18f3:	49 8b b4 24 98 00 00 	mov    rsi,QWORD PTR [r12+0x98]
    18fa:	00 
    18fb:	49 8b 7d 08          	mov    rdi,QWORD PTR [r13+0x8]
    18ff:	49 89 b4 24 98 00 00 	mov    QWORD PTR [r12+0x98],rsi
    1906:	00 
    1907:	48 89 5e e0          	mov    QWORD PTR [rsi-0x20],rbx
    190b:	4c 89 7e e8          	mov    QWORD PTR [rsi-0x18],r15
    190f:	b8 01 00 00 00       	mov    eax,0x1
    1914:	48 89 46 f0          	mov    QWORD PTR [rsi-0x10],rax
    1918:	b8 01 00 00 00       	mov    eax,0x1
    191d:	48 89 46 f8          	mov    QWORD PTR [rsi-0x8],rax
    1921:	48 31 f6             	xor    rsi,rsi
    1924:	48 b8 00 00 00 00 00 	movabs rax,0x0
    192b:	00 00 00 
			1926: R_X86_64_64	do_callback
    192e:	48 89 9c 24 e8 01 00 	mov    QWORD PTR [rsp+0x1e8],rbx
    1935:	00 
    1936:	48 89 bc 24 f0 01 00 	mov    QWORD PTR [rsp+0x1f0],rdi
    193d:	00 
    193e:	4c 89 ac 24 f8 01 00 	mov    QWORD PTR [rsp+0x1f8],r13
    1945:	00 
    1946:	ff d0                	call   rax
    1948:	48 8b 9c 24 e8 01 00 	mov    rbx,QWORD PTR [rsp+0x1e8]
    194f:	00 
    1950:	4c 8b ac 24 f8 01 00 	mov    r13,QWORD PTR [rsp+0x1f8]
    1957:	00 
    1958:	48 89 c6             	mov    rsi,rax
    195b:	48 89 b4 24 e8 01 00 	mov    QWORD PTR [rsp+0x1e8],rsi
    1962:	00 
    1963:	49 8b b4 24 98 00 00 	mov    rsi,QWORD PTR [r12+0x98]
    196a:	00 
    196b:	49 8b 7d 08          	mov    rdi,QWORD PTR [r13+0x8]
    196f:	49 89 b4 24 98 00 00 	mov    QWORD PTR [r12+0x98],rsi
    1976:	00 
    1977:	48 89 5e e0          	mov    QWORD PTR [rsi-0x20],rbx
    197b:	4c 89 7e e8          	mov    QWORD PTR [rsi-0x18],r15
    197f:	b8 01 00 00 00       	mov    eax,0x1
    1984:	48 89 46 f0          	mov    QWORD PTR [rsi-0x10],rax
    1988:	b8 01 00 00 00       	mov    eax,0x1
    198d:	48 89 46 f8          	mov    QWORD PTR [rsi-0x8],rax
    1991:	48 31 f6             	xor    rsi,rsi
    1994:	48 b8 00 00 00 00 00 	movabs rax,0x0
    199b:	00 00 00 
			1996: R_X86_64_64	do_callback
    199e:	48 89 9c 24 f0 01 00 	mov    QWORD PTR [rsp+0x1f0],rbx
    19a5:	00 
    19a6:	48 89 bc 24 f8 01 00 	mov    QWORD PTR [rsp+0x1f8],rdi
    19ad:	00 
    19ae:	4c 89 ac 24 00 02 00 	mov    QWORD PTR [rsp+0x200],r13
    19b5:	00 
    19b6:	ff d0                	call   rax
    19b8:	48 8b 9c 24 f0 01 00 	mov    rbx,QWORD PTR [rsp+0x1f0]
    19bf:	00 
    19c0:	4c 8b ac 24 00 02 00 	mov    r13,QWORD PTR [rsp+0x200]
    19c7:	00 
    19c8:	48 89 c6             	mov    rsi,rax
    19cb:	48 89 b4 24 f0 01 00 	mov    QWORD PTR [rsp+0x1f0],rsi
    19d2:	00 
    19d3:	49 8b b4 24 98 00 00 	mov    rsi,QWORD PTR [r12+0x98]
    19da:	00 
    19db:	49 8b 7d 08          	mov    rdi,QWORD PTR [r13+0x8]
    19df:	49 89 b4 24 98 00 00 	mov    QWORD PTR [r12+0x98],rsi
    19e6:	00 
    19e7:	48 89 5e e0          	mov    QWORD PTR [rsi-0x20],rbx
    19eb:	4c 89 7e e8          	mov    QWORD PTR [rsi-0x18],r15
    19ef:	b8 01 00 00 00       	mov    eax,0x1
    19f4:	48 89 46 f0          	mov    QWORD PTR [rsi-0x10],rax
    19f8:	b8 01 00 00 00       	mov    eax,0x1
    19fd:	48 89 46 f8          	mov    QWORD PTR [rsi-0x8],rax
    1a01:	48 31 f6             	xor    rsi,rsi
    1a04:	48 b8 00 00 00 00 00 	movabs rax,0x0
    1a0b:	00 00 00 
			1a06: R_X86_64_64	do_callback
    1a0e:	48 89 9c 24 f8 01 00 	mov    QWORD PTR [rsp+0x1f8],rbx
    1a15:	00 
    1a16:	48 89 bc 24 00 02 00 	mov    QWORD PTR [rsp+0x200],rdi
    1a1d:	00 
    1a1e:	4c 89 ac 24 08 02 00 	mov    QWORD PTR [rsp+0x208],r13
    1a25:	00 
    1a26:	ff d0                	call   rax
    1a28:	48 8b 9c 24 f8 01 00 	mov    rbx,QWORD PTR [rsp+0x1f8]
    1a2f:	00 
    1a30:	4c 8b ac 24 08 02 00 	mov    r13,QWORD PTR [rsp+0x208]
    1a37:	00 
    1a38:	48 89 c6             	mov    rsi,rax
    1a3b:	48 89 b4 24 f8 01 00 	mov    QWORD PTR [rsp+0x1f8],rsi
    1a42:	00 
    1a43:	49 8b b4 24 98 00 00 	mov    rsi,QWORD PTR [r12+0x98]
    1a4a:	00 
    1a4b:	49 8b 7d 08          	mov    rdi,QWORD PTR [r13+0x8]
    1a4f:	49 89 b4 24 98 00 00 	mov    QWORD PTR [r12+0x98],rsi
    1a56:	00 
    1a57:	48 89 5e e0          	mov    QWORD PTR [rsi-0x20],rbx
    1a5b:	4c 89 7e e8          	mov    QWORD PTR [rsi-0x18],r15
    1a5f:	b8 01 00 00 00       	mov    eax,0x1
    1a64:	48 89 46 f0          	mov    QWORD PTR [rsi-0x10],rax
    1a68:	b8 01 00 00 00       	mov    eax,0x1
    1a6d:	48 89 46 f8          	mov    QWORD PTR [rsi-0x8],rax
    1a71:	48 31 f6             	xor    rsi,rsi
    1a74:	48 b8 00 00 00 00 00 	movabs rax,0x0
    1a7b:	00 00 00 
			1a76: R_X86_64_64	do_callback
    1a7e:	48 89 9c 24 00 02 00 	mov    QWORD PTR [rsp+0x200],rbx
    1a85:	00 
    1a86:	48 89 bc 24 08 02 00 	mov    QWORD PTR [rsp+0x208],rdi
    1a8d:	00 
    1a8e:	4c 89 ac 24 10 02 00 	mov    QWORD PTR [rsp+0x210],r13
    1a95:	00 
    1a96:	ff d0                	call   rax
    1a98:	48 8b 9c 24 00 02 00 	mov    rbx,QWORD PTR [rsp+0x200]
    1a9f:	00 
    1aa0:	4c 8b ac 24 10 02 00 	mov    r13,QWORD PTR [rsp+0x210]
    1aa7:	00 
    1aa8:	48 89 c6             	mov    rsi,rax
    1aab:	48 89 b4 24 00 02 00 	mov    QWORD PTR [rsp+0x200],rsi
    1ab2:	00 
    1ab3:	49 8b b4 24 98 00 00 	mov    rsi,QWORD PTR [r12+0x98]
    1aba:	00 
    1abb:	49 8b 7d 08          	mov    rdi,QWORD PTR [r13+0x8]
    1abf:	49 89 b4 24 98 00 00 	mov    QWORD PTR [r12+0x98],rsi
    1ac6:	00 
    1ac7:	48 89 5e e0          	mov    QWORD PTR [rsi-0x20],rbx
    1acb:	4c 89 7e e8          	mov    QWORD PTR [rsi-0x18],r15
    1acf:	b8 01 00 00 00       	mov    eax,0x1
    1ad4:	48 89 46 f0          	mov    QWORD PTR [rsi-0x10],rax
    1ad8:	b8 01 00 00 00       	mov    eax,0x1
    1add:	48 89 46 f8          	mov    QWORD PTR [rsi-0x8],rax
    1ae1:	48 31 f6             	xor    rsi,rsi
    1ae4:	48 b8 00 00 00 00 00 	movabs rax,0x0
    1aeb:	00 00 00 
			1ae6: R_X86_64_64	do_callback
    1aee:	48 89 9c 24 08 02 00 	mov    QWORD PTR [rsp+0x208],rbx
    1af5:	00 
    1af6:	48 89 bc 24 10 02 00 	mov    QWORD PTR [rsp+0x210],rdi
    1afd:	00 
    1afe:	4c 89 ac 24 18 02 00 	mov    QWORD PTR [rsp+0x218],r13
    1b05:	00 
    1b06:	ff d0                	call   rax
    1b08:	48 8b 9c 24 08 02 00 	mov    rbx,QWORD PTR [rsp+0x208]
    1b0f:	00 
    1b10:	4c 8b ac 24 18 02 00 	mov    r13,QWORD PTR [rsp+0x218]
    1b17:	00 
    1b18:	48 89 c6             	mov    rsi,rax
    1b1b:	48 89 b4 24 08 02 00 	mov    QWORD PTR [rsp+0x208],rsi
    1b22:	00 
    1b23:	49 8b b4 24 98 00 00 	mov    rsi,QWORD PTR [r12+0x98]
    1b2a:	00 
    1b2b:	49 8b 7d 08          	mov    rdi,QWORD PTR [r13+0x8]
    1b2f:	49 89 b4 24 98 00 00 	mov    QWORD PTR [r12+0x98],rsi
    1b36:	00 
    1b37:	48 89 5e e0          	mov    QWORD PTR [rsi-0x20],rbx
    1b3b:	4c 89 7e e8          	mov    QWORD PTR [rsi-0x18],r15
    1b3f:	b8 01 00 00 00       	mov    eax,0x1
    1b44:	48 89 46 f0          	mov    QWORD PTR [rsi-0x10],rax
    1b48:	b8 01 00 00 00       	mov    eax,0x1
    1b4d:	48 89 46 f8          	mov    QWORD PTR [rsi-0x8],rax
    1b51:	48 31 f6             	xor    rsi,rsi
    1b54:	48 b8 00 00 00 00 00 	movabs rax,0x0
    1b5b:	00 00 00 
			1b56: R_X86_64_64	do_callback
    1b5e:	48 89 9c 24 10 02 00 	mov    QWORD PTR [rsp+0x210],rbx
    1b65:	00 
    1b66:	48 89 bc 24 18 02 00 	mov    QWORD PTR [rsp+0x218],rdi
    1b6d:	00 
    1b6e:	4c 89 ac 24 20 02 00 	mov    QWORD PTR [rsp+0x220],r13
    1b75:	00 
    1b76:	ff d0                	call   rax
    1b78:	48 8b 9c 24 10 02 00 	mov    rbx,QWORD PTR [rsp+0x210]
    1b7f:	00 
    1b80:	4c 8b ac 24 20 02 00 	mov    r13,QWORD PTR [rsp+0x220]
    1b87:	00 
    1b88:	48 89 c6             	mov    rsi,rax
    1b8b:	48 89 b4 24 10 02 00 	mov    QWORD PTR [rsp+0x210],rsi
    1b92:	00 
    1b93:	49 8b b4 24 98 00 00 	mov    rsi,QWORD PTR [r12+0x98]
    1b9a:	00 
    1b9b:	49 8b 7d 08          	mov    rdi,QWORD PTR [r13+0x8]
    1b9f:	49 89 b4 24 98 00 00 	mov    QWORD PTR [r12+0x98],rsi
    1ba6:	00 
    1ba7:	48 89 5e e0          	mov    QWORD PTR [rsi-0x20],rbx
    1bab:	4c 89 7e e8          	mov    QWORD PTR [rsi-0x18],r15
    1baf:	b8 01 00 00 00       	mov    eax,0x1
    1bb4:	48 89 46 f0          	mov    QWORD PTR [rsi-0x10],rax
    1bb8:	b8 01 00 00 00       	mov    eax,0x1
    1bbd:	48 89 46 f8          	mov    QWORD PTR [rsi-0x8],rax
    1bc1:	48 31 f6             	xor    rsi,rsi
    1bc4:	48 b8 00 00 00 00 00 	movabs rax,0x0
    1bcb:	00 00 00 
			1bc6: R_X86_64_64	do_callback
    1bce:	48 89 9c 24 18 02 00 	mov    QWORD PTR [rsp+0x218],rbx
    1bd5:	00 
    1bd6:	48 89 bc 24 20 02 00 	mov    QWORD PTR [rsp+0x220],rdi
    1bdd:	00 
    1bde:	4c 89 ac 24 28 02 00 	mov    QWORD PTR [rsp+0x228],r13
    1be5:	00 
    1be6:	ff d0                	call   rax
    1be8:	48 8b 9c 24 18 02 00 	mov    rbx,QWORD PTR [rsp+0x218]
    1bef:	00 
    1bf0:	4c 8b ac 24 28 02 00 	mov    r13,QWORD PTR [rsp+0x228]
    1bf7:	00 
    1bf8:	48 89 c6             	mov    rsi,rax
    1bfb:	48 89 b4 24 18 02 00 	mov    QWORD PTR [rsp+0x218],rsi
    1c02:	00 
    1c03:	49 8b b4 24 98 00 00 	mov    rsi,QWORD PTR [r12+0x98]
    1c0a:	00 
    1c0b:	49 8b 7d 08          	mov    rdi,QWORD PTR [r13+0x8]
    1c0f:	49 89 b4 24 98 00 00 	mov    QWORD PTR [r12+0x98],rsi
    1c16:	00 
    1c17:	48 89 5e e0          	mov    QWORD PTR [rsi-0x20],rbx
    1c1b:	4c 89 7e e8          	mov    QWORD PTR [rsi-0x18],r15
    1c1f:	b8 01 00 00 00       	mov    eax,0x1
    1c24:	48 89 46 f0          	mov    QWORD PTR [rsi-0x10],rax
    1c28:	b8 01 00 00 00       	mov    eax,0x1
    1c2d:	48 89 46 f8          	mov    QWORD PTR [rsi-0x8],rax
    1c31:	48 31 f6             	xor    rsi,rsi
    1c34:	48 b8 00 00 00 00 00 	movabs rax,0x0
    1c3b:	00 00 00 
			1c36: R_X86_64_64	do_callback
    1c3e:	48 89 9c 24 20 02 00 	mov    QWORD PTR [rsp+0x220],rbx
    1c45:	00 
    1c46:	48 89 bc 24 28 02 00 	mov    QWORD PTR [rsp+0x228],rdi
    1c4d:	00 
    1c4e:	4c 89 ac 24 30 02 00 	mov    QWORD PTR [rsp+0x230],r13
    1c55:	00 
    1c56:	ff d0                	call   rax
    1c58:	48 8b 9c 24 20 02 00 	mov    rbx,QWORD PTR [rsp+0x220]
    1c5f:	00 
    1c60:	4c 8b ac 24 30 02 00 	mov    r13,QWORD PTR [rsp+0x230]
    1c67:	00 
    1c68:	48 89 c6             	mov    rsi,rax
    1c6b:	48 89 b4 24 20 02 00 	mov    QWORD PTR [rsp+0x220],rsi
    1c72:	00 
    1c73:	49 8b b4 24 98 00 00 	mov    rsi,QWORD PTR [r12+0x98]
    1c7a:	00 
    1c7b:	49 8b 7d 08          	mov    rdi,QWORD PTR [r13+0x8]
    1c7f:	49 89 b4 24 98 00 00 	mov    QWORD PTR [r12+0x98],rsi
    1c86:	00 
    1c87:	48 89 5e e0          	mov    QWORD PTR [rsi-0x20],rbx
    1c8b:	4c 89 7e e8          	mov    QWORD PTR [rsi-0x18],r15
    1c8f:	b8 01 00 00 00       	mov    eax,0x1
    1c94:	48 89 46 f0          	mov    QWORD PTR [rsi-0x10],rax
    1c98:	b8 01 00 00 00       	mov    eax,0x1
    1c9d:	48 89 46 f8          	mov    QWORD PTR [rsi-0x8],rax
    1ca1:	48 31 f6             	xor    rsi,rsi
    1ca4:	48 b8 00 00 00 00 00 	movabs rax,0x0
    1cab:	00 00 00 
			1ca6: R_X86_64_64	do_callback
    1cae:	48 89 9c 24 28 02 00 	mov    QWORD PTR [rsp+0x228],rbx
    1cb5:	00 
    1cb6:	48 89 bc 24 30 02 00 	mov    QWORD PTR [rsp+0x230],rdi
    1cbd:	00 
    1cbe:	4c 89 ac 24 38 02 00 	mov    QWORD PTR [rsp+0x238],r13
    1cc5:	00 
    1cc6:	ff d0                	call   rax
    1cc8:	48 8b 9c 24 28 02 00 	mov    rbx,QWORD PTR [rsp+0x228]
    1ccf:	00 
    1cd0:	4c 8b ac 24 38 02 00 	mov    r13,QWORD PTR [rsp+0x238]
    1cd7:	00 
    1cd8:	48 89 c6             	mov    rsi,rax
    1cdb:	48 89 b4 24 28 02 00 	mov    QWORD PTR [rsp+0x228],rsi
    1ce2:	00 
    1ce3:	49 8b b4 24 98 00 00 	mov    rsi,QWORD PTR [r12+0x98]
    1cea:	00 
    1ceb:	49 8b 7d 08          	mov    rdi,QWORD PTR [r13+0x8]
    1cef:	49 89 b4 24 98 00 00 	mov    QWORD PTR [r12+0x98],rsi
    1cf6:	00 
    1cf7:	48 89 5e e0          	mov    QWORD PTR [rsi-0x20],rbx
    1cfb:	4c 89 7e e8          	mov    QWORD PTR [rsi-0x18],r15
    1cff:	b8 01 00 00 00       	mov    eax,0x1
    1d04:	48 89 46 f0          	mov    QWORD PTR [rsi-0x10],rax
    1d08:	b8 01 00 00 00       	mov    eax,0x1
    1d0d:	48 89 46 f8          	mov    QWORD PTR [rsi-0x8],rax
    1d11:	48 31 f6             	xor    rsi,rsi
    1d14:	48 b8 00 00 00 00 00 	movabs rax,0x0
    1d1b:	00 00 00 
			1d16: R_X86_64_64	do_callback
    1d1e:	48 89 9c 24 30 02 00 	mov    QWORD PTR [rsp+0x230],rbx
    1d25:	00 
    1d26:	48 89 bc 24 38 02 00 	mov    QWORD PTR [rsp+0x238],rdi
    1d2d:	00 
    1d2e:	4c 89 ac 24 40 02 00 	mov    QWORD PTR [rsp+0x240],r13
    1d35:	00 
    1d36:	ff d0                	call   rax
    1d38:	48 8b 9c 24 30 02 00 	mov    rbx,QWORD PTR [rsp+0x230]
    1d3f:	00 
    1d40:	4c 8b ac 24 40 02 00 	mov    r13,QWORD PTR [rsp+0x240]
    1d47:	00 
    1d48:	48 89 c6             	mov    rsi,rax
    1d4b:	48 89 b4 24 30 02 00 	mov    QWORD PTR [rsp+0x230],rsi
    1d52:	00 
    1d53:	49 8b b4 24 98 00 00 	mov    rsi,QWORD PTR [r12+0x98]
    1d5a:	00 
    1d5b:	49 8b 7d 08          	mov    rdi,QWORD PTR [r13+0x8]
    1d5f:	49 89 b4 24 98 00 00 	mov    QWORD PTR [r12+0x98],rsi
    1d66:	00 
    1d67:	48 89 5e e0          	mov    QWORD PTR [rsi-0x20],rbx
    1d6b:	4c 89 7e e8          	mov    QWORD PTR [rsi-0x18],r15
    1d6f:	b8 01 00 00 00       	mov    eax,0x1
    1d74:	48 89 46 f0          	mov    QWORD PTR [rsi-0x10],rax
    1d78:	b8 01 00 00 00       	mov    eax,0x1
    1d7d:	48 89 46 f8          	mov    QWORD PTR [rsi-0x8],rax
    1d81:	48 31 f6             	xor    rsi,rsi
    1d84:	48 b8 00 00 00 00 00 	movabs rax,0x0
    1d8b:	00 00 00 
			1d86: R_X86_64_64	do_callback
    1d8e:	48 89 9c 24 38 02 00 	mov    QWORD PTR [rsp+0x238],rbx
    1d95:	00 
    1d96:	48 89 bc 24 40 02 00 	mov    QWORD PTR [rsp+0x240],rdi
    1d9d:	00 
    1d9e:	4c 89 ac 24 48 02 00 	mov    QWORD PTR [rsp+0x248],r13
    1da5:	00 
    1da6:	ff d0                	call   rax
    1da8:	48 8b 9c 24 38 02 00 	mov    rbx,QWORD PTR [rsp+0x238]
    1daf:	00 
    1db0:	4c 8b ac 24 48 02 00 	mov    r13,QWORD PTR [rsp+0x248]
    1db7:	00 
    1db8:	48 89 c6             	mov    rsi,rax
    1dbb:	48 89 b4 24 38 02 00 	mov    QWORD PTR [rsp+0x238],rsi
    1dc2:	00 
    1dc3:	49 8b b4 24 98 00 00 	mov    rsi,QWORD PTR [r12+0x98]
    1dca:	00 
    1dcb:	49 8b 7d 08          	mov    rdi,QWORD PTR [r13+0x8]
    1dcf:	49 89 b4 24 98 00 00 	mov    QWORD PTR [r12+0x98],rsi
    1dd6:	00 
    1dd7:	48 89 5e e0          	mov    QWORD PTR [rsi-0x20],rbx
    1ddb:	4c 89 7e e8          	mov    QWORD PTR [rsi-0x18],r15
    1ddf:	b8 01 00 00 00       	mov    eax,0x1
    1de4:	48 89 46 f0          	mov    QWORD PTR [rsi-0x10],rax
    1de8:	b8 01 00 00 00       	mov    eax,0x1
    1ded:	48 89 46 f8          	mov    QWORD PTR [rsi-0x8],rax
    1df1:	48 31 f6             	xor    rsi,rsi
    1df4:	48 b8 00 00 00 00 00 	movabs rax,0x0
    1dfb:	00 00 00 
			1df6: R_X86_64_64	do_callback
    1dfe:	48 89 9c 24 40 02 00 	mov    QWORD PTR [rsp+0x240],rbx
    1e05:	00 
    1e06:	48 89 bc 24 48 02 00 	mov    QWORD PTR [rsp+0x248],rdi
    1e0d:	00 
    1e0e:	4c 89 ac 24 50 02 00 	mov    QWORD PTR [rsp+0x250],r13
    1e15:	00 
    1e16:	ff d0                	call   rax
    1e18:	48 8b 9c 24 40 02 00 	mov    rbx,QWORD PTR [rsp+0x240]
    1e1f:	00 
    1e20:	4c 8b ac 24 50 02 00 	mov    r13,QWORD PTR [rsp+0x250]
    1e27:	00 
    1e28:	48 89 c6             	mov    rsi,rax
    1e2b:	48 89 b4 24 40 02 00 	mov    QWORD PTR [rsp+0x240],rsi
    1e32:	00 
    1e33:	49 8b b4 24 98 00 00 	mov    rsi,QWORD PTR [r12+0x98]
    1e3a:	00 
    1e3b:	49 8b 7d 08          	mov    rdi,QWORD PTR [r13+0x8]
    1e3f:	49 89 b4 24 98 00 00 	mov    QWORD PTR [r12+0x98],rsi
    1e46:	00 
    1e47:	48 89 5e e0          	mov    QWORD PTR [rsi-0x20],rbx
    1e4b:	4c 89 7e e8          	mov    QWORD PTR [rsi-0x18],r15
    1e4f:	b8 01 00 00 00       	mov    eax,0x1
    1e54:	48 89 46 f0          	mov    QWORD PTR [rsi-0x10],rax
    1e58:	b8 01 00 00 00       	mov    eax,0x1
    1e5d:	48 89 46 f8          	mov    QWORD PTR [rsi-0x8],rax
    1e61:	48 31 f6             	xor    rsi,rsi
    1e64:	48 b8 00 00 00 00 00 	movabs rax,0x0
    1e6b:	00 00 00 
			1e66: R_X86_64_64	do_callback
    1e6e:	48 89 9c 24 48 02 00 	mov    QWORD PTR [rsp+0x248],rbx
    1e75:	00 
    1e76:	48 89 bc 24 50 02 00 	mov    QWORD PTR [rsp+0x250],rdi
    1e7d:	00 
    1e7e:	4c 89 ac 24 58 02 00 	mov    QWORD PTR [rsp+0x258],r13
    1e85:	00 
    1e86:	ff d0                	call   rax
    1e88:	48 8b 9c 24 48 02 00 	mov    rbx,QWORD PTR [rsp+0x248]
    1e8f:	00 
    1e90:	4c 8b ac 24 58 02 00 	mov    r13,QWORD PTR [rsp+0x258]
    1e97:	00 
    1e98:	48 89 c6             	mov    rsi,rax
    1e9b:	48 89 b4 24 48 02 00 	mov    QWORD PTR [rsp+0x248],rsi
    1ea2:	00 
    1ea3:	49 8b b4 24 98 00 00 	mov    rsi,QWORD PTR [r12+0x98]
    1eaa:	00 
    1eab:	49 8b 7d 08          	mov    rdi,QWORD PTR [r13+0x8]
    1eaf:	49 89 b4 24 98 00 00 	mov    QWORD PTR [r12+0x98],rsi
    1eb6:	00 
    1eb7:	48 89 5e e0          	mov    QWORD PTR [rsi-0x20],rbx
    1ebb:	4c 89 7e e8          	mov    QWORD PTR [rsi-0x18],r15
    1ebf:	b8 01 00 00 00       	mov    eax,0x1
    1ec4:	48 89 46 f0          	mov    QWORD PTR [rsi-0x10],rax
    1ec8:	b8 01 00 00 00       	mov    eax,0x1
    1ecd:	48 89 46 f8          	mov    QWORD PTR [rsi-0x8],rax
    1ed1:	48 31 f6             	xor    rsi,rsi
    1ed4:	48 b8 00 00 00 00 00 	movabs rax,0x0
    1edb:	00 00 00 
			1ed6: R_X86_64_64	do_callback
    1ede:	48 89 9c 24 50 02 00 	mov    QWORD PTR [rsp+0x250],rbx
    1ee5:	00 
    1ee6:	48 89 bc 24 58 02 00 	mov    QWORD PTR [rsp+0x258],rdi
    1eed:	00 
    1eee:	4c 89 ac 24 60 02 00 	mov    QWORD PTR [rsp+0x260],r13
    1ef5:	00 
    1ef6:	ff d0                	call   rax
    1ef8:	48 8b 9c 24 50 02 00 	mov    rbx,QWORD PTR [rsp+0x250]
    1eff:	00 
    1f00:	4c 8b ac 24 60 02 00 	mov    r13,QWORD PTR [rsp+0x260]
    1f07:	00 
    1f08:	48 89 c6             	mov    rsi,rax
    1f0b:	48 89 b4 24 50 02 00 	mov    QWORD PTR [rsp+0x250],rsi
    1f12:	00 
    1f13:	49 8b b4 24 98 00 00 	mov    rsi,QWORD PTR [r12+0x98]
    1f1a:	00 
    1f1b:	49 8b 7d 08          	mov    rdi,QWORD PTR [r13+0x8]
    1f1f:	49 89 b4 24 98 00 00 	mov    QWORD PTR [r12+0x98],rsi
    1f26:	00 
    1f27:	48 89 5e e0          	mov    QWORD PTR [rsi-0x20],rbx
    1f2b:	4c 89 7e e8          	mov    QWORD PTR [rsi-0x18],r15
    1f2f:	b8 01 00 00 00       	mov    eax,0x1
    1f34:	48 89 46 f0          	mov    QWORD PTR [rsi-0x10],rax
    1f38:	b8 01 00 00 00       	mov    eax,0x1
    1f3d:	48 89 46 f8          	mov    QWORD PTR [rsi-0x8],rax
    1f41:	48 31 f6             	xor    rsi,rsi
    1f44:	48 b8 00 00 00 00 00 	movabs rax,0x0
    1f4b:	00 00 00 
			1f46: R_X86_64_64	do_callback
    1f4e:	48 89 9c 24 58 02 00 	mov    QWORD PTR [rsp+0x258],rbx
    1f55:	00 
    1f56:	48 89 bc 24 60 02 00 	mov    QWORD PTR [rsp+0x260],rdi
    1f5d:	00 
    1f5e:	4c 89 ac 24 68 02 00 	mov    QWORD PTR [rsp+0x268],r13
    1f65:	00 
    1f66:	ff d0                	call   rax
    1f68:	48 8b 9c 24 58 02 00 	mov    rbx,QWORD PTR [rsp+0x258]
    1f6f:	00 
    1f70:	4c 8b ac 24 68 02 00 	mov    r13,QWORD PTR [rsp+0x268]
    1f77:	00 
    1f78:	48 89 c6             	mov    rsi,rax
    1f7b:	48 89 b4 24 58 02 00 	mov    QWORD PTR [rsp+0x258],rsi
    1f82:	00 
    1f83:	49 8b b4 24 98 00 00 	mov    rsi,QWORD PTR [r12+0x98]
    1f8a:	00 
    1f8b:	49 8b 7d 08          	mov    rdi,QWORD PTR [r13+0x8]
    1f8f:	49 89 b4 24 98 00 00 	mov    QWORD PTR [r12+0x98],rsi
    1f96:	00 
    1f97:	48 89 5e e0          	mov    QWORD PTR [rsi-0x20],rbx
    1f9b:	4c 89 7e e8          	mov    QWORD PTR [rsi-0x18],r15
    1f9f:	b8 01 00 00 00       	mov    eax,0x1
    1fa4:	48 89 46 f0          	mov    QWORD PTR [rsi-0x10],rax
    1fa8:	b8 01 00 00 00       	mov    eax,0x1
    1fad:	48 89 46 f8          	mov    QWORD PTR [rsi-0x8],rax
    1fb1:	48 31 f6             	xor    rsi,rsi
    1fb4:	48 b8 00 00 00 00 00 	movabs rax,0x0
    1fbb:	00 00 00 
			1fb6: R_X86_64_64	do_callback
    1fbe:	48 89 9c 24 60 02 00 	mov    QWORD PTR [rsp+0x260],rbx
    1fc5:	00 
    1fc6:	48 89 bc 24 68 02 00 	mov    QWORD PTR [rsp+0x268],rdi
    1fcd:	00 
    1fce:	4c 89 ac 24 70 02 00 	mov    QWORD PTR [rsp+0x270],r13
    1fd5:	00 
    1fd6:	ff d0                	call   rax
    1fd8:	48 8b 9c 24 60 02 00 	mov    rbx,QWORD PTR [rsp+0x260]
    1fdf:	00 
    1fe0:	4c 8b ac 24 70 02 00 	mov    r13,QWORD PTR [rsp+0x270]
    1fe7:	00 
    1fe8:	48 89 c6             	mov    rsi,rax
    1feb:	48 89 b4 24 60 02 00 	mov    QWORD PTR [rsp+0x260],rsi
    1ff2:	00 
    1ff3:	49 8b b4 24 98 00 00 	mov    rsi,QWORD PTR [r12+0x98]
    1ffa:	00 
    1ffb:	49 8b 7d 08          	mov    rdi,QWORD PTR [r13+0x8]
    1fff:	49 89 b4 24 98 00 00 	mov    QWORD PTR [r12+0x98],rsi
    2006:	00 
    2007:	48 89 5e e0          	mov    QWORD PTR [rsi-0x20],rbx
    200b:	4c 89 7e e8          	mov    QWORD PTR [rsi-0x18],r15
    200f:	b8 01 00 00 00       	mov    eax,0x1
    2014:	48 89 46 f0          	mov    QWORD PTR [rsi-0x10],rax
    2018:	b8 01 00 00 00       	mov    eax,0x1
    201d:	48 89 46 f8          	mov    QWORD PTR [rsi-0x8],rax
    2021:	48 31 f6             	xor    rsi,rsi
    2024:	48 b8 00 00 00 00 00 	movabs rax,0x0
    202b:	00 00 00 
			2026: R_X86_64_64	do_callback
    202e:	48 89 9c 24 68 02 00 	mov    QWORD PTR [rsp+0x268],rbx
    2035:	00 
    2036:	48 89 bc 24 70 02 00 	mov    QWORD PTR [rsp+0x270],rdi
    203d:	00 
    203e:	4c 89 ac 24 78 02 00 	mov    QWORD PTR [rsp+0x278],r13
    2045:	00 
    2046:	ff d0                	call   rax
    2048:	48 8b 9c 24 68 02 00 	mov    rbx,QWORD PTR [rsp+0x268]
    204f:	00 
    2050:	4c 8b ac 24 78 02 00 	mov    r13,QWORD PTR [rsp+0x278]
    2057:	00 
    2058:	48 89 c6             	mov    rsi,rax
    205b:	48 89 b4 24 68 02 00 	mov    QWORD PTR [rsp+0x268],rsi
    2062:	00 
    2063:	49 8b b4 24 98 00 00 	mov    rsi,QWORD PTR [r12+0x98]
    206a:	00 
    206b:	49 8b 7d 08          	mov    rdi,QWORD PTR [r13+0x8]
    206f:	49 89 b4 24 98 00 00 	mov    QWORD PTR [r12+0x98],rsi
    2076:	00 
    2077:	48 89 5e e0          	mov    QWORD PTR [rsi-0x20],rbx
    207b:	4c 89 7e e8          	mov    QWORD PTR [rsi-0x18],r15
    207f:	b8 01 00 00 00       	mov    eax,0x1
    2084:	48 89 46 f0          	mov    QWORD PTR [rsi-0x10],rax
    2088:	b8 01 00 00 00       	mov    eax,0x1
    208d:	48 89 46 f8          	mov    QWORD PTR [rsi-0x8],rax
    2091:	48 31 f6             	xor    rsi,rsi
    2094:	48 b8 00 00 00 00 00 	movabs rax,0x0
    209b:	00 00 00 
			2096: R_X86_64_64	do_callback
    209e:	48 89 9c 24 70 02 00 	mov    QWORD PTR [rsp+0x270],rbx
    20a5:	00 
    20a6:	48 89 bc 24 78 02 00 	mov    QWORD PTR [rsp+0x278],rdi
    20ad:	00 
    20ae:	4c 89 ac 24 80 02 00 	mov    QWORD PTR [rsp+0x280],r13
    20b5:	00 
    20b6:	ff d0                	call   rax
    20b8:	48 8b 9c 24 70 02 00 	mov    rbx,QWORD PTR [rsp+0x270]
    20bf:	00 
    20c0:	4c 8b ac 24 80 02 00 	mov    r13,QWORD PTR [rsp+0x280]
    20c7:	00 
    20c8:	48 89 c6             	mov    rsi,rax
    20cb:	48 89 b4 24 70 02 00 	mov    QWORD PTR [rsp+0x270],rsi
    20d2:	00 
    20d3:	49 8b b4 24 98 00 00 	mov    rsi,QWORD PTR [r12+0x98]
    20da:	00 
    20db:	49 8b 7d 08          	mov    rdi,QWORD PTR [r13+0x8]
    20df:	49 89 b4 24 98 00 00 	mov    QWORD PTR [r12+0x98],rsi
    20e6:	00 
    20e7:	48 89 5e e0          	mov    QWORD PTR [rsi-0x20],rbx
    20eb:	4c 89 7e e8          	mov    QWORD PTR [rsi-0x18],r15
    20ef:	b8 01 00 00 00       	mov    eax,0x1
    20f4:	48 89 46 f0          	mov    QWORD PTR [rsi-0x10],rax
    20f8:	b8 01 00 00 00       	mov    eax,0x1
    20fd:	48 89 46 f8          	mov    QWORD PTR [rsi-0x8],rax
    2101:	48 31 f6             	xor    rsi,rsi
    2104:	48 b8 00 00 00 00 00 	movabs rax,0x0
    210b:	00 00 00 
			2106: R_X86_64_64	do_callback
    210e:	48 89 9c 24 78 02 00 	mov    QWORD PTR [rsp+0x278],rbx
    2115:	00 
    2116:	48 89 bc 24 80 02 00 	mov    QWORD PTR [rsp+0x280],rdi
    211d:	00 
    211e:	4c 89 ac 24 88 02 00 	mov    QWORD PTR [rsp+0x288],r13
    2125:	00 
    2126:	ff d0                	call   rax
    2128:	48 8b 9c 24 78 02 00 	mov    rbx,QWORD PTR [rsp+0x278]
    212f:	00 
    2130:	4c 8b ac 24 88 02 00 	mov    r13,QWORD PTR [rsp+0x288]
    2137:	00 
    2138:	48 89 c6             	mov    rsi,rax
    213b:	48 89 b4 24 78 02 00 	mov    QWORD PTR [rsp+0x278],rsi
    2142:	00 
    2143:	49 8b b4 24 98 00 00 	mov    rsi,QWORD PTR [r12+0x98]
    214a:	00 
    214b:	49 8b 7d 08          	mov    rdi,QWORD PTR [r13+0x8]
    214f:	49 89 b4 24 98 00 00 	mov    QWORD PTR [r12+0x98],rsi
    2156:	00 
    2157:	48 89 5e e0          	mov    QWORD PTR [rsi-0x20],rbx
    215b:	4c 89 7e e8          	mov    QWORD PTR [rsi-0x18],r15
    215f:	b8 01 00 00 00       	mov    eax,0x1
    2164:	48 89 46 f0          	mov    QWORD PTR [rsi-0x10],rax
    2168:	b8 01 00 00 00       	mov    eax,0x1
    216d:	48 89 46 f8          	mov    QWORD PTR [rsi-0x8],rax
    2171:	48 31 f6             	xor    rsi,rsi
    2174:	48 b8 00 00 00 00 00 	movabs rax,0x0
    217b:	00 00 00 
			2176: R_X86_64_64	do_callback
    217e:	48 89 9c 24 80 02 00 	mov    QWORD PTR [rsp+0x280],rbx
    2185:	00 
    2186:	48 89 bc 24 88 02 00 	mov    QWORD PTR [rsp+0x288],rdi
    218d:	00 
    218e:	4c 89 ac 24 90 02 00 	mov    QWORD PTR [rsp+0x290],r13
    2195:	00 
    2196:	ff d0                	call   rax
    2198:	48 8b 9c 24 80 02 00 	mov    rbx,QWORD PTR [rsp+0x280]
    219f:	00 
    21a0:	4c 8b ac 24 90 02 00 	mov    r13,QWORD PTR [rsp+0x290]
    21a7:	00 
    21a8:	48 89 c6             	mov    rsi,rax
    21ab:	48 89 b4 24 80 02 00 	mov    QWORD PTR [rsp+0x280],rsi
    21b2:	00 
    21b3:	49 8b b4 24 98 00 00 	mov    rsi,QWORD PTR [r12+0x98]
    21ba:	00 
    21bb:	49 8b 7d 08          	mov    rdi,QWORD PTR [r13+0x8]
    21bf:	49 89 b4 24 98 00 00 	mov    QWORD PTR [r12+0x98],rsi
    21c6:	00 
    21c7:	48 89 5e e0          	mov    QWORD PTR [rsi-0x20],rbx
    21cb:	4c 89 7e e8          	mov    QWORD PTR [rsi-0x18],r15
    21cf:	b8 01 00 00 00       	mov    eax,0x1
    21d4:	48 89 46 f0          	mov    QWORD PTR [rsi-0x10],rax
    21d8:	b8 01 00 00 00       	mov    eax,0x1
    21dd:	48 89 46 f8          	mov    QWORD PTR [rsi-0x8],rax
    21e1:	48 31 f6             	xor    rsi,rsi
    21e4:	48 b8 00 00 00 00 00 	movabs rax,0x0
    21eb:	00 00 00 
			21e6: R_X86_64_64	do_callback
    21ee:	48 89 9c 24 88 02 00 	mov    QWORD PTR [rsp+0x288],rbx
    21f5:	00 
    21f6:	48 89 bc 24 90 02 00 	mov    QWORD PTR [rsp+0x290],rdi
    21fd:	00 
    21fe:	4c 89 ac 24 98 02 00 	mov    QWORD PTR [rsp+0x298],r13
    2205:	00 
    2206:	ff d0                	call   rax
    2208:	48 8b 9c 24 88 02 00 	mov    rbx,QWORD PTR [rsp+0x288]
    220f:	00 
    2210:	4c 8b ac 24 98 02 00 	mov    r13,QWORD PTR [rsp+0x298]
    2217:	00 
    2218:	48 89 c6             	mov    rsi,rax
    221b:	48 89 b4 24 88 02 00 	mov    QWORD PTR [rsp+0x288],rsi
    2222:	00 
    2223:	49 8b b4 24 98 00 00 	mov    rsi,QWORD PTR [r12+0x98]
    222a:	00 
    222b:	49 8b 7d 08          	mov    rdi,QWORD PTR [r13+0x8]
    222f:	49 89 b4 24 98 00 00 	mov    QWORD PTR [r12+0x98],rsi
    2236:	00 
    2237:	48 89 5e e0          	mov    QWORD PTR [rsi-0x20],rbx
    223b:	4c 89 7e e8          	mov    QWORD PTR [rsi-0x18],r15
    223f:	b8 01 00 00 00       	mov    eax,0x1
    2244:	48 89 46 f0          	mov    QWORD PTR [rsi-0x10],rax
    2248:	b8 01 00 00 00       	mov    eax,0x1
    224d:	48 89 46 f8          	mov    QWORD PTR [rsi-0x8],rax
    2251:	48 31 f6             	xor    rsi,rsi
    2254:	48 b8 00 00 00 00 00 	movabs rax,0x0
    225b:	00 00 00 
			2256: R_X86_64_64	do_callback
    225e:	48 89 9c 24 90 02 00 	mov    QWORD PTR [rsp+0x290],rbx
    2265:	00 
    2266:	48 89 bc 24 98 02 00 	mov    QWORD PTR [rsp+0x298],rdi
    226d:	00 
    226e:	4c 89 ac 24 a0 02 00 	mov    QWORD PTR [rsp+0x2a0],r13
    2275:	00 
    2276:	ff d0                	call   rax
    2278:	48 8b 9c 24 90 02 00 	mov    rbx,QWORD PTR [rsp+0x290]
    227f:	00 
    2280:	4c 8b ac 24 a0 02 00 	mov    r13,QWORD PTR [rsp+0x2a0]
    2287:	00 
    2288:	48 89 c6             	mov    rsi,rax
    228b:	48 89 b4 24 90 02 00 	mov    QWORD PTR [rsp+0x290],rsi
    2292:	00 
    2293:	49 8b b4 24 98 00 00 	mov    rsi,QWORD PTR [r12+0x98]
    229a:	00 
    229b:	49 8b 7d 08          	mov    rdi,QWORD PTR [r13+0x8]
    229f:	49 89 b4 24 98 00 00 	mov    QWORD PTR [r12+0x98],rsi
    22a6:	00 
    22a7:	48 89 5e e0          	mov    QWORD PTR [rsi-0x20],rbx
    22ab:	4c 89 7e e8          	mov    QWORD PTR [rsi-0x18],r15
    22af:	b8 01 00 00 00       	mov    eax,0x1
    22b4:	48 89 46 f0          	mov    QWORD PTR [rsi-0x10],rax
    22b8:	b8 01 00 00 00       	mov    eax,0x1
    22bd:	48 89 46 f8          	mov    QWORD PTR [rsi-0x8],rax
    22c1:	48 31 f6             	xor    rsi,rsi
    22c4:	48 b8 00 00 00 00 00 	movabs rax,0x0
    22cb:	00 00 00 
			22c6: R_X86_64_64	do_callback
    22ce:	48 89 9c 24 98 02 00 	mov    QWORD PTR [rsp+0x298],rbx
    22d5:	00 
    22d6:	48 89 bc 24 a0 02 00 	mov    QWORD PTR [rsp+0x2a0],rdi
    22dd:	00 
    22de:	4c 89 ac 24 a8 02 00 	mov    QWORD PTR [rsp+0x2a8],r13
    22e5:	00 
    22e6:	ff d0                	call   rax
    22e8:	48 8b 9c 24 98 02 00 	mov    rbx,QWORD PTR [rsp+0x298]
    22ef:	00 
    22f0:	4c 8b ac 24 a8 02 00 	mov    r13,QWORD PTR [rsp+0x2a8]
    22f7:	00 
    22f8:	48 89 c6             	mov    rsi,rax
    22fb:	48 89 b4 24 98 02 00 	mov    QWORD PTR [rsp+0x298],rsi
    2302:	00 
    2303:	49 8b b4 24 98 00 00 	mov    rsi,QWORD PTR [r12+0x98]
    230a:	00 
    230b:	49 8b 7d 08          	mov    rdi,QWORD PTR [r13+0x8]
    230f:	49 89 b4 24 98 00 00 	mov    QWORD PTR [r12+0x98],rsi
    2316:	00 
    2317:	48 89 5e e0          	mov    QWORD PTR [rsi-0x20],rbx
    231b:	4c 89 7e e8          	mov    QWORD PTR [rsi-0x18],r15
    231f:	b8 01 00 00 00       	mov    eax,0x1
    2324:	48 89 46 f0          	mov    QWORD PTR [rsi-0x10],rax
    2328:	b8 01 00 00 00       	mov    eax,0x1
    232d:	48 89 46 f8          	mov    QWORD PTR [rsi-0x8],rax
    2331:	48 31 f6             	xor    rsi,rsi
    2334:	48 b8 00 00 00 00 00 	movabs rax,0x0
    233b:	00 00 00 
			2336: R_X86_64_64	do_callback
    233e:	48 89 9c 24 a0 02 00 	mov    QWORD PTR [rsp+0x2a0],rbx
    2345:	00 
    2346:	48 89 bc 24 a8 02 00 	mov    QWORD PTR [rsp+0x2a8],rdi
    234d:	00 
    234e:	4c 89 ac 24 b0 02 00 	mov    QWORD PTR [rsp+0x2b0],r13
    2355:	00 
    2356:	ff d0                	call   rax
    2358:	48 8b 9c 24 a0 02 00 	mov    rbx,QWORD PTR [rsp+0x2a0]
    235f:	00 
    2360:	4c 8b ac 24 b0 02 00 	mov    r13,QWORD PTR [rsp+0x2b0]
    2367:	00 
    2368:	48 89 c6             	mov    rsi,rax
    236b:	48 89 b4 24 a0 02 00 	mov    QWORD PTR [rsp+0x2a0],rsi
    2372:	00 
    2373:	49 8b b4 24 98 00 00 	mov    rsi,QWORD PTR [r12+0x98]
    237a:	00 
    237b:	49 8b 7d 08          	mov    rdi,QWORD PTR [r13+0x8]
    237f:	49 89 b4 24 98 00 00 	mov    QWORD PTR [r12+0x98],rsi
    2386:	00 
    2387:	48 89 5e e0          	mov    QWORD PTR [rsi-0x20],rbx
    238b:	4c 89 7e e8          	mov    QWORD PTR [rsi-0x18],r15
    238f:	b8 01 00 00 00       	mov    eax,0x1
    2394:	48 89 46 f0          	mov    QWORD PTR [rsi-0x10],rax
    2398:	b8 01 00 00 00       	mov    eax,0x1
    239d:	48 89 46 f8          	mov    QWORD PTR [rsi-0x8],rax
    23a1:	48 31 f6             	xor    rsi,rsi
    23a4:	48 b8 00 00 00 00 00 	movabs rax,0x0
    23ab:	00 00 00 
			23a6: R_X86_64_64	do_callback
    23ae:	48 89 9c 24 a8 02 00 	mov    QWORD PTR [rsp+0x2a8],rbx
    23b5:	00 
    23b6:	48 89 bc 24 b0 02 00 	mov    QWORD PTR [rsp+0x2b0],rdi
    23bd:	00 
    23be:	4c 89 ac 24 b8 02 00 	mov    QWORD PTR [rsp+0x2b8],r13
    23c5:	00 
    23c6:	ff d0                	call   rax
    23c8:	48 8b 9c 24 a8 02 00 	mov    rbx,QWORD PTR [rsp+0x2a8]
    23cf:	00 
    23d0:	4c 8b ac 24 b8 02 00 	mov    r13,QWORD PTR [rsp+0x2b8]
    23d7:	00 
    23d8:	48 89 c6             	mov    rsi,rax
    23db:	48 89 b4 24 a8 02 00 	mov    QWORD PTR [rsp+0x2a8],rsi
    23e2:	00 
    23e3:	49 8b b4 24 98 00 00 	mov    rsi,QWORD PTR [r12+0x98]
    23ea:	00 
    23eb:	49 8b 7d 08          	mov    rdi,QWORD PTR [r13+0x8]
    23ef:	49 89 b4 24 98 00 00 	mov    QWORD PTR [r12+0x98],rsi
    23f6:	00 
    23f7:	48 89 5e e0          	mov    QWORD PTR [rsi-0x20],rbx
    23fb:	4c 89 7e e8          	mov    QWORD PTR [rsi-0x18],r15
    23ff:	b8 01 00 00 00       	mov    eax,0x1
    2404:	48 89 46 f0          	mov    QWORD PTR [rsi-0x10],rax
    2408:	b8 01 00 00 00       	mov    eax,0x1
    240d:	48 89 46 f8          	mov    QWORD PTR [rsi-0x8],rax
    2411:	48 31 f6             	xor    rsi,rsi
    2414:	48 b8 00 00 00 00 00 	movabs rax,0x0
    241b:	00 00 00 
			2416: R_X86_64_64	do_callback
    241e:	48 89 9c 24 b0 02 00 	mov    QWORD PTR [rsp+0x2b0],rbx
    2425:	00 
    2426:	48 89 bc 24 b8 02 00 	mov    QWORD PTR [rsp+0x2b8],rdi
    242d:	00 
    242e:	4c 89 ac 24 c0 02 00 	mov    QWORD PTR [rsp+0x2c0],r13
    2435:	00 
    2436:	ff d0                	call   rax
    2438:	48 8b 9c 24 b0 02 00 	mov    rbx,QWORD PTR [rsp+0x2b0]
    243f:	00 
    2440:	4c 8b ac 24 c0 02 00 	mov    r13,QWORD PTR [rsp+0x2c0]
    2447:	00 
    2448:	48 89 c6             	mov    rsi,rax
    244b:	48 89 b4 24 b0 02 00 	mov    QWORD PTR [rsp+0x2b0],rsi
    2452:	00 
    2453:	49 8b b4 24 98 00 00 	mov    rsi,QWORD PTR [r12+0x98]
    245a:	00 
    245b:	49 8b 7d 08          	mov    rdi,QWORD PTR [r13+0x8]
    245f:	49 89 b4 24 98 00 00 	mov    QWORD PTR [r12+0x98],rsi
    2466:	00 
    2467:	48 89 5e e0          	mov    QWORD PTR [rsi-0x20],rbx
    246b:	4c 89 7e e8          	mov    QWORD PTR [rsi-0x18],r15
    246f:	b8 01 00 00 00       	mov    eax,0x1
    2474:	48 89 46 f0          	mov    QWORD PTR [rsi-0x10],rax
    2478:	b8 01 00 00 00       	mov    eax,0x1
    247d:	48 89 46 f8          	mov    QWORD PTR [rsi-0x8],rax
    2481:	48 31 f6             	xor    rsi,rsi
    2484:	48 b8 00 00 00 00 00 	movabs rax,0x0
    248b:	00 00 00 
			2486: R_X86_64_64	do_callback
    248e:	48 89 9c 24 b8 02 00 	mov    QWORD PTR [rsp+0x2b8],rbx
    2495:	00 
    2496:	48 89 bc 24 c0 02 00 	mov    QWORD PTR [rsp+0x2c0],rdi
    249d:	00 
    249e:	4c 89 ac 24 c8 02 00 	mov    QWORD PTR [rsp+0x2c8],r13
    24a5:	00 
    24a6:	ff d0                	call   rax
    24a8:	48 8b 9c 24 b8 02 00 	mov    rbx,QWORD PTR [rsp+0x2b8]
    24af:	00 
    24b0:	4c 8b ac 24 c8 02 00 	mov    r13,QWORD PTR [rsp+0x2c8]
    24b7:	00 
    24b8:	48 89 c6             	mov    rsi,rax
    24bb:	48 89 b4 24 b8 02 00 	mov    QWORD PTR [rsp+0x2b8],rsi
    24c2:	00 
    24c3:	49 8b b4 24 98 00 00 	mov    rsi,QWORD PTR [r12+0x98]
    24ca:	00 
    24cb:	49 8b 7d 08          	mov    rdi,QWORD PTR [r13+0x8]
    24cf:	49 89 b4 24 98 00 00 	mov    QWORD PTR [r12+0x98],rsi
    24d6:	00 
    24d7:	48 89 5e e0          	mov    QWORD PTR [rsi-0x20],rbx
    24db:	4c 89 7e e8          	mov    QWORD PTR [rsi-0x18],r15
    24df:	b8 01 00 00 00       	mov    eax,0x1
    24e4:	48 89 46 f0          	mov    QWORD PTR [rsi-0x10],rax
    24e8:	b8 01 00 00 00       	mov    eax,0x1
    24ed:	48 89 46 f8          	mov    QWORD PTR [rsi-0x8],rax
    24f1:	48 31 f6             	xor    rsi,rsi
    24f4:	48 b8 00 00 00 00 00 	movabs rax,0x0
    24fb:	00 00 00 
			24f6: R_X86_64_64	do_callback
    24fe:	48 89 9c 24 c0 02 00 	mov    QWORD PTR [rsp+0x2c0],rbx
    2505:	00 
    2506:	48 89 bc 24 c8 02 00 	mov    QWORD PTR [rsp+0x2c8],rdi
    250d:	00 
    250e:	4c 89 ac 24 d0 02 00 	mov    QWORD PTR [rsp+0x2d0],r13
    2515:	00 
    2516:	ff d0                	call   rax
    2518:	48 8b 9c 24 c0 02 00 	mov    rbx,QWORD PTR [rsp+0x2c0]
    251f:	00 
    2520:	4c 8b ac 24 d0 02 00 	mov    r13,QWORD PTR [rsp+0x2d0]
    2527:	00 
    2528:	48 89 c6             	mov    rsi,rax
    252b:	48 89 b4 24 c0 02 00 	mov    QWORD PTR [rsp+0x2c0],rsi
    2532:	00 
    2533:	49 8b b4 24 98 00 00 	mov    rsi,QWORD PTR [r12+0x98]
    253a:	00 
    253b:	49 8b 7d 08          	mov    rdi,QWORD PTR [r13+0x8]
    253f:	49 89 b4 24 98 00 00 	mov    QWORD PTR [r12+0x98],rsi
    2546:	00 
    2547:	48 89 5e e0          	mov    QWORD PTR [rsi-0x20],rbx
    254b:	4c 89 7e e8          	mov    QWORD PTR [rsi-0x18],r15
    254f:	b8 01 00 00 00       	mov    eax,0x1
    2554:	48 89 46 f0          	mov    QWORD PTR [rsi-0x10],rax
    2558:	b8 01 00 00 00       	mov    eax,0x1
    255d:	48 89 46 f8          	mov    QWORD PTR [rsi-0x8],rax
    2561:	48 31 f6             	xor    rsi,rsi
    2564:	48 b8 00 00 00 00 00 	movabs rax,0x0
    256b:	00 00 00 
			2566: R_X86_64_64	do_callback
    256e:	48 89 9c 24 c8 02 00 	mov    QWORD PTR [rsp+0x2c8],rbx
    2575:	00 
    2576:	48 89 bc 24 d0 02 00 	mov    QWORD PTR [rsp+0x2d0],rdi
    257d:	00 
    257e:	4c 89 ac 24 d8 02 00 	mov    QWORD PTR [rsp+0x2d8],r13
    2585:	00 
    2586:	ff d0                	call   rax
    2588:	48 8b 9c 24 c8 02 00 	mov    rbx,QWORD PTR [rsp+0x2c8]
    258f:	00 
    2590:	4c 8b ac 24 d8 02 00 	mov    r13,QWORD PTR [rsp+0x2d8]
    2597:	00 
    2598:	48 89 c6             	mov    rsi,rax
    259b:	48 89 b4 24 c8 02 00 	mov    QWORD PTR [rsp+0x2c8],rsi
    25a2:	00 
    25a3:	49 8b b4 24 98 00 00 	mov    rsi,QWORD PTR [r12+0x98]
    25aa:	00 
    25ab:	49 8b 7d 08          	mov    rdi,QWORD PTR [r13+0x8]
    25af:	49 89 b4 24 98 00 00 	mov    QWORD PTR [r12+0x98],rsi
    25b6:	00 
    25b7:	48 89 5e e0          	mov    QWORD PTR [rsi-0x20],rbx
    25bb:	4c 89 7e e8          	mov    QWORD PTR [rsi-0x18],r15
    25bf:	b8 01 00 00 00       	mov    eax,0x1
    25c4:	48 89 46 f0          	mov    QWORD PTR [rsi-0x10],rax
    25c8:	b8 01 00 00 00       	mov    eax,0x1
    25cd:	48 89 46 f8          	mov    QWORD PTR [rsi-0x8],rax
    25d1:	48 31 f6             	xor    rsi,rsi
    25d4:	48 b8 00 00 00 00 00 	movabs rax,0x0
    25db:	00 00 00 
			25d6: R_X86_64_64	do_callback
    25de:	48 89 9c 24 d0 02 00 	mov    QWORD PTR [rsp+0x2d0],rbx
    25e5:	00 
    25e6:	48 89 bc 24 d8 02 00 	mov    QWORD PTR [rsp+0x2d8],rdi
    25ed:	00 
    25ee:	4c 89 ac 24 e0 02 00 	mov    QWORD PTR [rsp+0x2e0],r13
    25f5:	00 
    25f6:	ff d0                	call   rax
    25f8:	48 8b 9c 24 d0 02 00 	mov    rbx,QWORD PTR [rsp+0x2d0]
    25ff:	00 
    2600:	4c 8b ac 24 e0 02 00 	mov    r13,QWORD PTR [rsp+0x2e0]
    2607:	00 
    2608:	48 89 c6             	mov    rsi,rax
    260b:	48 89 b4 24 d0 02 00 	mov    QWORD PTR [rsp+0x2d0],rsi
    2612:	00 
    2613:	49 8b b4 24 98 00 00 	mov    rsi,QWORD PTR [r12+0x98]
    261a:	00 
    261b:	49 8b 7d 08          	mov    rdi,QWORD PTR [r13+0x8]
    261f:	49 89 b4 24 98 00 00 	mov    QWORD PTR [r12+0x98],rsi
    2626:	00 
    2627:	48 89 5e e0          	mov    QWORD PTR [rsi-0x20],rbx
    262b:	4c 89 7e e8          	mov    QWORD PTR [rsi-0x18],r15
    262f:	b8 01 00 00 00       	mov    eax,0x1
    2634:	48 89 46 f0          	mov    QWORD PTR [rsi-0x10],rax
    2638:	b8 01 00 00 00       	mov    eax,0x1
    263d:	48 89 46 f8          	mov    QWORD PTR [rsi-0x8],rax
    2641:	48 31 f6             	xor    rsi,rsi
    2644:	48 b8 00 00 00 00 00 	movabs rax,0x0
    264b:	00 00 00 
			2646: R_X86_64_64	do_callback
    264e:	48 89 9c 24 d8 02 00 	mov    QWORD PTR [rsp+0x2d8],rbx
    2655:	00 
    2656:	48 89 bc 24 e0 02 00 	mov    QWORD PTR [rsp+0x2e0],rdi
    265d:	00 
    265e:	4c 89 ac 24 e8 02 00 	mov    QWORD PTR [rsp+0x2e8],r13
    2665:	00 
    2666:	ff d0                	call   rax
    2668:	48 8b 9c 24 d8 02 00 	mov    rbx,QWORD PTR [rsp+0x2d8]
    266f:	00 
    2670:	4c 8b ac 24 e8 02 00 	mov    r13,QWORD PTR [rsp+0x2e8]
    2677:	00 
    2678:	48 89 c6             	mov    rsi,rax
    267b:	48 89 b4 24 d8 02 00 	mov    QWORD PTR [rsp+0x2d8],rsi
    2682:	00 
    2683:	49 8b b4 24 98 00 00 	mov    rsi,QWORD PTR [r12+0x98]
    268a:	00 
    268b:	49 8b 7d 08          	mov    rdi,QWORD PTR [r13+0x8]
    268f:	49 89 b4 24 98 00 00 	mov    QWORD PTR [r12+0x98],rsi
    2696:	00 
    2697:	48 89 5e e0          	mov    QWORD PTR [rsi-0x20],rbx
    269b:	4c 89 7e e8          	mov    QWORD PTR [rsi-0x18],r15
    269f:	b8 01 00 00 00       	mov    eax,0x1
    26a4:	48 89 46 f0          	mov    QWORD PTR [rsi-0x10],rax
    26a8:	b8 01 00 00 00       	mov    eax,0x1
    26ad:	48 89 46 f8          	mov    QWORD PTR [rsi-0x8],rax
    26b1:	48 31 f6             	xor    rsi,rsi
    26b4:	48 b8 00 00 00 00 00 	movabs rax,0x0
    26bb:	00 00 00 
			26b6: R_X86_64_64	do_callback
    26be:	48 89 9c 24 e0 02 00 	mov    QWORD PTR [rsp+0x2e0],rbx
    26c5:	00 
    26c6:	48 89 bc 24 e8 02 00 	mov    QWORD PTR [rsp+0x2e8],rdi
    26cd:	00 
    26ce:	4c 89 ac 24 f0 02 00 	mov    QWORD PTR [rsp+0x2f0],r13
    26d5:	00 
    26d6:	ff d0                	call   rax
    26d8:	48 8b 9c 24 e0 02 00 	mov    rbx,QWORD PTR [rsp+0x2e0]
    26df:	00 
    26e0:	4c 8b ac 24 f0 02 00 	mov    r13,QWORD PTR [rsp+0x2f0]
    26e7:	00 
    26e8:	48 89 c6             	mov    rsi,rax
    26eb:	48 89 b4 24 e0 02 00 	mov    QWORD PTR [rsp+0x2e0],rsi
    26f2:	00 
    26f3:	49 8b b4 24 98 00 00 	mov    rsi,QWORD PTR [r12+0x98]
    26fa:	00 
    26fb:	49 8b 7d 08          	mov    rdi,QWORD PTR [r13+0x8]
    26ff:	49 89 b4 24 98 00 00 	mov    QWORD PTR [r12+0x98],rsi
    2706:	00 
    2707:	48 89 5e e0          	mov    QWORD PTR [rsi-0x20],rbx
    270b:	4c 89 7e e8          	mov    QWORD PTR [rsi-0x18],r15
    270f:	b8 01 00 00 00       	mov    eax,0x1
    2714:	48 89 46 f0          	mov    QWORD PTR [rsi-0x10],rax
    2718:	b8 01 00 00 00       	mov    eax,0x1
    271d:	48 89 46 f8          	mov    QWORD PTR [rsi-0x8],rax
    2721:	48 31 f6             	xor    rsi,rsi
    2724:	48 b8 00 00 00 00 00 	movabs rax,0x0
    272b:	00 00 00 
			2726: R_X86_64_64	do_callback
    272e:	48 89 9c 24 e8 02 00 	mov    QWORD PTR [rsp+0x2e8],rbx
    2735:	00 
    2736:	48 89 bc 24 f0 02 00 	mov    QWORD PTR [rsp+0x2f0],rdi
    273d:	00 
    273e:	4c 89 ac 24 f8 02 00 	mov    QWORD PTR [rsp+0x2f8],r13
    2745:	00 
    2746:	ff d0                	call   rax
    2748:	48 8b 9c 24 e8 02 00 	mov    rbx,QWORD PTR [rsp+0x2e8]
    274f:	00 
    2750:	4c 8b ac 24 f8 02 00 	mov    r13,QWORD PTR [rsp+0x2f8]
    2757:	00 
    2758:	48 89 c6             	mov    rsi,rax
    275b:	48 89 b4 24 e8 02 00 	mov    QWORD PTR [rsp+0x2e8],rsi
    2762:	00 
    2763:	49 8b b4 24 98 00 00 	mov    rsi,QWORD PTR [r12+0x98]
    276a:	00 
    276b:	49 8b 7d 08          	mov    rdi,QWORD PTR [r13+0x8]
    276f:	49 89 b4 24 98 00 00 	mov    QWORD PTR [r12+0x98],rsi
    2776:	00 
    2777:	48 89 5e e0          	mov    QWORD PTR [rsi-0x20],rbx
    277b:	4c 89 7e e8          	mov    QWORD PTR [rsi-0x18],r15
    277f:	b8 01 00 00 00       	mov    eax,0x1
    2784:	48 89 46 f0          	mov    QWORD PTR [rsi-0x10],rax
    2788:	b8 01 00 00 00       	mov    eax,0x1
    278d:	48 89 46 f8          	mov    QWORD PTR [rsi-0x8],rax
    2791:	48 31 f6             	xor    rsi,rsi
    2794:	48 b8 00 00 00 00 00 	movabs rax,0x0
    279b:	00 00 00 
			2796: R_X86_64_64	do_callback
    279e:	48 89 9c 24 f0 02 00 	mov    QWORD PTR [rsp+0x2f0],rbx
    27a5:	00 
    27a6:	48 89 bc 24 f8 02 00 	mov    QWORD PTR [rsp+0x2f8],rdi
    27ad:	00 
    27ae:	4c 89 ac 24 00 03 00 	mov    QWORD PTR [rsp+0x300],r13
    27b5:	00 
    27b6:	ff d0                	call   rax
    27b8:	48 8b 9c 24 f0 02 00 	mov    rbx,QWORD PTR [rsp+0x2f0]
    27bf:	00 
    27c0:	4c 8b ac 24 00 03 00 	mov    r13,QWORD PTR [rsp+0x300]
    27c7:	00 
    27c8:	48 89 c6             	mov    rsi,rax
    27cb:	48 89 b4 24 f0 02 00 	mov    QWORD PTR [rsp+0x2f0],rsi
    27d2:	00 
    27d3:	49 8b b4 24 98 00 00 	mov    rsi,QWORD PTR [r12+0x98]
    27da:	00 
    27db:	49 8b 7d 08          	mov    rdi,QWORD PTR [r13+0x8]
    27df:	49 89 b4 24 98 00 00 	mov    QWORD PTR [r12+0x98],rsi
    27e6:	00 
    27e7:	48 89 5e e0          	mov    QWORD PTR [rsi-0x20],rbx
    27eb:	4c 89 7e e8          	mov    QWORD PTR [rsi-0x18],r15
    27ef:	b8 01 00 00 00       	mov    eax,0x1
    27f4:	48 89 46 f0          	mov    QWORD PTR [rsi-0x10],rax
    27f8:	b8 01 00 00 00       	mov    eax,0x1
    27fd:	48 89 46 f8          	mov    QWORD PTR [rsi-0x8],rax
    2801:	48 31 f6             	xor    rsi,rsi
    2804:	48 b8 00 00 00 00 00 	movabs rax,0x0
    280b:	00 00 00 
			2806: R_X86_64_64	do_callback
    280e:	48 89 9c 24 f8 02 00 	mov    QWORD PTR [rsp+0x2f8],rbx
    2815:	00 
    2816:	48 89 bc 24 00 03 00 	mov    QWORD PTR [rsp+0x300],rdi
    281d:	00 
    281e:	4c 89 ac 24 08 03 00 	mov    QWORD PTR [rsp+0x308],r13
    2825:	00 
    2826:	ff d0                	call   rax
    2828:	48 8b 9c 24 f8 02 00 	mov    rbx,QWORD PTR [rsp+0x2f8]
    282f:	00 
    2830:	4c 8b ac 24 08 03 00 	mov    r13,QWORD PTR [rsp+0x308]
    2837:	00 
    2838:	48 89 c6             	mov    rsi,rax
    283b:	48 89 b4 24 f8 02 00 	mov    QWORD PTR [rsp+0x2f8],rsi
    2842:	00 
    2843:	49 8b b4 24 98 00 00 	mov    rsi,QWORD PTR [r12+0x98]
    284a:	00 
    284b:	49 8b 7d 08          	mov    rdi,QWORD PTR [r13+0x8]
    284f:	49 89 b4 24 98 00 00 	mov    QWORD PTR [r12+0x98],rsi
    2856:	00 
    2857:	48 89 5e e0          	mov    QWORD PTR [rsi-0x20],rbx
    285b:	4c 89 7e e8          	mov    QWORD PTR [rsi-0x18],r15
    285f:	b8 01 00 00 00       	mov    eax,0x1
    2864:	48 89 46 f0          	mov    QWORD PTR [rsi-0x10],rax
    2868:	b8 01 00 00 00       	mov    eax,0x1
    286d:	48 89 46 f8          	mov    QWORD PTR [rsi-0x8],rax
    2871:	48 31 f6             	xor    rsi,rsi
    2874:	48 b8 00 00 00 00 00 	movabs rax,0x0
    287b:	00 00 00 
			2876: R_X86_64_64	do_callback
    287e:	48 89 9c 24 00 03 00 	mov    QWORD PTR [rsp+0x300],rbx
    2885:	00 
    2886:	48 89 bc 24 08 03 00 	mov    QWORD PTR [rsp+0x308],rdi
    288d:	00 
    288e:	4c 89 ac 24 10 03 00 	mov    QWORD PTR [rsp+0x310],r13
    2895:	00 
    2896:	ff d0                	call   rax
    2898:	48 8b 9c 24 00 03 00 	mov    rbx,QWORD PTR [rsp+0x300]
    289f:	00 
    28a0:	4c 8b ac 24 10 03 00 	mov    r13,QWORD PTR [rsp+0x310]
    28a7:	00 
    28a8:	48 89 c6             	mov    rsi,rax
    28ab:	48 89 b4 24 00 03 00 	mov    QWORD PTR [rsp+0x300],rsi
    28b2:	00 
    28b3:	49 8b b4 24 98 00 00 	mov    rsi,QWORD PTR [r12+0x98]
    28ba:	00 
    28bb:	49 8b 7d 08          	mov    rdi,QWORD PTR [r13+0x8]
    28bf:	49 89 b4 24 98 00 00 	mov    QWORD PTR [r12+0x98],rsi
    28c6:	00 
    28c7:	48 89 5e e0          	mov    QWORD PTR [rsi-0x20],rbx
    28cb:	4c 89 7e e8          	mov    QWORD PTR [rsi-0x18],r15
    28cf:	b8 01 00 00 00       	mov    eax,0x1
    28d4:	48 89 46 f0          	mov    QWORD PTR [rsi-0x10],rax
    28d8:	b8 01 00 00 00       	mov    eax,0x1
    28dd:	48 89 46 f8          	mov    QWORD PTR [rsi-0x8],rax
    28e1:	48 31 f6             	xor    rsi,rsi
    28e4:	48 b8 00 00 00 00 00 	movabs rax,0x0
    28eb:	00 00 00 
			28e6: R_X86_64_64	do_callback
    28ee:	48 89 9c 24 08 03 00 	mov    QWORD PTR [rsp+0x308],rbx
    28f5:	00 
    28f6:	48 89 bc 24 10 03 00 	mov    QWORD PTR [rsp+0x310],rdi
    28fd:	00 
    28fe:	4c 89 ac 24 18 03 00 	mov    QWORD PTR [rsp+0x318],r13
    2905:	00 
    2906:	ff d0                	call   rax
    2908:	48 8b 9c 24 08 03 00 	mov    rbx,QWORD PTR [rsp+0x308]
    290f:	00 
    2910:	4c 8b ac 24 18 03 00 	mov    r13,QWORD PTR [rsp+0x318]
    2917:	00 
    2918:	48 89 c6             	mov    rsi,rax
    291b:	48 89 b4 24 08 03 00 	mov    QWORD PTR [rsp+0x308],rsi
    2922:	00 
    2923:	49 8b b4 24 98 00 00 	mov    rsi,QWORD PTR [r12+0x98]
    292a:	00 
    292b:	49 8b 7d 08          	mov    rdi,QWORD PTR [r13+0x8]
    292f:	49 89 b4 24 98 00 00 	mov    QWORD PTR [r12+0x98],rsi
    2936:	00 
    2937:	48 89 5e e0          	mov    QWORD PTR [rsi-0x20],rbx
    293b:	4c 89 7e e8          	mov    QWORD PTR [rsi-0x18],r15
    293f:	b8 01 00 00 00       	mov    eax,0x1
    2944:	48 89 46 f0          	mov    QWORD PTR [rsi-0x10],rax
    2948:	b8 01 00 00 00       	mov    eax,0x1
    294d:	48 89 46 f8          	mov    QWORD PTR [rsi-0x8],rax
    2951:	48 31 f6             	xor    rsi,rsi
    2954:	48 b8 00 00 00 00 00 	movabs rax,0x0
    295b:	00 00 00 
			2956: R_X86_64_64	do_callback
    295e:	48 89 9c 24 10 03 00 	mov    QWORD PTR [rsp+0x310],rbx
    2965:	00 
    2966:	48 89 bc 24 18 03 00 	mov    QWORD PTR [rsp+0x318],rdi
    296d:	00 
    296e:	4c 89 ac 24 20 03 00 	mov    QWORD PTR [rsp+0x320],r13
    2975:	00 
    2976:	ff d0                	call   rax
    2978:	48 8b 9c 24 10 03 00 	mov    rbx,QWORD PTR [rsp+0x310]
    297f:	00 
    2980:	4c 8b ac 24 20 03 00 	mov    r13,QWORD PTR [rsp+0x320]
    2987:	00 
    2988:	48 89 c6             	mov    rsi,rax
    298b:	48 89 b4 24 10 03 00 	mov    QWORD PTR [rsp+0x310],rsi
    2992:	00 
    2993:	49 8b b4 24 98 00 00 	mov    rsi,QWORD PTR [r12+0x98]
    299a:	00 
    299b:	49 8b 7d 08          	mov    rdi,QWORD PTR [r13+0x8]
    299f:	49 89 b4 24 98 00 00 	mov    QWORD PTR [r12+0x98],rsi
    29a6:	00 
    29a7:	48 89 5e e0          	mov    QWORD PTR [rsi-0x20],rbx
    29ab:	4c 89 7e e8          	mov    QWORD PTR [rsi-0x18],r15
    29af:	b8 01 00 00 00       	mov    eax,0x1
    29b4:	48 89 46 f0          	mov    QWORD PTR [rsi-0x10],rax
    29b8:	b8 01 00 00 00       	mov    eax,0x1
    29bd:	48 89 46 f8          	mov    QWORD PTR [rsi-0x8],rax
    29c1:	48 31 f6             	xor    rsi,rsi
    29c4:	48 b8 00 00 00 00 00 	movabs rax,0x0
    29cb:	00 00 00 
			29c6: R_X86_64_64	do_callback
    29ce:	48 89 9c 24 18 03 00 	mov    QWORD PTR [rsp+0x318],rbx
    29d5:	00 
    29d6:	48 89 bc 24 20 03 00 	mov    QWORD PTR [rsp+0x320],rdi
    29dd:	00 
    29de:	4c 89 ac 24 28 03 00 	mov    QWORD PTR [rsp+0x328],r13
    29e5:	00 
    29e6:	ff d0                	call   rax
    29e8:	48 8b 9c 24 18 03 00 	mov    rbx,QWORD PTR [rsp+0x318]
    29ef:	00 
    29f0:	4c 8b ac 24 28 03 00 	mov    r13,QWORD PTR [rsp+0x328]
    29f7:	00 
    29f8:	48 89 c6             	mov    rsi,rax
    29fb:	48 89 b4 24 18 03 00 	mov    QWORD PTR [rsp+0x318],rsi
    2a02:	00 
    2a03:	49 8b b4 24 98 00 00 	mov    rsi,QWORD PTR [r12+0x98]
    2a0a:	00 
    2a0b:	49 8b 7d 08          	mov    rdi,QWORD PTR [r13+0x8]
    2a0f:	49 89 b4 24 98 00 00 	mov    QWORD PTR [r12+0x98],rsi
    2a16:	00 
    2a17:	48 89 5e e0          	mov    QWORD PTR [rsi-0x20],rbx
    2a1b:	4c 89 7e e8          	mov    QWORD PTR [rsi-0x18],r15
    2a1f:	b8 01 00 00 00       	mov    eax,0x1
    2a24:	48 89 46 f0          	mov    QWORD PTR [rsi-0x10],rax
    2a28:	b8 01 00 00 00       	mov    eax,0x1
    2a2d:	48 89 46 f8          	mov    QWORD PTR [rsi-0x8],rax
    2a31:	48 31 f6             	xor    rsi,rsi
    2a34:	48 b8 00 00 00 00 00 	movabs rax,0x0
    2a3b:	00 00 00 
			2a36: R_X86_64_64	do_callback
    2a3e:	48 89 9c 24 20 03 00 	mov    QWORD PTR [rsp+0x320],rbx
    2a45:	00 
    2a46:	48 89 bc 24 28 03 00 	mov    QWORD PTR [rsp+0x328],rdi
    2a4d:	00 
    2a4e:	4c 89 ac 24 30 03 00 	mov    QWORD PTR [rsp+0x330],r13
    2a55:	00 
    2a56:	ff d0                	call   rax
    2a58:	48 8b 9c 24 20 03 00 	mov    rbx,QWORD PTR [rsp+0x320]
    2a5f:	00 
    2a60:	4c 8b ac 24 30 03 00 	mov    r13,QWORD PTR [rsp+0x330]
    2a67:	00 
    2a68:	48 89 c6             	mov    rsi,rax
    2a6b:	48 89 b4 24 20 03 00 	mov    QWORD PTR [rsp+0x320],rsi
    2a72:	00 
    2a73:	49 8b b4 24 98 00 00 	mov    rsi,QWORD PTR [r12+0x98]
    2a7a:	00 
    2a7b:	49 8b 7d 08          	mov    rdi,QWORD PTR [r13+0x8]
    2a7f:	49 89 b4 24 98 00 00 	mov    QWORD PTR [r12+0x98],rsi
    2a86:	00 
    2a87:	48 89 5e e0          	mov    QWORD PTR [rsi-0x20],rbx
    2a8b:	4c 89 7e e8          	mov    QWORD PTR [rsi-0x18],r15
    2a8f:	b8 01 00 00 00       	mov    eax,0x1
    2a94:	48 89 46 f0          	mov    QWORD PTR [rsi-0x10],rax
    2a98:	b8 01 00 00 00       	mov    eax,0x1
    2a9d:	48 89 46 f8          	mov    QWORD PTR [rsi-0x8],rax
    2aa1:	48 31 f6             	xor    rsi,rsi
    2aa4:	48 b8 00 00 00 00 00 	movabs rax,0x0
    2aab:	00 00 00 
			2aa6: R_X86_64_64	do_callback
    2aae:	48 89 9c 24 28 03 00 	mov    QWORD PTR [rsp+0x328],rbx
    2ab5:	00 
    2ab6:	48 89 bc 24 30 03 00 	mov    QWORD PTR [rsp+0x330],rdi
    2abd:	00 
    2abe:	4c 89 ac 24 38 03 00 	mov    QWORD PTR [rsp+0x338],r13
    2ac5:	00 
    2ac6:	ff d0                	call   rax
    2ac8:	48 8b 9c 24 28 03 00 	mov    rbx,QWORD PTR [rsp+0x328]
    2acf:	00 
    2ad0:	4c 8b ac 24 38 03 00 	mov    r13,QWORD PTR [rsp+0x338]
    2ad7:	00 
    2ad8:	49 89 c6             	mov    r14,rax
    2adb:	49 8b b4 24 98 00 00 	mov    rsi,QWORD PTR [r12+0x98]
    2ae2:	00 
    2ae3:	49 8b 7d 08          	mov    rdi,QWORD PTR [r13+0x8]
    2ae7:	49 89 b4 24 98 00 00 	mov    QWORD PTR [r12+0x98],rsi
    2aee:	00 
    2aef:	48 89 5e e0          	mov    QWORD PTR [rsi-0x20],rbx
    2af3:	4c 89 7e e8          	mov    QWORD PTR [rsi-0x18],r15
    2af7:	b8 01 00 00 00       	mov    eax,0x1
    2afc:	48 89 46 f0          	mov    QWORD PTR [rsi-0x10],rax
    2b00:	b8 01 00 00 00       	mov    eax,0x1
    2b05:	48 89 46 f8          	mov    QWORD PTR [rsi-0x8],rax
    2b09:	48 31 f6             	xor    rsi,rsi
    2b0c:	48 b8 00 00 00 00 00 	movabs rax,0x0
    2b13:	00 00 00 
			2b0e: R_X86_64_64	do_callback
    2b16:	48 89 bc 24 28 03 00 	mov    QWORD PTR [rsp+0x328],rdi
    2b1d:	00 
    2b1e:	4c 89 ac 24 30 03 00 	mov    QWORD PTR [rsp+0x330],r13
    2b25:	00 
    2b26:	4c 89 b4 24 38 03 00 	mov    QWORD PTR [rsp+0x338],r14
    2b2d:	00 
    2b2e:	ff d0                	call   rax
    2b30:	4c 8b ac 24 30 03 00 	mov    r13,QWORD PTR [rsp+0x330]
    2b37:	00 
    2b38:	4c 8b b4 24 38 03 00 	mov    r14,QWORD PTR [rsp+0x338]
    2b3f:	00 
    2b40:	48 89 c3             	mov    rbx,rax
    2b43:	49 8b b4 24 98 00 00 	mov    rsi,QWORD PTR [r12+0x98]
    2b4a:	00 
    2b4b:	48 89 b4 24 28 03 00 	mov    QWORD PTR [rsp+0x328],rsi
    2b52:	00 
    2b53:	49 c7 c7 d8 fc ff ff 	mov    r15,0xfffffffffffffcd8
    2b5a:	4d 03 3c 24          	add    r15,QWORD PTR [r12]
    2b5e:	4d 89 3c 24          	mov    QWORD PTR [r12],r15
    2b62:	49 8b 74 24 08       	mov    rsi,QWORD PTR [r12+0x8]
    2b67:	49 39 f7             	cmp    r15,rsi
    2b6a:	0f 83 52 00 00 00    	jae    2bc2 <trigger_gc_please+0x2bc2>
    2b70:	bf 64 00 00 00       	mov    edi,0x64
    2b75:	be 11 00 00 00       	mov    esi,0x11
    2b7a:	ba 01 00 00 00       	mov    edx,0x1
    2b7f:	48 31 c9             	xor    rcx,rcx
    2b82:	48 b8 00 00 00 00 00 	movabs rax,0x0
    2b89:	00 00 00 
			2b84: R_X86_64_64	caml_alloc_small_dispatch
    2b8c:	48 89 9c 24 30 03 00 	mov    QWORD PTR [rsp+0x330],rbx
    2b93:	00 
    2b94:	4c 89 ac 24 38 03 00 	mov    QWORD PTR [rsp+0x338],r13
    2b9b:	00 
    2b9c:	4c 89 b4 24 40 03 00 	mov    QWORD PTR [rsp+0x340],r14
    2ba3:	00 
    2ba4:	ff d0                	call   rax
    2ba6:	48 8b 9c 24 30 03 00 	mov    rbx,QWORD PTR [rsp+0x330]
    2bad:	00 
    2bae:	4c 8b ac 24 38 03 00 	mov    r13,QWORD PTR [rsp+0x338]
    2bb5:	00 
    2bb6:	4c 8b b4 24 40 03 00 	mov    r14,QWORD PTR [rsp+0x340]
    2bbd:	00 
    2bbe:	4d 8b 3c 24          	mov    r15,QWORD PTR [r12]
    2bc2:	be 00 90 01 00       	mov    esi,0x19000
    2bc7:	49 89 37             	mov    QWORD PTR [r15],rsi
    2bca:	49 83 c7 08          	add    r15,0x8
    2bce:	49 89 1f             	mov    QWORD PTR [r15],rbx
    2bd1:	4d 89 77 08          	mov    QWORD PTR [r15+0x8],r14
    2bd5:	48 8b b4 24 20 03 00 	mov    rsi,QWORD PTR [rsp+0x320]
    2bdc:	00 
    2bdd:	49 89 77 10          	mov    QWORD PTR [r15+0x10],rsi
    2be1:	48 8b b4 24 18 03 00 	mov    rsi,QWORD PTR [rsp+0x318]
    2be8:	00 
    2be9:	49 89 77 18          	mov    QWORD PTR [r15+0x18],rsi
    2bed:	48 8b b4 24 10 03 00 	mov    rsi,QWORD PTR [rsp+0x310]
    2bf4:	00 
    2bf5:	49 89 77 20          	mov    QWORD PTR [r15+0x20],rsi
    2bf9:	48 8b b4 24 08 03 00 	mov    rsi,QWORD PTR [rsp+0x308]
    2c00:	00 
    2c01:	49 89 77 28          	mov    QWORD PTR [r15+0x28],rsi
    2c05:	48 8b b4 24 00 03 00 	mov    rsi,QWORD PTR [rsp+0x300]
    2c0c:	00 
    2c0d:	49 89 77 30          	mov    QWORD PTR [r15+0x30],rsi
    2c11:	48 8b b4 24 f8 02 00 	mov    rsi,QWORD PTR [rsp+0x2f8]
    2c18:	00 
    2c19:	49 89 77 38          	mov    QWORD PTR [r15+0x38],rsi
    2c1d:	48 8b b4 24 f0 02 00 	mov    rsi,QWORD PTR [rsp+0x2f0]
    2c24:	00 
    2c25:	49 89 77 40          	mov    QWORD PTR [r15+0x40],rsi
    2c29:	48 8b b4 24 e8 02 00 	mov    rsi,QWORD PTR [rsp+0x2e8]
    2c30:	00 
    2c31:	49 89 77 48          	mov    QWORD PTR [r15+0x48],rsi
    2c35:	48 8b b4 24 e0 02 00 	mov    rsi,QWORD PTR [rsp+0x2e0]
    2c3c:	00 
    2c3d:	49 89 77 50          	mov    QWORD PTR [r15+0x50],rsi
    2c41:	48 8b b4 24 d8 02 00 	mov    rsi,QWORD PTR [rsp+0x2d8]
    2c48:	00 
    2c49:	49 89 77 58          	mov    QWORD PTR [r15+0x58],rsi
    2c4d:	48 8b b4 24 d0 02 00 	mov    rsi,QWORD PTR [rsp+0x2d0]
    2c54:	00 
    2c55:	49 89 77 60          	mov    QWORD PTR [r15+0x60],rsi
    2c59:	48 8b b4 24 c8 02 00 	mov    rsi,QWORD PTR [rsp+0x2c8]
    2c60:	00 
    2c61:	49 89 77 68          	mov    QWORD PTR [r15+0x68],rsi
    2c65:	48 8b b4 24 c0 02 00 	mov    rsi,QWORD PTR [rsp+0x2c0]
    2c6c:	00 
    2c6d:	49 89 77 70          	mov    QWORD PTR [r15+0x70],rsi
    2c71:	48 8b b4 24 b8 02 00 	mov    rsi,QWORD PTR [rsp+0x2b8]
    2c78:	00 
    2c79:	49 89 77 78          	mov    QWORD PTR [r15+0x78],rsi
    2c7d:	48 8b b4 24 b0 02 00 	mov    rsi,QWORD PTR [rsp+0x2b0]
    2c84:	00 
    2c85:	49 89 b7 80 00 00 00 	mov    QWORD PTR [r15+0x80],rsi
    2c8c:	48 8b b4 24 a8 02 00 	mov    rsi,QWORD PTR [rsp+0x2a8]
    2c93:	00 
    2c94:	49 89 b7 88 00 00 00 	mov    QWORD PTR [r15+0x88],rsi
    2c9b:	48 8b b4 24 a0 02 00 	mov    rsi,QWORD PTR [rsp+0x2a0]
    2ca2:	00 
    2ca3:	49 89 b7 90 00 00 00 	mov    QWORD PTR [r15+0x90],rsi
    2caa:	48 8b b4 24 98 02 00 	mov    rsi,QWORD PTR [rsp+0x298]
    2cb1:	00 
    2cb2:	49 89 b7 98 00 00 00 	mov    QWORD PTR [r15+0x98],rsi
    2cb9:	48 8b b4 24 90 02 00 	mov    rsi,QWORD PTR [rsp+0x290]
    2cc0:	00 
    2cc1:	49 89 b7 a0 00 00 00 	mov    QWORD PTR [r15+0xa0],rsi
    2cc8:	48 8b b4 24 88 02 00 	mov    rsi,QWORD PTR [rsp+0x288]
    2ccf:	00 
    2cd0:	49 89 b7 a8 00 00 00 	mov    QWORD PTR [r15+0xa8],rsi
    2cd7:	48 8b b4 24 80 02 00 	mov    rsi,QWORD PTR [rsp+0x280]
    2cde:	00 
    2cdf:	49 89 b7 b0 00 00 00 	mov    QWORD PTR [r15+0xb0],rsi
    2ce6:	48 8b b4 24 78 02 00 	mov    rsi,QWORD PTR [rsp+0x278]
    2ced:	00 
    2cee:	49 89 b7 b8 00 00 00 	mov    QWORD PTR [r15+0xb8],rsi
    2cf5:	48 8b b4 24 70 02 00 	mov    rsi,QWORD PTR [rsp+0x270]
    2cfc:	00 
    2cfd:	49 89 b7 c0 00 00 00 	mov    QWORD PTR [r15+0xc0],rsi
    2d04:	48 8b b4 24 68 02 00 	mov    rsi,QWORD PTR [rsp+0x268]
    2d0b:	00 
    2d0c:	49 89 b7 c8 00 00 00 	mov    QWORD PTR [r15+0xc8],rsi
    2d13:	48 8b b4 24 60 02 00 	mov    rsi,QWORD PTR [rsp+0x260]
    2d1a:	00 
    2d1b:	49 89 b7 d0 00 00 00 	mov    QWORD PTR [r15+0xd0],rsi
    2d22:	48 8b b4 24 58 02 00 	mov    rsi,QWORD PTR [rsp+0x258]
    2d29:	00 
    2d2a:	49 89 b7 d8 00 00 00 	mov    QWORD PTR [r15+0xd8],rsi
    2d31:	48 8b b4 24 50 02 00 	mov    rsi,QWORD PTR [rsp+0x250]
    2d38:	00 
    2d39:	49 89 b7 e0 00 00 00 	mov    QWORD PTR [r15+0xe0],rsi
    2d40:	48 8b b4 24 48 02 00 	mov    rsi,QWORD PTR [rsp+0x248]
    2d47:	00 
    2d48:	49 89 b7 e8 00 00 00 	mov    QWORD PTR [r15+0xe8],rsi
    2d4f:	48 8b b4 24 40 02 00 	mov    rsi,QWORD PTR [rsp+0x240]
    2d56:	00 
    2d57:	49 89 b7 f0 00 00 00 	mov    QWORD PTR [r15+0xf0],rsi
    2d5e:	48 8b b4 24 38 02 00 	mov    rsi,QWORD PTR [rsp+0x238]
    2d65:	00 
    2d66:	49 89 b7 f8 00 00 00 	mov    QWORD PTR [r15+0xf8],rsi
    2d6d:	48 8b b4 24 30 02 00 	mov    rsi,QWORD PTR [rsp+0x230]
    2d74:	00 
    2d75:	49 89 b7 00 01 00 00 	mov    QWORD PTR [r15+0x100],rsi
    2d7c:	48 8b b4 24 28 02 00 	mov    rsi,QWORD PTR [rsp+0x228]
    2d83:	00 
    2d84:	49 89 b7 08 01 00 00 	mov    QWORD PTR [r15+0x108],rsi
    2d8b:	48 8b b4 24 20 02 00 	mov    rsi,QWORD PTR [rsp+0x220]
    2d92:	00 
    2d93:	49 89 b7 10 01 00 00 	mov    QWORD PTR [r15+0x110],rsi
    2d9a:	48 8b b4 24 18 02 00 	mov    rsi,QWORD PTR [rsp+0x218]
    2da1:	00 
    2da2:	49 89 b7 18 01 00 00 	mov    QWORD PTR [r15+0x118],rsi
    2da9:	48 8b b4 24 10 02 00 	mov    rsi,QWORD PTR [rsp+0x210]
    2db0:	00 
    2db1:	49 89 b7 20 01 00 00 	mov    QWORD PTR [r15+0x120],rsi
    2db8:	48 8b b4 24 08 02 00 	mov    rsi,QWORD PTR [rsp+0x208]
    2dbf:	00 
    2dc0:	49 89 b7 28 01 00 00 	mov    QWORD PTR [r15+0x128],rsi
    2dc7:	48 8b b4 24 00 02 00 	mov    rsi,QWORD PTR [rsp+0x200]
    2dce:	00 
    2dcf:	49 89 b7 30 01 00 00 	mov    QWORD PTR [r15+0x130],rsi
    2dd6:	48 8b b4 24 f8 01 00 	mov    rsi,QWORD PTR [rsp+0x1f8]
    2ddd:	00 
    2dde:	49 89 b7 38 01 00 00 	mov    QWORD PTR [r15+0x138],rsi
    2de5:	48 8b b4 24 f0 01 00 	mov    rsi,QWORD PTR [rsp+0x1f0]
    2dec:	00 
    2ded:	49 89 b7 40 01 00 00 	mov    QWORD PTR [r15+0x140],rsi
    2df4:	48 8b b4 24 e8 01 00 	mov    rsi,QWORD PTR [rsp+0x1e8]
    2dfb:	00 
    2dfc:	49 89 b7 48 01 00 00 	mov    QWORD PTR [r15+0x148],rsi
    2e03:	48 8b b4 24 e0 01 00 	mov    rsi,QWORD PTR [rsp+0x1e0]
    2e0a:	00 
    2e0b:	49 89 b7 50 01 00 00 	mov    QWORD PTR [r15+0x150],rsi
    2e12:	48 8b b4 24 d8 01 00 	mov    rsi,QWORD PTR [rsp+0x1d8]
    2e19:	00 
    2e1a:	49 89 b7 58 01 00 00 	mov    QWORD PTR [r15+0x158],rsi
    2e21:	48 8b b4 24 d0 01 00 	mov    rsi,QWORD PTR [rsp+0x1d0]
    2e28:	00 
    2e29:	49 89 b7 60 01 00 00 	mov    QWORD PTR [r15+0x160],rsi
    2e30:	48 8b b4 24 c8 01 00 	mov    rsi,QWORD PTR [rsp+0x1c8]
    2e37:	00 
    2e38:	49 89 b7 68 01 00 00 	mov    QWORD PTR [r15+0x168],rsi
    2e3f:	48 8b b4 24 c0 01 00 	mov    rsi,QWORD PTR [rsp+0x1c0]
    2e46:	00 
    2e47:	49 89 b7 70 01 00 00 	mov    QWORD PTR [r15+0x170],rsi
    2e4e:	48 8b b4 24 b8 01 00 	mov    rsi,QWORD PTR [rsp+0x1b8]
    2e55:	00 
    2e56:	49 89 b7 78 01 00 00 	mov    QWORD PTR [r15+0x178],rsi
    2e5d:	48 8b b4 24 b0 01 00 	mov    rsi,QWORD PTR [rsp+0x1b0]
    2e64:	00 
    2e65:	49 89 b7 80 01 00 00 	mov    QWORD PTR [r15+0x180],rsi
    2e6c:	48 8b b4 24 a8 01 00 	mov    rsi,QWORD PTR [rsp+0x1a8]
    2e73:	00 
    2e74:	49 89 b7 88 01 00 00 	mov    QWORD PTR [r15+0x188],rsi
    2e7b:	48 8b b4 24 a0 01 00 	mov    rsi,QWORD PTR [rsp+0x1a0]
    2e82:	00 
    2e83:	49 89 b7 90 01 00 00 	mov    QWORD PTR [r15+0x190],rsi
    2e8a:	48 8b b4 24 98 01 00 	mov    rsi,QWORD PTR [rsp+0x198]
    2e91:	00 
    2e92:	49 89 b7 98 01 00 00 	mov    QWORD PTR [r15+0x198],rsi
    2e99:	48 8b b4 24 90 01 00 	mov    rsi,QWORD PTR [rsp+0x190]
    2ea0:	00 
    2ea1:	49 89 b7 a0 01 00 00 	mov    QWORD PTR [r15+0x1a0],rsi
    2ea8:	48 8b b4 24 88 01 00 	mov    rsi,QWORD PTR [rsp+0x188]
    2eaf:	00 
    2eb0:	49 89 b7 a8 01 00 00 	mov    QWORD PTR [r15+0x1a8],rsi
    2eb7:	48 8b b4 24 80 01 00 	mov    rsi,QWORD PTR [rsp+0x180]
    2ebe:	00 
    2ebf:	49 89 b7 b0 01 00 00 	mov    QWORD PTR [r15+0x1b0],rsi
    2ec6:	48 8b b4 24 78 01 00 	mov    rsi,QWORD PTR [rsp+0x178]
    2ecd:	00 
    2ece:	49 89 b7 b8 01 00 00 	mov    QWORD PTR [r15+0x1b8],rsi
    2ed5:	48 8b b4 24 70 01 00 	mov    rsi,QWORD PTR [rsp+0x170]
    2edc:	00 
    2edd:	49 89 b7 c0 01 00 00 	mov    QWORD PTR [r15+0x1c0],rsi
    2ee4:	48 8b b4 24 68 01 00 	mov    rsi,QWORD PTR [rsp+0x168]
    2eeb:	00 
    2eec:	49 89 b7 c8 01 00 00 	mov    QWORD PTR [r15+0x1c8],rsi
    2ef3:	48 8b b4 24 60 01 00 	mov    rsi,QWORD PTR [rsp+0x160]
    2efa:	00 
    2efb:	49 89 b7 d0 01 00 00 	mov    QWORD PTR [r15+0x1d0],rsi
    2f02:	48 8b b4 24 58 01 00 	mov    rsi,QWORD PTR [rsp+0x158]
    2f09:	00 
    2f0a:	49 89 b7 d8 01 00 00 	mov    QWORD PTR [r15+0x1d8],rsi
    2f11:	48 8b b4 24 50 01 00 	mov    rsi,QWORD PTR [rsp+0x150]
    2f18:	00 
    2f19:	49 89 b7 e0 01 00 00 	mov    QWORD PTR [r15+0x1e0],rsi
    2f20:	48 8b b4 24 48 01 00 	mov    rsi,QWORD PTR [rsp+0x148]
    2f27:	00 
    2f28:	49 89 b7 e8 01 00 00 	mov    QWORD PTR [r15+0x1e8],rsi
    2f2f:	48 8b b4 24 40 01 00 	mov    rsi,QWORD PTR [rsp+0x140]
    2f36:	00 
    2f37:	49 89 b7 f0 01 00 00 	mov    QWORD PTR [r15+0x1f0],rsi
    2f3e:	48 8b b4 24 38 01 00 	mov    rsi,QWORD PTR [rsp+0x138]
    2f45:	00 
    2f46:	49 89 b7 f8 01 00 00 	mov    QWORD PTR [r15+0x1f8],rsi
    2f4d:	48 8b b4 24 30 01 00 	mov    rsi,QWORD PTR [rsp+0x130]
    2f54:	00 
    2f55:	49 89 b7 00 02 00 00 	mov    QWORD PTR [r15+0x200],rsi
    2f5c:	48 8b b4 24 28 01 00 	mov    rsi,QWORD PTR [rsp+0x128]
    2f63:	00 
    2f64:	49 89 b7 08 02 00 00 	mov    QWORD PTR [r15+0x208],rsi
    2f6b:	48 8b b4 24 20 01 00 	mov    rsi,QWORD PTR [rsp+0x120]
    2f72:	00 
    2f73:	49 89 b7 10 02 00 00 	mov    QWORD PTR [r15+0x210],rsi
    2f7a:	48 8b b4 24 18 01 00 	mov    rsi,QWORD PTR [rsp+0x118]
    2f81:	00 
    2f82:	49 89 b7 18 02 00 00 	mov    QWORD PTR [r15+0x218],rsi
    2f89:	48 8b b4 24 10 01 00 	mov    rsi,QWORD PTR [rsp+0x110]
    2f90:	00 
    2f91:	49 89 b7 20 02 00 00 	mov    QWORD PTR [r15+0x220],rsi
    2f98:	48 8b b4 24 08 01 00 	mov    rsi,QWORD PTR [rsp+0x108]
    2f9f:	00 
    2fa0:	49 89 b7 28 02 00 00 	mov    QWORD PTR [r15+0x228],rsi
    2fa7:	48 8b b4 24 00 01 00 	mov    rsi,QWORD PTR [rsp+0x100]
    2fae:	00 
    2faf:	49 89 b7 30 02 00 00 	mov    QWORD PTR [r15+0x230],rsi
    2fb6:	48 8b b4 24 f8 00 00 	mov    rsi,QWORD PTR [rsp+0xf8]
    2fbd:	00 
    2fbe:	49 89 b7 38 02 00 00 	mov    QWORD PTR [r15+0x238],rsi
    2fc5:	48 8b b4 24 f0 00 00 	mov    rsi,QWORD PTR [rsp+0xf0]
    2fcc:	00 
    2fcd:	49 89 b7 40 02 00 00 	mov    QWORD PTR [r15+0x240],rsi
    2fd4:	48 8b b4 24 e8 00 00 	mov    rsi,QWORD PTR [rsp+0xe8]
    2fdb:	00 
    2fdc:	49 89 b7 48 02 00 00 	mov    QWORD PTR [r15+0x248],rsi
    2fe3:	48 8b b4 24 e0 00 00 	mov    rsi,QWORD PTR [rsp+0xe0]
    2fea:	00 
    2feb:	49 89 b7 50 02 00 00 	mov    QWORD PTR [r15+0x250],rsi
    2ff2:	48 8b b4 24 d8 00 00 	mov    rsi,QWORD PTR [rsp+0xd8]
    2ff9:	00 
    2ffa:	49 89 b7 58 02 00 00 	mov    QWORD PTR [r15+0x258],rsi
    3001:	48 8b b4 24 d0 00 00 	mov    rsi,QWORD PTR [rsp+0xd0]
    3008:	00 
    3009:	49 89 b7 60 02 00 00 	mov    QWORD PTR [r15+0x260],rsi
    3010:	48 8b b4 24 c8 00 00 	mov    rsi,QWORD PTR [rsp+0xc8]
    3017:	00 
    3018:	49 89 b7 68 02 00 00 	mov    QWORD PTR [r15+0x268],rsi
    301f:	48 8b b4 24 c0 00 00 	mov    rsi,QWORD PTR [rsp+0xc0]
    3026:	00 
    3027:	49 89 b7 70 02 00 00 	mov    QWORD PTR [r15+0x270],rsi
    302e:	48 8b b4 24 b8 00 00 	mov    rsi,QWORD PTR [rsp+0xb8]
    3035:	00 
    3036:	49 89 b7 78 02 00 00 	mov    QWORD PTR [r15+0x278],rsi
    303d:	48 8b b4 24 b0 00 00 	mov    rsi,QWORD PTR [rsp+0xb0]
    3044:	00 
    3045:	49 89 b7 80 02 00 00 	mov    QWORD PTR [r15+0x280],rsi
    304c:	48 8b b4 24 a8 00 00 	mov    rsi,QWORD PTR [rsp+0xa8]
    3053:	00 
    3054:	49 89 b7 88 02 00 00 	mov    QWORD PTR [r15+0x288],rsi
    305b:	48 8b b4 24 a0 00 00 	mov    rsi,QWORD PTR [rsp+0xa0]
    3062:	00 
    3063:	49 89 b7 90 02 00 00 	mov    QWORD PTR [r15+0x290],rsi
    306a:	48 8b b4 24 98 00 00 	mov    rsi,QWORD PTR [rsp+0x98]
    3071:	00 
    3072:	49 89 b7 98 02 00 00 	mov    QWORD PTR [r15+0x298],rsi
    3079:	48 8b b4 24 90 00 00 	mov    rsi,QWORD PTR [rsp+0x90]
    3080:	00 
    3081:	49 89 b7 a0 02 00 00 	mov    QWORD PTR [r15+0x2a0],rsi
    3088:	48 8b b4 24 88 00 00 	mov    rsi,QWORD PTR [rsp+0x88]
    308f:	00 
    3090:	49 89 b7 a8 02 00 00 	mov    QWORD PTR [r15+0x2a8],rsi
    3097:	48 8b b4 24 80 00 00 	mov    rsi,QWORD PTR [rsp+0x80]
    309e:	00 
    309f:	49 89 b7 b0 02 00 00 	mov    QWORD PTR [r15+0x2b0],rsi
    30a6:	48 8b 74 24 78       	mov    rsi,QWORD PTR [rsp+0x78]
    30ab:	49 89 b7 b8 02 00 00 	mov    QWORD PTR [r15+0x2b8],rsi
    30b2:	48 8b 74 24 70       	mov    rsi,QWORD PTR [rsp+0x70]
    30b7:	49 89 b7 c0 02 00 00 	mov    QWORD PTR [r15+0x2c0],rsi
    30be:	48 8b 74 24 68       	mov    rsi,QWORD PTR [rsp+0x68]
    30c3:	49 89 b7 c8 02 00 00 	mov    QWORD PTR [r15+0x2c8],rsi
    30ca:	48 8b 74 24 60       	mov    rsi,QWORD PTR [rsp+0x60]
    30cf:	49 89 b7 d0 02 00 00 	mov    QWORD PTR [r15+0x2d0],rsi
    30d6:	48 8b 74 24 58       	mov    rsi,QWORD PTR [rsp+0x58]
    30db:	49 89 b7 d8 02 00 00 	mov    QWORD PTR [r15+0x2d8],rsi
    30e2:	48 8b 74 24 50       	mov    rsi,QWORD PTR [rsp+0x50]
    30e7:	49 89 b7 e0 02 00 00 	mov    QWORD PTR [r15+0x2e0],rsi
    30ee:	48 8b 74 24 48       	mov    rsi,QWORD PTR [rsp+0x48]
    30f3:	49 89 b7 e8 02 00 00 	mov    QWORD PTR [r15+0x2e8],rsi
    30fa:	48 8b 74 24 40       	mov    rsi,QWORD PTR [rsp+0x40]
    30ff:	49 89 b7 f0 02 00 00 	mov    QWORD PTR [r15+0x2f0],rsi
    3106:	48 8b 74 24 38       	mov    rsi,QWORD PTR [rsp+0x38]
    310b:	49 89 b7 f8 02 00 00 	mov    QWORD PTR [r15+0x2f8],rsi
    3112:	48 8b 74 24 30       	mov    rsi,QWORD PTR [rsp+0x30]
    3117:	49 89 b7 00 03 00 00 	mov    QWORD PTR [r15+0x300],rsi
    311e:	48 8b 74 24 28       	mov    rsi,QWORD PTR [rsp+0x28]
    3123:	49 89 b7 08 03 00 00 	mov    QWORD PTR [r15+0x308],rsi
    312a:	48 8b 74 24 20       	mov    rsi,QWORD PTR [rsp+0x20]
    312f:	49 89 b7 10 03 00 00 	mov    QWORD PTR [r15+0x310],rsi
    3136:	48 8b 74 24 18       	mov    rsi,QWORD PTR [rsp+0x18]
    313b:	49 89 b7 18 03 00 00 	mov    QWORD PTR [r15+0x318],rsi
    3142:	48 c7 c6 e8 ff ff ff 	mov    rsi,0xffffffffffffffe8
    3149:	49 03 34 24          	add    rsi,QWORD PTR [r12]
    314d:	49 89 34 24          	mov    QWORD PTR [r12],rsi
    3151:	49 8b 7c 24 08       	mov    rdi,QWORD PTR [r12+0x8]
    3156:	48 39 fe             	cmp    rsi,rdi
    3159:	0f 83 36 00 00 00    	jae    3195 <trigger_gc_please+0x3195>
    315f:	bf 02 00 00 00       	mov    edi,0x2
    3164:	be 11 00 00 00       	mov    esi,0x11
    3169:	ba 01 00 00 00       	mov    edx,0x1
    316e:	48 31 c9             	xor    rcx,rcx
    3171:	48 b8 00 00 00 00 00 	movabs rax,0x0
    3178:	00 00 00 
			3173: R_X86_64_64	caml_alloc_small_dispatch
    317b:	4c 89 7c 24 18       	mov    QWORD PTR [rsp+0x18],r15
    3180:	4c 89 6c 24 20       	mov    QWORD PTR [rsp+0x20],r13
    3185:	ff d0                	call   rax
    3187:	4c 8b 7c 24 18       	mov    r15,QWORD PTR [rsp+0x18]
    318c:	4c 8b 6c 24 20       	mov    r13,QWORD PTR [rsp+0x20]
    3191:	49 8b 34 24          	mov    rsi,QWORD PTR [r12]
    3195:	bf 00 08 00 00       	mov    edi,0x800
    319a:	48 89 3e             	mov    QWORD PTR [rsi],rdi
    319d:	48 83 c6 08          	add    rsi,0x8
    31a1:	48 89 f0             	mov    rax,rsi
    31a4:	4c 89 38             	mov    QWORD PTR [rax],r15
    31a7:	48 8b 34 24          	mov    rsi,QWORD PTR [rsp]
    31ab:	48 89 70 08          	mov    QWORD PTR [rax+0x8],rsi
    31af:	48 8b 7c 24 10       	mov    rdi,QWORD PTR [rsp+0x10]
    31b4:	48 83 c7 fe          	add    rdi,0xfffffffffffffffe
    31b8:	48 8b b4 24 28 03 00 	mov    rsi,QWORD PTR [rsp+0x328]
    31bf:	00 
    31c0:	48 83 c6 f0          	add    rsi,0xfffffffffffffff0
    31c4:	48 8b 8c 24 28 03 00 	mov    rcx,QWORD PTR [rsp+0x328]
    31cb:	00 
    31cc:	48 89 79 f0          	mov    QWORD PTR [rcx-0x10],rdi
    31d0:	48 8b bc 24 28 03 00 	mov    rdi,QWORD PTR [rsp+0x328]
    31d7:	00 
    31d8:	48 89 47 f8          	mov    QWORD PTR [rdi-0x8],rax
    31dc:	bf 02 00 00 00       	mov    edi,0x2
    31e1:	e9 07 00 00 00       	jmp    31ed <trigger_gc_please+0x31ed>
    31e6:	4c 8b 2c 24          	mov    r13,QWORD PTR [rsp]
    31ea:	48 31 ff             	xor    rdi,rdi
    31ed:	49 89 b4 24 98 00 00 	mov    QWORD PTR [r12+0x98],rsi
    31f4:	00 
    31f5:	4c 89 e8             	mov    rax,r13
    31f8:	48 89 fa             	mov    rdx,rdi
    31fb:	4c 8b a4 24 50 03 00 	mov    r12,QWORD PTR [rsp+0x350]
    3202:	00 
    3203:	4c 8b ac 24 58 03 00 	mov    r13,QWORD PTR [rsp+0x358]
    320a:	00 
    320b:	4c 8b b4 24 60 03 00 	mov    r14,QWORD PTR [rsp+0x360]
    3212:	00 
    3213:	48 8b 9c 24 68 03 00 	mov    rbx,QWORD PTR [rsp+0x368]
    321a:	00 
    321b:	4c 8b bc 24 70 03 00 	mov    r15,QWORD PTR [rsp+0x370]
    3222:	00 
    3223:	48 81 c4 80 03 00 00 	add    rsp,0x380
    322a:	48 89 ec             	mov    rsp,rbp
    322d:	5d                   	pop    rbp
    322e:	c3                   	ret    
